disassembly for LU


section .text
_start()
    0x100001680:            bc 10 20 00  clr       %fp
    0x100001684:            e0 5b a8 7f  ldx       [%sp + 0x87f], %l0
    0x100001688:            1b 00 00 00  sethi     %hi(0x0), %o5
    0x10000168c:            9a 13 60 01  or        %o5, 0x1, %o5
    0x100001690:            9b 2b 70 20  sllx      %o5, 0x20, %o5
    0x100001694:            13 00 04 28  sethi     %hi(0x10a000), %o1
    0x100001698:            92 12 40 0d  or        %o1, %o5, %o1
    0x10000169c:            e0 22 61 40  st        %l0, [%o1 + 0x140]
    0x1000016a0:            a2 03 a8 87  add       %sp, 0x887, %l1
    0x1000016a4:            1b 00 00 00  sethi     %hi(0x0), %o5
    0x1000016a8:            9a 13 60 01  or        %o5, 0x1, %o5
    0x1000016ac:            9b 2b 70 20  sllx      %o5, 0x20, %o5
    0x1000016b0:            13 00 04 28  sethi     %hi(0x10a000), %o1
    0x1000016b4:            92 12 40 0d  or        %o1, %o5, %o1
    0x1000016b8:            e2 72 61 38  stx       %l1, [%o1 + 0x138]
    0x1000016bc:            1b 00 00 00  sethi     %hi(0x0), %o5
    0x1000016c0:            9a 13 60 01  or        %o5, 0x1, %o5
    0x1000016c4:            9b 2b 70 20  sllx      %o5, 0x20, %o5
    0x1000016c8:            13 00 04 25  sethi     %hi(0x109400), %o1
    0x1000016cc:            92 12 40 0d  or        %o1, %o5, %o1
    0x1000016d0:            e2 72 60 c0  stx       %l1, [%o1 + 0xc0]
    0x1000016d4:            a5 2c 20 03  sll       %l0, 0x3, %l2
    0x1000016d8:            a4 04 a0 08  add       %l2, 0x8, %l2
    0x1000016dc:            a4 04 40 12  add       %l1, %l2, %l2
    0x1000016e0:            1b 00 00 00  sethi     %hi(0x0), %o5
    0x1000016e4:            9a 13 60 01  or        %o5, 0x1, %o5
    0x1000016e8:            9b 2b 70 20  sllx      %o5, 0x20, %o5
    0x1000016ec:            27 00 04 25  sethi     %hi(0x109400), %l3
    0x1000016f0:            a6 14 c0 0d  or        %l3, %o5, %l3
    0x1000016f4:            e8 5c e0 98  ldx       [%l3 + 0x98], %l4
    0x1000016f8:            80 a5 20 00  cmp       %l4, 0x0
    0x1000016fc:            12 80 00 03  bne       +0xc          <0x100001708>
    0x100001700:            01 00 00 00  nop
    0x100001704:            e4 74 e0 98  stx       %l2, [%l3 + 0x98]
    0x100001708:            2b 00 00 00  sethi     %hi(0x0), %l5
    0x10000170c:            aa 15 60 01  or        %l5, 0x1, %l5
    0x100001710:            80 90 00 15  tst       %l5
    0x100001714:            02 80 00 15  be        +0x54         <0x100001768>
    0x100001718:            01 00 00 00  nop
    0x10000171c:            1b 00 00 00  sethi     %hi(0x0), %o5
    0x100001720:            9a 13 60 01  or        %o5, 0x1, %o5
    0x100001724:            9b 2b 70 20  sllx      %o5, 0x20, %o5
    0x100001728:            29 00 04 25  sethi     %hi(0x109400), %l4
    0x10000172c:            a8 15 00 0d  or        %l4, %o5, %l4
    0x100001730:            ad 2d 60 02  sll       %l5, 0x2, %l6
    0x100001734:            c1 2d 20 b8  stx       %fsr, [%l4 + 0xb8]
    0x100001738:            ae 0d a3 00  and       %l6, 0x300, %l7
    0x10000173c:            ac 0d 60 3f  and       %l5, 0x3f, %l6
    0x100001740:            ac 15 80 17  or        %l6, %l7, %l6
    0x100001744:            ab 2d a0 16  sll       %l6, 0x16, %l5
    0x100001748:            ec 05 20 b8  ld        [%l4 + 0xb8], %l6
    0x10000174c:            ae 20 00 17  neg       %l7
    0x100001750:            af 3d e0 1f  sra       %l7, 0x1f, %l7
    0x100001754:            af 2d e0 1e  sll       %l7, 0x1e, %l7
    0x100001758:            ac 2d 80 17  andn      %l6, %l7, %l6
    0x10000175c:            ac 15 80 15  or        %l6, %l5, %l6
    0x100001760:            ec 25 20 b8  st        %l6, [%l4 + 0xb8]
    0x100001764:            c1 0d 20 b8  ldx       [%l4 + 0xb8], %fsr
    0x100001768:            9c 23 a0 30  sub       %sp, 0x30, %sp
    0x10000176c:            80 90 00 01  tst       %g1
    0x100001770:            02 80 00 04  be        +0x10         <0x100001780>
    0x100001774:            01 00 00 00  nop
    0x100001778:            40 04 1d c2  call      +0x107708     <0x100108e80>
    0x10000177c:            90 10 00 01  mov       %g1, %o0
    0x100001780:            1b 00 00 00  sethi     %hi(0x0), %o5
    0x100001784:            9a 13 60 01  or        %o5, 0x1, %o5
    0x100001788:            9b 2b 70 20  sllx      %o5, 0x20, %o5
    0x10000178c:            11 00 00 21  sethi     %hi(0x8400), %o0
    0x100001790:            90 12 00 0d  or        %o0, %o5, %o0
    0x100001794:            40 04 1d bb  call      +0x1076ec     <0x100108e80>
    0x100001798:            90 12 21 10  or        %o0, 0x110, %o0
    0x10000179c:            13 00 00 00  sethi     %hi(0x0), %o1
    0x1000017a0:            92 12 60 01  or        %o1, 0x1, %o1
    0x1000017a4:            93 2a 70 20  sllx      %o1, 0x20, %o1
    0x1000017a8:            11 00 04 25  sethi     %hi(0x109400), %o0
    0x1000017ac:            90 12 00 09  or        %o0, %o1, %o0
    0x1000017b0:            d0 5a 20 c8  ldx       [%o0 + 0xc8], %o0
    0x1000017b4:            80 90 00 08  tst       %o0
    0x1000017b8:            12 80 00 0d  bne       +0x34         <0x1000017ec>
    0x1000017bc:            01 00 00 00  nop
    0x1000017c0:            13 00 00 00  sethi     %hi(0x0), %o1
    0x1000017c4:            92 12 60 01  or        %o1, 0x1, %o1
    0x1000017c8:            93 2a 70 20  sllx      %o1, 0x20, %o1
    0x1000017cc:            11 00 04 25  sethi     %hi(0x109400), %o0
    0x1000017d0:            90 12 00 09  or        %o0, %o1, %o0
    0x1000017d4:            d0 5a 20 d0  ldx       [%o0 + 0xd0], %o0
    0x1000017d8:            80 90 00 08  tst       %o0
    0x1000017dc:            02 80 00 04  be        +0x10         <0x1000017ec>
    0x1000017e0:            01 00 00 00  nop
    0x1000017e4:            40 04 1d a7  call      +0x10769c     <0x100108e80>
    0x1000017e8:            01 00 00 00  nop
    0x1000017ec:            40 00 1b 45  call      +0x6d14       <0x100008500>
    0x1000017f0:            01 00 00 00  nop
    0x1000017f4:            90 10 00 10  mov       %l0, %o0
    0x1000017f8:            92 10 00 11  mov       %l1, %o1
    0x1000017fc:            40 00 00 0f  call      +0x3c         <0x100001838>
    0x100001800:            94 10 00 12  mov       %l2, %o2
    0x100001804:            40 04 1d a7  call      +0x10769c     <0x100108ea0>
    0x100001808:            01 00 00 00  nop
    0x10000180c:            40 04 1d ad  call      +0x1076b4     <0x100108ec0>
    0x100001810:            01 00 00 00  nop
    0x100001814:            00 00 00 00  illtrap   0x0
    0x100001818:            3f 00 00 20  sethi     %hi(0x8000), %i7
    0x10000181c:            00 40 00 80  bn,pn     %icc, +0x200  <0x100001a1c>
    0x100001820:            40 24 00 00  call      +0x900000     <0x100901820>
    0x100001824:            00 00 00 00  illtrap   0x0
    0x100001828:            00 00 00 00  illtrap   0x0
    0x10000182c:            00 00 00 00  illtrap   0x0
    0x100001830:            3f f0 00 00  0x3ff00000
    0x100001834:            00 00 00 00  illtrap   0x0
main()
    0x100001838:            9d e3 bb f0  save      %sp, -0x410, %sp
    0x10000183c:            37 00 04 00  sethi     %hi(0x100000), %i3
    0x100001840:            a4 16 e1 0a  or        %i3, 0x10a, %l2
    0x100001844:            b7 2c b0 0c  sllx      %l2, 0xc, %i3
    0x100001848:            90 07 a7 ef  add       %fp, 0x7ef, %o0
    0x10000184c:            92 10 20 00  clr       %o1
    0x100001850:            3b 00 04 00  sethi     %hi(0x100000), %i5
    0x100001854:            2b 00 04 00  sethi     %hi(0x100000), %l5
    0x100001858:            b8 17 61 0a  or        %i5, 0x10a, %i4
    0x10000185c:            a1 2f 30 0c  sllx      %i4, 0xc, %l0
    0x100001860:            a3 3e 20 00  sra       %i0, 0x0, %l1
    0x100001864:            2f 00 04 00  sethi     %hi(0x100000), %l7
    0x100001868:            a8 15 e1 09  or        %l7, 0x109, %l4
    0x10000186c:            f6 73 a8 cf  stx       %i3, [%sp + 0x8cf]
    0x100001870:            40 04 1d 9c  call      +0x107670     <0x100108ee0>
    0x100001874:            a4 04 21 48  add       %l0, 0x148, %l2
    0x100001878:            96 15 60 08  or        %l5, 0x8, %o3
    0x10000187c:            93 2a f0 0c  sllx      %o3, 0xc, %o1
    0x100001880:            b8 02 65 28  add       %o1, 0x528, %i4
    0x100001884:            94 10 00 1c  mov       %i4, %o2
    0x100001888:            92 10 00 19  mov       %i1, %o1
    0x10000188c:            90 10 00 11  mov       %l1, %o0
    0x100001890:            c4 5f a7 ef  ldx       [%fp + 0x7ef], %g2
    0x100001894:            da 5f a7 f7  ldx       [%fp + 0x7f7], %o5
    0x100001898:            f8 73 a8 bf  stx       %i4, [%sp + 0x8bf]
    0x10000189c:            9f 28 b0 05  sllx      %g2, 0x5, %o7
    0x1000018a0:            98 20 80 0f  sub       %g2, %o7, %o4
    0x1000018a4:            89 2b 30 09  sllx      %o4, 0x9, %g4
    0x1000018a8:            b4 21 00 02  sub       %g4, %g2, %i2
    0x1000018ac:            8b 2e b0 06  sllx      %i2, 0x6, %g5
    0x1000018b0:            a6 21 40 1a  sub       %g5, %i2, %l3
    0x1000018b4:            86 20 80 13  sub       %g2, %l3, %g3
    0x1000018b8:            ba 03 40 03  add       %o5, %g3, %i5
    0x1000018bc:            39 00 04 00  sethi     %hi(0x100000), %i4
    0x1000018c0:            b6 17 21 09  or        %i4, 0x109, %i3
    0x1000018c4:            40 04 1d 8f  call      +0x10763c     <0x100108f00>
    0x1000018c8:            fa 73 a8 c7  stx       %i5, [%sp + 0x8c7]
    0x1000018cc:            15 00 04 00  sethi     %hi(0x100000), %o2
    0x1000018d0:            ac 12 a1 09  or        %o2, 0x109, %l6
    0x1000018d4:            95 2d 30 0c  sllx      %l4, 0xc, %o2
    0x1000018d8:            93 2e f0 0c  sllx      %i3, 0xc, %o1
    0x1000018dc:            80 a2 3f ff  cmp       %o0, -0x1
    0x1000018e0:            d2 73 a8 b7  stx       %o1, [%sp + 0x8b7]
    0x1000018e4:            bb 2d b0 0c  sllx      %l6, 0xc, %i5
    0x1000018e8:            d4 73 a8 d7  stx       %o2, [%sp + 0x8d7]
    0x1000018ec:            02 60 00 4b  be,pn     %xcc, +0x12c  <0x100001a18>
    0x1000018f0:            a6 07 64 e0  add       %i5, 0x4e0, %l3
    0x1000018f4:            80 a2 20 70  cmp       %o0, 0x70
    0x1000018f8:            2b 00 04 00  sethi     %hi(0x100000), %l5
    0x1000018fc:            9a 15 61 0a  or        %l5, 0x10a, %o5
    0x100001900:            06 60 00 1a  bl,pn     %xcc, +0x68   <0x100001968>
    0x100001904:            af 2b 70 0c  sllx      %o5, 0xc, %l7
    0x100001908:            12 60 00 07  bne,pn    %xcc, +0x1c   <0x100001924>
    0x10000190c:            80 a2 20 73  cmp       %o0, 0x73
    0x100001910:            40 04 1d 84  call      +0x107610     <0x100108f20>
    0x100001914:            d0 5d e1 50  ldx       [%l7 + 0x150], %o0
    0x100001918:            d0 77 64 e0  stx       %o0, [%i5 + 0x4e0]
    0x10000191c:            10 80 00 35  ba        +0xd4         <0x1000019f0>
    0x100001920:            92 10 00 19  mov       %i1, %o1
    0x100001924:            12 60 00 08  bne,pn    %xcc, +0x20   <0x100001944>
    0x100001928:            17 00 04 00  sethi     %hi(0x100000), %o3
    0x10000192c:            84 12 e1 09  or        %o3, 0x109, %g2
    0x100001930:            b9 28 b0 0c  sllx      %g2, 0xc, %i4
    0x100001934:            b6 10 20 01  mov       0x1, %i3
    0x100001938:            f6 77 25 00  stx       %i3, [%i4 + 0x500]
    0x10000193c:            10 80 00 2d  ba        +0xb4         <0x1000019f0>
    0x100001940:            92 10 00 19  mov       %i1, %o1
    0x100001944:            80 a2 20 74  cmp       %o0, 0x74
    0x100001948:            12 60 00 29  bne,pn    %xcc, +0xa4   <0x1000019ec>
    0x10000194c:            d6 5b a8 b7  ldx       [%sp + 0x8b7], %o3
    0x100001950:            b4 10 20 00  clr       %i2
    0x100001954:            da 5a e4 f0  ldx       [%o3 + 0x4f0], %o5
    0x100001958:            b5 7b 64 01  movre     %o5, 0x1, %i2
    0x10000195c:            f4 72 e4 f0  stx       %i2, [%o3 + 0x4f0]
    0x100001960:            10 80 00 24  ba        +0x90         <0x1000019f0>
    0x100001964:            92 10 00 19  mov       %i1, %o1
    0x100001968:            80 a2 20 6e  cmp       %o0, 0x6e
    0x10000196c:            26 60 00 14  bl,a,pn   %xcc, +0x50   <0x1000019bc>
    0x100001970:            80 a2 20 62  cmp       %o0, 0x62
    0x100001974:            12 60 00 0a  bne,pn    %xcc, +0x28   <0x10000199c>
    0x100001978:            80 a2 20 6f  cmp       %o0, 0x6f
    0x10000197c:            40 04 1d 69  call      +0x1075a4     <0x100108f20>
    0x100001980:            d0 5d e1 50  ldx       [%l7 + 0x150], %o0
    0x100001984:            0b 00 04 00  sethi     %hi(0x100000), %g5
    0x100001988:            b0 11 61 09  or        %g5, 0x109, %i0
    0x10000198c:            89 2e 30 0c  sllx      %i0, 0xc, %g4
    0x100001990:            d0 71 24 d8  stx       %o0, [%g4 + 0x4d8]
    0x100001994:            10 80 00 17  ba        +0x5c         <0x1000019f0>
    0x100001998:            92 10 00 19  mov       %i1, %o1
    0x10000199c:            12 60 00 14  bne,pn    %xcc, +0x50   <0x1000019ec>
    0x1000019a0:            da 5b a8 d7  ldx       [%sp + 0x8d7], %o5
    0x1000019a4:            94 10 20 00  clr       %o2
    0x1000019a8:            d0 5b 64 f8  ldx       [%o5 + 0x4f8], %o0
    0x1000019ac:            95 7a 24 01  movre     %o0, 0x1, %o2
    0x1000019b0:            d4 73 64 f8  stx       %o2, [%o5 + 0x4f8]
    0x1000019b4:            10 80 00 0f  ba        +0x3c         <0x1000019f0>
    0x1000019b8:            92 10 00 19  mov       %i1, %o1
    0x1000019bc:            12 60 00 0a  bne,pn    %xcc, +0x28   <0x1000019e4>
    0x1000019c0:            80 a2 20 68  cmp       %o0, 0x68
    0x1000019c4:            29 00 04 00  sethi     %hi(0x100000), %l4
    0x1000019c8:            40 04 1d 56  call      +0x107558     <0x100108f20>
    0x1000019cc:            d0 5d e1 50  ldx       [%l7 + 0x150], %o0
    0x1000019d0:            92 15 21 09  or        %l4, 0x109, %o1
    0x1000019d4:            9f 2a 70 0c  sllx      %o1, 0xc, %o7
    0x1000019d8:            d0 73 e4 e8  stx       %o0, [%o7 + 0x4e8]
    0x1000019dc:            10 80 00 05  ba        +0x14         <0x1000019f0>
    0x1000019e0:            92 10 00 19  mov       %i1, %o1
    0x1000019e4:            02 60 07 c4  be,pn     %xcc, +0x1f10 <0x1000038f4>
    0x1000019e8:            01 00 00 00  nop
    0x1000019ec:            92 10 00 19  mov       %i1, %o1
    0x1000019f0:            90 10 00 11  mov       %l1, %o0
    0x1000019f4:            f6 5b a8 bf  ldx       [%sp + 0x8bf], %i3
    0x1000019f8:            40 04 1d 42  call      +0x107508     <0x100108f00>
    0x1000019fc:            94 06 e2 20  add       %i3, 0x220, %o2
    0x100001a00:            80 a2 3f ff  cmp       %o0, -0x1
    0x100001a04:            12 6f ff bd  bne,pt    %xcc, -0x10c  <0x1000018f8>
    0x100001a08:            80 a2 20 70  cmp       %o0, 0x70
    0x100001a0c:            ea 5f 64 e0  ldx       [%i5 + 0x4e0], %l5
    0x100001a10:            10 80 00 04  ba        +0x10         <0x100001a20>
    0x100001a14:            ea 73 aa 67  stx       %l5, [%sp + 0xa67]
    0x100001a18:            ea 5f 64 e0  ldx       [%i5 + 0x4e0], %l5
    0x100001a1c:            ea 73 aa 67  stx       %l5, [%sp + 0xa67]
    0x100001a20:            d9 1b aa 67  ldd       [%sp + 0xa67], %d12
    0x100001a24:            9f a0 11 0c  fxtod     %d12, %d46
    0x100001a28:            89 a0 05 4f  fsqrtd    %d46, %d4
    0x100001a2c:            8d a0 10 44  fdtox     %d4, %d6
    0x100001a30:            cd 3b a9 bf  std       %d6, [%sp + 0x9bf]
    0x100001a34:            c6 5b a9 bf  ldx       [%sp + 0x9bf], %g3
    0x100001a38:            89 6d 40 03  sdivx     %l5, %g3, %g4
    0x100001a3c:            b0 48 c0 04  mulx      %g3, %g4, %i0
    0x100001a40:            80 a6 00 15  cmp       %i0, %l5
    0x100001a44:            02 60 00 17  be,pn     %xcc, +0x5c   <0x100001aa0>
    0x100001a48:            86 00 ff ff  add       %g3, -0x1, %g3
    0x100001a4c:            89 6d 40 03  sdivx     %l5, %g3, %g4
    0x100001a50:            b2 48 c0 04  mulx      %g3, %g4, %i1
    0x100001a54:            80 a6 40 15  cmp       %i1, %l5
    0x100001a58:            02 60 00 09  be,pn     %xcc, +0x24   <0x100001a7c>
    0x100001a5c:            11 00 04 00  sethi     %hi(0x100000), %o0
    0x100001a60:            86 00 ff ff  add       %g3, -0x1, %g3
    0x100001a64:            89 6d 40 03  sdivx     %l5, %g3, %g4
    0x100001a68:            a2 48 c0 04  mulx      %g3, %g4, %l1
    0x100001a6c:            80 a4 40 15  cmp       %l1, %l5
    0x100001a70:            32 6f ff f7  bne,a,pt  %xcc, -0x24   <0x100001a4c>
    0x100001a74:            86 00 ff ff  add       %g3, -0x1, %g3
    0x100001a78:            11 00 04 00  sethi     %hi(0x100000), %o0
    0x100001a7c:            33 00 04 00  sethi     %hi(0x100000), %i1
    0x100001a80:            b0 12 21 0a  or        %o0, 0x10a, %i0
    0x100001a84:            96 16 61 0a  or        %i1, 0x10a, %o3
    0x100001a88:            a3 2e 30 0c  sllx      %i0, 0xc, %l1
    0x100001a8c:            c6 74 61 68  stx       %g3, [%l1 + 0x168]
    0x100001a90:            93 2a f0 0c  sllx      %o3, 0xc, %o1
    0x100001a94:            c8 72 61 60  stx       %g4, [%o1 + 0x160]
    0x100001a98:            10 80 00 0b  ba        +0x2c         <0x100001ac4>
    0x100001a9c:            37 00 04 00  sethi     %hi(0x100000), %i3
    0x100001aa0:            0b 00 04 00  sethi     %hi(0x100000), %g5
    0x100001aa4:            35 00 04 00  sethi     %hi(0x100000), %i2
    0x100001aa8:            84 11 61 0a  or        %g5, 0x10a, %g2
    0x100001aac:            9a 16 a1 0a  or        %i2, 0x10a, %o5
    0x100001ab0:            87 28 b0 0c  sllx      %g2, 0xc, %g3
    0x100001ab4:            c8 70 e1 60  stx       %g4, [%g3 + 0x160]
    0x100001ab8:            95 2b 70 0c  sllx      %o5, 0xc, %o2
    0x100001abc:            cd 3a a1 68  std       %d6, [%o2 + 0x168]
    0x100001ac0:            37 00 04 00  sethi     %hi(0x100000), %i3
    0x100001ac4:            b8 16 e1 09  or        %i3, 0x109, %i4
    0x100001ac8:            29 00 04 00  sethi     %hi(0x100000), %l4
    0x100001acc:            b7 2f 30 0c  sllx      %i4, 0xc, %i3
    0x100001ad0:            92 15 21 09  or        %l4, 0x109, %o1
    0x100001ad4:            b9 2a 70 0c  sllx      %o1, 0xc, %i4
    0x100001ad8:            de 5f 24 e8  ldx       [%i4 + 0x4e8], %o7
    0x100001adc:            d0 5e e4 d8  ldx       [%i3 + 0x4d8], %o0
    0x100001ae0:            8b 6a 00 0f  sdivx     %o0, %o7, %g5
    0x100001ae4:            ae 4b c0 05  mulx      %o7, %g5, %l7
    0x100001ae8:            80 a5 c0 08  cmp       %l7, %o0
    0x100001aec:            12 60 00 07  bne,pn    %xcc, +0x1c   <0x100001b08>
    0x100001af0:            1f 00 04 00  sethi     %hi(0x100000), %o7
    0x100001af4:            98 13 e1 0a  or        %o7, 0x10a, %o4
    0x100001af8:            89 2b 30 0c  sllx      %o4, 0xc, %g4
    0x100001afc:            ca 71 21 28  stx       %g5, [%g4 + 0x128]
    0x100001b00:            10 80 00 08  ba        +0x20         <0x100001b20>
    0x100001b04:            e2 5f 24 e8  ldx       [%i4 + 0x4e8], %l1
    0x100001b08:            23 00 04 00  sethi     %hi(0x100000), %l1
    0x100001b0c:            b4 14 61 0a  or        %l1, 0x10a, %i2
    0x100001b10:            96 01 60 01  add       %g5, 0x1, %o3
    0x100001b14:            e2 5f 24 e8  ldx       [%i4 + 0x4e8], %l1
    0x100001b18:            85 2e b0 0c  sllx      %i2, 0xc, %g2
    0x100001b1c:            d6 70 a1 28  stx       %o3, [%g2 + 0x128]
    0x100001b20:            b2 24 60 01  sub       %l1, 0x1, %i1
    0x100001b24:            80 8c 40 19  btst      %i1, %l1
    0x100001b28:            d8 5e e4 d8  ldx       [%i3 + 0x4d8], %o4
    0x100001b2c:            12 60 00 0c  bne,pn    %xcc, +0x30   <0x100001b5c>
    0x100001b30:            01 00 00 00  nop
    0x100001b34:            02 c4 40 0a  brz,pn    %l1, +0x28    <0x100001b5c>
    0x100001b38:            af 3b 30 3f  srax      %o4, 0x3f, %l7
    0x100001b3c:            94 1b 00 17  xor       %o4, %l7, %o2
    0x100001b40:            9a 22 80 17  sub       %o2, %l7, %o5
    0x100001b44:            a8 8b 40 19  andcc     %o5, %i1, %l4
    0x100001b48:            ac 1d 00 17  xor       %l4, %l7, %l6
    0x100001b4c:            b0 25 80 17  sub       %l6, %l7, %i0
    0x100001b50:            a9 66 50 18  movne     %xcc, %i0, %l4
    0x100001b54:            10 80 00 06  ba        +0x18         <0x100001b6c>
    0x100001b58:            80 a5 20 00  cmp       %l4, 0x0
    0x100001b5c:            85 6b 00 11  sdivx     %o4, %l1, %g2
    0x100001b60:            86 48 80 11  mulx      %g2, %l1, %g3
    0x100001b64:            a8 23 00 03  sub       %o4, %g3, %l4
    0x100001b68:            80 a5 20 00  cmp       %l4, 0x0
    0x100001b6c:            a3 66 50 14  movne     %xcc, %l4, %l1
    0x100001b70:            35 00 04 00  sethi     %hi(0x100000), %i2
    0x100001b74:            b2 16 a1 0a  or        %i2, 0x10a, %i1
    0x100001b78:            40 04 1c f2  call      +0x1073c8     <0x100108f40>
    0x100001b7c:            91 2d 70 03  sllx      %l5, 0x3, %o0
    0x100001b80:            ab 2e 70 0c  sllx      %i1, 0xc, %l5
    0x100001b84:            02 c2 07 9f  brz,pn    %o0, +0x1e7c  <0x100003a00>
    0x100001b88:            d0 75 61 58  stx       %o0, [%l5 + 0x158]
    0x100001b8c:            ca 5f 64 e0  ldx       [%i5 + 0x4e0], %g5
    0x100001b90:            40 04 1c f4  call      +0x1073d0     <0x100108f60>
    0x100001b94:            91 29 70 03  sllx      %g5, 0x3, %o0
    0x100001b98:            02 c2 07 a7  brz,pn    %o0, +0x1e9c  <0x100003a34>
    0x100001b9c:            d0 74 21 48  stx       %o0, [%l0 + 0x148]
    0x100001ba0:            de 5d 61 58  ldx       [%l5 + 0x158], %o7
    0x100001ba4:            d8 5f 64 e0  ldx       [%i5 + 0x4e0], %o4
    0x100001ba8:            35 00 04 00  sethi     %hi(0x100000), %i2
    0x100001bac:            96 16 a1 0a  or        %i2, 0x10a, %o3
    0x100001bb0:            0c c3 00 07  brgz,pn   %o4, +0x1c    <0x100001bcc>
    0x100001bb4:            b5 2a f0 0c  sllx      %o3, 0xc, %i2
    0x100001bb8:            f2 5e a1 28  ldx       [%i2 + 0x128], %i1
    0x100001bbc:            04 c6 40 b5  brlez,pn  %i1, +0x2d4   <0x100001e90>
    0x100001bc0:            a6 10 20 00  clr       %l3
    0x100001bc4:            10 80 00 6a  ba        +0x1a8        <0x100001d6c>
    0x100001bc8:            84 4c 40 11  mulx      %l1, %l1, %g2
    0x100001bcc:            80 a3 20 06  cmp       %o4, 0x6
    0x100001bd0:            06 60 00 4e  bl,pn     %xcc, +0x138  <0x100001d08>
    0x100001bd4:            87 2b 30 03  sllx      %o4, 0x3, %g3
    0x100001bd8:            b2 05 61 58  add       %l5, 0x158, %i1
    0x100001bdc:            84 10 20 00  clr       %g2
    0x100001be0:            94 10 20 00  clr       %o2
    0x100001be4:            a8 23 c0 13  sub       %o7, %l3, %l4
    0x100001be8:            9a 10 20 00  clr       %o5
    0x100001bec:            a6 24 c0 0f  sub       %l3, %o7, %l3
    0x100001bf0:            90 10 20 00  clr       %o0
    0x100001bf4:            96 10 20 00  clr       %o3
    0x100001bf8:            88 10 20 00  clr       %g4
    0x100001bfc:            ee 5c 21 48  ldx       [%l0 + 0x148], %l7
    0x100001c00:            ac 25 c0 19  sub       %l7, %i1, %l6
    0x100001c04:            80 a5 a0 08  cmp       %l6, 0x8
    0x100001c08:            8a 26 40 17  sub       %i1, %l7, %g5
    0x100001c0c:            85 66 f0 01  movge     %xcc, 0x1, %g2
    0x100001c10:            80 a1 40 03  cmp       %g5, %g3
    0x100001c14:            95 66 f0 01  movge     %xcc, 0x1, %o2
    0x100001c18:            80 a5 20 08  cmp       %l4, 0x8
    0x100001c1c:            9b 66 f0 01  movge     %xcc, 0x1, %o5
    0x100001c20:            80 a4 c0 03  cmp       %l3, %g3
    0x100001c24:            b0 25 c0 12  sub       %l7, %l2, %i0
    0x100001c28:            91 66 f0 01  movge     %xcc, 0x1, %o0
    0x100001c2c:            80 a6 20 08  cmp       %i0, 0x8
    0x100001c30:            97 66 f0 01  movge     %xcc, 0x1, %o3
    0x100001c34:            a4 24 80 17  sub       %l2, %l7, %l2
    0x100001c38:            80 a4 80 03  cmp       %l2, %g3
    0x100001c3c:            89 66 f0 01  movge     %xcc, 0x1, %g4
    0x100001c40:            98 10 80 0a  or        %g2, %o2, %o4
    0x100001c44:            92 13 40 08  or        %o5, %o0, %o1
    0x100001c48:            b2 0a 40 0c  and       %o1, %o4, %i1
    0x100001c4c:            ac 12 c0 04  or        %o3, %g4, %l6
    0x100001c50:            80 8e 40 16  btst      %l6, %i1
    0x100001c54:            12 40 00 04  bne,pn    %icc, +0x10   <0x100001c64>
    0x100001c58:            a6 10 20 00  clr       %l3
    0x100001c5c:            10 80 00 2d  ba        +0xb4         <0x100001d10>
    0x100001c60:            a8 10 20 00  clr       %l4
    0x100001c64:            c4 5f 64 e0  ldx       [%i5 + 0x4e0], %g2
    0x100001c68:            04 c0 80 23  brlez,pn  %g2, +0x8c    <0x100001cf4>
    0x100001c6c:            f2 5d 61 58  ldx       [%l5 + 0x158], %i1
    0x100001c70:            80 a0 a0 04  cmp       %g2, 0x4
    0x100001c74:            9e 00 bf ff  add       %g2, -0x1, %o7
    0x100001c78:            a6 10 20 00  clr       %l3
    0x100001c7c:            c6 5c 21 48  ldx       [%l0 + 0x148], %g3
    0x100001c80:            06 60 00 15  bl,pn     %xcc, +0x54   <0x100001cd4>
    0x100001c84:            01 00 00 00  nop
    0x100001c88:            92 00 bf fc  add       %g2, -0x4, %o1
    0x100001c8c:            ed 6e 60 90  prefetch  [%i1 + 0x90], #n_writes_strong
    0x100001c90:            ed 68 e0 90  prefetch  [%g3 + 0x90], #n_writes_strong
    0x100001c94:            c0 76 60 00  clrx      [%i1]
    0x100001c98:            a6 04 e0 04  add       %l3, 0x4, %l3
    0x100001c9c:            86 00 e0 20  add       %g3, 0x20, %g3
    0x100001ca0:            c0 70 ff e0  clrx      [%g3 - 0x20]
    0x100001ca4:            80 a4 c0 09  cmp       %l3, %o1
    0x100001ca8:            b2 06 60 20  add       %i1, 0x20, %i1
    0x100001cac:            c0 76 7f e8  clrx      [%i1 - 0x18]
    0x100001cb0:            c0 70 ff e8  clrx      [%g3 - 0x18]
    0x100001cb4:            c0 76 7f f0  clrx      [%i1 - 0x10]
    0x100001cb8:            c0 70 ff f0  clrx      [%g3 - 0x10]
    0x100001cbc:            c0 76 7f f8  clrx      [%i1 - 0x8]
    0x100001cc0:            04 6f ff f3  ble,pt    %xcc, -0x34   <0x100001c8c>
    0x100001cc4:            c0 70 ff f8  clrx      [%g3 - 0x8]
    0x100001cc8:            80 a4 c0 0f  cmp       %l3, %o7
    0x100001ccc:            14 60 00 0a  bg,pn     %xcc, +0x28   <0x100001cf4>
    0x100001cd0:            01 00 00 00  nop
    0x100001cd4:            a6 04 e0 01  add       %l3, 0x1, %l3
    0x100001cd8:            80 a4 c0 0f  cmp       %l3, %o7
    0x100001cdc:            c0 70 e0 00  clrx      [%g3]
    0x100001ce0:            86 00 e0 08  add       %g3, 0x8, %g3
    0x100001ce4:            c0 76 60 00  clrx      [%i1]
    0x100001ce8:            b2 06 60 08  add       %i1, 0x8, %i1
    0x100001cec:            04 6f ff fb  ble,pt    %xcc, -0x14   <0x100001cd8>
    0x100001cf0:            a6 04 e0 01  add       %l3, 0x1, %l3
    0x100001cf4:            f2 5e a1 28  ldx       [%i2 + 0x128], %i1
    0x100001cf8:            d8 5f 64 e0  ldx       [%i5 + 0x4e0], %o4
    0x100001cfc:            de 5d 61 58  ldx       [%l5 + 0x158], %o7
    0x100001d00:            10 80 00 18  ba        +0x60         <0x100001d60>
    0x100001d04:            01 00 00 00  nop
    0x100001d08:            a6 10 20 00  clr       %l3
    0x100001d0c:            a8 10 20 00  clr       %l4
    0x100001d10:            c0 73 c0 14  clrx      [%o7 + %l4]
    0x100001d14:            ee 5c 21 48  ldx       [%l0 + 0x148], %l7
    0x100001d18:            d8 5f 64 e0  ldx       [%i5 + 0x4e0], %o4
    0x100001d1c:            a6 04 e0 01  add       %l3, 0x1, %l3
    0x100001d20:            c0 75 c0 14  clrx      [%l7 + %l4]
    0x100001d24:            80 a4 c0 0c  cmp       %l3, %o4
    0x100001d28:            de 5d 61 58  ldx       [%l5 + 0x158], %o7
    0x100001d2c:            16 60 00 0c  bge,pn    %xcc, +0x30   <0x100001d5c>
    0x100001d30:            a8 05 20 08  add       %l4, 0x8, %l4
    0x100001d34:            c0 73 c0 14  clrx      [%o7 + %l4]
    0x100001d38:            de 5c 21 48  ldx       [%l0 + 0x148], %o7
    0x100001d3c:            d8 5f 64 e0  ldx       [%i5 + 0x4e0], %o4
    0x100001d40:            a6 04 e0 01  add       %l3, 0x1, %l3
    0x100001d44:            c0 73 c0 14  clrx      [%o7 + %l4]
    0x100001d48:            de 5d 61 58  ldx       [%l5 + 0x158], %o7
    0x100001d4c:            80 a4 c0 0c  cmp       %l3, %o4
    0x100001d50:            a8 05 20 08  add       %l4, 0x8, %l4
    0x100001d54:            26 6f ff f0  bl,a,pt   %xcc, -0x40   <0x100001d14>
    0x100001d58:            c0 73 c0 14  clrx      [%o7 + %l4]
    0x100001d5c:            f2 5e a1 28  ldx       [%i2 + 0x128], %i1
    0x100001d60:            04 c6 40 35  brlez,pn  %i1, +0xd4    <0x100001e34>
    0x100001d64:            a6 10 20 00  clr       %l3
    0x100001d68:            84 4c 40 11  mulx      %l1, %l1, %g2
    0x100001d6c:            04 c6 40 2e  brlez,pn  %i1, +0xb8    <0x100001e24>
    0x100001d70:            ae 10 20 00  clr       %l7
    0x100001d74:            90 23 20 01  sub       %o4, 0x1, %o0
    0x100001d78:            80 8b 00 08  btst      %o0, %o4
    0x100001d7c:            12 60 00 0c  bne,pn    %xcc, +0x30   <0x100001dac>
    0x100001d80:            b0 05 c0 13  add       %l7, %l3, %i0
    0x100001d84:            02 c3 00 0a  brz,pn    %o4, +0x28    <0x100001dac>
    0x100001d88:            a9 3e 30 3f  srax      %i0, 0x3f, %l4
    0x100001d8c:            86 1e 00 14  xor       %i0, %l4, %g3
    0x100001d90:            96 20 c0 14  sub       %g3, %l4, %o3
    0x100001d94:            a4 8a c0 08  andcc     %o3, %o0, %l2
    0x100001d98:            90 1c 80 14  xor       %l2, %l4, %o0
    0x100001d9c:            b0 22 00 14  sub       %o0, %l4, %i0
    0x100001da0:            a5 66 50 18  movne     %xcc, %i0, %l2
    0x100001da4:            10 80 00 06  ba        +0x18         <0x100001dbc>
    0x100001da8:            98 06 7f ff  add       %i1, -0x1, %o4
    0x100001dac:            93 6e 00 0c  sdivx     %i0, %o4, %o1
    0x100001db0:            8a 4a 40 0c  mulx      %o1, %o4, %g5
    0x100001db4:            a4 26 00 05  sub       %i0, %g5, %l2
    0x100001db8:            98 06 7f ff  add       %i1, -0x1, %o4
    0x100001dbc:            80 a4 c0 0c  cmp       %l3, %o4
    0x100001dc0:            02 60 00 08  be,pn     %xcc, +0x20   <0x100001de0>
    0x100001dc4:            80 a5 c0 0c  cmp       %l7, %o4
    0x100001dc8:            f2 5f 24 e8  ldx       [%i4 + 0x4e8], %i1
    0x100001dcc:            22 60 00 0b  be,a,pn   %xcc, +0x2c   <0x100001df8>
    0x100001dd0:            92 4e 40 11  mulx      %i1, %l1, %o1
    0x100001dd4:            92 4e 40 19  mulx      %i1, %i1, %o1
    0x100001dd8:            10 80 00 09  ba        +0x24         <0x100001dfc>
    0x100001ddc:            97 2c b0 03  sllx      %l2, 0x3, %o3
    0x100001de0:            02 60 00 05  be,pn     %xcc, +0x14   <0x100001df4>
    0x100001de4:            f2 5f 24 e8  ldx       [%i4 + 0x4e8], %i1
    0x100001de8:            92 4e 40 11  mulx      %i1, %l1, %o1
    0x100001dec:            10 80 00 04  ba        +0x10         <0x100001dfc>
    0x100001df0:            97 2c b0 03  sllx      %l2, 0x3, %o3
    0x100001df4:            92 10 00 02  mov       %g2, %o1
    0x100001df8:            97 2c b0 03  sllx      %l2, 0x3, %o3
    0x100001dfc:            da 5a c0 0f  ldx       [%o3 + %o7], %o5
    0x100001e00:            87 2a 70 03  sllx      %o1, 0x3, %g3
    0x100001e04:            ae 05 e0 01  add       %l7, 0x1, %l7
    0x100001e08:            94 03 40 03  add       %o5, %g3, %o2
    0x100001e0c:            d4 72 c0 0f  stx       %o2, [%o3 + %o7]
    0x100001e10:            f2 5e a1 28  ldx       [%i2 + 0x128], %i1
    0x100001e14:            d8 5f 64 e0  ldx       [%i5 + 0x4e0], %o4
    0x100001e18:            80 a5 c0 19  cmp       %l7, %i1
    0x100001e1c:            06 6f ff d7  bl,pt     %xcc, -0xa4   <0x100001d78>
    0x100001e20:            90 23 20 01  sub       %o4, 0x1, %o0
    0x100001e24:            a6 04 e0 01  add       %l3, 0x1, %l3
    0x100001e28:            80 a4 c0 19  cmp       %l3, %i1
    0x100001e2c:            06 6f ff d0  bl,pt     %xcc, -0xc0   <0x100001d6c>
    0x100001e30:            01 00 00 00  nop
    0x100001e34:            04 c3 00 17  brlez,pn  %o4, +0x5c    <0x100001e90>
    0x100001e38:            a4 10 20 00  clr       %l2
    0x100001e3c:            c6 5b e0 00  ldx       [%o7], %g3
    0x100001e40:            ae 10 20 00  clr       %l7
    0x100001e44:            40 04 1c 47  call      +0x10711c     <0x100108f60>
    0x100001e48:            90 00 e4 00  add       %g3, 0x400, %o0
    0x100001e4c:            da 5c 21 48  ldx       [%l0 + 0x148], %o5
    0x100001e50:            d0 73 40 17  stx       %o0, [%o5 + %l7]
    0x100001e54:            d4 5c 21 48  ldx       [%l0 + 0x148], %o2
    0x100001e58:            ec 5a 80 17  ldx       [%o2 + %l7], %l6
    0x100001e5c:            02 c5 87 05  brz,pn    %l6, +0x1c14  <0x100003a70>
    0x100001e60:            d8 5f 64 e0  ldx       [%i5 + 0x4e0], %o4
    0x100001e64:            a4 04 a0 01  add       %l2, 0x1, %l2
    0x100001e68:            84 0d a3 ff  and       %l6, 0x3ff, %g2
    0x100001e6c:            a8 05 a4 00  add       %l6, 0x400, %l4
    0x100001e70:            92 25 00 02  sub       %l4, %g2, %o1
    0x100001e74:            d2 72 80 17  stx       %o1, [%o2 + %l7]
    0x100001e78:            de 5d 61 58  ldx       [%l5 + 0x158], %o7
    0x100001e7c:            80 a4 80 0c  cmp       %l2, %o4
    0x100001e80:            ae 05 e0 08  add       %l7, 0x8, %l7
    0x100001e84:            26 6f ff f0  bl,a,pt   %xcc, -0x40   <0x100001e44>
    0x100001e88:            c6 5b c0 17  ldx       [%o7 + %l7], %g3
    0x100001e8c:            f2 5e a1 28  ldx       [%i2 + 0x128], %i1
    0x100001e90:            b2 4e 40 19  mulx      %i1, %i1, %i1
    0x100001e94:            40 04 1c 33  call      +0x1070cc     <0x100108f60>
    0x100001e98:            91 2e 70 03  sllx      %i1, 0x3, %o0
    0x100001e9c:            19 00 04 00  sethi     %hi(0x100000), %o4
    0x100001ea0:            96 13 21 09  or        %o4, 0x109, %o3
    0x100001ea4:            b3 2a f0 0c  sllx      %o3, 0xc, %i1
    0x100001ea8:            02 c2 07 03  brz,pn    %o0, +0x1c0c  <0x100003ab4>
    0x100001eac:            d0 76 66 90  stx       %o0, [%i1 + 0x690]
    0x100001eb0:            e4 5e a1 28  ldx       [%i2 + 0x128], %l2
    0x100001eb4:            e4 73 a8 ef  stx       %l2, [%sp + 0x8ef]
    0x100001eb8:            88 10 00 12  mov       %l2, %g4
    0x100001ebc:            aa 01 3f fe  add       %g4, -0x2, %l5
    0x100001ec0:            80 a0 00 15  cmp       %g0, %l5
    0x100001ec4:            04 60 00 08  ble,pn    %xcc, +0x20   <0x100001ee4>
    0x100001ec8:            a6 01 3f ff  add       %g4, -0x1, %l3
    0x100001ecc:            c8 5f 24 e8  ldx       [%i4 + 0x4e8], %g4
    0x100001ed0:            f0 5f 64 e0  ldx       [%i5 + 0x4e0], %i0
    0x100001ed4:            c8 73 a8 ff  stx       %g4, [%sp + 0x8ff]
    0x100001ed8:            f0 73 a8 f7  stx       %i0, [%sp + 0x8f7]
    0x100001edc:            10 80 00 bf  ba        +0x2fc        <0x1000021d8>
    0x100001ee0:            d0 5b a8 ef  ldx       [%sp + 0x8ef], %o0
    0x100001ee4:            a8 4c c0 04  mulx      %l3, %g4, %l4
    0x100001ee8:            c6 5f 24 e8  ldx       [%i4 + 0x4e8], %g3
    0x100001eec:            c6 73 a8 ff  stx       %g3, [%sp + 0x8ff]
    0x100001ef0:            96 10 20 00  clr       %o3
    0x100001ef4:            84 48 c0 03  mulx      %g3, %g3, %g2
    0x100001ef8:            86 48 c0 11  mulx      %g3, %l1, %g3
    0x100001efc:            99 28 f0 03  sllx      %g3, 0x3, %o4
    0x100001f00:            ae 10 20 00  clr       %l7
    0x100001f04:            ad 29 30 03  sllx      %g4, 0x3, %l6
    0x100001f08:            85 28 b0 03  sllx      %g2, 0x3, %g2
    0x100001f0c:            ca 5f 64 e0  ldx       [%i5 + 0x4e0], %g5
    0x100001f10:            e8 73 a9 07  stx       %l4, [%sp + 0x907]
    0x100001f14:            a8 10 20 00  clr       %l4
    0x100001f18:            95 39 70 3f  srax      %g5, 0x3f, %o2
    0x100001f1c:            9a 19 40 0a  xor       %g5, %o2, %o5
    0x100001f20:            97 79 64 01  movre     %g5, 0x1, %o3
    0x100001f24:            9e 01 40 0b  add       %g5, %o3, %o7
    0x100001f28:            ca 73 a8 f7  stx       %g5, [%sp + 0x8f7]
    0x100001f2c:            86 23 40 0a  sub       %o5, %o2, %g3
    0x100001f30:            de 73 a9 0f  stx       %o7, [%sp + 0x90f]
    0x100001f34:            a4 00 ff ff  add       %g3, -0x1, %l2
    0x100001f38:            d8 73 a9 17  stx       %o4, [%sp + 0x917]
    0x100001f3c:            8a 10 00 0f  mov       %o7, %g5
    0x100001f40:            9a 21 60 01  sub       %g5, 0x1, %o5
    0x100001f44:            80 89 40 0d  btst      %o5, %g5
    0x100001f48:            12 60 00 0e  bne,pn    %xcc, +0x38   <0x100001f80>
    0x100001f4c:            94 10 20 00  clr       %o2
    0x100001f50:            96 10 00 05  mov       %g5, %o3
    0x100001f54:            02 c2 c0 0b  brz,pn    %o3, +0x2c    <0x100001f80>
    0x100001f58:            01 00 00 00  nop
    0x100001f5c:            8b 3d 30 3f  srax      %l4, 0x3f, %g5
    0x100001f60:            9e 1d 00 05  xor       %l4, %g5, %o7
    0x100001f64:            98 23 c0 05  sub       %o7, %g5, %o4
    0x100001f68:            b0 8b 00 0d  andcc     %o4, %o5, %i0
    0x100001f6c:            88 1e 00 05  xor       %i0, %g5, %g4
    0x100001f70:            90 21 00 05  sub       %g4, %g5, %o0
    0x100001f74:            b1 66 50 08  movne     %xcc, %o0, %i0
    0x100001f78:            10 80 00 06  ba        +0x18         <0x100001f90>
    0x100001f7c:            8a 10 20 00  clr       %g5
    0x100001f80:            97 6d 00 05  sdivx     %l4, %g5, %o3
    0x100001f84:            92 4a c0 05  mulx      %o3, %g5, %o1
    0x100001f88:            b0 25 00 09  sub       %l4, %o1, %i0
    0x100001f8c:            8a 10 20 00  clr       %g5
    0x100001f90:            92 05 60 01  add       %l5, 0x1, %o1
    0x100001f94:            80 a2 60 03  cmp       %o1, 0x3
    0x100001f98:            06 60 00 4d  bl,pn     %xcc, +0x134  <0x1000020cc>
    0x100001f9c:            01 00 00 00  nop
    0x100001fa0:            90 05 20 01  add       %l4, 0x1, %o0
    0x100001fa4:            9f 32 30 3f  srlx      %o0, 0x3f, %o7
    0x100001fa8:            88 1b e0 01  xor       %o7, 0x1, %g4
    0x100001fac:            92 20 00 04  neg       %g4, %o1
    0x100001fb0:            98 0a 40 12  and       %o1, %l2, %o4
    0x100001fb4:            9a 03 20 01  add       %o4, 0x1, %o5
    0x100001fb8:            99 2e 30 03  sllx      %i0, 0x3, %o4
    0x100001fbc:            90 06 20 01  add       %i0, 0x1, %o0
    0x100001fc0:            b0 1a 00 0d  xor       %o0, %o5, %i0
    0x100001fc4:            9e 10 20 00  clr       %o7
    0x100001fc8:            9f 7e 24 01  movre     %i0, 0x1, %o7
    0x100001fcc:            88 20 00 0f  neg       %o7, %g4
    0x100001fd0:            9b 39 20 00  sra       %g4, 0x0, %o5
    0x100001fd4:            b0 0b 40 03  and       %o5, %g3, %i0
    0x100001fd8:            92 05 20 02  add       %l4, 0x2, %o1
    0x100001fdc:            96 22 00 18  sub       %o0, %i0, %o3
    0x100001fe0:            9f 32 70 3f  srlx      %o1, 0x3f, %o7
    0x100001fe4:            90 1b e0 01  xor       %o7, 0x1, %o0
    0x100001fe8:            b0 20 00 08  neg       %o0, %i0
    0x100001fec:            9e 0e 00 12  and       %i0, %l2, %o7
    0x100001ff0:            88 03 e0 01  add       %o7, 0x1, %g4
    0x100001ff4:            de 5c 21 48  ldx       [%l0 + 0x148], %o7
    0x100001ff8:            da 5e 66 90  ldx       [%i1 + 0x690], %o5
    0x100001ffc:            94 10 20 02  mov       0x2, %o2
    0x100002000:            de 5b c0 0c  ldx       [%o7 + %o4], %o7
    0x100002004:            de 73 40 17  stx       %o7, [%o5 + %l7]
    0x100002008:            de 5c 21 48  ldx       [%l0 + 0x148], %o7
    0x10000200c:            8a 10 00 16  mov       %l6, %g5
    0x100002010:            90 02 e0 01  add       %o3, 0x1, %o0
    0x100002014:            da 5b 00 0f  ldx       [%o4 + %o7], %o5
    0x100002018:            9a 03 40 02  add       %o5, %g2, %o5
    0x10000201c:            da 73 00 0f  stx       %o5, [%o4 + %o7]
    0x100002020:            88 1a 00 04  xor       %o0, %g4, %g4
    0x100002024:            94 02 a0 01  add       %o2, 0x1, %o2
    0x100002028:            9e 10 20 00  clr       %o7
    0x10000202c:            9f 79 24 01  movre     %g4, 0x1, %o7
    0x100002030:            80 a2 80 15  cmp       %o2, %l5
    0x100002034:            99 2a f0 03  sllx      %o3, 0x3, %o4
    0x100002038:            9a 20 00 0f  neg       %o7, %o5
    0x10000203c:            d6 5c 21 48  ldx       [%l0 + 0x148], %o3
    0x100002040:            89 3b 60 00  sra       %o5, 0x0, %g4
    0x100002044:            da 5e 66 90  ldx       [%i1 + 0x690], %o5
    0x100002048:            88 09 00 03  and       %g4, %g3, %g4
    0x10000204c:            de 5a c0 0c  ldx       [%o3 + %o4], %o7
    0x100002050:            9a 03 40 05  add       %o5, %g5, %o5
    0x100002054:            96 22 00 04  sub       %o0, %g4, %o3
    0x100002058:            de 73 40 17  stx       %o7, [%o5 + %l7]
    0x10000205c:            92 02 60 01  add       %o1, 0x1, %o1
    0x100002060:            da 5c 21 48  ldx       [%l0 + 0x148], %o5
    0x100002064:            91 32 70 3f  srlx      %o1, 0x3f, %o0
    0x100002068:            8a 01 40 16  add       %g5, %l6, %g5
    0x10000206c:            88 1a 20 01  xor       %o0, 0x1, %g4
    0x100002070:            de 5b 00 0d  ldx       [%o4 + %o5], %o7
    0x100002074:            90 02 e0 01  add       %o3, 0x1, %o0
    0x100002078:            88 20 00 04  neg       %g4
    0x10000207c:            9e 03 c0 02  add       %o7, %g2, %o7
    0x100002080:            88 09 00 12  and       %g4, %l2, %g4
    0x100002084:            de 73 00 0d  stx       %o7, [%o4 + %o5]
    0x100002088:            04 6f ff e6  ble,pt    %xcc, -0x68   <0x100002020>
    0x10000208c:            88 01 20 01  add       %g4, 0x1, %g4
    0x100002090:            98 1a 00 04  xor       %o0, %g4, %o4
    0x100002094:            9e 10 20 00  clr       %o7
    0x100002098:            9f 7b 24 01  movre     %o4, 0x1, %o7
    0x10000209c:            da 5e 66 90  ldx       [%i1 + 0x690], %o5
    0x1000020a0:            d0 5c 21 48  ldx       [%l0 + 0x148], %o0
    0x1000020a4:            97 2a f0 03  sllx      %o3, 0x3, %o3
    0x1000020a8:            9e 03 40 05  add       %o5, %g5, %o7
    0x1000020ac:            c8 5a 00 0b  ldx       [%o0 + %o3], %g4
    0x1000020b0:            c8 73 c0 17  stx       %g4, [%o7 + %l7]
    0x1000020b4:            da 5c 21 48  ldx       [%l0 + 0x148], %o5
    0x1000020b8:            d2 5a c0 0d  ldx       [%o3 + %o5], %o1
    0x1000020bc:            98 02 40 02  add       %o1, %g2, %o4
    0x1000020c0:            d8 72 c0 0d  stx       %o4, [%o3 + %o5]
    0x1000020c4:            10 80 00 1f  ba        +0x7c         <0x100002140>
    0x1000020c8:            01 00 00 00  nop
    0x1000020cc:            94 02 a0 01  add       %o2, 0x1, %o2
    0x1000020d0:            9e 02 80 14  add       %o2, %l4, %o7
    0x1000020d4:            99 33 f0 3f  srlx      %o7, 0x3f, %o4
    0x1000020d8:            9a 1b 20 01  xor       %o4, 0x1, %o5
    0x1000020dc:            92 20 00 0d  neg       %o5, %o1
    0x1000020e0:            96 0a 40 12  and       %o1, %l2, %o3
    0x1000020e4:            91 2e 30 03  sllx      %i0, 0x3, %o0
    0x1000020e8:            92 06 20 01  add       %i0, 0x1, %o1
    0x1000020ec:            88 02 e0 01  add       %o3, 0x1, %g4
    0x1000020f0:            b0 1a 40 04  xor       %o1, %g4, %i0
    0x1000020f4:            98 10 20 00  clr       %o4
    0x1000020f8:            c8 5e 66 90  ldx       [%i1 + 0x690], %g4
    0x1000020fc:            99 7e 24 01  movre     %i0, 0x1, %o4
    0x100002100:            d6 5c 21 48  ldx       [%l0 + 0x148], %o3
    0x100002104:            9a 20 00 0c  neg       %o4, %o5
    0x100002108:            b1 3b 60 00  sra       %o5, 0x0, %i0
    0x10000210c:            de 5a c0 08  ldx       [%o3 + %o0], %o7
    0x100002110:            9a 01 00 05  add       %g4, %g5, %o5
    0x100002114:            98 0e 00 03  and       %i0, %g3, %o4
    0x100002118:            de 73 40 17  stx       %o7, [%o5 + %l7]
    0x10000211c:            d6 5c 21 48  ldx       [%l0 + 0x148], %o3
    0x100002120:            b0 22 40 0c  sub       %o1, %o4, %i0
    0x100002124:            80 a2 80 15  cmp       %o2, %l5
    0x100002128:            d2 5a 00 0b  ldx       [%o0 + %o3], %o1
    0x10000212c:            8a 01 40 16  add       %g5, %l6, %g5
    0x100002130:            88 02 40 02  add       %o1, %g2, %g4
    0x100002134:            c8 72 00 0b  stx       %g4, [%o0 + %o3]
    0x100002138:            04 6f ff e6  ble,pt    %xcc, -0x68   <0x1000020d0>
    0x10000213c:            94 02 a0 01  add       %o2, 0x1, %o2
    0x100002140:            d6 5b a8 f7  ldx       [%sp + 0x8f7], %o3
    0x100002144:            8a 22 e0 01  sub       %o3, 0x1, %g5
    0x100002148:            80 8a c0 05  btst      %g5, %o3
    0x10000214c:            12 60 00 0d  bne,pn    %xcc, +0x34   <0x100002180>
    0x100002150:            9a 05 00 13  add       %l4, %l3, %o5
    0x100002154:            88 10 00 0b  mov       %o3, %g4
    0x100002158:            02 c1 00 0a  brz,pn    %g4, +0x28    <0x100002180>
    0x10000215c:            89 3b 70 3f  srax      %o5, 0x3f, %g4
    0x100002160:            96 1b 40 04  xor       %o5, %g4, %o3
    0x100002164:            94 22 c0 04  sub       %o3, %g4, %o2
    0x100002168:            90 8a 80 05  andcc     %o2, %g5, %o0
    0x10000216c:            9a 1a 00 04  xor       %o0, %g4, %o5
    0x100002170:            98 23 40 04  sub       %o5, %g4, %o4
    0x100002174:            91 66 50 0c  movne     %xcc, %o4, %o0
    0x100002178:            10 80 00 06  ba        +0x18         <0x100002190>
    0x10000217c:            93 2a 30 03  sllx      %o0, 0x3, %o1
    0x100002180:            9f 6b 40 0b  sdivx     %o5, %o3, %o7
    0x100002184:            8a 4b c0 0b  mulx      %o7, %o3, %g5
    0x100002188:            90 23 40 05  sub       %o5, %g5, %o0
    0x10000218c:            93 2a 30 03  sllx      %o0, 0x3, %o1
    0x100002190:            d4 5b a9 07  ldx       [%sp + 0x907], %o2
    0x100002194:            c8 5c 21 48  ldx       [%l0 + 0x148], %g4
    0x100002198:            da 5e 66 90  ldx       [%i1 + 0x690], %o5
    0x10000219c:            d0 5b a9 17  ldx       [%sp + 0x917], %o0
    0x1000021a0:            8a 05 00 0a  add       %l4, %o2, %g5
    0x1000021a4:            d6 59 00 09  ldx       [%g4 + %o1], %o3
    0x1000021a8:            95 29 70 03  sllx      %g5, 0x3, %o2
    0x1000021ac:            d6 73 40 0a  stx       %o3, [%o5 + %o2]
    0x1000021b0:            f0 5c 21 48  ldx       [%l0 + 0x148], %i0
    0x1000021b4:            a8 05 20 01  add       %l4, 0x1, %l4
    0x1000021b8:            80 a5 00 15  cmp       %l4, %l5
    0x1000021bc:            d8 5a 40 18  ldx       [%o1 + %i0], %o4
    0x1000021c0:            ae 05 e0 08  add       %l7, 0x8, %l7
    0x1000021c4:            90 03 00 08  add       %o4, %o0, %o0
    0x1000021c8:            d0 72 40 18  stx       %o0, [%o1 + %i0]
    0x1000021cc:            24 6f ff 5d  ble,a,pt  %xcc, -0x28c  <0x100001f40>
    0x1000021d0:            ca 5b a9 0f  ldx       [%sp + 0x90f], %g5
    0x1000021d4:            d0 5b a8 ef  ldx       [%sp + 0x8ef], %o0
    0x1000021d8:            04 c2 01 57  brlez,pn  %o0, +0x55c   <0x100002734>
    0x1000021dc:            80 a4 c0 13  cmp       %l3, %l3
    0x1000021e0:            94 10 00 13  mov       %l3, %o2
    0x1000021e4:            34 68 00 02  bg,a,pt   %xcc, +0x8    <0x1000021ec>
    0x1000021e8:            94 10 00 13  mov       %l3, %o2
    0x1000021ec:            86 02 bf ff  add       %o2, -0x1, %g3
    0x1000021f0:            80 a0 00 03  cmp       %g0, %g3
    0x1000021f4:            14 60 00 8c  bg,pn     %xcc, +0x230  <0x100002424>
    0x1000021f8:            c4 5b a8 ff  ldx       [%sp + 0x8ff], %g2
    0x1000021fc:            88 10 20 00  clr       %g4
    0x100002200:            da 5b a8 f7  ldx       [%sp + 0x8f7], %o5
    0x100002204:            a8 4c 40 02  mulx      %l1, %g2, %l4
    0x100002208:            89 7b 64 01  movre     %o5, 0x1, %g4
    0x10000220c:            ac 03 40 04  add       %o5, %g4, %l6
    0x100002210:            b1 3b 70 3f  srax      %o5, 0x3f, %i0
    0x100002214:            8a 25 a0 01  sub       %l6, 0x1, %g5
    0x100002218:            84 1b 40 18  xor       %o5, %i0, %g2
    0x10000221c:            80 8d 80 05  btst      %g5, %l6
    0x100002220:            92 20 80 18  sub       %g2, %i0, %o1
    0x100002224:            97 2d 30 03  sllx      %l4, 0x3, %o3
    0x100002228:            12 60 00 0c  bne,pn    %xcc, +0x30   <0x100002258>
    0x10000222c:            84 10 20 00  clr       %g2
    0x100002230:            02 c5 80 0a  brz,pn    %l6, +0x28    <0x100002258>
    0x100002234:            a9 3c f0 3f  srax      %l3, 0x3f, %l4
    0x100002238:            ac 1c c0 14  xor       %l3, %l4, %l6
    0x10000223c:            ae 25 80 14  sub       %l6, %l4, %l7
    0x100002240:            a4 8d c0 05  andcc     %l7, %g5, %l2
    0x100002244:            aa 1c 80 14  xor       %l2, %l4, %l5
    0x100002248:            b0 25 40 14  sub       %l5, %l4, %i0
    0x10000224c:            a5 66 50 18  movne     %xcc, %i0, %l2
    0x100002250:            10 80 00 06  ba        +0x18         <0x100002268>
    0x100002254:            a8 10 20 00  clr       %l4
    0x100002258:            91 6c c0 16  sdivx     %l3, %l6, %o0
    0x10000225c:            9a 4a 00 16  mulx      %o0, %l6, %o5
    0x100002260:            a4 24 c0 0d  sub       %l3, %o5, %l2
    0x100002264:            a8 10 20 00  clr       %l4
    0x100002268:            80 a2 a0 03  cmp       %o2, 0x3
    0x10000226c:            88 02 7f ff  add       %o1, -0x1, %g4
    0x100002270:            de 5b a8 ef  ldx       [%sp + 0x8ef], %o7
    0x100002274:            8b 2c f0 03  sllx      %l3, 0x3, %g5
    0x100002278:            91 2b f0 03  sllx      %o7, 0x3, %o0
    0x10000227c:            06 60 00 4d  bl,pn     %xcc, +0x134  <0x1000023b0>
    0x100002280:            01 00 00 00  nop
    0x100002284:            98 10 00 0f  mov       %o7, %o4
    0x100002288:            ad 33 f0 3f  srlx      %o7, 0x3f, %l6
    0x10000228c:            9e 1d a0 01  xor       %l6, 0x1, %o7
    0x100002290:            b0 20 00 0f  neg       %o7, %i0
    0x100002294:            ae 0e 00 04  and       %i0, %g4, %l7
    0x100002298:            aa 04 a0 01  add       %l2, 0x1, %l5
    0x10000229c:            9a 05 e0 01  add       %l7, 0x1, %o5
    0x1000022a0:            ac 03 20 01  add       %o4, 0x1, %l6
    0x1000022a4:            99 2c b0 03  sllx      %l2, 0x3, %o4
    0x1000022a8:            9e 1d 40 0d  xor       %l5, %o5, %o7
    0x1000022ac:            b0 10 20 00  clr       %i0
    0x1000022b0:            b1 7b e4 01  movre     %o7, 0x1, %i0
    0x1000022b4:            ae 20 00 18  neg       %i0, %l7
    0x1000022b8:            9b 3d e0 00  sra       %l7, 0x0, %o5
    0x1000022bc:            9e 0b 40 09  and       %o5, %o1, %o7
    0x1000022c0:            ae 25 40 0f  sub       %l5, %o7, %l7
    0x1000022c4:            b1 35 b0 3f  srlx      %l6, 0x3f, %i0
    0x1000022c8:            aa 1e 20 01  xor       %i0, 0x1, %l5
    0x1000022cc:            9e 20 00 15  neg       %l5, %o7
    0x1000022d0:            b0 0b c0 04  and       %o7, %g4, %i0
    0x1000022d4:            de 5c 21 48  ldx       [%l0 + 0x148], %o7
    0x1000022d8:            da 5e 66 90  ldx       [%i1 + 0x690], %o5
    0x1000022dc:            84 10 20 02  mov       0x2, %g2
    0x1000022e0:            de 5b c0 0c  ldx       [%o7 + %o4], %o7
    0x1000022e4:            de 73 40 05  stx       %o7, [%o5 + %g5]
    0x1000022e8:            de 5c 21 48  ldx       [%l0 + 0x148], %o7
    0x1000022ec:            a4 06 20 01  add       %i0, 0x1, %l2
    0x1000022f0:            a8 10 00 08  mov       %o0, %l4
    0x1000022f4:            da 5b 00 0f  ldx       [%o4 + %o7], %o5
    0x1000022f8:            aa 05 e0 01  add       %l7, 0x1, %l5
    0x1000022fc:            9a 03 40 0b  add       %o5, %o3, %o5
    0x100002300:            da 73 00 0f  stx       %o5, [%o4 + %o7]
    0x100002304:            a4 1d 40 12  xor       %l5, %l2, %l2
    0x100002308:            84 00 a0 01  add       %g2, 0x1, %g2
    0x10000230c:            9e 10 20 00  clr       %o7
    0x100002310:            9f 7c a4 01  movre     %l2, 0x1, %o7
    0x100002314:            80 a0 80 03  cmp       %g2, %g3
    0x100002318:            99 2d f0 03  sllx      %l7, 0x3, %o4
    0x10000231c:            9a 20 00 0f  neg       %o7, %o5
    0x100002320:            ee 5c 21 48  ldx       [%l0 + 0x148], %l7
    0x100002324:            a5 3b 60 00  sra       %o5, 0x0, %l2
    0x100002328:            da 5e 66 90  ldx       [%i1 + 0x690], %o5
    0x10000232c:            a4 0c 80 09  and       %l2, %o1, %l2
    0x100002330:            de 5d c0 0c  ldx       [%l7 + %o4], %o7
    0x100002334:            9a 03 40 14  add       %o5, %l4, %o5
    0x100002338:            ae 25 40 12  sub       %l5, %l2, %l7
    0x10000233c:            de 73 40 05  stx       %o7, [%o5 + %g5]
    0x100002340:            ac 05 a0 01  add       %l6, 0x1, %l6
    0x100002344:            da 5c 21 48  ldx       [%l0 + 0x148], %o5
    0x100002348:            ab 35 b0 3f  srlx      %l6, 0x3f, %l5
    0x10000234c:            a8 05 00 08  add       %l4, %o0, %l4
    0x100002350:            a4 1d 60 01  xor       %l5, 0x1, %l2
    0x100002354:            de 5b 00 0d  ldx       [%o4 + %o5], %o7
    0x100002358:            aa 05 e0 01  add       %l7, 0x1, %l5
    0x10000235c:            a4 20 00 12  neg       %l2
    0x100002360:            9e 03 c0 0b  add       %o7, %o3, %o7
    0x100002364:            a4 0c 80 04  and       %l2, %g4, %l2
    0x100002368:            de 73 00 0d  stx       %o7, [%o4 + %o5]
    0x10000236c:            04 6f ff e6  ble,pt    %xcc, -0x68   <0x100002304>
    0x100002370:            a4 04 a0 01  add       %l2, 0x1, %l2
    0x100002374:            98 1d 40 12  xor       %l5, %l2, %o4
    0x100002378:            ea 5e 66 90  ldx       [%i1 + 0x690], %l5
    0x10000237c:            ec 5c 21 48  ldx       [%l0 + 0x148], %l6
    0x100002380:            9e 10 20 00  clr       %o7
    0x100002384:            9b 2d f0 03  sllx      %l7, 0x3, %o5
    0x100002388:            9f 7b 24 01  movre     %o4, 0x1, %o7
    0x10000238c:            f0 5d 80 0d  ldx       [%l6 + %o5], %i0
    0x100002390:            9e 05 40 14  add       %l5, %l4, %o7
    0x100002394:            f0 73 c0 05  stx       %i0, [%o7 + %g5]
    0x100002398:            ea 5c 21 48  ldx       [%l0 + 0x148], %l5
    0x10000239c:            ee 5b 40 15  ldx       [%o5 + %l5], %l7
    0x1000023a0:            98 05 c0 0b  add       %l7, %o3, %o4
    0x1000023a4:            d8 73 40 15  stx       %o4, [%o5 + %l5]
    0x1000023a8:            10 80 00 1f  ba        +0x7c         <0x100002424>
    0x1000023ac:            01 00 00 00  nop
    0x1000023b0:            84 00 a0 01  add       %g2, 0x1, %g2
    0x1000023b4:            ac 00 80 13  add       %g2, %l3, %l6
    0x1000023b8:            ab 35 b0 3f  srlx      %l6, 0x3f, %l5
    0x1000023bc:            b0 1d 60 01  xor       %l5, 0x1, %i0
    0x1000023c0:            9e 20 00 18  neg       %i0, %o7
    0x1000023c4:            98 0b c0 04  and       %o7, %g4, %o4
    0x1000023c8:            ac 04 a0 01  add       %l2, 0x1, %l6
    0x1000023cc:            ae 03 20 01  add       %o4, 0x1, %l7
    0x1000023d0:            ab 2c b0 03  sllx      %l2, 0x3, %l5
    0x1000023d4:            9a 1d 80 17  xor       %l6, %l7, %o5
    0x1000023d8:            b0 10 20 00  clr       %i0
    0x1000023dc:            b1 7b 64 01  movre     %o5, 0x1, %i0
    0x1000023e0:            da 5e 66 90  ldx       [%i1 + 0x690], %o5
    0x1000023e4:            ee 5c 21 48  ldx       [%l0 + 0x148], %l7
    0x1000023e8:            9e 20 00 18  neg       %i0, %o7
    0x1000023ec:            a4 03 40 14  add       %o5, %l4, %l2
    0x1000023f0:            f0 5d c0 15  ldx       [%l7 + %l5], %i0
    0x1000023f4:            99 3b e0 00  sra       %o7, 0x0, %o4
    0x1000023f8:            9e 0b 00 09  and       %o4, %o1, %o7
    0x1000023fc:            f0 74 80 05  stx       %i0, [%l2 + %g5]
    0x100002400:            da 5c 21 48  ldx       [%l0 + 0x148], %o5
    0x100002404:            a4 25 80 0f  sub       %l6, %o7, %l2
    0x100002408:            80 a0 80 03  cmp       %g2, %g3
    0x10000240c:            d8 5d 40 0d  ldx       [%l5 + %o5], %o4
    0x100002410:            a8 05 00 08  add       %l4, %o0, %l4
    0x100002414:            ac 03 00 0b  add       %o4, %o3, %l6
    0x100002418:            ec 75 40 0d  stx       %l6, [%l5 + %o5]
    0x10000241c:            04 6f ff e6  ble,pt    %xcc, -0x68   <0x1000023b4>
    0x100002420:            84 00 a0 01  add       %g2, 0x1, %g2
    0x100002424:            06 c4 c0 2c  brlz,pn   %l3, +0xb0    <0x1000024d4>
    0x100002428:            97 3a b0 3f  srax      %o2, 0x3f, %o3
    0x10000242c:            d2 5b a8 f7  ldx       [%sp + 0x8f7], %o1
    0x100002430:            98 2a 80 0b  andn      %o2, %o3, %o4
    0x100002434:            9e 22 60 01  sub       %o1, 0x1, %o7
    0x100002438:            80 8a 40 0f  btst      %o7, %o1
    0x10000243c:            12 60 00 0d  bne,pn    %xcc, +0x34   <0x100002470>
    0x100002440:            92 04 c0 0c  add       %l3, %o4, %o1
    0x100002444:            ee 5b a8 f7  ldx       [%sp + 0x8f7], %l7
    0x100002448:            02 c5 c0 0a  brz,pn    %l7, +0x28    <0x100002470>
    0x10000244c:            8b 3a 70 3f  srax      %o1, 0x3f, %g5
    0x100002450:            aa 1a 40 05  xor       %o1, %g5, %l5
    0x100002454:            94 25 40 05  sub       %l5, %g5, %o2
    0x100002458:            96 8a 80 0f  andcc     %o2, %o7, %o3
    0x10000245c:            92 1a c0 05  xor       %o3, %g5, %o1
    0x100002460:            86 22 40 05  sub       %o1, %g5, %g3
    0x100002464:            97 66 50 03  movne     %xcc, %g3, %o3
    0x100002468:            10 80 00 07  ba        +0x1c         <0x100002484>
    0x10000246c:            f0 5b a8 ef  ldx       [%sp + 0x8ef], %i0
    0x100002470:            f0 5b a8 f7  ldx       [%sp + 0x8f7], %i0
    0x100002474:            9f 6a 40 18  sdivx     %o1, %i0, %o7
    0x100002478:            a4 4b c0 18  mulx      %o7, %i0, %l2
    0x10000247c:            f0 5b a8 ef  ldx       [%sp + 0x8ef], %i0
    0x100002480:            96 22 40 12  sub       %o1, %l2, %o3
    0x100002484:            84 4b 00 18  mulx      %o4, %i0, %g2
    0x100002488:            c8 5c 21 48  ldx       [%l0 + 0x148], %g4
    0x10000248c:            da 5e 66 90  ldx       [%i1 + 0x690], %o5
    0x100002490:            ab 2a f0 03  sllx      %o3, 0x3, %l5
    0x100002494:            80 a3 00 13  cmp       %o4, %l3
    0x100002498:            ac 04 c0 02  add       %l3, %g2, %l6
    0x10000249c:            d8 59 00 15  ldx       [%g4 + %l5], %o4
    0x1000024a0:            af 2d b0 03  sllx      %l6, 0x3, %l7
    0x1000024a4:            12 60 00 05  bne,pn    %xcc, +0x14   <0x1000024b8>
    0x1000024a8:            d8 73 40 17  stx       %o4, [%o5 + %l7]
    0x1000024ac:            94 4c 40 11  mulx      %l1, %l1, %o2
    0x1000024b0:            10 80 00 05  ba        +0x14         <0x1000024c4>
    0x1000024b4:            e8 5c 21 48  ldx       [%l0 + 0x148], %l4
    0x1000024b8:            d4 5b a8 ff  ldx       [%sp + 0x8ff], %o2
    0x1000024bc:            e8 5c 21 48  ldx       [%l0 + 0x148], %l4
    0x1000024c0:            94 4c 40 0a  mulx      %l1, %o2, %o2
    0x1000024c4:            ec 5d 40 14  ldx       [%l5 + %l4], %l6
    0x1000024c8:            89 2a b0 03  sllx      %o2, 0x3, %g4
    0x1000024cc:            86 05 80 04  add       %l6, %g4, %g3
    0x1000024d0:            c6 75 40 14  stx       %g3, [%l5 + %l4]
    0x1000024d4:            a5 3c f0 3f  srax      %l3, 0x3f, %l2
    0x1000024d8:            90 2c c0 12  andn      %l3, %l2, %o0
    0x1000024dc:            80 a2 00 13  cmp       %o0, %l3
    0x1000024e0:            9a 10 00 08  mov       %o0, %o5
    0x1000024e4:            34 68 00 02  bg,a,pt   %xcc, +0x8    <0x1000024ec>
    0x1000024e8:            9a 10 00 13  mov       %l3, %o5
    0x1000024ec:            90 03 60 01  add       %o5, 0x1, %o0
    0x1000024f0:            80 a2 00 13  cmp       %o0, %l3
    0x1000024f4:            14 60 00 90  bg,pn     %xcc, +0x240  <0x100002734>
    0x1000024f8:            ea 5b a8 ff  ldx       [%sp + 0x8ff], %l5
    0x1000024fc:            92 10 20 00  clr       %o1
    0x100002500:            ee 5b a8 f7  ldx       [%sp + 0x8f7], %l7
    0x100002504:            ac 4c 40 15  mulx      %l1, %l5, %l6
    0x100002508:            93 7d e4 01  movre     %l7, 0x1, %o1
    0x10000250c:            a4 05 c0 09  add       %l7, %o1, %l2
    0x100002510:            9f 3d f0 3f  srax      %l7, 0x3f, %o7
    0x100002514:            98 24 a0 01  sub       %l2, 0x1, %o4
    0x100002518:            ae 1d c0 0f  xor       %l7, %o7, %l7
    0x10000251c:            80 8c 80 0c  btst      %o4, %l2
    0x100002520:            a9 2d b0 03  sllx      %l6, 0x3, %l4
    0x100002524:            9a 25 c0 0f  sub       %l7, %o7, %o5
    0x100002528:            12 60 00 0c  bne,pn    %xcc, +0x30   <0x100002558>
    0x10000252c:            aa 02 00 13  add       %o0, %l3, %l5
    0x100002530:            02 c4 80 0a  brz,pn    %l2, +0x28    <0x100002558>
    0x100002534:            9f 3d 70 3f  srax      %l5, 0x3f, %o7
    0x100002538:            88 1d 40 0f  xor       %l5, %o7, %g4
    0x10000253c:            8a 21 00 0f  sub       %g4, %o7, %g5
    0x100002540:            a2 89 40 0c  andcc     %g5, %o4, %l1
    0x100002544:            94 1c 40 0f  xor       %l1, %o7, %o2
    0x100002548:            98 22 80 0f  sub       %o2, %o7, %o4
    0x10000254c:            a3 66 50 0c  movne     %xcc, %o4, %l1
    0x100002550:            10 80 00 06  ba        +0x18         <0x100002568>
    0x100002554:            ca 5b a8 ef  ldx       [%sp + 0x8ef], %g5
    0x100002558:            85 6d 40 12  sdivx     %l5, %l2, %g2
    0x10000255c:            86 48 80 12  mulx      %g2, %l2, %g3
    0x100002560:            ca 5b a8 ef  ldx       [%sp + 0x8ef], %g5
    0x100002564:            a2 25 40 03  sub       %l5, %g3, %l1
    0x100002568:            9e 24 c0 08  sub       %l3, %o0, %o7
    0x10000256c:            86 03 e0 01  add       %o7, 0x1, %g3
    0x100002570:            ad 29 70 03  sllx      %g5, 0x3, %l6
    0x100002574:            92 4a 00 16  mulx      %o0, %l6, %o1
    0x100002578:            80 a0 e0 03  cmp       %g3, 0x3
    0x10000257c:            a4 03 7f ff  add       %o5, -0x1, %l2
    0x100002580:            ab 2c f0 03  sllx      %l3, 0x3, %l5
    0x100002584:            06 60 00 4f  bl,pn     %xcc, +0x13c  <0x1000026c0>
    0x100002588:            01 00 00 00  nop
    0x10000258c:            b0 04 c0 08  add       %l3, %o0, %i0
    0x100002590:            84 06 20 01  add       %i0, 0x1, %g2
    0x100002594:            99 30 b0 3f  srlx      %g2, 0x3f, %o4
    0x100002598:            8a 1b 20 01  xor       %o4, 0x1, %g5
    0x10000259c:            ae 20 00 05  neg       %g5, %l7
    0x1000025a0:            96 0d c0 12  and       %l7, %l2, %o3
    0x1000025a4:            88 02 e0 01  add       %o3, 0x1, %g4
    0x1000025a8:            96 04 60 01  add       %l1, 0x1, %o3
    0x1000025ac:            9e 06 20 02  add       %i0, 0x2, %o7
    0x1000025b0:            95 2c 70 03  sllx      %l1, 0x3, %o2
    0x1000025b4:            86 1a c0 04  xor       %o3, %g4, %g3
    0x1000025b8:            b0 10 20 00  clr       %i0
    0x1000025bc:            b1 78 e4 01  movre     %g3, 0x1, %i0
    0x1000025c0:            98 20 00 18  neg       %i0, %o4
    0x1000025c4:            8b 3b 20 00  sra       %o4, 0x0, %g5
    0x1000025c8:            ae 09 40 0d  and       %g5, %o5, %l7
    0x1000025cc:            86 22 c0 17  sub       %o3, %l7, %g3
    0x1000025d0:            c8 5e 66 90  ldx       [%i1 + 0x690], %g4
    0x1000025d4:            ae 02 40 16  add       %o1, %l6, %l7
    0x1000025d8:            85 33 f0 3f  srlx      %o7, 0x3f, %g2
    0x1000025dc:            8a 01 00 09  add       %g4, %o1, %g5
    0x1000025e0:            d2 5c 21 48  ldx       [%l0 + 0x148], %o1
    0x1000025e4:            a2 18 a0 01  xor       %g2, 0x1, %l1
    0x1000025e8:            b0 20 00 11  neg       %l1, %i0
    0x1000025ec:            d6 5a 40 0a  ldx       [%o1 + %o2], %o3
    0x1000025f0:            d6 71 40 15  stx       %o3, [%g5 + %l5]
    0x1000025f4:            ca 5c 21 48  ldx       [%l0 + 0x148], %g5
    0x1000025f8:            98 0e 00 12  and       %i0, %l2, %o4
    0x1000025fc:            90 02 20 02  add       %o0, 0x2, %o0
    0x100002600:            c8 5a 80 05  ldx       [%o2 + %g5], %g4
    0x100002604:            a2 03 20 01  add       %o4, 0x1, %l1
    0x100002608:            84 00 e0 01  add       %g3, 0x1, %g2
    0x10000260c:            b0 01 00 14  add       %g4, %l4, %i0
    0x100002610:            f0 72 80 05  stx       %i0, [%o2 + %g5]
    0x100002614:            94 18 80 11  xor       %g2, %l1, %o2
    0x100002618:            90 02 20 01  add       %o0, 0x1, %o0
    0x10000261c:            a2 10 20 00  clr       %l1
    0x100002620:            a3 7a a4 01  movre     %o2, 0x1, %l1
    0x100002624:            80 a2 00 13  cmp       %o0, %l3
    0x100002628:            95 28 f0 03  sllx      %g3, 0x3, %o2
    0x10000262c:            96 20 00 11  neg       %l1, %o3
    0x100002630:            f0 5c 21 48  ldx       [%l0 + 0x148], %i0
    0x100002634:            89 3a e0 00  sra       %o3, 0x0, %g4
    0x100002638:            ca 5e 66 90  ldx       [%i1 + 0x690], %g5
    0x10000263c:            86 09 00 0d  and       %g4, %o5, %g3
    0x100002640:            e2 5e 00 0a  ldx       [%i0 + %o2], %l1
    0x100002644:            92 01 40 17  add       %g5, %l7, %o1
    0x100002648:            86 20 80 03  sub       %g2, %g3, %g3
    0x10000264c:            e2 72 40 15  stx       %l1, [%o1 + %l5]
    0x100002650:            9e 03 e0 01  add       %o7, 0x1, %o7
    0x100002654:            d6 5c 21 48  ldx       [%l0 + 0x148], %o3
    0x100002658:            85 33 f0 3f  srlx      %o7, 0x3f, %g2
    0x10000265c:            ae 05 c0 16  add       %l7, %l6, %l7
    0x100002660:            88 18 a0 01  xor       %g2, 0x1, %g4
    0x100002664:            f0 5a 80 0b  ldx       [%o2 + %o3], %i0
    0x100002668:            84 00 e0 01  add       %g3, 0x1, %g2
    0x10000266c:            8a 20 00 04  neg       %g4, %g5
    0x100002670:            92 06 00 14  add       %i0, %l4, %o1
    0x100002674:            a2 09 40 12  and       %g5, %l2, %l1
    0x100002678:            d2 72 80 0b  stx       %o1, [%o2 + %o3]
    0x10000267c:            04 6f ff e6  ble,pt    %xcc, -0x68   <0x100002614>
    0x100002680:            a2 04 60 01  add       %l1, 0x1, %l1
    0x100002684:            8b 28 f0 03  sllx      %g3, 0x3, %g5
    0x100002688:            86 18 80 11  xor       %g2, %l1, %g3
    0x10000268c:            c4 5e 66 90  ldx       [%i1 + 0x690], %g2
    0x100002690:            94 10 20 00  clr       %o2
    0x100002694:            95 78 e4 01  movre     %g3, 0x1, %o2
    0x100002698:            96 00 80 17  add       %g2, %l7, %o3
    0x10000269c:            ee 5c 21 48  ldx       [%l0 + 0x148], %l7
    0x1000026a0:            de 5d c0 05  ldx       [%l7 + %g5], %o7
    0x1000026a4:            de 72 c0 15  stx       %o7, [%o3 + %l5]
    0x1000026a8:            d4 5c 21 48  ldx       [%l0 + 0x148], %o2
    0x1000026ac:            c8 59 40 0a  ldx       [%g5 + %o2], %g4
    0x1000026b0:            86 01 00 14  add       %g4, %l4, %g3
    0x1000026b4:            c6 71 40 0a  stx       %g3, [%g5 + %o2]
    0x1000026b8:            10 80 00 1f  ba        +0x7c         <0x100002734>
    0x1000026bc:            01 00 00 00  nop
    0x1000026c0:            90 02 20 01  add       %o0, 0x1, %o0
    0x1000026c4:            ae 02 00 13  add       %o0, %l3, %l7
    0x1000026c8:            85 35 f0 3f  srlx      %l7, 0x3f, %g2
    0x1000026cc:            b0 18 a0 01  xor       %g2, 0x1, %i0
    0x1000026d0:            8a 20 00 18  neg       %i0, %g5
    0x1000026d4:            88 09 40 12  and       %g5, %l2, %g4
    0x1000026d8:            94 01 20 01  add       %g4, 0x1, %o2
    0x1000026dc:            84 04 60 01  add       %l1, 0x1, %g2
    0x1000026e0:            96 18 80 0a  xor       %g2, %o2, %o3
    0x1000026e4:            87 2c 70 03  sllx      %l1, 0x3, %g3
    0x1000026e8:            9e 10 20 00  clr       %o7
    0x1000026ec:            ca 5e 66 90  ldx       [%i1 + 0x690], %g5
    0x1000026f0:            9f 7a e4 01  movre     %o3, 0x1, %o7
    0x1000026f4:            d4 5c 21 48  ldx       [%l0 + 0x148], %o2
    0x1000026f8:            98 20 00 0f  neg       %o7, %o4
    0x1000026fc:            af 3b 20 00  sra       %o4, 0x0, %l7
    0x100002700:            d6 5a 80 03  ldx       [%o2 + %g3], %o3
    0x100002704:            88 01 40 09  add       %g5, %o1, %g4
    0x100002708:            b0 0d c0 0d  and       %l7, %o5, %i0
    0x10000270c:            d6 71 00 15  stx       %o3, [%g4 + %l5]
    0x100002710:            ee 5c 21 48  ldx       [%l0 + 0x148], %l7
    0x100002714:            80 a2 00 13  cmp       %o0, %l3
    0x100002718:            a2 20 80 18  sub       %g2, %i0, %l1
    0x10000271c:            de 58 c0 17  ldx       [%g3 + %l7], %o7
    0x100002720:            92 02 40 16  add       %o1, %l6, %o1
    0x100002724:            98 03 c0 14  add       %o7, %l4, %o4
    0x100002728:            d8 70 c0 17  stx       %o4, [%g3 + %l7]
    0x10000272c:            04 6f ff e6  ble,pt    %xcc, -0x68   <0x1000026c4>
    0x100002730:            90 02 20 01  add       %o0, 0x1, %o0
    0x100002734:            f0 5e e4 d8  ldx       [%i3 + 0x4d8], %i0
    0x100002738:            40 04 1a 0a  call      +0x106828     <0x100108f60>
    0x10000273c:            91 2e 30 03  sllx      %i0, 0x3, %o0
    0x100002740:            09 00 04 00  sethi     %hi(0x100000), %g4
    0x100002744:            86 11 21 09  or        %g4, 0x109, %g3
    0x100002748:            87 28 f0 0c  sllx      %g3, 0xc, %g3
    0x10000274c:            c6 73 a8 df  stx       %g3, [%sp + 0x8df]
    0x100002750:            02 c2 04 e4  brz,pn    %o0, +0x1390  <0x100003ae0>
    0x100002754:            d0 70 e6 98  stx       %o0, [%g3 + 0x698]
    0x100002758:            90 10 20 a0  mov       0xa0, %o0
    0x10000275c:            40 04 1a 01  call      +0x106804     <0x100108f60>
    0x100002760:            01 00 00 00  nop
    0x100002764:            ee 5b a8 cf  ldx       [%sp + 0x8cf], %l7
    0x100002768:            d6 5f 64 e0  ldx       [%i5 + 0x4e0], %o3
    0x10000276c:            d0 75 e1 30  stx       %o0, [%l7 + 0x130]
    0x100002770:            40 04 19 fc  call      +0x1067f0     <0x100108f60>
    0x100002774:            91 2a f0 03  sllx      %o3, 0x3, %o0
    0x100002778:            e0 5f 64 e0  ldx       [%i5 + 0x4e0], %l0
    0x10000277c:            c4 5d e1 30  ldx       [%l7 + 0x130], %g2
    0x100002780:            d0 70 a0 00  stx       %o0, [%g2]
    0x100002784:            40 04 19 f7  call      +0x1067dc     <0x100108f60>
    0x100002788:            91 2c 30 03  sllx      %l0, 0x3, %o0
    0x10000278c:            e4 5d e1 30  ldx       [%l7 + 0x130], %l2
    0x100002790:            e8 5f 64 e0  ldx       [%i5 + 0x4e0], %l4
    0x100002794:            d0 74 a0 10  stx       %o0, [%l2 + 0x10]
    0x100002798:            40 04 19 f2  call      +0x1067c8     <0x100108f60>
    0x10000279c:            91 2d 30 03  sllx      %l4, 0x3, %o0
    0x1000027a0:            de 5f 64 e0  ldx       [%i5 + 0x4e0], %o7
    0x1000027a4:            d2 5d e1 30  ldx       [%l7 + 0x130], %o1
    0x1000027a8:            d0 72 60 08  stx       %o0, [%o1 + 0x8]
    0x1000027ac:            91 2b f0 03  sllx      %o7, 0x3, %o0
    0x1000027b0:            40 04 19 ec  call      +0x1067b0     <0x100108f60>
    0x1000027b4:            01 00 00 00  nop
    0x1000027b8:            e2 5d e1 30  ldx       [%l7 + 0x130], %l1
    0x1000027bc:            e6 5f 64 e0  ldx       [%i5 + 0x4e0], %l3
    0x1000027c0:            d0 74 60 18  stx       %o0, [%l1 + 0x18]
    0x1000027c4:            40 04 19 e7  call      +0x10679c     <0x100108f60>
    0x1000027c8:            91 2c f0 03  sllx      %l3, 0x3, %o0
    0x1000027cc:            e0 5d e1 30  ldx       [%l7 + 0x130], %l0
    0x1000027d0:            02 c4 04 cd  brz,pn    %l0, +0x1334  <0x100003b04>
    0x1000027d4:            d0 74 20 20  stx       %o0, [%l0 + 0x20]
    0x1000027d8:            ea 5c 20 00  ldx       [%l0], %l5
    0x1000027dc:            02 c5 44 d4  brz,pn    %l5, +0x1350  <0x100003b2c>
    0x1000027e0:            01 00 00 00  nop
    0x1000027e4:            f0 5c 20 10  ldx       [%l0 + 0x10], %i0
    0x1000027e8:            02 c6 04 db  brz,pn    %i0, +0x136c  <0x100003b54>
    0x1000027ec:            01 00 00 00  nop
    0x1000027f0:            de 5c 20 08  ldx       [%l0 + 0x8], %o7
    0x1000027f4:            02 c3 c4 e2  brz,pn    %o7, +0x1388  <0x100003b7c>
    0x1000027f8:            01 00 00 00  nop
    0x1000027fc:            e8 5c 20 18  ldx       [%l0 + 0x18], %l4
    0x100002800:            02 c5 04 ea  brz,pn    %l4, +0x13a8  <0x100003ba8>
    0x100002804:            01 00 00 00  nop
    0x100002808:            02 c2 04 f2  brz,pn    %o0, +0x13c8  <0x100003bd0>
    0x10000280c:            90 04 20 50  add       %l0, 0x50, %o0
    0x100002810:            40 04 19 dc  call      +0x106770     <0x100108f80>
    0x100002814:            92 10 20 00  clr       %o1
    0x100002818:            0a c2 04 f8  brnz,pn   %o0, +0x13e0  <0x100003bf8>
    0x10000281c:            e4 5b a8 cf  ldx       [%sp + 0x8cf], %l2
    0x100002820:            c6 5c a1 30  ldx       [%l2 + 0x130], %g3
    0x100002824:            92 10 20 00  clr       %o1
    0x100002828:            40 04 19 de  call      +0x106778     <0x100108fa0>
    0x10000282c:            90 00 e0 68  add       %g3, 0x68, %o0
    0x100002830:            0a c2 04 fb  brnz,pn   %o0, +0x13ec  <0x100003c1c>
    0x100002834:            c8 5c a1 30  ldx       [%l2 + 0x130], %g4
    0x100002838:            c0 71 20 78  clrx      [%g4 + 0x78]
    0x10000283c:            c0 71 20 80  clrx      [%g4 + 0x80]
    0x100002840:            90 01 20 88  add       %g4, 0x88, %o0
    0x100002844:            40 04 19 cf  call      +0x10673c     <0x100108f80>
    0x100002848:            92 10 20 00  clr       %o1
    0x10000284c:            c8 5b a8 df  ldx       [%sp + 0x8df], %g4
    0x100002850:            ee 5c a1 30  ldx       [%l2 + 0x130], %l7
    0x100002854:            90 10 20 01  mov       0x1, %o0
    0x100002858:            f0 59 26 98  ldx       [%g4 + 0x698], %i0
    0x10000285c:            f0 73 a8 e7  stx       %i0, [%sp + 0x8e7]
    0x100002860:            40 04 19 d8  call      +0x106760     <0x100108fc0>
    0x100002864:            c0 75 e0 48  clrx      [%l7 + 0x48]
    0x100002868:            c4 5f 24 e8  ldx       [%i4 + 0x4e8], %g2
    0x10000286c:            c6 5e e4 d8  ldx       [%i3 + 0x4d8], %g3
    0x100002870:            9e 20 a0 01  sub       %g2, 0x1, %o7
    0x100002874:            80 88 80 0f  btst      %o7, %g2
    0x100002878:            12 60 00 0c  bne,pn    %xcc, +0x30   <0x1000028a8>
    0x10000287c:            01 00 00 00  nop
    0x100002880:            02 c0 80 0a  brz,pn    %g2, +0x28    <0x1000028a8>
    0x100002884:            a5 38 f0 3f  srax      %g3, 0x3f, %l2
    0x100002888:            ae 18 c0 12  xor       %g3, %l2, %l7
    0x10000288c:            a0 25 c0 12  sub       %l7, %l2, %l0
    0x100002890:            a0 8c 00 0f  andcc     %l0, %o7, %l0
    0x100002894:            aa 1c 00 12  xor       %l0, %l2, %l5
    0x100002898:            b0 25 40 12  sub       %l5, %l2, %i0
    0x10000289c:            a1 66 50 18  movne     %xcc, %i0, %l0
    0x1000028a0:            10 80 00 05  ba        +0x14         <0x1000028b4>
    0x1000028a4:            01 00 00 00  nop
    0x1000028a8:            a9 68 c0 02  sdivx     %g3, %g2, %l4
    0x1000028ac:            ac 4d 00 02  mulx      %l4, %g2, %l6
    0x1000028b0:            a0 20 c0 16  sub       %g3, %l6, %l0
    0x1000028b4:            04 c0 c0 56  brlez,pn  %g3, +0x158   <0x100002a0c>
    0x1000028b8:            2b 00 04 00  sethi     %hi(0x100000), %l5
    0x1000028bc:            88 15 60 01  or        %l5, 0x1, %g4
    0x1000028c0:            ab 29 30 0c  sllx      %g4, 0xc, %l5
    0x1000028c4:            ac 05 68 20  add       %l5, 0x820, %l6
    0x1000028c8:            ae 10 20 00  clr       %l7
    0x1000028cc:            04 c0 c0 4c  brlez,pn  %g3, +0x130   <0x1000029fc>
    0x1000028d0:            a8 10 20 00  clr       %l4
    0x1000028d4:            9b 6d c0 02  sdivx     %l7, %g2, %o5
    0x1000028d8:            91 6d 00 02  sdivx     %l4, %g2, %o0
    0x1000028dc:            88 20 c0 14  sub       %g3, %l4, %g4
    0x1000028e0:            b0 20 c0 10  sub       %g3, %l0, %i0
    0x1000028e4:            a6 10 00 02  mov       %g2, %l3
    0x1000028e8:            a4 10 00 02  mov       %g2, %l2
    0x1000028ec:            d4 5e a1 28  ldx       [%i2 + 0x128], %o2
    0x1000028f0:            80 a1 00 10  cmp       %g4, %l0
    0x1000028f4:            a7 64 90 18  movle     %xcc, %i0, %l3
    0x1000028f8:            98 4b 40 0a  mulx      %o5, %o2, %o4
    0x1000028fc:            86 20 c0 17  sub       %g3, %l7, %g3
    0x100002900:            a5 64 90 10  movle     %xcc, %l0, %l2
    0x100002904:            80 a0 c0 10  cmp       %g3, %l0
    0x100002908:            b1 66 90 02  movg      %xcc, %g2, %i0
    0x10000290c:            40 04 19 b5  call      +0x1066d4     <0x100108fe0>
    0x100002910:            a2 02 00 0c  add       %o0, %o4, %l1
    0x100002914:            ca 5e 66 90  ldx       [%i1 + 0x690], %g5
    0x100002918:            96 24 e0 01  sub       %l3, 0x1, %o3
    0x10000291c:            c6 5e e4 d8  ldx       [%i3 + 0x4d8], %g3
    0x100002920:            80 8c c0 0b  btst      %o3, %l3
    0x100002924:            c4 5f 24 e8  ldx       [%i4 + 0x4e8], %g2
    0x100002928:            12 60 00 0c  bne,pn    %xcc, +0x30   <0x100002958>
    0x10000292c:            89 2c 70 03  sllx      %l1, 0x3, %g4
    0x100002930:            02 c4 c0 0a  brz,pn    %l3, +0x28    <0x100002958>
    0x100002934:            93 3d 30 3f  srax      %l4, 0x3f, %o1
    0x100002938:            98 1d 00 09  xor       %l4, %o1, %o4
    0x10000293c:            a6 23 00 09  sub       %o4, %o1, %l3
    0x100002940:            94 8c c0 0b  andcc     %l3, %o3, %o2
    0x100002944:            96 1a 80 09  xor       %o2, %o1, %o3
    0x100002948:            9a 22 c0 09  sub       %o3, %o1, %o5
    0x10000294c:            95 66 50 0d  movne     %xcc, %o5, %o2
    0x100002950:            10 80 00 06  ba        +0x18         <0x100002968>
    0x100002954:            9a 26 20 01  sub       %i0, 0x1, %o5
    0x100002958:            9f 6d 00 13  sdivx     %l4, %l3, %o7
    0x10000295c:            a2 4b c0 13  mulx      %o7, %l3, %l1
    0x100002960:            94 25 00 11  sub       %l4, %l1, %o2
    0x100002964:            9a 26 20 01  sub       %i0, 0x1, %o5
    0x100002968:            80 8e 00 0d  btst      %o5, %i0
    0x10000296c:            12 60 00 0c  bne,pn    %xcc, +0x30   <0x10000299c>
    0x100002970:            01 00 00 00  nop
    0x100002974:            02 c6 00 0a  brz,pn    %i0, +0x28    <0x10000299c>
    0x100002978:            a7 3d f0 3f  srax      %l7, 0x3f, %l3
    0x10000297c:            a2 1d c0 13  xor       %l7, %l3, %l1
    0x100002980:            98 24 40 13  sub       %l1, %l3, %o4
    0x100002984:            92 8b 00 0d  andcc     %o4, %o5, %o1
    0x100002988:            b0 1a 40 13  xor       %o1, %l3, %i0
    0x10000298c:            96 26 00 13  sub       %i0, %l3, %o3
    0x100002990:            93 66 50 0b  movne     %xcc, %o3, %o1
    0x100002994:            10 80 00 06  ba        +0x18         <0x1000029ac>
    0x100002998:            96 4a 40 12  mulx      %o1, %l2, %o3
    0x10000299c:            9b 6d c0 18  sdivx     %l7, %i0, %o5
    0x1000029a0:            9e 4b 40 18  mulx      %o5, %i0, %o7
    0x1000029a4:            92 25 c0 0f  sub       %l7, %o7, %o1
    0x1000029a8:            96 4a 40 12  mulx      %o1, %l2, %o3
    0x1000029ac:            d0 73 aa 67  stx       %o0, [%sp + 0xa67]
    0x1000029b0:            c1 1b aa 67  ldd       [%sp + 0xa67], %d0
    0x1000029b4:            c5 1d bf f8  ldd       [%l6 - 0x8], %d2
    0x1000029b8:            92 02 80 0b  add       %o2, %o3, %o1
    0x1000029bc:            b7 a0 11 00  fxtod     %d0, %d58
    0x1000029c0:            d4 59 40 04  ldx       [%g5 + %g4], %o2
    0x1000029c4:            b1 2a 70 03  sllx      %o1, 0x3, %i0
    0x1000029c8:            80 a5 00 17  cmp       %l4, %l7
    0x1000029cc:            8d a6 c9 42  fmuld     %d58, %d2, %d6
    0x1000029d0:            cd 3a 80 18  std       %d6, [%o2 + %i0]
    0x1000029d4:            12 60 00 07  bne,pn    %xcc, +0x1c   <0x1000029f0>
    0x1000029d8:            a8 05 20 01  add       %l4, 0x1, %l4
    0x1000029dc:            ca 59 40 04  ldx       [%g5 + %g4], %g5
    0x1000029e0:            ff 1d 68 20  ldd       [%l5 + 0x820], %d62
    0x1000029e4:            d1 1e 00 05  ldd       [%i0 + %g5], %d8
    0x1000029e8:            95 a2 09 5f  fmuld     %d8, %d62, %d10
    0x1000029ec:            d5 3e 00 05  std       %d10, [%i0 + %g5]
    0x1000029f0:            80 a5 00 03  cmp       %l4, %g3
    0x1000029f4:            26 6f ff b9  bl,a,pt   %xcc, -0x11c  <0x1000028d8>
    0x1000029f8:            9b 6d c0 02  sdivx     %l7, %g2, %o5
    0x1000029fc:            ae 05 e0 01  add       %l7, 0x1, %l7
    0x100002a00:            80 a5 c0 03  cmp       %l7, %g3
    0x100002a04:            06 6f ff b2  bl,pt     %xcc, -0x138  <0x1000028cc>
    0x100002a08:            01 00 00 00  nop
    0x100002a0c:            04 c0 c0 f3  brlez,pn  %g3, +0x3cc   <0x100002dd8>
    0x100002a10:            b0 10 20 00  clr       %i0
    0x100002a14:            80 a0 e0 04  cmp       %g3, 0x4
    0x100002a18:            a8 00 ff ff  add       %g3, -0x1, %l4
    0x100002a1c:            d8 5b a8 e7  ldx       [%sp + 0x8e7], %o4
    0x100002a20:            06 60 00 0f  bl,pn     %xcc, +0x3c   <0x100002a5c>
    0x100002a24:            01 00 00 00  nop
    0x100002a28:            94 00 ff fc  add       %g3, -0x4, %o2
    0x100002a2c:            ed 6b 21 10  prefetch  [%o4 + 0x110], #n_writes_strong
    0x100002a30:            c0 73 20 00  clrx      [%o4]
    0x100002a34:            b0 06 20 04  add       %i0, 0x4, %i0
    0x100002a38:            98 03 20 20  add       %o4, 0x20, %o4
    0x100002a3c:            c0 73 3f e8  clrx      [%o4 - 0x18]
    0x100002a40:            80 a6 00 0a  cmp       %i0, %o2
    0x100002a44:            c0 73 3f f0  clrx      [%o4 - 0x10]
    0x100002a48:            04 6f ff f9  ble,pt    %xcc, -0x1c   <0x100002a2c>
    0x100002a4c:            c0 73 3f f8  clrx      [%o4 - 0x8]
    0x100002a50:            80 a6 00 14  cmp       %i0, %l4
    0x100002a54:            14 60 00 08  bg,pn     %xcc, +0x20   <0x100002a74>
    0x100002a58:            01 00 00 00  nop
    0x100002a5c:            b0 06 20 01  add       %i0, 0x1, %i0
    0x100002a60:            80 a6 00 14  cmp       %i0, %l4
    0x100002a64:            c0 73 20 00  clrx      [%o4]
    0x100002a68:            98 03 20 08  add       %o4, 0x8, %o4
    0x100002a6c:            04 6f ff fd  ble,pt    %xcc, -0xc    <0x100002a60>
    0x100002a70:            b0 06 20 01  add       %i0, 0x1, %i0
    0x100002a74:            94 10 20 00  clr       %o2
    0x100002a78:            95 78 a4 01  movre     %g2, 0x1, %o2
    0x100002a7c:            ae 00 80 0a  add       %g2, %o2, %l7
    0x100002a80:            91 38 b0 3f  srax      %g2, 0x3f, %o0
    0x100002a84:            96 25 e0 01  sub       %l7, 0x1, %o3
    0x100002a88:            88 18 80 08  xor       %g2, %o0, %g4
    0x100002a8c:            80 8d c0 0b  btst      %o3, %l7
    0x100002a90:            ac 21 00 08  sub       %g4, %o0, %l6
    0x100002a94:            12 60 00 07  bne,pn    %xcc, +0x1c   <0x100002ab0>
    0x100002a98:            aa 10 20 00  clr       %l5
    0x100002a9c:            02 c5 c0 05  brz,pn    %l7, +0x14    <0x100002ab0>
    0x100002aa0:            01 00 00 00  nop
    0x100002aa4:            c0 73 a9 1f  clrx      [%sp + 0x91f]
    0x100002aa8:            10 80 00 07  ba        +0x1c         <0x100002ac4>
    0x100002aac:            a7 68 00 17  sdivx     %g0, %l7, %l3
    0x100002ab0:            89 68 00 17  sdivx     %g0, %l7, %g4
    0x100002ab4:            98 49 00 17  mulx      %g4, %l7, %o4
    0x100002ab8:            98 20 00 0c  neg       %o4
    0x100002abc:            d8 73 a9 1f  stx       %o4, [%sp + 0x91f]
    0x100002ac0:            a6 10 00 04  mov       %g4, %l3
    0x100002ac4:            90 10 20 00  clr       %o0
    0x100002ac8:            e6 73 a9 2f  stx       %l3, [%sp + 0x92f]
    0x100002acc:            e6 73 a9 37  stx       %l3, [%sp + 0x937]
    0x100002ad0:            91 78 b8 01  movrgz    %g2, 0x1, %o0
    0x100002ad4:            b1 2a 30 01  sllx      %o0, 0x1, %i0
    0x100002ad8:            e6 5e a1 28  ldx       [%i2 + 0x128], %l3
    0x100002adc:            ae 06 3f ff  add       %i0, -0x1, %l7
    0x100002ae0:            88 05 bf ff  add       %l6, -0x1, %g4
    0x100002ae4:            e2 5b a9 1f  ldx       [%sp + 0x91f], %l1
    0x100002ae8:            9b 2c f0 03  sllx      %l3, 0x3, %o5
    0x100002aec:            e2 73 a9 27  stx       %l1, [%sp + 0x927]
    0x100002af0:            8a 20 c0 10  sub       %g3, %l0, %g5
    0x100002af4:            da 73 a9 3f  stx       %o5, [%sp + 0x93f]
    0x100002af8:            a2 20 c0 15  sub       %g3, %l5, %l1
    0x100002afc:            80 a4 40 10  cmp       %l1, %l0
    0x100002b00:            96 10 20 00  clr       %o3
    0x100002b04:            04 60 00 51  ble,pn    %xcc, +0x144  <0x100002c48>
    0x100002b08:            d4 5b a9 2f  ldx       [%sp + 0x92f], %o2
    0x100002b0c:            90 20 a0 01  sub       %g2, 0x1, %o0
    0x100002b10:            da 5b a8 e7  ldx       [%sp + 0x8e7], %o5
    0x100002b14:            80 88 80 08  btst      %o0, %g2
    0x100002b18:            d2 5b a9 1f  ldx       [%sp + 0x91f], %o1
    0x100002b1c:            12 60 00 0c  bne,pn    %xcc, +0x30   <0x100002b4c>
    0x100002b20:            98 10 00 03  mov       %g3, %o4
    0x100002b24:            02 c0 80 0a  brz,pn    %g2, +0x28    <0x100002b4c>
    0x100002b28:            9f 3d 70 3f  srax      %l5, 0x3f, %o7
    0x100002b2c:            a2 1d 40 0f  xor       %l5, %o7, %l1
    0x100002b30:            a6 24 40 0f  sub       %l1, %o7, %l3
    0x100002b34:            90 8c c0 08  andcc     %l3, %o0, %o0
    0x100002b38:            b0 1a 00 0f  xor       %o0, %o7, %i0
    0x100002b3c:            a4 26 00 0f  sub       %i0, %o7, %l2
    0x100002b40:            91 66 50 12  movne     %xcc, %l2, %o0
    0x100002b44:            10 80 00 06  ba        +0x18         <0x100002b5c>
    0x100002b48:            e6 5b a9 37  ldx       [%sp + 0x937], %l3
    0x100002b4c:            91 6d 40 02  sdivx     %l5, %g2, %o0
    0x100002b50:            a4 4a 00 02  mulx      %o0, %g2, %l2
    0x100002b54:            e6 5b a9 37  ldx       [%sp + 0x937], %l3
    0x100002b58:            90 25 40 12  sub       %l5, %l2, %o0
    0x100002b5c:            f0 5b a9 3f  ldx       [%sp + 0x93f], %i0
    0x100002b60:            80 a3 00 10  cmp       %o4, %l0
    0x100002b64:            9e 4c c0 18  mulx      %l3, %i0, %o7
    0x100002b68:            f0 5e 66 90  ldx       [%i1 + 0x690], %i0
    0x100002b6c:            9e 03 c0 18  add       %o7, %i0, %o7
    0x100002b70:            a4 10 00 02  mov       %g2, %l2
    0x100002b74:            a5 64 90 05  movle     %xcc, %g5, %l2
    0x100002b78:            b0 10 00 02  mov       %g2, %i0
    0x100002b7c:            a6 24 a0 01  sub       %l2, 0x1, %l3
    0x100002b80:            b1 64 90 10  movle     %xcc, %l0, %i0
    0x100002b84:            80 8c 80 13  btst      %l3, %l2
    0x100002b88:            12 60 00 0d  bne,pn    %xcc, +0x34   <0x100002bbc>
    0x100002b8c:            01 00 00 00  nop
    0x100002b90:            02 c4 80 0b  brz,pn    %l2, +0x2c    <0x100002bbc>
    0x100002b94:            01 00 00 00  nop
    0x100002b98:            a5 3a f0 3f  srax      %o3, 0x3f, %l2
    0x100002b9c:            a2 1a c0 12  xor       %o3, %l2, %l1
    0x100002ba0:            a2 24 40 12  sub       %l1, %l2, %l1
    0x100002ba4:            a6 8c 40 13  andcc     %l1, %l3, %l3
    0x100002ba8:            a2 1c c0 12  xor       %l3, %l2, %l1
    0x100002bac:            a4 24 40 12  sub       %l1, %l2, %l2
    0x100002bb0:            a7 66 50 12  movne     %xcc, %l2, %l3
    0x100002bb4:            10 80 00 06  ba        +0x18         <0x100002bcc>
    0x100002bb8:            a4 4a 00 18  mulx      %o0, %i0, %l2
    0x100002bbc:            a3 6a c0 12  sdivx     %o3, %l2, %l1
    0x100002bc0:            a4 4c 40 12  mulx      %l1, %l2, %l2
    0x100002bc4:            a6 22 c0 12  sub       %o3, %l2, %l3
    0x100002bc8:            a4 4a 00 18  mulx      %o0, %i0, %l2
    0x100002bcc:            a2 04 c0 12  add       %l3, %l2, %l1
    0x100002bd0:            96 02 e0 01  add       %o3, 0x1, %o3
    0x100002bd4:            a7 32 f0 3f  srlx      %o3, 0x3f, %l3
    0x100002bd8:            b1 2c 70 03  sllx      %l1, 0x3, %i0
    0x100002bdc:            a4 1c e0 01  xor       %l3, 0x1, %l2
    0x100002be0:            a2 20 00 12  neg       %l2, %l1
    0x100002be4:            a5 2a b0 03  sllx      %o2, 0x3, %l2
    0x100002be8:            a6 0c 40 04  and       %l1, %g4, %l3
    0x100002bec:            a2 04 e0 01  add       %l3, 0x1, %l1
    0x100002bf0:            92 02 60 01  add       %o1, 0x1, %o1
    0x100002bf4:            a2 1a 40 11  xor       %o1, %l1, %l1
    0x100002bf8:            a6 10 20 00  clr       %l3
    0x100002bfc:            a7 7c 64 01  movre     %l1, 0x1, %l3
    0x100002c00:            a6 20 00 13  neg       %l3
    0x100002c04:            a3 3c e0 00  sra       %l3, 0x0, %l1
    0x100002c08:            a6 0c 40 16  and       %l1, %l6, %l3
    0x100002c0c:            80 a2 c0 14  cmp       %o3, %l4
    0x100002c10:            e4 5c 80 0f  ldx       [%l2 + %o7], %l2
    0x100002c14:            98 23 20 01  sub       %o4, 0x1, %o4
    0x100002c18:            92 22 40 13  sub       %o1, %l3, %o1
    0x100002c1c:            f3 1c 80 18  ldd       [%l2 + %i0], %d56
    0x100002c20:            b0 0c 40 17  and       %l1, %l7, %i0
    0x100002c24:            e7 1b 60 00  ldd       [%o5], %d50
    0x100002c28:            94 02 80 18  add       %o2, %i0, %o2
    0x100002c2c:            91 a4 c8 59  faddd     %d50, %d56, %d8
    0x100002c30:            d1 3b 60 00  std       %d8, [%o5]
    0x100002c34:            9a 03 60 08  add       %o5, 0x8, %o5
    0x100002c38:            04 6f ff ce  ble,pt    %xcc, -0xc8   <0x100002b70>
    0x100002c3c:            80 a3 00 10  cmp       %o4, %l0
    0x100002c40:            10 80 00 50  ba        +0x140        <0x100002d80>
    0x100002c44:            aa 05 60 01  add       %l5, 0x1, %l5
    0x100002c48:            a4 21 60 01  sub       %g5, 0x1, %l2
    0x100002c4c:            de 5b a8 e7  ldx       [%sp + 0x8e7], %o7
    0x100002c50:            80 89 40 12  btst      %l2, %g5
    0x100002c54:            d2 5b a9 1f  ldx       [%sp + 0x91f], %o1
    0x100002c58:            12 60 00 0c  bne,pn    %xcc, +0x30   <0x100002c88>
    0x100002c5c:            9a 10 00 03  mov       %g3, %o5
    0x100002c60:            02 c1 40 0a  brz,pn    %g5, +0x28    <0x100002c88>
    0x100002c64:            b1 3d 70 3f  srax      %l5, 0x3f, %i0
    0x100002c68:            a2 1d 40 18  xor       %l5, %i0, %l1
    0x100002c6c:            98 24 40 18  sub       %l1, %i0, %o4
    0x100002c70:            90 8b 00 12  andcc     %o4, %l2, %o0
    0x100002c74:            a4 1a 00 18  xor       %o0, %i0, %l2
    0x100002c78:            a6 24 80 18  sub       %l2, %i0, %l3
    0x100002c7c:            91 66 50 13  movne     %xcc, %l3, %o0
    0x100002c80:            10 80 00 06  ba        +0x18         <0x100002c98>
    0x100002c84:            d8 5b a9 37  ldx       [%sp + 0x937], %o4
    0x100002c88:            91 6d 40 05  sdivx     %l5, %g5, %o0
    0x100002c8c:            a6 4a 00 05  mulx      %o0, %g5, %l3
    0x100002c90:            d8 5b a9 37  ldx       [%sp + 0x937], %o4
    0x100002c94:            90 25 40 13  sub       %l5, %l3, %o0
    0x100002c98:            e4 5b a9 3f  ldx       [%sp + 0x93f], %l2
    0x100002c9c:            80 a3 40 10  cmp       %o5, %l0
    0x100002ca0:            a4 4b 00 12  mulx      %o4, %l2, %l2
    0x100002ca4:            d8 5e 66 90  ldx       [%i1 + 0x690], %o4
    0x100002ca8:            b0 04 80 0c  add       %l2, %o4, %i0
    0x100002cac:            a6 10 00 02  mov       %g2, %l3
    0x100002cb0:            a7 64 90 05  movle     %xcc, %g5, %l3
    0x100002cb4:            a4 10 00 02  mov       %g2, %l2
    0x100002cb8:            98 24 e0 01  sub       %l3, 0x1, %o4
    0x100002cbc:            a5 64 90 10  movle     %xcc, %l0, %l2
    0x100002cc0:            80 8c c0 0c  btst      %o4, %l3
    0x100002cc4:            12 60 00 0d  bne,pn    %xcc, +0x34   <0x100002cf8>
    0x100002cc8:            01 00 00 00  nop
    0x100002ccc:            02 c4 c0 0b  brz,pn    %l3, +0x2c    <0x100002cf8>
    0x100002cd0:            01 00 00 00  nop
    0x100002cd4:            a7 3a f0 3f  srax      %o3, 0x3f, %l3
    0x100002cd8:            a2 1a c0 13  xor       %o3, %l3, %l1
    0x100002cdc:            a2 24 40 13  sub       %l1, %l3, %l1
    0x100002ce0:            98 8c 40 0c  andcc     %l1, %o4, %o4
    0x100002ce4:            a2 1b 00 13  xor       %o4, %l3, %l1
    0x100002ce8:            a6 24 40 13  sub       %l1, %l3, %l3
    0x100002cec:            99 66 50 13  movne     %xcc, %l3, %o4
    0x100002cf0:            10 80 00 06  ba        +0x18         <0x100002d08>
    0x100002cf4:            a6 4a 00 12  mulx      %o0, %l2, %l3
    0x100002cf8:            a3 6a c0 13  sdivx     %o3, %l3, %l1
    0x100002cfc:            a6 4c 40 13  mulx      %l1, %l3, %l3
    0x100002d00:            98 22 c0 13  sub       %o3, %l3, %o4
    0x100002d04:            a6 4a 00 12  mulx      %o0, %l2, %l3
    0x100002d08:            96 02 e0 01  add       %o3, 0x1, %o3
    0x100002d0c:            98 03 00 13  add       %o4, %l3, %o4
    0x100002d10:            a3 32 f0 3f  srlx      %o3, 0x3f, %l1
    0x100002d14:            a5 2b 30 03  sllx      %o4, 0x3, %l2
    0x100002d18:            a6 1c 60 01  xor       %l1, 0x1, %l3
    0x100002d1c:            98 20 00 13  neg       %l3, %o4
    0x100002d20:            a7 2a b0 03  sllx      %o2, 0x3, %l3
    0x100002d24:            a2 0b 00 04  and       %o4, %g4, %l1
    0x100002d28:            98 04 60 01  add       %l1, 0x1, %o4
    0x100002d2c:            92 02 60 01  add       %o1, 0x1, %o1
    0x100002d30:            a2 1a 40 0c  xor       %o1, %o4, %l1
    0x100002d34:            98 10 20 00  clr       %o4
    0x100002d38:            99 7c 64 01  movre     %l1, 0x1, %o4
    0x100002d3c:            98 20 00 0c  neg       %o4
    0x100002d40:            a3 3b 20 00  sra       %o4, 0x0, %l1
    0x100002d44:            98 0c 40 16  and       %l1, %l6, %o4
    0x100002d48:            80 a2 c0 14  cmp       %o3, %l4
    0x100002d4c:            e6 5c c0 18  ldx       [%l3 + %i0], %l3
    0x100002d50:            9a 23 60 01  sub       %o5, 0x1, %o5
    0x100002d54:            92 22 40 0c  sub       %o1, %o4, %o1
    0x100002d58:            d5 1c c0 12  ldd       [%l3 + %l2], %d10
    0x100002d5c:            a4 0c 40 17  and       %l1, %l7, %l2
    0x100002d60:            d9 1b e0 00  ldd       [%o7], %d12
    0x100002d64:            94 02 80 12  add       %o2, %l2, %o2
    0x100002d68:            9f a3 08 4a  faddd     %d12, %d10, %d46
    0x100002d6c:            df 3b e0 00  std       %d46, [%o7]
    0x100002d70:            9e 03 e0 08  add       %o7, 0x8, %o7
    0x100002d74:            04 6f ff ce  ble,pt    %xcc, -0xc8   <0x100002cac>
    0x100002d78:            80 a3 40 10  cmp       %o5, %l0
    0x100002d7c:            aa 05 60 01  add       %l5, 0x1, %l5
    0x100002d80:            97 35 70 3f  srlx      %l5, 0x3f, %o3
    0x100002d84:            9e 1a e0 01  xor       %o3, 0x1, %o7
    0x100002d88:            a2 20 00 0f  neg       %o7, %l1
    0x100002d8c:            94 0c 40 04  and       %l1, %g4, %o2
    0x100002d90:            a6 02 a0 01  add       %o2, 0x1, %l3
    0x100002d94:            80 a5 40 14  cmp       %l5, %l4
    0x100002d98:            e4 5b a9 27  ldx       [%sp + 0x927], %l2
    0x100002d9c:            98 04 a0 01  add       %l2, 0x1, %o4
    0x100002da0:            b0 1b 00 13  xor       %o4, %l3, %i0
    0x100002da4:            a4 10 20 00  clr       %l2
    0x100002da8:            a5 7e 24 01  movre     %i0, 0x1, %l2
    0x100002dac:            90 20 00 12  neg       %l2, %o0
    0x100002db0:            93 3a 20 00  sra       %o0, 0x0, %o1
    0x100002db4:            96 0a 40 16  and       %o1, %l6, %o3
    0x100002db8:            e6 5b a9 37  ldx       [%sp + 0x937], %l3
    0x100002dbc:            9e 0a 40 17  and       %o1, %l7, %o7
    0x100002dc0:            98 23 00 0b  sub       %o4, %o3, %o4
    0x100002dc4:            d8 73 a9 27  stx       %o4, [%sp + 0x927]
    0x100002dc8:            9e 04 c0 0f  add       %l3, %o7, %o7
    0x100002dcc:            de 73 a9 37  stx       %o7, [%sp + 0x937]
    0x100002dd0:            04 6f ff 4b  ble,pt    %xcc, -0x2d4  <0x100002afc>
    0x100002dd4:            a2 20 c0 15  sub       %g3, %l5, %l1
    0x100002dd8:            f0 5b a8 d7  ldx       [%sp + 0x8d7], %i0
    0x100002ddc:            c8 5e 24 f8  ldx       [%i0 + 0x4f8], %g4
    0x100002de0:            02 c1 00 04  brz,pn    %g4, +0x10    <0x100002df0>
    0x100002de4:            d2 5b a8 bf  ldx       [%sp + 0x8bf], %o1
    0x100002de8:            40 04 18 86  call      +0x106218     <0x100109000>
    0x100002dec:            90 02 63 10  add       %o1, 0x310, %o0
    0x100002df0:            d2 5f 64 e0  ldx       [%i5 + 0x4e0], %o1
    0x100002df4:            90 02 7f ff  add       %o1, -0x1, %o0
    0x100002df8:            80 a0 00 08  cmp       %g0, %o0
    0x100002dfc:            16 60 00 18  bge,pn    %xcc, +0x60   <0x100002e5c>
    0x100002e00:            29 00 04 00  sethi     %hi(0x100000), %l4
    0x100002e04:            a2 15 21 0a  or        %l4, 0x10a, %l1
    0x100002e08:            13 00 04 00  sethi     %hi(0x100000), %o1
    0x100002e0c:            97 2c 70 0c  sllx      %l1, 0xc, %o3
    0x100002e10:            9e 12 60 03  or        %o1, 0x3, %o7
    0x100002e14:            a0 02 e0 a0  add       %o3, 0xa0, %l0
    0x100002e18:            99 2b f0 0c  sllx      %o7, 0xc, %o4
    0x100002e1c:            a4 03 2c a8  add       %o4, 0xca8, %l2
    0x100002e20:            a8 10 20 00  clr       %l4
    0x100002e24:            96 10 20 00  clr       %o3
    0x100002e28:            94 10 00 12  mov       %l2, %o2
    0x100002e2c:            92 10 20 00  clr       %o1
    0x100002e30:            40 04 18 7c  call      +0x1061f0     <0x100109020>
    0x100002e34:            90 10 00 10  mov       %l0, %o0
    0x100002e38:            80 90 00 08  tst       %o0
    0x100002e3c:            12 40 03 85  bne,pn    %icc, +0xe14  <0x100003c50>
    0x100002e40:            a0 04 20 04  add       %l0, 0x4, %l0
    0x100002e44:            a8 05 20 01  add       %l4, 0x1, %l4
    0x100002e48:            da 5f 64 e0  ldx       [%i5 + 0x4e0], %o5
    0x100002e4c:            94 03 7f ff  add       %o5, -0x1, %o2
    0x100002e50:            80 a5 00 0a  cmp       %l4, %o2
    0x100002e54:            06 6f ff f5  bl,pt     %xcc, -0x2c   <0x100002e28>
    0x100002e58:            96 10 20 00  clr       %o3
    0x100002e5c:            e2 5b a8 cf  ldx       [%sp + 0x8cf], %l1
    0x100002e60:            e6 5c 61 30  ldx       [%l1 + 0x130], %l3
    0x100002e64:            40 04 18 77  call      +0x1061dc     <0x100109040>
    0x100002e68:            90 04 e0 88  add       %l3, 0x88, %o0
    0x100002e6c:            da 5c 61 30  ldx       [%l1 + 0x130], %o5
    0x100002e70:            e4 5b 60 48  ldx       [%o5 + 0x48], %l2
    0x100002e74:            90 03 60 88  add       %o5, 0x88, %o0
    0x100002e78:            b0 04 a0 01  add       %l2, 0x1, %i0
    0x100002e7c:            40 04 18 79  call      +0x1061e4     <0x100109060>
    0x100002e80:            f0 73 60 48  stx       %i0, [%o5 + 0x48]
    0x100002e84:            11 00 04 00  sethi     %hi(0x100000), %o0
    0x100002e88:            98 12 21 09  or        %o0, 0x109, %o4
    0x100002e8c:            d2 5f 24 e8  ldx       [%i4 + 0x4e8], %o1
    0x100002e90:            d0 5e e4 d8  ldx       [%i3 + 0x4d8], %o0
    0x100002e94:            a9 2b 30 0c  sllx      %o4, 0xc, %l4
    0x100002e98:            94 10 00 12  mov       %l2, %o2
    0x100002e9c:            40 00 03 a5  call      +0xe94        <0x100003d30>
    0x100002ea0:            d6 5d 25 00  ldx       [%l4 + 0x500], %o3
    0x100002ea4:            d2 5f 64 e0  ldx       [%i5 + 0x4e0], %o1
    0x100002ea8:            86 02 7f ff  add       %o1, -0x1, %g3
    0x100002eac:            80 a0 00 03  cmp       %g0, %g3
    0x100002eb0:            1a 60 00 11  bcc,pn    %xcc, +0x44   <0x100002ef4>
    0x100002eb4:            2d 00 04 00  sethi     %hi(0x100000), %l6
    0x100002eb8:            ae 15 a1 0a  or        %l6, 0x10a, %l7
    0x100002ebc:            b1 2d f0 0c  sllx      %l7, 0xc, %i0
    0x100002ec0:            ac 06 20 a0  add       %i0, 0xa0, %l6
    0x100002ec4:            aa 10 20 00  clr       %l5
    0x100002ec8:            86 10 20 00  clr       %g3
    0x100002ecc:            92 10 20 00  clr       %o1
    0x100002ed0:            40 04 18 6c  call      +0x1061b0     <0x100109080>
    0x100002ed4:            d0 00 c0 16  ld        [%g3 + %l6], %o0
    0x100002ed8:            0a c2 03 67  brnz,pn   %o0, +0xd9c   <0x100003c74>
    0x100002edc:            aa 05 60 01  add       %l5, 0x1, %l5
    0x100002ee0:            e6 5f 64 e0  ldx       [%i5 + 0x4e0], %l3
    0x100002ee4:            a2 04 ff ff  add       %l3, -0x1, %l1
    0x100002ee8:            80 a5 40 11  cmp       %l5, %l1
    0x100002eec:            0a 6f ff f8  bcs,pt    %xcc, -0x20   <0x100002ecc>
    0x100002ef0:            87 2d 70 02  sllx      %l5, 0x2, %g3
    0x100002ef4:            d4 5b a8 d7  ldx       [%sp + 0x8d7], %o2
    0x100002ef8:            de 5a a4 f8  ldx       [%o2 + 0x4f8], %o7
    0x100002efc:            02 c3 c0 6c  brz,pn    %o7, +0x1b0   <0x1000030ac>
    0x100002f00:            d6 5b a8 bf  ldx       [%sp + 0x8bf], %o3
    0x100002f04:            40 04 18 3f  call      +0x1060fc     <0x100109000>
    0x100002f08:            90 02 e3 70  add       %o3, 0x370, %o0
    0x100002f0c:            ee 5e e4 d8  ldx       [%i3 + 0x4d8], %l7
    0x100002f10:            04 c5 c0 62  brlez,pn  %l7, +0x188   <0x100003098>
    0x100002f14:            d2 5f 24 e8  ldx       [%i4 + 0x4e8], %o1
    0x100002f18:            a0 22 60 01  sub       %o1, 0x1, %l0
    0x100002f1c:            80 8a 40 10  btst      %l0, %o1
    0x100002f20:            12 60 00 0c  bne,pn    %xcc, +0x30   <0x100002f50>
    0x100002f24:            ac 10 20 00  clr       %l6
    0x100002f28:            02 c2 40 0a  brz,pn    %o1, +0x28    <0x100002f50>
    0x100002f2c:            a3 3d f0 3f  srax      %l7, 0x3f, %l1
    0x100002f30:            aa 1d c0 11  xor       %l7, %l1, %l5
    0x100002f34:            9e 25 40 11  sub       %l5, %l1, %o7
    0x100002f38:            aa 8b c0 10  andcc     %o7, %l0, %l5
    0x100002f3c:            b0 1d 40 11  xor       %l5, %l1, %i0
    0x100002f40:            86 26 00 11  sub       %i0, %l1, %g3
    0x100002f44:            ab 66 50 03  movne     %xcc, %g3, %l5
    0x100002f48:            10 80 00 05  ba        +0x14         <0x100002f5c>
    0x100002f4c:            01 00 00 00  nop
    0x100002f50:            a5 6d c0 09  sdivx     %l7, %o1, %l2
    0x100002f54:            a6 4c 80 09  mulx      %l2, %o1, %l3
    0x100002f58:            aa 25 c0 13  sub       %l7, %l3, %l5
    0x100002f5c:            04 c5 c0 47  brlez,pn  %l7, +0x11c   <0x100003078>
    0x100002f60:            25 00 04 00  sethi     %hi(0x100000), %l2
    0x100002f64:            a6 14 a0 08  or        %l2, 0x8, %l3
    0x100002f68:            91 2c f0 0c  sllx      %l3, 0xc, %o0
    0x100002f6c:            a4 02 2d 48  add       %o0, 0xd48, %l2
    0x100002f70:            a6 10 20 00  clr       %l3
    0x100002f74:            8a 25 c0 16  sub       %l7, %l6, %g5
    0x100002f78:            80 a1 40 15  cmp       %g5, %l5
    0x100002f7c:            9e 25 c0 15  sub       %l7, %l5, %o7
    0x100002f80:            84 10 00 09  mov       %o1, %g2
    0x100002f84:            8a 10 00 09  mov       %o1, %g5
    0x100002f88:            85 64 90 0f  movle     %xcc, %o7, %g2
    0x100002f8c:            94 25 c0 13  sub       %l7, %l3, %o2
    0x100002f90:            8b 64 90 15  movle     %xcc, %l5, %g5
    0x100002f94:            80 a2 80 15  cmp       %o2, %l5
    0x100002f98:            9f 66 90 09  movg      %xcc, %o1, %o7
    0x100002f9c:            ae 20 a0 01  sub       %g2, 0x1, %l7
    0x100002fa0:            80 88 80 17  btst      %l7, %g2
    0x100002fa4:            12 60 00 0d  bne,pn    %xcc, +0x34   <0x100002fd8>
    0x100002fa8:            01 00 00 00  nop
    0x100002fac:            02 c0 80 0b  brz,pn    %g2, +0x2c    <0x100002fd8>
    0x100002fb0:            01 00 00 00  nop
    0x100002fb4:            85 3d b0 3f  srax      %l6, 0x3f, %g2
    0x100002fb8:            9a 1d 80 02  xor       %l6, %g2, %o5
    0x100002fbc:            98 23 40 02  sub       %o5, %g2, %o4
    0x100002fc0:            96 8b 00 17  andcc     %o4, %l7, %o3
    0x100002fc4:            90 1a c0 02  xor       %o3, %g2, %o0
    0x100002fc8:            a0 22 00 02  sub       %o0, %g2, %l0
    0x100002fcc:            97 66 50 10  movne     %xcc, %l0, %o3
    0x100002fd0:            10 80 00 06  ba        +0x18         <0x100002fe8>
    0x100002fd4:            86 23 e0 01  sub       %o7, 0x1, %g3
    0x100002fd8:            89 6d 80 02  sdivx     %l6, %g2, %g4
    0x100002fdc:            94 49 00 02  mulx      %g4, %g2, %o2
    0x100002fe0:            96 25 80 0a  sub       %l6, %o2, %o3
    0x100002fe4:            86 23 e0 01  sub       %o7, 0x1, %g3
    0x100002fe8:            80 8b c0 03  btst      %g3, %o7
    0x100002fec:            12 60 00 0c  bne,pn    %xcc, +0x30   <0x10000301c>
    0x100002ff0:            01 00 00 00  nop
    0x100002ff4:            02 c3 c0 0a  brz,pn    %o7, +0x28    <0x10000301c>
    0x100002ff8:            a3 3c f0 3f  srax      %l3, 0x3f, %l1
    0x100002ffc:            90 1c c0 11  xor       %l3, %l1, %o0
    0x100003000:            84 22 00 11  sub       %o0, %l1, %g2
    0x100003004:            b0 88 80 03  andcc     %g2, %g3, %i0
    0x100003008:            a0 1e 00 11  xor       %i0, %l1, %l0
    0x10000300c:            ae 24 00 11  sub       %l0, %l1, %l7
    0x100003010:            b1 66 50 17  movne     %xcc, %l7, %i0
    0x100003014:            10 80 00 06  ba        +0x18         <0x10000302c>
    0x100003018:            a3 6c c0 09  sdivx     %l3, %o1, %l1
    0x10000301c:            9b 6c c0 0f  sdivx     %l3, %o7, %o5
    0x100003020:            a3 6c c0 09  sdivx     %l3, %o1, %l1
    0x100003024:            98 4b 40 0f  mulx      %o5, %o7, %o4
    0x100003028:            b0 24 c0 0c  sub       %l3, %o4, %i0
    0x10000302c:            af 6d 80 09  sdivx     %l6, %o1, %l7
    0x100003030:            84 4e 00 05  mulx      %i0, %g5, %g2
    0x100003034:            e0 5e a1 28  ldx       [%i2 + 0x128], %l0
    0x100003038:            ca 5e 66 90  ldx       [%i1 + 0x690], %g5
    0x10000303c:            86 02 c0 02  add       %o3, %g2, %g3
    0x100003040:            92 4c 40 10  mulx      %l1, %l0, %o1
    0x100003044:            b0 05 c0 09  add       %l7, %o1, %i0
    0x100003048:            9f 2e 30 03  sllx      %i0, 0x3, %o7
    0x10000304c:            d4 59 40 0f  ldx       [%g5 + %o7], %o2
    0x100003050:            97 28 f0 03  sllx      %g3, 0x3, %o3
    0x100003054:            90 10 00 12  mov       %l2, %o0
    0x100003058:            40 04 17 ea  call      +0x105fa8     <0x100109000>
    0x10000305c:            d2 5a 80 0b  ldx       [%o2 + %o3], %o1
    0x100003060:            ee 5e e4 d8  ldx       [%i3 + 0x4d8], %l7
    0x100003064:            a6 04 e0 01  add       %l3, 0x1, %l3
    0x100003068:            d2 5f 24 e8  ldx       [%i4 + 0x4e8], %o1
    0x10000306c:            80 a4 c0 17  cmp       %l3, %l7
    0x100003070:            06 6f ff c2  bl,pt     %xcc, -0xf8   <0x100002f78>
    0x100003074:            8a 25 c0 16  sub       %l7, %l6, %g5
    0x100003078:            ac 05 a0 01  add       %l6, 0x1, %l6
    0x10000307c:            40 04 18 09  call      +0x106024     <0x1001090a0>
    0x100003080:            90 10 20 0a  mov       0xa, %o0
    0x100003084:            ee 5e e4 d8  ldx       [%i3 + 0x4d8], %l7
    0x100003088:            d2 5f 24 e8  ldx       [%i4 + 0x4e8], %o1
    0x10000308c:            80 a5 80 17  cmp       %l6, %l7
    0x100003090:            06 6f ff b3  bl,pt     %xcc, -0x134  <0x100002f5c>
    0x100003094:            01 00 00 00  nop
    0x100003098:            2b 00 04 00  sethi     %hi(0x100000), %l5
    0x10000309c:            b4 15 61 09  or        %l5, 0x109, %i2
    0x1000030a0:            a1 2e b0 0c  sllx      %i2, 0xc, %l0
    0x1000030a4:            40 04 18 07  call      +0x10601c     <0x1001090c0>
    0x1000030a8:            90 04 27 20  add       %l0, 0x720, %o0
    0x1000030ac:            e8 5d 25 00  ldx       [%l4 + 0x500], %l4
    0x1000030b0:            02 c5 02 02  brz,pn    %l4, +0x808   <0x1000038b8>
    0x1000030b4:            fb 1f 64 e0  ldd       [%i5 + 0x4e0], %d60
    0x1000030b8:            e0 5b a8 cf  ldx       [%sp + 0x8cf], %l0
    0x1000030bc:            f4 5f 64 e0  ldx       [%i5 + 0x4e0], %i2
    0x1000030c0:            27 00 04 00  sethi     %hi(0x100000), %l3
    0x1000030c4:            e0 5c 21 30  ldx       [%l0 + 0x130], %l0
    0x1000030c8:            a8 14 e0 01  or        %l3, 0x1, %l4
    0x1000030cc:            a3 2d 30 0c  sllx      %l4, 0xc, %l1
    0x1000030d0:            e7 1c 68 30  ldd       [%l1 + 0x830], %d50
    0x1000030d4:            a3 a0 11 1d  fxtod     %d60, %d48
    0x1000030d8:            f8 5c 20 20  ldx       [%l0 + 0x20], %i4
    0x1000030dc:            a8 10 20 01  mov       0x1, %l4
    0x1000030e0:            80 a5 00 1a  cmp       %l4, %i2
    0x1000030e4:            ff 1f 20 00  ldd       [%i4], %d62
    0x1000030e8:            b5 a4 c9 d1  fdivd     %d50, %d48, %d26
    0x1000030ec:            16 60 01 2a  bge,pn    %xcc, +0x4a8  <0x100003594>
    0x1000030f0:            bb a0 00 5f  fmovd     %d62, %d60
    0x1000030f4:            a2 06 bf ff  add       %i2, -0x1, %l1
    0x1000030f8:            80 a4 60 07  cmp       %l1, 0x7
    0x1000030fc:            ac 07 20 08  add       %i4, 0x8, %l6
    0x100003100:            aa 10 20 01  mov       0x1, %l5
    0x100003104:            8d a0 00 5f  fmovd     %d62, %d6
    0x100003108:            06 60 00 38  bl,pn     %xcc, +0xe0   <0x1000031e8>
    0x10000310c:            01 00 00 00  nop
    0x100003110:            bb a0 00 5f  fmovd     %d62, %d60
    0x100003114:            f7 1f 20 08  ldd       [%i4 + 0x8], %d58
    0x100003118:            f3 1f 20 10  ldd       [%i4 + 0x10], %d56
    0x10000311c:            ef 1f 20 18  ldd       [%i4 + 0x18], %d54
    0x100003120:            81 ae ca df  fcmped    %fcc0, %d58, %d62
    0x100003124:            83 ae ca df  fcmped    %fcc1, %d58, %d62
    0x100003128:            bb a9 80 5b  fmovdg    %fcc0, %d58, %d60
    0x10000312c:            ac 07 20 20  add       %i4, 0x20, %l6
    0x100003130:            bf a9 08 5b  fmovdl    %fcc1, %d58, %d62
    0x100003134:            aa 10 20 04  mov       0x4, %l5
    0x100003138:            b7 a1 88 5b  faddd     %d6, %d58, %d58
    0x10000313c:            88 06 bf fc  add       %i2, -0x4, %g4
    0x100003140:            c1 6d a1 10  prefetch  [%l6 + 0x110], #n_reads
    0x100003144:            8d a6 c8 59  faddd     %d58, %d56, %d6
    0x100003148:            aa 05 60 04  add       %l5, 0x4, %l5
    0x10000314c:            ac 05 a0 20  add       %l6, 0x20, %l6
    0x100003150:            85 ae 4a dd  fcmped    %fcc2, %d56, %d60
    0x100003154:            80 a5 40 04  cmp       %l5, %g4
    0x100003158:            bb a9 90 59  fmovdg    %fcc2, %d56, %d60
    0x10000315c:            eb 1d bf e0  ldd       [%l6 - 0x20], %d52
    0x100003160:            87 ae 4a df  fcmped    %fcc3, %d56, %d62
    0x100003164:            bf a9 18 59  fmovdl    %fcc3, %d56, %d62
    0x100003168:            89 a1 88 57  faddd     %d6, %d54, %d4
    0x10000316c:            81 ad ca dd  fcmped    %fcc0, %d54, %d60
    0x100003170:            bb a9 80 57  fmovdg    %fcc0, %d54, %d60
    0x100003174:            e3 1d bf e8  ldd       [%l6 - 0x18], %d48
    0x100003178:            83 ad ca df  fcmped    %fcc1, %d54, %d62
    0x10000317c:            bf a9 08 57  fmovdl    %fcc1, %d54, %d62
    0x100003180:            af a1 08 55  faddd     %d4, %d52, %d54
    0x100003184:            85 ad 4a dd  fcmped    %fcc2, %d52, %d60
    0x100003188:            bb a9 90 55  fmovdg    %fcc2, %d52, %d60
    0x10000318c:            f3 1d bf f0  ldd       [%l6 - 0x10], %d56
    0x100003190:            87 ad 4a df  fcmped    %fcc3, %d52, %d62
    0x100003194:            bf a9 18 55  fmovdl    %fcc3, %d52, %d62
    0x100003198:            b7 a5 c8 51  faddd     %d54, %d48, %d58
    0x10000319c:            81 ac 4a dd  fcmped    %fcc0, %d48, %d60
    0x1000031a0:            bb a9 80 51  fmovdg    %fcc0, %d48, %d60
    0x1000031a4:            ef 1d bf f8  ldd       [%l6 - 0x8], %d54
    0x1000031a8:            83 ac 4a df  fcmped    %fcc1, %d48, %d62
    0x1000031ac:            04 6f ff e5  ble,pt    %xcc, -0x6c   <0x100003140>
    0x1000031b0:            bf a9 08 51  fmovdl    %fcc1, %d48, %d62
    0x1000031b4:            87 ae 4a df  fcmped    %fcc3, %d56, %d62
    0x1000031b8:            85 ae 4a dd  fcmped    %fcc2, %d56, %d60
    0x1000031bc:            bf a9 18 59  fmovdl    %fcc3, %d56, %d62
    0x1000031c0:            bb a9 90 59  fmovdg    %fcc2, %d56, %d60
    0x1000031c4:            85 a6 c8 59  faddd     %d58, %d56, %d2
    0x1000031c8:            80 a5 40 11  cmp       %l5, %l1
    0x1000031cc:            83 ad ca df  fcmped    %fcc1, %d54, %d62
    0x1000031d0:            81 ad ca dd  fcmped    %fcc0, %d54, %d60
    0x1000031d4:            8d a0 88 57  faddd     %d2, %d54, %d6
    0x1000031d8:            bf a9 08 57  fmovdl    %fcc1, %d54, %d62
    0x1000031dc:            bb a9 80 57  fmovdg    %fcc0, %d54, %d60
    0x1000031e0:            14 60 00 0d  bg,pn     %xcc, +0x34   <0x100003214>
    0x1000031e4:            01 00 00 00  nop
    0x1000031e8:            c9 1d a0 00  ldd       [%l6], %d4
    0x1000031ec:            83 a9 0a df  fcmped    %fcc1, %d4, %d62
    0x1000031f0:            aa 05 60 01  add       %l5, 0x1, %l5
    0x1000031f4:            81 a9 0a dd  fcmped    %fcc0, %d4, %d60
    0x1000031f8:            8d a1 88 44  faddd     %d6, %d4, %d6
    0x1000031fc:            80 a5 40 11  cmp       %l5, %l1
    0x100003200:            bf a9 08 44  fmovdl    %fcc1, %d4, %d62
    0x100003204:            bb a9 80 44  fmovdg    %fcc0, %d4, %d60
    0x100003208:            ac 05 a0 08  add       %l6, 0x8, %l6
    0x10000320c:            24 6f ff f8  ble,a,pt  %xcc, -0x20   <0x1000031ec>
    0x100003210:            c9 1d a0 00  ldd       [%l6], %d4
    0x100003214:            f8 5c 20 00  ldx       [%l0], %i4
    0x100003218:            c8 5c 20 08  ldx       [%l0 + 0x8], %g4
    0x10000321c:            f4 5c 20 10  ldx       [%l0 + 0x10], %i2
    0x100003220:            e0 5c 20 18  ldx       [%l0 + 0x18], %l0
    0x100003224:            e9 19 20 00  ldd       [%g4], %d20
    0x100003228:            c5 1e a0 00  ldd       [%i2], %d2
    0x10000322c:            ed 1c 20 00  ldd       [%l0], %d22
    0x100003230:            9f a0 00 54  fmovd     %d20, %d46
    0x100003234:            a3 a0 00 54  fmovd     %d20, %d48
    0x100003238:            95 a0 00 42  fmovd     %d2, %d10
    0x10000323c:            99 a0 00 42  fmovd     %d2, %d12
    0x100003240:            f7 1f 20 00  ldd       [%i4], %d58
    0x100003244:            80 a4 60 06  cmp       %l1, 0x6
    0x100003248:            89 a0 00 56  fmovd     %d22, %d4
    0x10000324c:            91 a0 00 5b  fmovd     %d58, %d8
    0x100003250:            8a 10 20 01  mov       0x1, %g5
    0x100003254:            b1 a1 89 5a  fmuld     %d6, %d26, %d24
    0x100003258:            a7 a0 00 5b  fmovd     %d58, %d50
    0x10000325c:            92 10 20 08  mov       0x8, %o1
    0x100003260:            8d a0 00 56  fmovd     %d22, %d6
    0x100003264:            06 60 00 ad  bl,pn     %xcc, +0x2b4  <0x100003518>
    0x100003268:            01 00 00 00  nop
    0x10000326c:            95 a0 00 42  fmovd     %d2, %d10
    0x100003270:            99 a0 00 42  fmovd     %d2, %d12
    0x100003274:            a3 a0 00 54  fmovd     %d20, %d48
    0x100003278:            9f a0 00 54  fmovd     %d20, %d46
    0x10000327c:            89 a0 00 56  fmovd     %d22, %d4
    0x100003280:            8d a0 00 56  fmovd     %d22, %d6
    0x100003284:            eb 1f 20 08  ldd       [%i4 + 0x8], %d52
    0x100003288:            f3 1e a0 08  ldd       [%i2 + 0x8], %d56
    0x10000328c:            fd 1f 20 10  ldd       [%i4 + 0x10], %d30
    0x100003290:            85 ad 4a db  fcmped    %fcc2, %d52, %d58
    0x100003294:            87 ad 4a db  fcmped    %fcc3, %d52, %d58
    0x100003298:            91 a9 90 55  fmovdg    %fcc2, %d52, %d8
    0x10000329c:            a7 a9 18 55  fmovdl    %fcc3, %d52, %d50
    0x1000032a0:            b7 a6 c8 55  faddd     %d58, %d52, %d58
    0x1000032a4:            85 ae 4a c2  fcmped    %fcc2, %d56, %d2
    0x1000032a8:            87 ae 4a c2  fcmped    %fcc3, %d56, %d2
    0x1000032ac:            95 a9 90 59  fmovdg    %fcc2, %d56, %d10
    0x1000032b0:            99 a9 18 59  fmovdl    %fcc3, %d56, %d12
    0x1000032b4:            af a0 88 59  faddd     %d2, %d56, %d54
    0x1000032b8:            85 af 8a c8  fcmped    %fcc2, %d30, %d8
    0x1000032bc:            87 af 8a d3  fcmped    %fcc3, %d30, %d50
    0x1000032c0:            91 a9 90 5e  fmovdg    %fcc2, %d30, %d8
    0x1000032c4:            a7 a9 18 5e  fmovdl    %fcc3, %d30, %d50
    0x1000032c8:            eb 19 20 08  ldd       [%g4 + 0x8], %d52
    0x1000032cc:            c5 1c 20 08  ldd       [%l0 + 0x8], %d2
    0x1000032d0:            c1 1e a0 10  ldd       [%i2 + 0x10], %d0
    0x1000032d4:            83 ad 4a d4  fcmped    %fcc1, %d52, %d20
    0x1000032d8:            81 ad 4a d4  fcmped    %fcc0, %d52, %d20
    0x1000032dc:            a3 a9 08 55  fmovdl    %fcc1, %d52, %d48
    0x1000032e0:            9f a9 80 55  fmovdg    %fcc0, %d52, %d46
    0x1000032e4:            83 a8 8a d6  fcmped    %fcc1, %d2, %d22
    0x1000032e8:            81 a8 8a d6  fcmped    %fcc0, %d2, %d22
    0x1000032ec:            89 a9 08 42  fmovdl    %fcc1, %d2, %d4
    0x1000032f0:            8d a9 80 42  fmovdg    %fcc0, %d2, %d6
    0x1000032f4:            b3 a5 88 42  faddd     %d22, %d2, %d56
    0x1000032f8:            85 a8 0a ca  fcmped    %fcc2, %d0, %d10
    0x1000032fc:            87 a8 0a cc  fcmped    %fcc3, %d0, %d12
    0x100003300:            95 a9 90 40  fmovdg    %fcc2, %d0, %d10
    0x100003304:            99 a9 18 40  fmovdl    %fcc3, %d0, %d12
    0x100003308:            8a 10 20 03  mov       0x3, %g5
    0x10000330c:            c5 19 20 10  ldd       [%g4 + 0x10], %d2
    0x100003310:            ab a5 08 55  faddd     %d20, %d52, %d52
    0x100003314:            a4 07 20 18  add       %i4, 0x18, %l2
    0x100003318:            83 a8 8a d1  fcmped    %fcc1, %d2, %d48
    0x10000331c:            81 a8 8a cf  fcmped    %fcc0, %d2, %d46
    0x100003320:            a6 06 a0 18  add       %i2, 0x18, %l3
    0x100003324:            92 04 20 18  add       %l0, 0x18, %o1
    0x100003328:            a3 a9 08 42  fmovdl    %fcc1, %d2, %d48
    0x10000332c:            9a 01 20 18  add       %g4, 0x18, %o5
    0x100003330:            9f a9 80 42  fmovdg    %fcc0, %d2, %d46
    0x100003334:            f9 1c 20 10  ldd       [%l0 + 0x10], %d28
    0x100003338:            90 24 60 03  sub       %l1, 0x3, %o0
    0x10000333c:            c1 6c a0 50  prefetch  [%l2 + 0x50], #n_reads
    0x100003340:            c1 6b 60 50  prefetch  [%o5 + 0x50], #n_reads
    0x100003344:            8a 01 60 04  add       %g5, 0x4, %g5
    0x100003348:            92 02 60 20  add       %o1, 0x20, %o1
    0x10000334c:            ed 1c a0 00  ldd       [%l2], %d22
    0x100003350:            af a5 c8 40  faddd     %d54, %d0, %d54
    0x100003354:            80 a1 40 08  cmp       %g5, %o0
    0x100003358:            a6 04 e0 20  add       %l3, 0x20, %l3
    0x10000335c:            c1 1b 60 00  ldd       [%o5], %d0
    0x100003360:            81 af 0a c6  fcmped    %fcc0, %d28, %d6
    0x100003364:            8d a9 80 5c  fmovdg    %fcc0, %d28, %d6
    0x100003368:            9a 03 60 20  add       %o5, 0x20, %o5
    0x10000336c:            a4 04 a0 20  add       %l2, 0x20, %l2
    0x100003370:            83 af 0a c4  fcmped    %fcc1, %d28, %d4
    0x100003374:            89 a9 08 5c  fmovdl    %fcc1, %d28, %d4
    0x100003378:            b3 a6 48 5c  faddd     %d56, %d28, %d56
    0x10000337c:            85 a5 48 42  faddd     %d52, %d2, %d2
    0x100003380:            bd a6 c8 5e  faddd     %d58, %d30, %d30
    0x100003384:            85 ad 8a c8  fcmped    %fcc2, %d22, %d8
    0x100003388:            f7 1c ff e0  ldd       [%l3 - 0x20], %d58
    0x10000338c:            81 a8 0a cf  fcmped    %fcc0, %d0, %d46
    0x100003390:            83 a8 0a d1  fcmped    %fcc1, %d0, %d48
    0x100003394:            a3 a9 08 40  fmovdl    %fcc1, %d0, %d48
    0x100003398:            9f a9 80 40  fmovdg    %fcc0, %d0, %d46
    0x10000339c:            87 ad 8a d3  fcmped    %fcc3, %d22, %d50
    0x1000033a0:            eb 1a 7f e0  ldd       [%o1 - 0x20], %d52
    0x1000033a4:            a7 a9 18 56  fmovdl    %fcc3, %d22, %d50
    0x1000033a8:            91 a9 90 56  fmovdg    %fcc2, %d22, %d8
    0x1000033ac:            85 ae ca ca  fcmped    %fcc2, %d58, %d10
    0x1000033b0:            95 a9 90 5b  fmovdg    %fcc2, %d58, %d10
    0x1000033b4:            87 ae ca cc  fcmped    %fcc3, %d58, %d12
    0x1000033b8:            99 a9 18 5b  fmovdl    %fcc3, %d58, %d12
    0x1000033bc:            af a5 c8 5b  faddd     %d54, %d58, %d54
    0x1000033c0:            e5 1c bf e8  ldd       [%l2 - 0x18], %d18
    0x1000033c4:            81 ad 4a c6  fcmped    %fcc0, %d52, %d6
    0x1000033c8:            e9 1b 7f e8  ldd       [%o5 - 0x18], %d20
    0x1000033cc:            8d a9 80 55  fmovdg    %fcc0, %d52, %d6
    0x1000033d0:            83 ad 4a c4  fcmped    %fcc1, %d52, %d4
    0x1000033d4:            89 a9 08 55  fmovdl    %fcc1, %d52, %d4
    0x1000033d8:            b3 a6 48 55  faddd     %d56, %d52, %d56
    0x1000033dc:            85 a0 88 40  faddd     %d2, %d0, %d2
    0x1000033e0:            81 a7 88 56  faddd     %d30, %d22, %d0
    0x1000033e4:            85 ac 8a c8  fcmped    %fcc2, %d18, %d8
    0x1000033e8:            f7 1c ff e8  ldd       [%l3 - 0x18], %d58
    0x1000033ec:            81 ad 0a cf  fcmped    %fcc0, %d20, %d46
    0x1000033f0:            83 ad 0a d1  fcmped    %fcc1, %d20, %d48
    0x1000033f4:            a3 a9 08 54  fmovdl    %fcc1, %d20, %d48
    0x1000033f8:            9f a9 80 54  fmovdg    %fcc0, %d20, %d46
    0x1000033fc:            87 ac 8a d3  fcmped    %fcc3, %d18, %d50
    0x100003400:            eb 1a 7f e8  ldd       [%o1 - 0x18], %d52
    0x100003404:            a7 a9 18 52  fmovdl    %fcc3, %d18, %d50
    0x100003408:            91 a9 90 52  fmovdg    %fcc2, %d18, %d8
    0x10000340c:            85 ae ca ca  fcmped    %fcc2, %d58, %d10
    0x100003410:            95 a9 90 5b  fmovdg    %fcc2, %d58, %d10
    0x100003414:            87 ae ca cc  fcmped    %fcc3, %d58, %d12
    0x100003418:            99 a9 18 5b  fmovdl    %fcc3, %d58, %d12
    0x10000341c:            c1 6c e0 40  prefetch  [%l3 + 0x40], #n_reads
    0x100003420:            c1 6a 60 40  prefetch  [%o1 + 0x40], #n_reads
    0x100003424:            af a5 c8 5b  faddd     %d54, %d58, %d54
    0x100003428:            e1 1c bf f0  ldd       [%l2 - 0x10], %d16
    0x10000342c:            81 ad 4a c6  fcmped    %fcc0, %d52, %d6
    0x100003430:            dd 1b 7f f0  ldd       [%o5 - 0x10], %d14
    0x100003434:            8d a9 80 55  fmovdg    %fcc0, %d52, %d6
    0x100003438:            83 ad 4a c4  fcmped    %fcc1, %d52, %d4
    0x10000343c:            89 a9 08 55  fmovdl    %fcc1, %d52, %d4
    0x100003440:            b3 a6 48 55  faddd     %d56, %d52, %d56
    0x100003444:            ab a0 88 54  faddd     %d2, %d20, %d52
    0x100003448:            81 a0 08 52  faddd     %d0, %d18, %d0
    0x10000344c:            85 ac 0a c8  fcmped    %fcc2, %d16, %d8
    0x100003450:            f7 1c ff f0  ldd       [%l3 - 0x10], %d58
    0x100003454:            81 ab 8a cf  fcmped    %fcc0, %d14, %d46
    0x100003458:            83 ab 8a d1  fcmped    %fcc1, %d14, %d48
    0x10000345c:            a3 a9 08 4e  fmovdl    %fcc1, %d14, %d48
    0x100003460:            9f a9 80 4e  fmovdg    %fcc0, %d14, %d46
    0x100003464:            87 ac 0a d3  fcmped    %fcc3, %d16, %d50
    0x100003468:            e9 1a 7f f0  ldd       [%o1 - 0x10], %d20
    0x10000346c:            a7 a9 18 50  fmovdl    %fcc3, %d16, %d50
    0x100003470:            91 a9 90 50  fmovdg    %fcc2, %d16, %d8
    0x100003474:            85 ae ca ca  fcmped    %fcc2, %d58, %d10
    0x100003478:            95 a9 90 5b  fmovdg    %fcc2, %d58, %d10
    0x10000347c:            87 ae ca cc  fcmped    %fcc3, %d58, %d12
    0x100003480:            99 a9 18 5b  fmovdl    %fcc3, %d58, %d12
    0x100003484:            af a5 c8 5b  faddd     %d54, %d58, %d54
    0x100003488:            fd 1c bf f8  ldd       [%l2 - 0x8], %d30
    0x10000348c:            81 ad 0a c6  fcmped    %fcc0, %d20, %d6
    0x100003490:            c5 1b 7f f8  ldd       [%o5 - 0x8], %d2
    0x100003494:            8d a9 80 54  fmovdg    %fcc0, %d20, %d6
    0x100003498:            83 ad 0a c4  fcmped    %fcc1, %d20, %d4
    0x10000349c:            89 a9 08 54  fmovdl    %fcc1, %d20, %d4
    0x1000034a0:            b3 a6 48 54  faddd     %d56, %d20, %d56
    0x1000034a4:            ab a5 48 4e  faddd     %d52, %d14, %d52
    0x1000034a8:            b7 a0 08 50  faddd     %d0, %d16, %d58
    0x1000034ac:            85 af 8a c8  fcmped    %fcc2, %d30, %d8
    0x1000034b0:            c1 1c ff f8  ldd       [%l3 - 0x8], %d0
    0x1000034b4:            81 a8 8a cf  fcmped    %fcc0, %d2, %d46
    0x1000034b8:            83 a8 8a d1  fcmped    %fcc1, %d2, %d48
    0x1000034bc:            a3 a9 08 42  fmovdl    %fcc1, %d2, %d48
    0x1000034c0:            9f a9 80 42  fmovdg    %fcc0, %d2, %d46
    0x1000034c4:            87 af 8a d3  fcmped    %fcc3, %d30, %d50
    0x1000034c8:            f9 1a 7f f8  ldd       [%o1 - 0x8], %d28
    0x1000034cc:            a7 a9 18 5e  fmovdl    %fcc3, %d30, %d50
    0x1000034d0:            91 a9 90 5e  fmovdg    %fcc2, %d30, %d8
    0x1000034d4:            85 a8 0a ca  fcmped    %fcc2, %d0, %d10
    0x1000034d8:            95 a9 90 40  fmovdg    %fcc2, %d0, %d10
    0x1000034dc:            87 a8 0a cc  fcmped    %fcc3, %d0, %d12
    0x1000034e0:            04 6f ff 97  ble,pt    %xcc, -0x1a4  <0x10000333c>
    0x1000034e4:            99 a9 18 40  fmovdl    %fcc3, %d0, %d12
    0x1000034e8:            a9 a5 48 42  faddd     %d52, %d2, %d20
    0x1000034ec:            83 af 0a c4  fcmped    %fcc1, %d28, %d4
    0x1000034f0:            81 af 0a c6  fcmped    %fcc0, %d28, %d6
    0x1000034f4:            b7 a6 c8 5e  faddd     %d58, %d30, %d58
    0x1000034f8:            85 a5 c8 40  faddd     %d54, %d0, %d2
    0x1000034fc:            ad a6 48 5c  faddd     %d56, %d28, %d22
    0x100003500:            80 a1 40 11  cmp       %g5, %l1
    0x100003504:            89 a9 08 5c  fmovdl    %fcc1, %d28, %d4
    0x100003508:            92 24 80 1c  sub       %l2, %i4, %o1
    0x10000350c:            8d a9 80 5c  fmovdg    %fcc0, %d28, %d6
    0x100003510:            14 60 00 1f  bg,pn     %xcc, +0x7c   <0x10000358c>
    0x100003514:            01 00 00 00  nop
    0x100003518:            8a 01 60 01  add       %g5, 0x1, %g5
    0x10000351c:            eb 1a 40 04  ldd       [%o1 + %g4], %d52
    0x100003520:            f3 1a 40 1c  ldd       [%o1 + %i4], %d56
    0x100003524:            c1 1a 40 1a  ldd       [%o1 + %i2], %d0
    0x100003528:            83 ad 4a d1  fcmped    %fcc1, %d52, %d48
    0x10000352c:            85 ae 4a c8  fcmped    %fcc2, %d56, %d8
    0x100003530:            81 ad 4a cf  fcmped    %fcc0, %d52, %d46
    0x100003534:            87 ae 4a d3  fcmped    %fcc3, %d56, %d50
    0x100003538:            a3 a9 08 55  fmovdl    %fcc1, %d52, %d48
    0x10000353c:            9f a9 80 55  fmovdg    %fcc0, %d52, %d46
    0x100003540:            a7 a9 18 59  fmovdl    %fcc3, %d56, %d50
    0x100003544:            91 a9 90 59  fmovdg    %fcc2, %d56, %d8
    0x100003548:            87 a8 0a cc  fcmped    %fcc3, %d0, %d12
    0x10000354c:            85 a8 0a ca  fcmped    %fcc2, %d0, %d10
    0x100003550:            a9 a5 08 55  faddd     %d20, %d52, %d20
    0x100003554:            b7 a6 c8 59  faddd     %d58, %d56, %d58
    0x100003558:            85 a0 88 40  faddd     %d2, %d0, %d2
    0x10000355c:            99 a9 18 40  fmovdl    %fcc3, %d0, %d12
    0x100003560:            95 a9 90 40  fmovdg    %fcc2, %d0, %d10
    0x100003564:            ef 1a 40 10  ldd       [%o1 + %l0], %d54
    0x100003568:            80 a1 40 11  cmp       %g5, %l1
    0x10000356c:            92 02 60 08  add       %o1, 0x8, %o1
    0x100003570:            83 ad ca c4  fcmped    %fcc1, %d54, %d4
    0x100003574:            81 ad ca c6  fcmped    %fcc0, %d54, %d6
    0x100003578:            ad a5 88 57  faddd     %d22, %d54, %d22
    0x10000357c:            89 a9 08 57  fmovdl    %fcc1, %d54, %d4
    0x100003580:            8d a9 80 57  fmovdg    %fcc0, %d54, %d6
    0x100003584:            04 6f ff e6  ble,pt    %xcc, -0x68   <0x10000351c>
    0x100003588:            8a 01 60 01  add       %g5, 0x1, %g5
    0x10000358c:            10 80 00 13  ba        +0x4c         <0x1000035d8>
    0x100003590:            c9 3b a9 57  std       %d4, [%sp + 0x957]
    0x100003594:            ca 5c 20 00  ldx       [%l0], %g5
    0x100003598:            f4 5c 20 08  ldx       [%l0 + 0x8], %i2
    0x10000359c:            f8 5c 20 10  ldx       [%l0 + 0x10], %i4
    0x1000035a0:            e0 5c 20 18  ldx       [%l0 + 0x18], %l0
    0x1000035a4:            e9 1e a0 00  ldd       [%i2], %d20
    0x1000035a8:            c5 1f 20 00  ldd       [%i4], %d2
    0x1000035ac:            ed 1c 20 00  ldd       [%l0], %d22
    0x1000035b0:            9f a0 00 54  fmovd     %d20, %d46
    0x1000035b4:            a3 a0 00 54  fmovd     %d20, %d48
    0x1000035b8:            95 a0 00 42  fmovd     %d2, %d10
    0x1000035bc:            99 a0 00 42  fmovd     %d2, %d12
    0x1000035c0:            f7 19 60 00  ldd       [%g5], %d58
    0x1000035c4:            8d a0 00 56  fmovd     %d22, %d6
    0x1000035c8:            b1 a7 c9 5a  fmuld     %d62, %d26, %d24
    0x1000035cc:            91 a0 00 5b  fmovd     %d58, %d8
    0x1000035d0:            ed 3b a9 57  std       %d22, [%sp + 0x957]
    0x1000035d4:            a7 a0 00 5b  fmovd     %d58, %d50
    0x1000035d8:            e0 5b a8 bf  ldx       [%sp + 0x8bf], %l0
    0x1000035dc:            cd 3b a9 4f  std       %d6, [%sp + 0x94f]
    0x1000035e0:            d5 3b a9 5f  std       %d10, [%sp + 0x95f]
    0x1000035e4:            d9 3b a9 67  std       %d12, [%sp + 0x967]
    0x1000035e8:            d1 3b a9 7f  std       %d8, [%sp + 0x97f]
    0x1000035ec:            f1 3b a9 a7  std       %d24, [%sp + 0x9a7]
    0x1000035f0:            ff 3b a9 8f  std       %d62, [%sp + 0x98f]
    0x1000035f4:            e3 3b a9 77  std       %d48, [%sp + 0x977]
    0x1000035f8:            df 3b a9 6f  std       %d46, [%sp + 0x96f]
    0x1000035fc:            e7 3b a9 87  std       %d50, [%sp + 0x987]
    0x100003600:            fb 3b a9 47  std       %d60, [%sp + 0x947]
    0x100003604:            81 a6 c9 5a  fmuld     %d58, %d26, %d0
    0x100003608:            c1 3b a9 97  std       %d0, [%sp + 0x997]
    0x10000360c:            b3 a5 89 5a  fmuld     %d22, %d26, %d56
    0x100003610:            f3 3b a9 9f  std       %d56, [%sp + 0x99f]
    0x100003614:            af a0 89 5a  fmuld     %d2, %d26, %d54
    0x100003618:            ef 3b a9 af  std       %d54, [%sp + 0x9af]
    0x10000361c:            ab a5 09 5a  fmuld     %d20, %d26, %d52
    0x100003620:            eb 3b a9 b7  std       %d52, [%sp + 0x9b7]
    0x100003624:            40 04 16 77  call      +0x1059dc     <0x100109000>
    0x100003628:            90 04 23 90  add       %l0, 0x390, %o0
    0x10000362c:            40 04 16 75  call      +0x1059d4     <0x100109000>
    0x100003630:            90 04 23 c0  add       %l0, 0x3c0, %o0
    0x100003634:            40 04 16 73  call      +0x1059cc     <0x100109000>
    0x100003638:            90 04 24 10  add       %l0, 0x410, %o0
    0x10000363c:            da 5b a8 cf  ldx       [%sp + 0x8cf], %o5
    0x100003640:            90 04 24 60  add       %l0, 0x460, %o0
    0x100003644:            c4 5b 61 30  ldx       [%o5 + 0x130], %g2
    0x100003648:            d6 58 a0 18  ldx       [%g2 + 0x18], %o3
    0x10000364c:            ea 58 a0 00  ldx       [%g2], %l5
    0x100003650:            e0 58 a0 08  ldx       [%g2 + 0x8], %l0
    0x100003654:            e4 58 a0 10  ldx       [%g2 + 0x10], %l2
    0x100003658:            da 5a e0 00  ldx       [%o3], %o5
    0x10000365c:            d2 58 a0 20  ldx       [%g2 + 0x20], %o1
    0x100003660:            d4 5d 60 00  ldx       [%l5], %o2
    0x100003664:            d6 5c 20 00  ldx       [%l0], %o3
    0x100003668:            d8 5c a0 00  ldx       [%l2], %o4
    0x10000366c:            40 04 16 65  call      +0x105994     <0x100109000>
    0x100003670:            d2 5a 60 00  ldx       [%o1], %o1
    0x100003674:            d0 5f 64 e0  ldx       [%i5 + 0x4e0], %o0
    0x100003678:            c9 1b a9 57  ldd       [%sp + 0x957], %d4
    0x10000367c:            fb 1b a9 47  ldd       [%sp + 0x947], %d60
    0x100003680:            cd 1b a9 4f  ldd       [%sp + 0x94f], %d6
    0x100003684:            d5 1b a9 5f  ldd       [%sp + 0x95f], %d10
    0x100003688:            d9 1b a9 67  ldd       [%sp + 0x967], %d12
    0x10000368c:            df 1b a9 6f  ldd       [%sp + 0x96f], %d46
    0x100003690:            e3 1b a9 77  ldd       [%sp + 0x977], %d48
    0x100003694:            d1 1b a9 7f  ldd       [%sp + 0x97f], %d8
    0x100003698:            e7 1b a9 87  ldd       [%sp + 0x987], %d50
    0x10000369c:            ff 1b a9 8f  ldd       [%sp + 0x98f], %d62
    0x1000036a0:            c1 1b a9 97  ldd       [%sp + 0x997], %d0
    0x1000036a4:            f3 1b a9 9f  ldd       [%sp + 0x99f], %d56
    0x1000036a8:            f1 1b a9 a7  ldd       [%sp + 0x9a7], %d24
    0x1000036ac:            ef 1b a9 af  ldd       [%sp + 0x9af], %d54
    0x1000036b0:            80 a5 00 08  cmp       %l4, %o0
    0x1000036b4:            eb 1b a9 b7  ldd       [%sp + 0x9b7], %d52
    0x1000036b8:            16 60 00 39  bge,pn    %xcc, +0xe4   <0x10000379c>
    0x1000036bc:            b8 10 20 01  mov       0x1, %i4
    0x1000036c0:            f4 5b a8 cf  ldx       [%sp + 0x8cf], %i2
    0x1000036c4:            ac 10 20 08  mov       0x8, %l6
    0x1000036c8:            d8 5e a1 30  ldx       [%i2 + 0x130], %o4
    0x1000036cc:            ca 5b 20 18  ldx       [%o4 + 0x18], %g5
    0x1000036d0:            c8 5b 20 00  ldx       [%o4], %g4
    0x1000036d4:            c6 5b 20 08  ldx       [%o4 + 0x8], %g3
    0x1000036d8:            da 5b 20 10  ldx       [%o4 + 0x10], %o5
    0x1000036dc:            f0 5b 20 20  ldx       [%o4 + 0x20], %i0
    0x1000036e0:            f7 19 40 16  ldd       [%g5 + %l6], %d58
    0x1000036e4:            d6 59 00 16  ldx       [%g4 + %l6], %o3
    0x1000036e8:            d8 58 c0 16  ldx       [%g3 + %l6], %o4
    0x1000036ec:            d4 5e 00 16  ldx       [%i0 + %l6], %o2
    0x1000036f0:            da 5b 40 16  ldx       [%o5 + %l6], %o5
    0x1000036f4:            ca 5b a8 bf  ldx       [%sp + 0x8bf], %g5
    0x1000036f8:            c9 3b a9 57  std       %d4, [%sp + 0x957]
    0x1000036fc:            cd 3b a9 4f  std       %d6, [%sp + 0x94f]
    0x100003700:            d5 3b a9 5f  std       %d10, [%sp + 0x95f]
    0x100003704:            d9 3b a9 67  std       %d12, [%sp + 0x967]
    0x100003708:            d1 3b a9 7f  std       %d8, [%sp + 0x97f]
    0x10000370c:            c1 3b a9 97  std       %d0, [%sp + 0x997]
    0x100003710:            f1 3b a9 a7  std       %d24, [%sp + 0x9a7]
    0x100003714:            ff 3b a9 8f  std       %d62, [%sp + 0x98f]
    0x100003718:            e3 3b a9 77  std       %d48, [%sp + 0x977]
    0x10000371c:            df 3b a9 6f  std       %d46, [%sp + 0x96f]
    0x100003720:            e7 3b a9 87  std       %d50, [%sp + 0x987]
    0x100003724:            f3 3b a9 9f  std       %d56, [%sp + 0x99f]
    0x100003728:            ef 3b a9 af  std       %d54, [%sp + 0x9af]
    0x10000372c:            eb 3b a9 b7  std       %d52, [%sp + 0x9b7]
    0x100003730:            f7 3b a8 af  std       %d58, [%sp + 0x8af]
    0x100003734:            fb 3b a9 47  std       %d60, [%sp + 0x947]
    0x100003738:            92 10 00 1c  mov       %i4, %o1
    0x10000373c:            40 04 16 31  call      +0x1058c4     <0x100109000>
    0x100003740:            90 01 64 a0  add       %g5, 0x4a0, %o0
    0x100003744:            d4 5f 64 e0  ldx       [%i5 + 0x4e0], %o2
    0x100003748:            d8 5e a1 30  ldx       [%i2 + 0x130], %o4
    0x10000374c:            df 1b a9 6f  ldd       [%sp + 0x96f], %d46
    0x100003750:            cd 1b a9 4f  ldd       [%sp + 0x94f], %d6
    0x100003754:            fb 1b a9 47  ldd       [%sp + 0x947], %d60
    0x100003758:            c9 1b a9 57  ldd       [%sp + 0x957], %d4
    0x10000375c:            d5 1b a9 5f  ldd       [%sp + 0x95f], %d10
    0x100003760:            d9 1b a9 67  ldd       [%sp + 0x967], %d12
    0x100003764:            e3 1b a9 77  ldd       [%sp + 0x977], %d48
    0x100003768:            d1 1b a9 7f  ldd       [%sp + 0x97f], %d8
    0x10000376c:            e7 1b a9 87  ldd       [%sp + 0x987], %d50
    0x100003770:            ff 1b a9 8f  ldd       [%sp + 0x98f], %d62
    0x100003774:            c1 1b a9 97  ldd       [%sp + 0x997], %d0
    0x100003778:            f3 1b a9 9f  ldd       [%sp + 0x99f], %d56
    0x10000377c:            f1 1b a9 a7  ldd       [%sp + 0x9a7], %d24
    0x100003780:            ef 1b a9 af  ldd       [%sp + 0x9af], %d54
    0x100003784:            b8 07 20 01  add       %i4, 0x1, %i4
    0x100003788:            eb 1b a9 b7  ldd       [%sp + 0x9b7], %d52
    0x10000378c:            80 a7 00 0a  cmp       %i4, %o2
    0x100003790:            ac 05 a0 08  add       %l6, 0x8, %l6
    0x100003794:            26 6f ff cf  bl,a,pt   %xcc, -0xc4   <0x1000036d0>
    0x100003798:            ca 5b 20 18  ldx       [%o4 + 0x18], %g5
    0x10000379c:            ee 5b a8 bf  ldx       [%sp + 0x8bf], %l7
    0x1000037a0:            c1 3b a9 ff  std       %d0, [%sp + 0x9ff]
    0x1000037a4:            d4 5b a9 ff  ldx       [%sp + 0x9ff], %o2
    0x1000037a8:            f1 3b aa 5f  std       %d24, [%sp + 0xa5f]
    0x1000037ac:            d2 5b aa 5f  ldx       [%sp + 0xa5f], %o1
    0x1000037b0:            f3 3b aa 3f  std       %d56, [%sp + 0xa3f]
    0x1000037b4:            da 5b aa 3f  ldx       [%sp + 0xa3f], %o5
    0x1000037b8:            ef 3b a9 df  std       %d54, [%sp + 0x9df]
    0x1000037bc:            d8 5b a9 df  ldx       [%sp + 0x9df], %o4
    0x1000037c0:            eb 3b aa 1f  std       %d52, [%sp + 0xa1f]
    0x1000037c4:            d6 5b aa 1f  ldx       [%sp + 0xa1f], %o3
    0x1000037c8:            fb 3b a9 47  std       %d60, [%sp + 0x947]
    0x1000037cc:            cd 3b a9 4f  std       %d6, [%sp + 0x94f]
    0x1000037d0:            c9 3b a9 57  std       %d4, [%sp + 0x957]
    0x1000037d4:            d5 3b a9 5f  std       %d10, [%sp + 0x95f]
    0x1000037d8:            d9 3b a9 67  std       %d12, [%sp + 0x967]
    0x1000037dc:            d1 3b a9 7f  std       %d8, [%sp + 0x97f]
    0x1000037e0:            df 3b a9 6f  std       %d46, [%sp + 0x96f]
    0x1000037e4:            e3 3b a9 77  std       %d48, [%sp + 0x977]
    0x1000037e8:            e7 3b a9 87  std       %d50, [%sp + 0x987]
    0x1000037ec:            ff 3b a9 8f  std       %d62, [%sp + 0x98f]
    0x1000037f0:            40 04 16 04  call      +0x105810     <0x100109000>
    0x1000037f4:            90 05 e4 e0  add       %l7, 0x4e0, %o0
    0x1000037f8:            da 5b a9 57  ldx       [%sp + 0x957], %o5
    0x1000037fc:            d8 5b a9 67  ldx       [%sp + 0x967], %o4
    0x100003800:            d6 5b a9 77  ldx       [%sp + 0x977], %o3
    0x100003804:            d4 5b a9 87  ldx       [%sp + 0x987], %o2
    0x100003808:            d2 5b a9 8f  ldx       [%sp + 0x98f], %o1
    0x10000380c:            40 04 15 fd  call      +0x1057f4     <0x100109000>
    0x100003810:            90 05 e5 20  add       %l7, 0x520, %o0
    0x100003814:            da 5b a9 4f  ldx       [%sp + 0x94f], %o5
    0x100003818:            d8 5b a9 5f  ldx       [%sp + 0x95f], %o4
    0x10000381c:            d6 5b a9 6f  ldx       [%sp + 0x96f], %o3
    0x100003820:            d4 5b a9 7f  ldx       [%sp + 0x97f], %o2
    0x100003824:            90 05 e5 60  add       %l7, 0x560, %o0
    0x100003828:            40 04 15 f6  call      +0x1057d8     <0x100109000>
    0x10000382c:            d2 5b a9 47  ldx       [%sp + 0x947], %o1
    0x100003830:            40 04 16 1c  call      +0x105870     <0x1001090a0>
    0x100003834:            90 10 20 0a  mov       0xa, %o0
    0x100003838:            f4 5b a8 cf  ldx       [%sp + 0x8cf], %i2
    0x10000383c:            c6 5b a8 c7  ldx       [%sp + 0x8c7], %g3
    0x100003840:            90 05 e5 a8  add       %l7, 0x5a8, %o0
    0x100003844:            ea 5e a1 30  ldx       [%i2 + 0x130], %l5
    0x100003848:            40 04 15 ee  call      +0x1057b8     <0x100109000>
    0x10000384c:            c6 75 60 28  stx       %g3, [%l5 + 0x28]
    0x100003850:            e0 5e a1 30  ldx       [%i2 + 0x130], %l0
    0x100003854:            90 05 e5 d8  add       %l7, 0x5d8, %o0
    0x100003858:            40 04 15 ea  call      +0x1057a8     <0x100109000>
    0x10000385c:            d2 5c 20 28  ldx       [%l0 + 0x28], %o1
    0x100003860:            c4 5e a1 30  ldx       [%i2 + 0x130], %g2
    0x100003864:            90 05 e6 08  add       %l7, 0x608, %o0
    0x100003868:            40 04 15 e6  call      +0x105798     <0x100109000>
    0x10000386c:            d2 58 a0 38  ldx       [%g2 + 0x38], %o1
    0x100003870:            e4 5e a1 30  ldx       [%i2 + 0x130], %l2
    0x100003874:            90 05 e6 38  add       %l7, 0x638, %o0
    0x100003878:            40 04 15 e2  call      +0x105788     <0x100109000>
    0x10000387c:            d2 5c a0 30  ldx       [%l2 + 0x30], %o1
    0x100003880:            d2 5e a1 30  ldx       [%i2 + 0x130], %o1
    0x100003884:            de 5a 60 28  ldx       [%o1 + 0x28], %o7
    0x100003888:            e6 5a 60 30  ldx       [%o1 + 0x30], %l3
    0x10000388c:            92 24 c0 0f  sub       %l3, %o7, %o1
    0x100003890:            40 04 15 dc  call      +0x105770     <0x100109000>
    0x100003894:            90 05 e6 68  add       %l7, 0x668, %o0
    0x100003898:            f4 5e a1 30  ldx       [%i2 + 0x130], %i2
    0x10000389c:            90 05 e6 98  add       %l7, 0x698, %o0
    0x1000038a0:            ee 5e a0 38  ldx       [%i2 + 0x38], %l7
    0x1000038a4:            e2 5e a0 30  ldx       [%i2 + 0x30], %l1
    0x1000038a8:            40 04 15 d6  call      +0x105758     <0x100109000>
    0x1000038ac:            92 24 40 17  sub       %l1, %l7, %o1
    0x1000038b0:            40 04 15 fc  call      +0x1057f0     <0x1001090a0>
    0x1000038b4:            90 10 20 0a  mov       0xa, %o0
    0x1000038b8:            fa 5b a8 b7  ldx       [%sp + 0x8b7], %i5
    0x1000038bc:            e8 5f 64 f0  ldx       [%i5 + 0x4f0], %l4
    0x1000038c0:            02 c5 00 f6  brz,pn    %l4, +0x3d8   <0x100003c98>
    0x1000038c4:            3b 00 04 00  sethi     %hi(0x100000), %i5
    0x1000038c8:            b8 17 60 08  or        %i5, 0x8, %i4
    0x1000038cc:            ad 2f 30 0c  sllx      %i4, 0xc, %l6
    0x1000038d0:            40 04 15 cc  call      +0x105730     <0x100109000>
    0x1000038d4:            90 05 ab f8  add       %l6, 0xbf8, %o0
    0x1000038d8:            f8 5b a8 df  ldx       [%sp + 0x8df], %i4
    0x1000038dc:            d2 5e 66 90  ldx       [%i1 + 0x690], %o1
    0x1000038e0:            d4 5f 26 98  ldx       [%i4 + 0x698], %o2
    0x1000038e4:            40 00 10 5d  call      +0x4174       <0x100007a58>
    0x1000038e8:            d0 5e e4 d8  ldx       [%i3 + 0x4d8], %o0
    0x1000038ec:            10 80 00 eb  ba        +0x3ac        <0x100003c98>
    0x1000038f0:            01 00 00 00  nop
    0x1000038f4:            2d 00 04 00  sethi     %hi(0x100000), %l6
    0x1000038f8:            94 15 a0 08  or        %l6, 0x8, %o2
    0x1000038fc:            99 2a b0 0c  sllx      %o2, 0xc, %o4
    0x100003900:            35 00 04 00  sethi     %hi(0x100000), %i2
    0x100003904:            37 00 04 00  sethi     %hi(0x100000), %i3
    0x100003908:            b8 16 e0 08  or        %i3, 0x8, %i4
    0x10000390c:            a9 2f 30 0c  sllx      %i4, 0xc, %l4
    0x100003910:            40 04 15 bc  call      +0x1056f0     <0x100109000>
    0x100003914:            90 03 25 38  add       %o4, 0x538, %o0
    0x100003918:            96 16 a0 08  or        %i2, 0x8, %o3
    0x10000391c:            85 2a f0 0c  sllx      %o3, 0xc, %g2
    0x100003920:            40 04 15 b8  call      +0x1056e0     <0x100109000>
    0x100003924:            90 00 a5 50  add       %g2, 0x550, %o0
    0x100003928:            40 04 15 b6  call      +0x1056d8     <0x100109000>
    0x10000392c:            90 05 25 60  add       %l4, 0x560, %o0
    0x100003930:            13 00 04 00  sethi     %hi(0x100000), %o1
    0x100003934:            9e 12 60 08  or        %o1, 0x8, %o7
    0x100003938:            af 2b f0 0c  sllx      %o7, 0xc, %l7
    0x10000393c:            29 00 04 00  sethi     %hi(0x100000), %l4
    0x100003940:            40 04 15 b0  call      +0x1056c0     <0x100109000>
    0x100003944:            90 05 e5 80  add       %l7, 0x580, %o0
    0x100003948:            0b 00 04 00  sethi     %hi(0x100000), %g5
    0x10000394c:            b0 11 60 08  or        %g5, 0x8, %i0
    0x100003950:            89 2e 30 0c  sllx      %i0, 0xc, %g4
    0x100003954:            40 04 15 ab  call      +0x1056ac     <0x100109000>
    0x100003958:            90 01 25 a8  add       %g4, 0x5a8, %o0
    0x10000395c:            07 00 04 00  sethi     %hi(0x100000), %g3
    0x100003960:            aa 10 e0 08  or        %g3, 0x8, %l5
    0x100003964:            9b 2d 70 0c  sllx      %l5, 0xc, %o5
    0x100003968:            40 04 15 a6  call      +0x105698     <0x100109000>
    0x10000396c:            90 03 65 f0  add       %o5, 0x5f0, %o0
    0x100003970:            11 00 04 00  sethi     %hi(0x100000), %o0
    0x100003974:            ac 12 20 08  or        %o0, 0x8, %l6
    0x100003978:            95 2d b0 0c  sllx      %l6, 0xc, %o2
    0x10000397c:            40 04 15 a1  call      +0x105684     <0x100109000>
    0x100003980:            90 02 a6 38  add       %o2, 0x638, %o0
    0x100003984:            19 00 04 00  sethi     %hi(0x100000), %o4
    0x100003988:            b4 13 20 08  or        %o4, 0x8, %i2
    0x10000398c:            97 2e b0 0c  sllx      %i2, 0xc, %o3
    0x100003990:            40 04 15 9c  call      +0x105670     <0x100109000>
    0x100003994:            90 02 e6 80  add       %o3, 0x680, %o0
    0x100003998:            05 00 04 00  sethi     %hi(0x100000), %g2
    0x10000399c:            b6 10 a0 08  or        %g2, 0x8, %i3
    0x1000039a0:            b9 2e f0 0c  sllx      %i3, 0xc, %i4
    0x1000039a4:            40 04 15 97  call      +0x10565c     <0x100109000>
    0x1000039a8:            90 07 26 b8  add       %i4, 0x6b8, %o0
    0x1000039ac:            92 15 20 08  or        %l4, 0x8, %o1
    0x1000039b0:            9f 2a 70 0c  sllx      %o1, 0xc, %o7
    0x1000039b4:            90 03 e6 d0  add       %o7, 0x6d0, %o0
    0x1000039b8:            40 04 15 92  call      +0x105648     <0x100109000>
    0x1000039bc:            2f 00 04 00  sethi     %hi(0x100000), %l7
    0x1000039c0:            8a 15 e0 08  or        %l7, 0x8, %g5
    0x1000039c4:            b1 29 70 0c  sllx      %g5, 0xc, %i0
    0x1000039c8:            40 04 15 8e  call      +0x105638     <0x100109000>
    0x1000039cc:            90 06 26 f8  add       %i0, 0x6f8, %o0
    0x1000039d0:            09 00 04 00  sethi     %hi(0x100000), %g4
    0x1000039d4:            86 11 20 08  or        %g4, 0x8, %g3
    0x1000039d8:            ab 28 f0 0c  sllx      %g3, 0xc, %l5
    0x1000039dc:            90 05 67 28  add       %l5, 0x728, %o0
    0x1000039e0:            96 10 20 10  mov       0x10, %o3
    0x1000039e4:            94 10 20 01  mov       0x1, %o2
    0x1000039e8:            40 04 15 86  call      +0x105618     <0x100109000>
    0x1000039ec:            92 10 22 00  mov       0x200, %o1
    0x1000039f0:            40 04 15 2c  call      +0x1054b0     <0x100108ea0>
    0x1000039f4:            90 10 20 00  clr       %o0
    0x1000039f8:            10 bf f7 fe  ba        -0x2008       <0x1000019f0>
    0x1000039fc:            92 10 00 19  mov       %i1, %o1
    0x100003a00:            31 00 04 00  sethi     %hi(0x100000), %i0
    0x100003a04:            88 16 21 09  or        %i0, 0x109, %g4
    0x100003a08:            1b 00 04 00  sethi     %hi(0x100000), %o5
    0x100003a0c:            87 29 30 0c  sllx      %g4, 0xc, %g3
    0x100003a10:            ac 13 60 08  or        %o5, 0x8, %l6
    0x100003a14:            92 00 e7 a0  add       %g3, 0x7a0, %o1
    0x100003a18:            95 2d b0 0c  sllx      %l6, 0xc, %o2
    0x100003a1c:            40 04 15 b1  call      +0x1056c4     <0x1001090e0>
    0x100003a20:            90 02 a7 58  add       %o2, 0x758, %o0
    0x100003a24:            40 04 15 1f  call      +0x10547c     <0x100108ea0>
    0x100003a28:            90 10 3f ff  mov       -0x1, %o0
    0x100003a2c:            10 bf f8 59  ba        -0x1e9c       <0x100001b90>
    0x100003a30:            ca 5f 64 e0  ldx       [%i5 + 0x4e0], %g5
    0x100003a34:            05 00 04 00  sethi     %hi(0x100000), %g2
    0x100003a38:            a8 10 a1 09  or        %g2, 0x109, %l4
    0x100003a3c:            1f 00 04 00  sethi     %hi(0x100000), %o7
    0x100003a40:            ae 13 e0 08  or        %o7, 0x8, %l7
    0x100003a44:            93 2d 30 0c  sllx      %l4, 0xc, %o1
    0x100003a48:            92 02 67 a0  add       %o1, 0x7a0, %o1
    0x100003a4c:            91 2d f0 0c  sllx      %l7, 0xc, %o0
    0x100003a50:            40 04 15 a4  call      +0x105690     <0x1001090e0>
    0x100003a54:            90 02 27 88  add       %o0, 0x788, %o0
    0x100003a58:            40 04 15 12  call      +0x105448     <0x100108ea0>
    0x100003a5c:            90 10 3f ff  mov       -0x1, %o0
    0x100003a60:            d8 5f 64 e0  ldx       [%i5 + 0x4e0], %o4
    0x100003a64:            de 5d 61 58  ldx       [%l5 + 0x158], %o7
    0x100003a68:            10 bf f8 51  ba        -0x1ebc       <0x100001bac>
    0x100003a6c:            35 00 04 00  sethi     %hi(0x100000), %i2
    0x100003a70:            1f 00 04 00  sethi     %hi(0x100000), %o7
    0x100003a74:            a6 13 e0 08  or        %o7, 0x8, %l3
    0x100003a78:            0b 00 04 00  sethi     %hi(0x100000), %g5
    0x100003a7c:            91 2c f0 0c  sllx      %l3, 0xc, %o0
    0x100003a80:            b0 11 61 09  or        %g5, 0x109, %i0
    0x100003a84:            92 02 27 b8  add       %o0, 0x7b8, %o1
    0x100003a88:            89 2e 30 0c  sllx      %i0, 0xc, %g4
    0x100003a8c:            90 01 27 a0  add       %g4, 0x7a0, %o0
    0x100003a90:            40 04 15 9c  call      +0x105670     <0x100109100>
    0x100003a94:            94 10 00 12  mov       %l2, %o2
    0x100003a98:            40 04 15 02  call      +0x105408     <0x100108ea0>
    0x100003a9c:            90 10 3f ff  mov       -0x1, %o0
    0x100003aa0:            d4 5c 21 48  ldx       [%l0 + 0x148], %o2
    0x100003aa4:            d8 5f 64 e0  ldx       [%i5 + 0x4e0], %o4
    0x100003aa8:            ec 5a 80 17  ldx       [%o2 + %l7], %l6
    0x100003aac:            10 bf f8 ef  ba        -0x1c44       <0x100001e68>
    0x100003ab0:            a4 04 a0 01  add       %l2, 0x1, %l2
    0x100003ab4:            2d 00 04 00  sethi     %hi(0x100000), %l6
    0x100003ab8:            aa 15 a1 09  or        %l6, 0x109, %l5
    0x100003abc:            95 2d 70 0c  sllx      %l5, 0xc, %o2
    0x100003ac0:            40 00 12 84  call      +0x4a10       <0x1000084d0>
    0x100003ac4:            90 02 a5 08  add       %o2, 0x508, %o0
    0x100003ac8:            40 04 14 f6  call      +0x1053d8     <0x100108ea0>
    0x100003acc:            90 10 3f ff  mov       -0x1, %o0
    0x100003ad0:            c4 5e a1 28  ldx       [%i2 + 0x128], %g2
    0x100003ad4:            c4 73 a8 ef  stx       %g2, [%sp + 0x8ef]
    0x100003ad8:            10 bf f8 f9  ba        -0x1c1c       <0x100001ebc>
    0x100003adc:            88 10 00 02  mov       %g2, %g4
    0x100003ae0:            11 00 04 00  sethi     %hi(0x100000), %o0
    0x100003ae4:            ae 12 21 09  or        %o0, 0x109, %l7
    0x100003ae8:            8b 2d f0 0c  sllx      %l7, 0xc, %g5
    0x100003aec:            40 00 12 79  call      +0x49e4       <0x1000084d0>
    0x100003af0:            90 01 65 28  add       %g5, 0x528, %o0
    0x100003af4:            40 04 14 eb  call      +0x1053ac     <0x100108ea0>
    0x100003af8:            90 10 3f ff  mov       -0x1, %o0
    0x100003afc:            10 bf fb 18  ba        -0x13a0       <0x10000275c>
    0x100003b00:            90 10 20 a0  mov       0xa0, %o0
    0x100003b04:            1b 00 04 00  sethi     %hi(0x100000), %o5
    0x100003b08:            94 13 61 09  or        %o5, 0x109, %o2
    0x100003b0c:            99 2a b0 0c  sllx      %o2, 0xc, %o4
    0x100003b10:            40 00 12 70  call      +0x49c0       <0x1000084d0>
    0x100003b14:            90 03 25 50  add       %o4, 0x550, %o0
    0x100003b18:            40 04 14 e2  call      +0x105388     <0x100108ea0>
    0x100003b1c:            90 10 3f ff  mov       -0x1, %o0
    0x100003b20:            e0 5d e1 30  ldx       [%l7 + 0x130], %l0
    0x100003b24:            10 bf fb 3b  ba        -0x1314       <0x100002810>
    0x100003b28:            90 04 20 50  add       %l0, 0x50, %o0
    0x100003b2c:            09 00 04 00  sethi     %hi(0x100000), %g4
    0x100003b30:            86 11 21 09  or        %g4, 0x109, %g3
    0x100003b34:            ad 28 f0 0c  sllx      %g3, 0xc, %l6
    0x100003b38:            40 00 12 66  call      +0x4998       <0x1000084d0>
    0x100003b3c:            90 05 a5 78  add       %l6, 0x578, %o0
    0x100003b40:            40 04 14 d8  call      +0x105360     <0x100108ea0>
    0x100003b44:            90 10 3f ff  mov       -0x1, %o0
    0x100003b48:            e0 5d e1 30  ldx       [%l7 + 0x130], %l0
    0x100003b4c:            10 bf fb 31  ba        -0x133c       <0x100002810>
    0x100003b50:            90 04 20 50  add       %l0, 0x50, %o0
    0x100003b54:            27 00 04 00  sethi     %hi(0x100000), %l3
    0x100003b58:            a2 14 e1 09  or        %l3, 0x109, %l1
    0x100003b5c:            8b 2c 70 0c  sllx      %l1, 0xc, %g5
    0x100003b60:            40 00 12 5c  call      +0x4970       <0x1000084d0>
    0x100003b64:            90 01 65 a8  add       %g5, 0x5a8, %o0
    0x100003b68:            40 04 14 ce  call      +0x105338     <0x100108ea0>
    0x100003b6c:            90 10 3f ff  mov       -0x1, %o0
    0x100003b70:            e0 5d e1 30  ldx       [%l7 + 0x130], %l0
    0x100003b74:            10 bf fb 27  ba        -0x1364       <0x100002810>
    0x100003b78:            90 04 20 50  add       %l0, 0x50, %o0
    0x100003b7c:            13 00 04 00  sethi     %hi(0x100000), %o1
    0x100003b80:            90 12 61 09  or        %o1, 0x109, %o0
    0x100003b84:            af 2a 30 0c  sllx      %o0, 0xc, %l7
    0x100003b88:            40 00 12 52  call      +0x4948       <0x1000084d0>
    0x100003b8c:            90 05 e5 d8  add       %l7, 0x5d8, %o0
    0x100003b90:            40 04 14 c4  call      +0x105310     <0x100108ea0>
    0x100003b94:            90 10 3f ff  mov       -0x1, %o0
    0x100003b98:            e8 5b a8 cf  ldx       [%sp + 0x8cf], %l4
    0x100003b9c:            e0 5d 21 30  ldx       [%l4 + 0x130], %l0
    0x100003ba0:            10 bf fb 1c  ba        -0x1390       <0x100002810>
    0x100003ba4:            90 04 20 50  add       %l0, 0x50, %o0
    0x100003ba8:            05 00 04 00  sethi     %hi(0x100000), %g2
    0x100003bac:            a0 10 a1 09  or        %g2, 0x109, %l0
    0x100003bb0:            a5 2c 30 0c  sllx      %l0, 0xc, %l2
    0x100003bb4:            40 00 12 47  call      +0x491c       <0x1000084d0>
    0x100003bb8:            90 04 a6 08  add       %l2, 0x608, %o0
    0x100003bbc:            40 04 14 b9  call      +0x1052e4     <0x100108ea0>
    0x100003bc0:            90 10 3f ff  mov       -0x1, %o0
    0x100003bc4:            e0 5d e1 30  ldx       [%l7 + 0x130], %l0
    0x100003bc8:            10 bf fb 12  ba        -0x13b8       <0x100002810>
    0x100003bcc:            90 04 20 50  add       %l0, 0x50, %o0
    0x100003bd0:            15 00 04 00  sethi     %hi(0x100000), %o2
    0x100003bd4:            98 12 a1 09  or        %o2, 0x109, %o4
    0x100003bd8:            97 2b 30 0c  sllx      %o4, 0xc, %o3
    0x100003bdc:            40 00 12 3d  call      +0x48f4       <0x1000084d0>
    0x100003be0:            90 02 e6 38  add       %o3, 0x638, %o0
    0x100003be4:            40 04 14 af  call      +0x1052bc     <0x100108ea0>
    0x100003be8:            90 10 3f ff  mov       -0x1, %o0
    0x100003bec:            e0 5d e1 30  ldx       [%l7 + 0x130], %l0
    0x100003bf0:            10 bf fb 08  ba        -0x13e0       <0x100002810>
    0x100003bf4:            90 04 20 50  add       %l0, 0x50, %o0
    0x100003bf8:            2d 00 04 00  sethi     %hi(0x100000), %l6
    0x100003bfc:            aa 15 a0 08  or        %l6, 0x8, %l5
    0x100003c00:            9b 2d 70 0c  sllx      %l5, 0xc, %o5
    0x100003c04:            40 04 14 ff  call      +0x1053fc     <0x100109000>
    0x100003c08:            90 03 67 e8  add       %o5, 0x7e8, %o0
    0x100003c0c:            40 04 14 a5  call      +0x105294     <0x100108ea0>
    0x100003c10:            90 10 3f ff  mov       -0x1, %o0
    0x100003c14:            10 bf fb 03  ba        -0x13f4       <0x100002820>
    0x100003c18:            e4 5b a8 cf  ldx       [%sp + 0x8cf], %l2
    0x100003c1c:            27 00 04 00  sethi     %hi(0x100000), %l3
    0x100003c20:            a2 14 e0 08  or        %l3, 0x8, %l1
    0x100003c24:            8b 2c 70 0c  sllx      %l1, 0xc, %g5
    0x100003c28:            40 04 14 f6  call      +0x1053d8     <0x100109000>
    0x100003c2c:            90 01 68 10  add       %g5, 0x810, %o0
    0x100003c30:            f0 5c a1 30  ldx       [%l2 + 0x130], %i0
    0x100003c34:            40 04 15 3b  call      +0x1054ec     <0x100109120>
    0x100003c38:            90 06 20 50  add       %i0, 0x50, %o0
    0x100003c3c:            40 04 14 99  call      +0x105264     <0x100108ea0>
    0x100003c40:            90 10 3f ff  mov       -0x1, %o0
    0x100003c44:            c8 5c a1 30  ldx       [%l2 + 0x130], %g4
    0x100003c48:            10 bf fa fd  ba        -0x140c       <0x10000283c>
    0x100003c4c:            c0 71 20 78  clrx      [%g4 + 0x78]
    0x100003c50:            19 00 04 00  sethi     %hi(0x100000), %o4
    0x100003c54:            96 13 20 08  or        %o4, 0x8, %o3
    0x100003c58:            85 2a f0 0c  sllx      %o3, 0xc, %g2
    0x100003c5c:            40 04 14 e9  call      +0x1053a4     <0x100109000>
    0x100003c60:            90 00 a8 58  add       %g2, 0x858, %o0
    0x100003c64:            40 04 14 8f  call      +0x10523c     <0x100108ea0>
    0x100003c68:            90 10 3f ff  mov       -0x1, %o0
    0x100003c6c:            10 bf fc 77  ba        -0xe24        <0x100002e48>
    0x100003c70:            a8 05 20 01  add       %l4, 0x1, %l4
    0x100003c74:            0b 00 04 00  sethi     %hi(0x100000), %g5
    0x100003c78:            b0 11 60 08  or        %g5, 0x8, %i0
    0x100003c7c:            89 2e 30 0c  sllx      %i0, 0xc, %g4
    0x100003c80:            40 04 14 e0  call      +0x105380     <0x100109000>
    0x100003c84:            90 01 28 78  add       %g4, 0x878, %o0
    0x100003c88:            40 04 14 86  call      +0x105218     <0x100108ea0>
    0x100003c8c:            90 10 3f ff  mov       -0x1, %o0
    0x100003c90:            10 bf fc 95  ba        -0xdac        <0x100002ee4>
    0x100003c94:            e6 5f 64 e0  ldx       [%i5 + 0x4e0], %l3
    0x100003c98:            40 04 14 82  call      +0x105208     <0x100108ea0>
    0x100003c9c:            90 10 20 00  clr       %o0
    0x100003ca0:            81 c7 e0 08  ret
    0x100003ca4:            91 e8 20 00  restore   %g0, 0x0, %o0
SlaveStart()
    0x100003ca8:            9d e3 bf 50  save      %sp, -0xb0, %sp
    0x100003cac:            3b 00 04 00  sethi     %hi(0x100000), %i5
    0x100003cb0:            ba 17 61 0a  or        %i5, 0x10a, %i5
    0x100003cb4:            b7 2f 70 0c  sllx      %i5, 0xc, %i3
    0x100003cb8:            f8 5e e1 30  ldx       [%i3 + 0x130], %i4
    0x100003cbc:            2f 00 04 00  sethi     %hi(0x100000), %l7
    0x100003cc0:            2d 00 04 00  sethi     %hi(0x100000), %l6
    0x100003cc4:            2b 00 04 00  sethi     %hi(0x100000), %l5
    0x100003cc8:            a8 15 e1 09  or        %l7, 0x109, %l4
    0x100003ccc:            a4 15 a1 09  or        %l6, 0x109, %l2
    0x100003cd0:            a0 15 61 09  or        %l5, 0x109, %l0
    0x100003cd4:            a7 2d 30 0c  sllx      %l4, 0xc, %l3
    0x100003cd8:            40 04 14 da  call      +0x105368     <0x100109040>
    0x100003cdc:            90 07 20 88  add       %i4, 0x88, %o0
    0x100003ce0:            f2 5e e1 30  ldx       [%i3 + 0x130], %i1
    0x100003ce4:            a3 2c b0 0c  sllx      %l2, 0xc, %l1
    0x100003ce8:            f4 5e 60 48  ldx       [%i1 + 0x48], %i2
    0x100003cec:            90 06 60 88  add       %i1, 0x88, %o0
    0x100003cf0:            b0 06 a0 01  add       %i2, 0x1, %i0
    0x100003cf4:            40 04 14 db  call      +0x10536c     <0x100109060>
    0x100003cf8:            f0 76 60 48  stx       %i0, [%i1 + 0x48]
    0x100003cfc:            f6 5c e5 00  ldx       [%l3 + 0x500], %i3
    0x100003d00:            f2 5c 64 e8  ldx       [%l1 + 0x4e8], %i1
    0x100003d04:            9f 2c 30 0c  sllx      %l0, 0xc, %o7
    0x100003d08:            f0 5b e4 d8  ldx       [%o7 + 0x4d8], %i0
    0x100003d0c:            40 00 00 09  call      +0x24         <0x100003d30>
    0x100003d10:            81 e8 20 00  restore   %g0, 0x0, %g0
    0x100003d14:            00 00 00 00  illtrap   0x0
    0x100003d18:            00 00 00 00  illtrap   0x0
    0x100003d1c:            00 00 00 00  illtrap   0x0
    0x100003d20:            43 30 00 00  call      +0xcc00000    <0x10cc03d20>
    0x100003d24:            00 00 00 00  illtrap   0x0
    0x100003d28:            41 f0 00 00  call      +0x7c00000    <0x107c03d28>
    0x100003d2c:            00 00 00 00  illtrap   0x0
OneSolve()
    0x100003d30:            9d e3 be 60  save      %sp, -0x1a0, %sp
    0x100003d34:            84 10 00 18  mov       %i0, %g2
    0x100003d38:            c4 73 a9 87  stx       %g2, [%sp + 0x987]
    0x100003d3c:            86 10 00 19  mov       %i1, %g3
    0x100003d40:            c6 73 a9 7f  stx       %g3, [%sp + 0x97f]
    0x100003d44:            88 10 00 1a  mov       %i2, %g4
    0x100003d48:            c8 73 a9 77  stx       %g4, [%sp + 0x977]
    0x100003d4c:            8a 10 00 1b  mov       %i3, %g5
    0x100003d50:            ca 73 a9 6f  stx       %g5, [%sp + 0x96f]
    0x100003d54:            10 80 00 02  ba        +0x8          <0x100003d5c>
    0x100003d58:            01 00 00 00  nop
    0x100003d5c:            84 10 20 20  mov       0x20, %g2
    0x100003d60:            90 10 00 02  mov       %g2, %o0
    0x100003d64:            40 04 14 77  call      +0x1051dc     <0x100108f40>
    0x100003d68:            01 00 00 00  nop
    0x100003d6c:            86 10 00 08  mov       %o0, %g3
    0x100003d70:            c6 73 a9 67  stx       %g3, [%sp + 0x967]
    0x100003d74:            c8 5b a9 67  ldx       [%sp + 0x967], %g4
    0x100003d78:            80 a1 00 00  cmp       %g4, %g0
    0x100003d7c:            02 60 00 04  be,pn     %xcc, +0x10   <0x100003d8c>
    0x100003d80:            01 00 00 00  nop
    0x100003d84:            10 80 00 18  ba        +0x60         <0x100003de4>
    0x100003d88:            01 00 00 00  nop
    0x100003d8c:            05 00 04 00  sethi     %hi(0x100000), %g2
    0x100003d90:            86 10 a1 09  or        %g2, 0x109, %g3
    0x100003d94:            89 28 f0 0c  sllx      %g3, 0xc, %g4
    0x100003d98:            8a 01 27 a0  add       %g4, 0x7a0, %g5
    0x100003d9c:            9a 10 00 05  mov       %g5, %o5
    0x100003da0:            1f 00 04 00  sethi     %hi(0x100000), %o7
    0x100003da4:            a0 13 e0 08  or        %o7, 0x8, %l0
    0x100003da8:            a3 2c 30 0c  sllx      %l0, 0xc, %l1
    0x100003dac:            a4 04 6c 28  add       %l1, 0xc28, %l2
    0x100003db0:            a6 10 00 12  mov       %l2, %l3
    0x100003db4:            e8 5b a9 77  ldx       [%sp + 0x977], %l4
    0x100003db8:            90 10 00 0d  mov       %o5, %o0
    0x100003dbc:            92 10 00 13  mov       %l3, %o1
    0x100003dc0:            94 10 00 14  mov       %l4, %o2
    0x100003dc4:            40 04 14 cf  call      +0x10533c     <0x100109100>
    0x100003dc8:            01 00 00 00  nop
    0x100003dcc:            aa 10 3f ff  mov       -0x1, %l5
    0x100003dd0:            90 10 00 15  mov       %l5, %o0
    0x100003dd4:            40 04 14 33  call      +0x1050cc     <0x100108ea0>
    0x100003dd8:            01 00 00 00  nop
    0x100003ddc:            10 80 00 02  ba        +0x8          <0x100003de4>
    0x100003de0:            01 00 00 00  nop
    0x100003de4:            05 00 04 00  sethi     %hi(0x100000), %g2
    0x100003de8:            86 10 a0 03  or        %g2, 0x3, %g3
    0x100003dec:            89 28 f0 0c  sllx      %g3, 0xc, %g4
    0x100003df0:            8a 01 2d 18  add       %g4, 0xd18, %g5
    0x100003df4:            c3 19 60 00  ldd       [%g5], %d32
    0x100003df8:            da 5b a9 67  ldx       [%sp + 0x967], %o5
    0x100003dfc:            c3 3b 60 00  std       %d32, [%o5]
    0x100003e00:            1f 00 04 00  sethi     %hi(0x100000), %o7
    0x100003e04:            a0 13 e0 03  or        %o7, 0x3, %l0
    0x100003e08:            a3 2c 30 0c  sllx      %l0, 0xc, %l1
    0x100003e0c:            a4 04 6d 18  add       %l1, 0xd18, %l2
    0x100003e10:            c3 1c a0 00  ldd       [%l2], %d32
    0x100003e14:            e6 5b a9 67  ldx       [%sp + 0x967], %l3
    0x100003e18:            c3 3c e0 08  std       %d32, [%l3 + 0x8]
    0x100003e1c:            29 00 04 00  sethi     %hi(0x100000), %l4
    0x100003e20:            aa 15 20 03  or        %l4, 0x3, %l5
    0x100003e24:            ad 2d 70 0c  sllx      %l5, 0xc, %l6
    0x100003e28:            ae 05 ad 18  add       %l6, 0xd18, %l7
    0x100003e2c:            c3 1d e0 00  ldd       [%l7], %d32
    0x100003e30:            c4 5b a9 67  ldx       [%sp + 0x967], %g2
    0x100003e34:            c3 38 a0 10  std       %d32, [%g2 + 0x10]
    0x100003e38:            07 00 04 00  sethi     %hi(0x100000), %g3
    0x100003e3c:            88 10 e0 03  or        %g3, 0x3, %g4
    0x100003e40:            8b 29 30 0c  sllx      %g4, 0xc, %g5
    0x100003e44:            9a 01 6d 18  add       %g5, 0xd18, %o5
    0x100003e48:            c3 1b 60 00  ldd       [%o5], %d32
    0x100003e4c:            de 5b a9 67  ldx       [%sp + 0x967], %o7
    0x100003e50:            c3 3b e0 18  std       %d32, [%o7 + 0x18]
    0x100003e54:            21 00 04 00  sethi     %hi(0x100000), %l0
    0x100003e58:            a2 14 21 0a  or        %l0, 0x10a, %l1
    0x100003e5c:            a5 2c 70 0c  sllx      %l1, 0xc, %l2
    0x100003e60:            a6 04 a1 30  add       %l2, 0x130, %l3
    0x100003e64:            e8 5c e0 00  ldx       [%l3], %l4
    0x100003e68:            aa 05 20 50  add       %l4, 0x50, %l5
    0x100003e6c:            90 10 00 15  mov       %l5, %o0
    0x100003e70:            40 04 14 74  call      +0x1051d0     <0x100109040>
    0x100003e74:            01 00 00 00  nop
    0x100003e78:            ac 10 00 08  mov       %o0, %l6
    0x100003e7c:            af 3d a0 00  sra       %l6, 0x0, %l7
    0x100003e80:            ee 73 a9 5f  stx       %l7, [%sp + 0x95f]
    0x100003e84:            c4 5b a9 5f  ldx       [%sp + 0x95f], %g2
    0x100003e88:            80 a0 a0 00  cmp       %g2, 0x0
    0x100003e8c:            12 60 00 04  bne,pn    %xcc, +0x10   <0x100003e9c>
    0x100003e90:            01 00 00 00  nop
    0x100003e94:            10 80 00 10  ba        +0x40         <0x100003ed4>
    0x100003e98:            01 00 00 00  nop
    0x100003e9c:            05 00 04 00  sethi     %hi(0x100000), %g2
    0x100003ea0:            86 10 a0 08  or        %g2, 0x8, %g3
    0x100003ea4:            89 28 f0 0c  sllx      %g3, 0xc, %g4
    0x100003ea8:            8a 01 2c 58  add       %g4, 0xc58, %g5
    0x100003eac:            9a 10 00 05  mov       %g5, %o5
    0x100003eb0:            90 10 00 0d  mov       %o5, %o0
    0x100003eb4:            40 04 14 53  call      +0x10514c     <0x100109000>
    0x100003eb8:            01 00 00 00  nop
    0x100003ebc:            9e 10 3f ff  mov       -0x1, %o7
    0x100003ec0:            90 10 00 0f  mov       %o7, %o0
    0x100003ec4:            40 04 13 f7  call      +0x104fdc     <0x100108ea0>
    0x100003ec8:            01 00 00 00  nop
    0x100003ecc:            10 80 00 02  ba        +0x8          <0x100003ed4>
    0x100003ed0:            01 00 00 00  nop
    0x100003ed4:            05 00 04 00  sethi     %hi(0x100000), %g2
    0x100003ed8:            86 10 a1 0a  or        %g2, 0x10a, %g3
    0x100003edc:            89 28 f0 0c  sllx      %g3, 0xc, %g4
    0x100003ee0:            8a 01 21 30  add       %g4, 0x130, %g5
    0x100003ee4:            da 59 60 00  ldx       [%g5], %o5
    0x100003ee8:            de 5b 60 80  ldx       [%o5 + 0x80], %o7
    0x100003eec:            de 73 a9 57  stx       %o7, [%sp + 0x957]
    0x100003ef0:            21 00 04 00  sethi     %hi(0x100000), %l0
    0x100003ef4:            a2 14 21 0a  or        %l0, 0x10a, %l1
    0x100003ef8:            a5 2c 70 0c  sllx      %l1, 0xc, %l2
    0x100003efc:            a6 04 a1 30  add       %l2, 0x130, %l3
    0x100003f00:            e8 5c e0 00  ldx       [%l3], %l4
    0x100003f04:            ea 5d 20 78  ldx       [%l4 + 0x78], %l5
    0x100003f08:            ac 05 60 01  add       %l5, 0x1, %l6
    0x100003f0c:            ec 73 a9 8f  stx       %l6, [%sp + 0x98f]
    0x100003f10:            2f 00 04 00  sethi     %hi(0x100000), %l7
    0x100003f14:            84 15 e1 0a  or        %l7, 0x10a, %g2
    0x100003f18:            87 28 b0 0c  sllx      %g2, 0xc, %g3
    0x100003f1c:            88 00 e1 30  add       %g3, 0x130, %g4
    0x100003f20:            ca 59 20 00  ldx       [%g4], %g5
    0x100003f24:            da 5b a9 8f  ldx       [%sp + 0x98f], %o5
    0x100003f28:            da 71 60 78  stx       %o5, [%g5 + 0x78]
    0x100003f2c:            1f 00 04 00  sethi     %hi(0x100000), %o7
    0x100003f30:            a0 13 e1 09  or        %o7, 0x109, %l0
    0x100003f34:            a3 2c 30 0c  sllx      %l0, 0xc, %l1
    0x100003f38:            a4 04 64 e0  add       %l1, 0x4e0, %l2
    0x100003f3c:            e6 5c a0 00  ldx       [%l2], %l3
    0x100003f40:            e8 5b a9 8f  ldx       [%sp + 0x98f], %l4
    0x100003f44:            80 a5 00 13  cmp       %l4, %l3
    0x100003f48:            12 60 00 04  bne,pn    %xcc, +0x10   <0x100003f58>
    0x100003f4c:            01 00 00 00  nop
    0x100003f50:            10 80 00 44  ba        +0x110        <0x100004060>
    0x100003f54:            01 00 00 00  nop
    0x100003f58:            84 03 a9 4f  add       %sp, 0x94f, %g2
    0x100003f5c:            92 10 00 02  mov       %g2, %o1
    0x100003f60:            86 10 20 01  mov       0x1, %g3
    0x100003f64:            90 10 00 03  mov       %g3, %o0
    0x100003f68:            40 04 14 76  call      +0x1051d8     <0x100109140>
    0x100003f6c:            01 00 00 00  nop
    0x100003f70:            09 00 04 00  sethi     %hi(0x100000), %g4
    0x100003f74:            8a 11 21 0a  or        %g4, 0x10a, %g5
    0x100003f78:            91 29 70 0c  sllx      %g5, 0xc, %o0
    0x100003f7c:            92 02 21 30  add       %o0, 0x130, %o1
    0x100003f80:            d4 5a 60 00  ldx       [%o1], %o2
    0x100003f84:            d6 5a a0 80  ldx       [%o2 + 0x80], %o3
    0x100003f88:            d8 5b a9 57  ldx       [%sp + 0x957], %o4
    0x100003f8c:            80 a3 00 0b  cmp       %o4, %o3
    0x100003f90:            02 60 00 04  be,pn     %xcc, +0x10   <0x100003fa0>
    0x100003f94:            01 00 00 00  nop
    0x100003f98:            10 80 00 29  ba        +0xa4         <0x10000403c>
    0x100003f9c:            01 00 00 00  nop
    0x100003fa0:            10 80 00 02  ba        +0x8          <0x100003fa8>
    0x100003fa4:            01 00 00 00  nop
    0x100003fa8:            05 00 04 00  sethi     %hi(0x100000), %g2
    0x100003fac:            86 10 a1 0a  or        %g2, 0x10a, %g3
    0x100003fb0:            89 28 f0 0c  sllx      %g3, 0xc, %g4
    0x100003fb4:            8a 01 21 30  add       %g4, 0x130, %g5
    0x100003fb8:            da 59 60 00  ldx       [%g5], %o5
    0x100003fbc:            9e 03 60 68  add       %o5, 0x68, %o7
    0x100003fc0:            21 00 04 00  sethi     %hi(0x100000), %l0
    0x100003fc4:            a2 14 21 0a  or        %l0, 0x10a, %l1
    0x100003fc8:            a1 2c 70 0c  sllx      %l1, 0xc, %l0
    0x100003fcc:            a2 04 21 30  add       %l0, 0x130, %l1
    0x100003fd0:            e0 5c 60 00  ldx       [%l1], %l0
    0x100003fd4:            a2 04 20 50  add       %l0, 0x50, %l1
    0x100003fd8:            90 10 00 0f  mov       %o7, %o0
    0x100003fdc:            92 10 00 11  mov       %l1, %o1
    0x100003fe0:            40 04 14 60  call      +0x105180     <0x100109160>
    0x100003fe4:            01 00 00 00  nop
    0x100003fe8:            a4 10 00 08  mov       %o0, %l2
    0x100003fec:            a7 3c a0 00  sra       %l2, 0x0, %l3
    0x100003ff0:            e6 73 a9 5f  stx       %l3, [%sp + 0x95f]
    0x100003ff4:            e8 5b a9 5f  ldx       [%sp + 0x95f], %l4
    0x100003ff8:            80 a5 20 00  cmp       %l4, 0x0
    0x100003ffc:            12 60 00 10  bne,pn    %xcc, +0x40   <0x10000403c>
    0x100004000:            01 00 00 00  nop
    0x100004004:            10 80 00 02  ba        +0x8          <0x10000400c>
    0x100004008:            01 00 00 00  nop
    0x10000400c:            05 00 04 00  sethi     %hi(0x100000), %g2
    0x100004010:            86 10 a1 0a  or        %g2, 0x10a, %g3
    0x100004014:            89 28 f0 0c  sllx      %g3, 0xc, %g4
    0x100004018:            8a 01 21 30  add       %g4, 0x130, %g5
    0x10000401c:            da 59 60 00  ldx       [%g5], %o5
    0x100004020:            de 5b 60 80  ldx       [%o5 + 0x80], %o7
    0x100004024:            e0 5b a9 57  ldx       [%sp + 0x957], %l0
    0x100004028:            80 a4 00 0f  cmp       %l0, %o7
    0x10000402c:            02 67 ff df  be,pn     %xcc, -0x84   <0x100003fa8>
    0x100004030:            01 00 00 00  nop
    0x100004034:            10 80 00 02  ba        +0x8          <0x10000403c>
    0x100004038:            01 00 00 00  nop
    0x10000403c:            c4 03 a9 53  ld        [%sp + 0x953], %g2
    0x100004040:            87 38 a0 00  sra       %g2, 0x0, %g3
    0x100004044:            88 03 a9 47  add       %sp, 0x947, %g4
    0x100004048:            90 10 00 03  mov       %g3, %o0
    0x10000404c:            92 10 00 04  mov       %g4, %o1
    0x100004050:            40 04 14 3c  call      +0x1050f0     <0x100109140>
    0x100004054:            01 00 00 00  nop
    0x100004058:            10 80 00 30  ba        +0xc0         <0x100004118>
    0x10000405c:            01 00 00 00  nop
    0x100004060:            05 00 04 00  sethi     %hi(0x100000), %g2
    0x100004064:            86 10 a1 0a  or        %g2, 0x10a, %g3
    0x100004068:            89 28 f0 0c  sllx      %g3, 0xc, %g4
    0x10000406c:            8a 01 21 30  add       %g4, 0x130, %g5
    0x100004070:            da 59 60 00  ldx       [%g5], %o5
    0x100004074:            de 5b 60 80  ldx       [%o5 + 0x80], %o7
    0x100004078:            80 a3 e0 00  cmp       %o7, 0x0
    0x10000407c:            12 60 00 08  bne,pn    %xcc, +0x20   <0x10000409c>
    0x100004080:            01 00 00 00  nop
    0x100004084:            10 80 00 02  ba        +0x8          <0x10000408c>
    0x100004088:            01 00 00 00  nop
    0x10000408c:            84 10 20 01  mov       0x1, %g2
    0x100004090:            c4 23 a9 3f  st        %g2, [%sp + 0x93f]
    0x100004094:            10 80 00 05  ba        +0x14         <0x1000040a8>
    0x100004098:            01 00 00 00  nop
    0x10000409c:            c0 23 a9 3f  clr       [%sp + 0x93f]
    0x1000040a0:            10 80 00 02  ba        +0x8          <0x1000040a8>
    0x1000040a4:            01 00 00 00  nop
    0x1000040a8:            c4 03 a9 3f  ld        [%sp + 0x93f], %g2
    0x1000040ac:            87 38 a0 00  sra       %g2, 0x0, %g3
    0x1000040b0:            09 00 04 00  sethi     %hi(0x100000), %g4
    0x1000040b4:            8a 11 21 0a  or        %g4, 0x10a, %g5
    0x1000040b8:            89 29 70 0c  sllx      %g5, 0xc, %g4
    0x1000040bc:            8a 01 21 30  add       %g4, 0x130, %g5
    0x1000040c0:            c8 59 60 00  ldx       [%g5], %g4
    0x1000040c4:            c6 71 20 80  stx       %g3, [%g4 + 0x80]
    0x1000040c8:            0b 00 04 00  sethi     %hi(0x100000), %g5
    0x1000040cc:            9a 11 61 0a  or        %g5, 0x10a, %o5
    0x1000040d0:            9f 2b 70 0c  sllx      %o5, 0xc, %o7
    0x1000040d4:            a0 03 e1 30  add       %o7, 0x130, %l0
    0x1000040d8:            e2 5c 20 00  ldx       [%l0], %l1
    0x1000040dc:            c0 74 60 78  clrx      [%l1 + 0x78]
    0x1000040e0:            25 00 04 00  sethi     %hi(0x100000), %l2
    0x1000040e4:            a6 14 a1 0a  or        %l2, 0x10a, %l3
    0x1000040e8:            a9 2c f0 0c  sllx      %l3, 0xc, %l4
    0x1000040ec:            aa 05 21 30  add       %l4, 0x130, %l5
    0x1000040f0:            ec 5d 60 00  ldx       [%l5], %l6
    0x1000040f4:            ae 05 a0 68  add       %l6, 0x68, %l7
    0x1000040f8:            90 10 00 17  mov       %l7, %o0
    0x1000040fc:            40 04 14 21  call      +0x105084     <0x100109180>
    0x100004100:            01 00 00 00  nop
    0x100004104:            84 10 00 08  mov       %o0, %g2
    0x100004108:            87 38 a0 00  sra       %g2, 0x0, %g3
    0x10000410c:            c6 73 a9 5f  stx       %g3, [%sp + 0x95f]
    0x100004110:            10 80 00 02  ba        +0x8          <0x100004118>
    0x100004114:            01 00 00 00  nop
    0x100004118:            05 00 04 00  sethi     %hi(0x100000), %g2
    0x10000411c:            86 10 a1 0a  or        %g2, 0x10a, %g3
    0x100004120:            89 28 f0 0c  sllx      %g3, 0xc, %g4
    0x100004124:            8a 01 21 30  add       %g4, 0x130, %g5
    0x100004128:            da 59 60 00  ldx       [%g5], %o5
    0x10000412c:            9e 03 60 50  add       %o5, 0x50, %o7
    0x100004130:            90 10 00 0f  mov       %o7, %o0
    0x100004134:            40 04 13 cb  call      +0x104f2c     <0x100109060>
    0x100004138:            01 00 00 00  nop
    0x10000413c:            e0 5b a9 7f  ldx       [%sp + 0x97f], %l0
    0x100004140:            e2 5b a9 77  ldx       [%sp + 0x977], %l1
    0x100004144:            90 10 00 10  mov       %l0, %o0
    0x100004148:            92 10 00 11  mov       %l1, %o1
    0x10000414c:            40 00 0c e1  call      +0x3384       <0x1000074d0>
    0x100004150:            01 00 00 00  nop
    0x100004154:            25 00 04 00  sethi     %hi(0x100000), %l2
    0x100004158:            a6 14 a1 0a  or        %l2, 0x10a, %l3
    0x10000415c:            a9 2c f0 0c  sllx      %l3, 0xc, %l4
    0x100004160:            aa 05 21 30  add       %l4, 0x130, %l5
    0x100004164:            ec 5d 60 00  ldx       [%l5], %l6
    0x100004168:            ae 05 a0 50  add       %l6, 0x50, %l7
    0x10000416c:            90 10 00 17  mov       %l7, %o0
    0x100004170:            40 04 13 b4  call      +0x104ed0     <0x100109040>
    0x100004174:            01 00 00 00  nop
    0x100004178:            84 10 00 08  mov       %o0, %g2
    0x10000417c:            87 38 a0 00  sra       %g2, 0x0, %g3
    0x100004180:            c6 73 a9 37  stx       %g3, [%sp + 0x937]
    0x100004184:            c8 5b a9 37  ldx       [%sp + 0x937], %g4
    0x100004188:            80 a1 20 00  cmp       %g4, 0x0
    0x10000418c:            12 60 00 04  bne,pn    %xcc, +0x10   <0x10000419c>
    0x100004190:            01 00 00 00  nop
    0x100004194:            10 80 00 10  ba        +0x40         <0x1000041d4>
    0x100004198:            01 00 00 00  nop
    0x10000419c:            05 00 04 00  sethi     %hi(0x100000), %g2
    0x1000041a0:            86 10 a0 08  or        %g2, 0x8, %g3
    0x1000041a4:            89 28 f0 0c  sllx      %g3, 0xc, %g4
    0x1000041a8:            8a 01 2c 88  add       %g4, 0xc88, %g5
    0x1000041ac:            9a 10 00 05  mov       %g5, %o5
    0x1000041b0:            90 10 00 0d  mov       %o5, %o0
    0x1000041b4:            40 04 13 93  call      +0x104e4c     <0x100109000>
    0x1000041b8:            01 00 00 00  nop
    0x1000041bc:            9e 10 3f ff  mov       -0x1, %o7
    0x1000041c0:            90 10 00 0f  mov       %o7, %o0
    0x1000041c4:            40 04 13 37  call      +0x104cdc     <0x100108ea0>
    0x1000041c8:            01 00 00 00  nop
    0x1000041cc:            10 80 00 02  ba        +0x8          <0x1000041d4>
    0x1000041d0:            01 00 00 00  nop
    0x1000041d4:            05 00 04 00  sethi     %hi(0x100000), %g2
    0x1000041d8:            86 10 a1 0a  or        %g2, 0x10a, %g3
    0x1000041dc:            89 28 f0 0c  sllx      %g3, 0xc, %g4
    0x1000041e0:            8a 01 21 30  add       %g4, 0x130, %g5
    0x1000041e4:            da 59 60 00  ldx       [%g5], %o5
    0x1000041e8:            de 5b 60 80  ldx       [%o5 + 0x80], %o7
    0x1000041ec:            de 73 a9 2f  stx       %o7, [%sp + 0x92f]
    0x1000041f0:            21 00 04 00  sethi     %hi(0x100000), %l0
    0x1000041f4:            a2 14 21 0a  or        %l0, 0x10a, %l1
    0x1000041f8:            a5 2c 70 0c  sllx      %l1, 0xc, %l2
    0x1000041fc:            a6 04 a1 30  add       %l2, 0x130, %l3
    0x100004200:            e8 5c e0 00  ldx       [%l3], %l4
    0x100004204:            ea 5d 20 78  ldx       [%l4 + 0x78], %l5
    0x100004208:            ac 05 60 01  add       %l5, 0x1, %l6
    0x10000420c:            ec 73 a9 8f  stx       %l6, [%sp + 0x98f]
    0x100004210:            2f 00 04 00  sethi     %hi(0x100000), %l7
    0x100004214:            84 15 e1 0a  or        %l7, 0x10a, %g2
    0x100004218:            87 28 b0 0c  sllx      %g2, 0xc, %g3
    0x10000421c:            88 00 e1 30  add       %g3, 0x130, %g4
    0x100004220:            ca 59 20 00  ldx       [%g4], %g5
    0x100004224:            da 5b a9 8f  ldx       [%sp + 0x98f], %o5
    0x100004228:            da 71 60 78  stx       %o5, [%g5 + 0x78]
    0x10000422c:            1f 00 04 00  sethi     %hi(0x100000), %o7
    0x100004230:            a0 13 e1 09  or        %o7, 0x109, %l0
    0x100004234:            a3 2c 30 0c  sllx      %l0, 0xc, %l1
    0x100004238:            a4 04 64 e0  add       %l1, 0x4e0, %l2
    0x10000423c:            e6 5c a0 00  ldx       [%l2], %l3
    0x100004240:            e8 5b a9 8f  ldx       [%sp + 0x98f], %l4
    0x100004244:            80 a5 00 13  cmp       %l4, %l3
    0x100004248:            12 60 00 04  bne,pn    %xcc, +0x10   <0x100004258>
    0x10000424c:            01 00 00 00  nop
    0x100004250:            10 80 00 44  ba        +0x110        <0x100004360>
    0x100004254:            01 00 00 00  nop
    0x100004258:            84 03 a9 27  add       %sp, 0x927, %g2
    0x10000425c:            92 10 00 02  mov       %g2, %o1
    0x100004260:            86 10 20 01  mov       0x1, %g3
    0x100004264:            90 10 00 03  mov       %g3, %o0
    0x100004268:            40 04 13 b6  call      +0x104ed8     <0x100109140>
    0x10000426c:            01 00 00 00  nop
    0x100004270:            09 00 04 00  sethi     %hi(0x100000), %g4
    0x100004274:            8a 11 21 0a  or        %g4, 0x10a, %g5
    0x100004278:            91 29 70 0c  sllx      %g5, 0xc, %o0
    0x10000427c:            92 02 21 30  add       %o0, 0x130, %o1
    0x100004280:            d4 5a 60 00  ldx       [%o1], %o2
    0x100004284:            d6 5a a0 80  ldx       [%o2 + 0x80], %o3
    0x100004288:            d8 5b a9 2f  ldx       [%sp + 0x92f], %o4
    0x10000428c:            80 a3 00 0b  cmp       %o4, %o3
    0x100004290:            02 60 00 04  be,pn     %xcc, +0x10   <0x1000042a0>
    0x100004294:            01 00 00 00  nop
    0x100004298:            10 80 00 29  ba        +0xa4         <0x10000433c>
    0x10000429c:            01 00 00 00  nop
    0x1000042a0:            10 80 00 02  ba        +0x8          <0x1000042a8>
    0x1000042a4:            01 00 00 00  nop
    0x1000042a8:            05 00 04 00  sethi     %hi(0x100000), %g2
    0x1000042ac:            86 10 a1 0a  or        %g2, 0x10a, %g3
    0x1000042b0:            89 28 f0 0c  sllx      %g3, 0xc, %g4
    0x1000042b4:            8a 01 21 30  add       %g4, 0x130, %g5
    0x1000042b8:            da 59 60 00  ldx       [%g5], %o5
    0x1000042bc:            9e 03 60 68  add       %o5, 0x68, %o7
    0x1000042c0:            21 00 04 00  sethi     %hi(0x100000), %l0
    0x1000042c4:            a2 14 21 0a  or        %l0, 0x10a, %l1
    0x1000042c8:            a1 2c 70 0c  sllx      %l1, 0xc, %l0
    0x1000042cc:            a2 04 21 30  add       %l0, 0x130, %l1
    0x1000042d0:            e0 5c 60 00  ldx       [%l1], %l0
    0x1000042d4:            a2 04 20 50  add       %l0, 0x50, %l1
    0x1000042d8:            90 10 00 0f  mov       %o7, %o0
    0x1000042dc:            92 10 00 11  mov       %l1, %o1
    0x1000042e0:            40 04 13 a0  call      +0x104e80     <0x100109160>
    0x1000042e4:            01 00 00 00  nop
    0x1000042e8:            a4 10 00 08  mov       %o0, %l2
    0x1000042ec:            a7 3c a0 00  sra       %l2, 0x0, %l3
    0x1000042f0:            e6 73 a9 37  stx       %l3, [%sp + 0x937]
    0x1000042f4:            e8 5b a9 37  ldx       [%sp + 0x937], %l4
    0x1000042f8:            80 a5 20 00  cmp       %l4, 0x0
    0x1000042fc:            12 60 00 10  bne,pn    %xcc, +0x40   <0x10000433c>
    0x100004300:            01 00 00 00  nop
    0x100004304:            10 80 00 02  ba        +0x8          <0x10000430c>
    0x100004308:            01 00 00 00  nop
    0x10000430c:            05 00 04 00  sethi     %hi(0x100000), %g2
    0x100004310:            86 10 a1 0a  or        %g2, 0x10a, %g3
    0x100004314:            89 28 f0 0c  sllx      %g3, 0xc, %g4
    0x100004318:            8a 01 21 30  add       %g4, 0x130, %g5
    0x10000431c:            da 59 60 00  ldx       [%g5], %o5
    0x100004320:            de 5b 60 80  ldx       [%o5 + 0x80], %o7
    0x100004324:            e0 5b a9 2f  ldx       [%sp + 0x92f], %l0
    0x100004328:            80 a4 00 0f  cmp       %l0, %o7
    0x10000432c:            02 67 ff df  be,pn     %xcc, -0x84   <0x1000042a8>
    0x100004330:            01 00 00 00  nop
    0x100004334:            10 80 00 02  ba        +0x8          <0x10000433c>
    0x100004338:            01 00 00 00  nop
    0x10000433c:            c4 03 a9 2b  ld        [%sp + 0x92b], %g2
    0x100004340:            87 38 a0 00  sra       %g2, 0x0, %g3
    0x100004344:            88 03 a9 1f  add       %sp, 0x91f, %g4
    0x100004348:            90 10 00 03  mov       %g3, %o0
    0x10000434c:            92 10 00 04  mov       %g4, %o1
    0x100004350:            40 04 13 7c  call      +0x104df0     <0x100109140>
    0x100004354:            01 00 00 00  nop
    0x100004358:            10 80 00 30  ba        +0xc0         <0x100004418>
    0x10000435c:            01 00 00 00  nop
    0x100004360:            05 00 04 00  sethi     %hi(0x100000), %g2
    0x100004364:            86 10 a1 0a  or        %g2, 0x10a, %g3
    0x100004368:            89 28 f0 0c  sllx      %g3, 0xc, %g4
    0x10000436c:            8a 01 21 30  add       %g4, 0x130, %g5
    0x100004370:            da 59 60 00  ldx       [%g5], %o5
    0x100004374:            de 5b 60 80  ldx       [%o5 + 0x80], %o7
    0x100004378:            80 a3 e0 00  cmp       %o7, 0x0
    0x10000437c:            12 60 00 08  bne,pn    %xcc, +0x20   <0x10000439c>
    0x100004380:            01 00 00 00  nop
    0x100004384:            10 80 00 02  ba        +0x8          <0x10000438c>
    0x100004388:            01 00 00 00  nop
    0x10000438c:            84 10 20 01  mov       0x1, %g2
    0x100004390:            c4 23 a9 17  st        %g2, [%sp + 0x917]
    0x100004394:            10 80 00 05  ba        +0x14         <0x1000043a8>
    0x100004398:            01 00 00 00  nop
    0x10000439c:            c0 23 a9 17  clr       [%sp + 0x917]
    0x1000043a0:            10 80 00 02  ba        +0x8          <0x1000043a8>
    0x1000043a4:            01 00 00 00  nop
    0x1000043a8:            c4 03 a9 17  ld        [%sp + 0x917], %g2
    0x1000043ac:            87 38 a0 00  sra       %g2, 0x0, %g3
    0x1000043b0:            09 00 04 00  sethi     %hi(0x100000), %g4
    0x1000043b4:            8a 11 21 0a  or        %g4, 0x10a, %g5
    0x1000043b8:            89 29 70 0c  sllx      %g5, 0xc, %g4
    0x1000043bc:            8a 01 21 30  add       %g4, 0x130, %g5
    0x1000043c0:            c8 59 60 00  ldx       [%g5], %g4
    0x1000043c4:            c6 71 20 80  stx       %g3, [%g4 + 0x80]
    0x1000043c8:            0b 00 04 00  sethi     %hi(0x100000), %g5
    0x1000043cc:            9a 11 61 0a  or        %g5, 0x10a, %o5
    0x1000043d0:            9f 2b 70 0c  sllx      %o5, 0xc, %o7
    0x1000043d4:            a0 03 e1 30  add       %o7, 0x130, %l0
    0x1000043d8:            e2 5c 20 00  ldx       [%l0], %l1
    0x1000043dc:            c0 74 60 78  clrx      [%l1 + 0x78]
    0x1000043e0:            25 00 04 00  sethi     %hi(0x100000), %l2
    0x1000043e4:            a6 14 a1 0a  or        %l2, 0x10a, %l3
    0x1000043e8:            a9 2c f0 0c  sllx      %l3, 0xc, %l4
    0x1000043ec:            aa 05 21 30  add       %l4, 0x130, %l5
    0x1000043f0:            ec 5d 60 00  ldx       [%l5], %l6
    0x1000043f4:            ae 05 a0 68  add       %l6, 0x68, %l7
    0x1000043f8:            90 10 00 17  mov       %l7, %o0
    0x1000043fc:            40 04 13 61  call      +0x104d84     <0x100109180>
    0x100004400:            01 00 00 00  nop
    0x100004404:            84 10 00 08  mov       %o0, %g2
    0x100004408:            87 38 a0 00  sra       %g2, 0x0, %g3
    0x10000440c:            c6 73 a9 37  stx       %g3, [%sp + 0x937]
    0x100004410:            10 80 00 02  ba        +0x8          <0x100004418>
    0x100004414:            01 00 00 00  nop
    0x100004418:            05 00 04 00  sethi     %hi(0x100000), %g2
    0x10000441c:            86 10 a1 0a  or        %g2, 0x10a, %g3
    0x100004420:            89 28 f0 0c  sllx      %g3, 0xc, %g4
    0x100004424:            8a 01 21 30  add       %g4, 0x130, %g5
    0x100004428:            da 59 60 00  ldx       [%g5], %o5
    0x10000442c:            9e 03 60 50  add       %o5, 0x50, %o7
    0x100004430:            90 10 00 0f  mov       %o7, %o0
    0x100004434:            40 04 13 0b  call      +0x104c2c     <0x100109060>
    0x100004438:            01 00 00 00  nop
    0x10000443c:            e0 5b a9 77  ldx       [%sp + 0x977], %l0
    0x100004440:            80 a4 20 00  cmp       %l0, 0x0
    0x100004444:            02 60 00 0a  be,pn     %xcc, +0x28   <0x10000446c>
    0x100004448:            01 00 00 00  nop
    0x10000444c:            10 80 00 02  ba        +0x8          <0x100004454>
    0x100004450:            01 00 00 00  nop
    0x100004454:            c4 5b a9 6f  ldx       [%sp + 0x96f], %g2
    0x100004458:            80 a0 a0 00  cmp       %g2, 0x0
    0x10000445c:            12 60 00 04  bne,pn    %xcc, +0x10   <0x10000446c>
    0x100004460:            01 00 00 00  nop
    0x100004464:            10 80 00 14  ba        +0x50         <0x1000044b4>
    0x100004468:            01 00 00 00  nop
    0x10000446c:            84 03 a9 07  add       %sp, 0x907, %g2
    0x100004470:            90 10 00 02  mov       %g2, %o0
    0x100004474:            92 10 00 00  clr       %o1
    0x100004478:            40 04 12 9a  call      +0x104a68     <0x100108ee0>
    0x10000447c:            01 00 00 00  nop
    0x100004480:            c6 5b a9 07  ldx       [%sp + 0x907], %g3
    0x100004484:            89 28 f0 05  sllx      %g3, 0x5, %g4
    0x100004488:            8a 20 c0 04  sub       %g3, %g4, %g5
    0x10000448c:            89 29 70 09  sllx      %g5, 0x9, %g4
    0x100004490:            8a 21 00 03  sub       %g4, %g3, %g5
    0x100004494:            89 29 70 06  sllx      %g5, 0x6, %g4
    0x100004498:            90 21 00 05  sub       %g4, %g5, %o0
    0x10000449c:            92 20 c0 08  sub       %g3, %o0, %o1
    0x1000044a0:            d4 5b a9 0f  ldx       [%sp + 0x90f], %o2
    0x1000044a4:            96 02 80 09  add       %o2, %o1, %o3
    0x1000044a8:            d6 73 a8 ff  stx       %o3, [%sp + 0x8ff]
    0x1000044ac:            10 80 00 02  ba        +0x8          <0x1000044b4>
    0x1000044b0:            01 00 00 00  nop
    0x1000044b4:            01 00 00 01  sethi     %hi(0x400), %g0
    0x1000044b8:            c4 5b a9 87  ldx       [%sp + 0x987], %g2
    0x1000044bc:            c6 5b a9 7f  ldx       [%sp + 0x97f], %g3
    0x1000044c0:            c8 5b a9 77  ldx       [%sp + 0x977], %g4
    0x1000044c4:            ca 5b a9 67  ldx       [%sp + 0x967], %g5
    0x1000044c8:            da 5b a9 6f  ldx       [%sp + 0x96f], %o5
    0x1000044cc:            90 10 00 02  mov       %g2, %o0
    0x1000044d0:            92 10 00 03  mov       %g3, %o1
    0x1000044d4:            94 10 00 04  mov       %g4, %o2
    0x1000044d8:            96 10 00 05  mov       %g5, %o3
    0x1000044dc:            98 10 00 0d  mov       %o5, %o4
    0x1000044e0:            40 00 04 e0  call      +0x1380       <0x100005860>
    0x1000044e4:            01 00 00 00  nop
    0x1000044e8:            01 00 00 02  sethi     %hi(0x800), %g0
    0x1000044ec:            c4 5b a9 77  ldx       [%sp + 0x977], %g2
    0x1000044f0:            80 a0 a0 00  cmp       %g2, 0x0
    0x1000044f4:            02 60 00 0a  be,pn     %xcc, +0x28   <0x10000451c>
    0x1000044f8:            01 00 00 00  nop
    0x1000044fc:            10 80 00 02  ba        +0x8          <0x100004504>
    0x100004500:            01 00 00 00  nop
    0x100004504:            c4 5b a9 6f  ldx       [%sp + 0x96f], %g2
    0x100004508:            80 a0 a0 00  cmp       %g2, 0x0
    0x10000450c:            12 60 00 04  bne,pn    %xcc, +0x10   <0x10000451c>
    0x100004510:            01 00 00 00  nop
    0x100004514:            10 80 00 14  ba        +0x50         <0x100004564>
    0x100004518:            01 00 00 00  nop
    0x10000451c:            84 03 a8 ef  add       %sp, 0x8ef, %g2
    0x100004520:            90 10 00 02  mov       %g2, %o0
    0x100004524:            92 10 00 00  clr       %o1
    0x100004528:            40 04 12 6e  call      +0x1049b8     <0x100108ee0>
    0x10000452c:            01 00 00 00  nop
    0x100004530:            c6 5b a8 ef  ldx       [%sp + 0x8ef], %g3
    0x100004534:            89 28 f0 05  sllx      %g3, 0x5, %g4
    0x100004538:            8a 20 c0 04  sub       %g3, %g4, %g5
    0x10000453c:            89 29 70 09  sllx      %g5, 0x9, %g4
    0x100004540:            8a 21 00 03  sub       %g4, %g3, %g5
    0x100004544:            89 29 70 06  sllx      %g5, 0x6, %g4
    0x100004548:            90 21 00 05  sub       %g4, %g5, %o0
    0x10000454c:            92 20 c0 08  sub       %g3, %o0, %o1
    0x100004550:            d4 5b a8 f7  ldx       [%sp + 0x8f7], %o2
    0x100004554:            96 02 80 09  add       %o2, %o1, %o3
    0x100004558:            d6 73 a8 e7  stx       %o3, [%sp + 0x8e7]
    0x10000455c:            10 80 00 02  ba        +0x8          <0x100004564>
    0x100004560:            01 00 00 00  nop
    0x100004564:            05 00 04 00  sethi     %hi(0x100000), %g2
    0x100004568:            86 10 a1 0a  or        %g2, 0x10a, %g3
    0x10000456c:            89 28 f0 0c  sllx      %g3, 0xc, %g4
    0x100004570:            8a 01 21 30  add       %g4, 0x130, %g5
    0x100004574:            da 59 60 00  ldx       [%g5], %o5
    0x100004578:            9e 03 60 50  add       %o5, 0x50, %o7
    0x10000457c:            90 10 00 0f  mov       %o7, %o0
    0x100004580:            40 04 12 b0  call      +0x104ac0     <0x100109040>
    0x100004584:            01 00 00 00  nop
    0x100004588:            a0 10 00 08  mov       %o0, %l0
    0x10000458c:            a3 3c 20 00  sra       %l0, 0x0, %l1
    0x100004590:            e2 73 a8 df  stx       %l1, [%sp + 0x8df]
    0x100004594:            e4 5b a8 df  ldx       [%sp + 0x8df], %l2
    0x100004598:            80 a4 a0 00  cmp       %l2, 0x0
    0x10000459c:            12 60 00 04  bne,pn    %xcc, +0x10   <0x1000045ac>
    0x1000045a0:            01 00 00 00  nop
    0x1000045a4:            10 80 00 10  ba        +0x40         <0x1000045e4>
    0x1000045a8:            01 00 00 00  nop
    0x1000045ac:            05 00 04 00  sethi     %hi(0x100000), %g2
    0x1000045b0:            86 10 a0 08  or        %g2, 0x8, %g3
    0x1000045b4:            89 28 f0 0c  sllx      %g3, 0xc, %g4
    0x1000045b8:            8a 01 2c b8  add       %g4, 0xcb8, %g5
    0x1000045bc:            9a 10 00 05  mov       %g5, %o5
    0x1000045c0:            90 10 00 0d  mov       %o5, %o0
    0x1000045c4:            40 04 12 8f  call      +0x104a3c     <0x100109000>
    0x1000045c8:            01 00 00 00  nop
    0x1000045cc:            9e 10 3f ff  mov       -0x1, %o7
    0x1000045d0:            90 10 00 0f  mov       %o7, %o0
    0x1000045d4:            40 04 12 33  call      +0x1048cc     <0x100108ea0>
    0x1000045d8:            01 00 00 00  nop
    0x1000045dc:            10 80 00 02  ba        +0x8          <0x1000045e4>
    0x1000045e0:            01 00 00 00  nop
    0x1000045e4:            05 00 04 00  sethi     %hi(0x100000), %g2
    0x1000045e8:            86 10 a1 0a  or        %g2, 0x10a, %g3
    0x1000045ec:            89 28 f0 0c  sllx      %g3, 0xc, %g4
    0x1000045f0:            8a 01 21 30  add       %g4, 0x130, %g5
    0x1000045f4:            da 59 60 00  ldx       [%g5], %o5
    0x1000045f8:            de 5b 60 80  ldx       [%o5 + 0x80], %o7
    0x1000045fc:            de 73 a8 d7  stx       %o7, [%sp + 0x8d7]
    0x100004600:            21 00 04 00  sethi     %hi(0x100000), %l0
    0x100004604:            a2 14 21 0a  or        %l0, 0x10a, %l1
    0x100004608:            a5 2c 70 0c  sllx      %l1, 0xc, %l2
    0x10000460c:            a6 04 a1 30  add       %l2, 0x130, %l3
    0x100004610:            e8 5c e0 00  ldx       [%l3], %l4
    0x100004614:            ea 5d 20 78  ldx       [%l4 + 0x78], %l5
    0x100004618:            ac 05 60 01  add       %l5, 0x1, %l6
    0x10000461c:            ec 73 a9 8f  stx       %l6, [%sp + 0x98f]
    0x100004620:            2f 00 04 00  sethi     %hi(0x100000), %l7
    0x100004624:            84 15 e1 0a  or        %l7, 0x10a, %g2
    0x100004628:            87 28 b0 0c  sllx      %g2, 0xc, %g3
    0x10000462c:            88 00 e1 30  add       %g3, 0x130, %g4
    0x100004630:            ca 59 20 00  ldx       [%g4], %g5
    0x100004634:            da 5b a9 8f  ldx       [%sp + 0x98f], %o5
    0x100004638:            da 71 60 78  stx       %o5, [%g5 + 0x78]
    0x10000463c:            1f 00 04 00  sethi     %hi(0x100000), %o7
    0x100004640:            a0 13 e1 09  or        %o7, 0x109, %l0
    0x100004644:            a3 2c 30 0c  sllx      %l0, 0xc, %l1
    0x100004648:            a4 04 64 e0  add       %l1, 0x4e0, %l2
    0x10000464c:            e6 5c a0 00  ldx       [%l2], %l3
    0x100004650:            e8 5b a9 8f  ldx       [%sp + 0x98f], %l4
    0x100004654:            80 a5 00 13  cmp       %l4, %l3
    0x100004658:            12 60 00 04  bne,pn    %xcc, +0x10   <0x100004668>
    0x10000465c:            01 00 00 00  nop
    0x100004660:            10 80 00 44  ba        +0x110        <0x100004770>
    0x100004664:            01 00 00 00  nop
    0x100004668:            84 03 a8 cf  add       %sp, 0x8cf, %g2
    0x10000466c:            92 10 00 02  mov       %g2, %o1
    0x100004670:            86 10 20 01  mov       0x1, %g3
    0x100004674:            90 10 00 03  mov       %g3, %o0
    0x100004678:            40 04 12 b2  call      +0x104ac8     <0x100109140>
    0x10000467c:            01 00 00 00  nop
    0x100004680:            09 00 04 00  sethi     %hi(0x100000), %g4
    0x100004684:            8a 11 21 0a  or        %g4, 0x10a, %g5
    0x100004688:            91 29 70 0c  sllx      %g5, 0xc, %o0
    0x10000468c:            92 02 21 30  add       %o0, 0x130, %o1
    0x100004690:            d4 5a 60 00  ldx       [%o1], %o2
    0x100004694:            d6 5a a0 80  ldx       [%o2 + 0x80], %o3
    0x100004698:            d8 5b a8 d7  ldx       [%sp + 0x8d7], %o4
    0x10000469c:            80 a3 00 0b  cmp       %o4, %o3
    0x1000046a0:            02 60 00 04  be,pn     %xcc, +0x10   <0x1000046b0>
    0x1000046a4:            01 00 00 00  nop
    0x1000046a8:            10 80 00 29  ba        +0xa4         <0x10000474c>
    0x1000046ac:            01 00 00 00  nop
    0x1000046b0:            10 80 00 02  ba        +0x8          <0x1000046b8>
    0x1000046b4:            01 00 00 00  nop
    0x1000046b8:            05 00 04 00  sethi     %hi(0x100000), %g2
    0x1000046bc:            86 10 a1 0a  or        %g2, 0x10a, %g3
    0x1000046c0:            89 28 f0 0c  sllx      %g3, 0xc, %g4
    0x1000046c4:            8a 01 21 30  add       %g4, 0x130, %g5
    0x1000046c8:            da 59 60 00  ldx       [%g5], %o5
    0x1000046cc:            9e 03 60 68  add       %o5, 0x68, %o7
    0x1000046d0:            21 00 04 00  sethi     %hi(0x100000), %l0
    0x1000046d4:            a2 14 21 0a  or        %l0, 0x10a, %l1
    0x1000046d8:            a1 2c 70 0c  sllx      %l1, 0xc, %l0
    0x1000046dc:            a2 04 21 30  add       %l0, 0x130, %l1
    0x1000046e0:            e0 5c 60 00  ldx       [%l1], %l0
    0x1000046e4:            a2 04 20 50  add       %l0, 0x50, %l1
    0x1000046e8:            90 10 00 0f  mov       %o7, %o0
    0x1000046ec:            92 10 00 11  mov       %l1, %o1
    0x1000046f0:            40 04 12 9c  call      +0x104a70     <0x100109160>
    0x1000046f4:            01 00 00 00  nop
    0x1000046f8:            a4 10 00 08  mov       %o0, %l2
    0x1000046fc:            a7 3c a0 00  sra       %l2, 0x0, %l3
    0x100004700:            e6 73 a8 df  stx       %l3, [%sp + 0x8df]
    0x100004704:            e8 5b a8 df  ldx       [%sp + 0x8df], %l4
    0x100004708:            80 a5 20 00  cmp       %l4, 0x0
    0x10000470c:            12 60 00 10  bne,pn    %xcc, +0x40   <0x10000474c>
    0x100004710:            01 00 00 00  nop
    0x100004714:            10 80 00 02  ba        +0x8          <0x10000471c>
    0x100004718:            01 00 00 00  nop
    0x10000471c:            05 00 04 00  sethi     %hi(0x100000), %g2
    0x100004720:            86 10 a1 0a  or        %g2, 0x10a, %g3
    0x100004724:            89 28 f0 0c  sllx      %g3, 0xc, %g4
    0x100004728:            8a 01 21 30  add       %g4, 0x130, %g5
    0x10000472c:            da 59 60 00  ldx       [%g5], %o5
    0x100004730:            de 5b 60 80  ldx       [%o5 + 0x80], %o7
    0x100004734:            e0 5b a8 d7  ldx       [%sp + 0x8d7], %l0
    0x100004738:            80 a4 00 0f  cmp       %l0, %o7
    0x10000473c:            02 67 ff df  be,pn     %xcc, -0x84   <0x1000046b8>
    0x100004740:            01 00 00 00  nop
    0x100004744:            10 80 00 02  ba        +0x8          <0x10000474c>
    0x100004748:            01 00 00 00  nop
    0x10000474c:            c4 03 a8 d3  ld        [%sp + 0x8d3], %g2
    0x100004750:            87 38 a0 00  sra       %g2, 0x0, %g3
    0x100004754:            88 03 a8 c7  add       %sp, 0x8c7, %g4
    0x100004758:            90 10 00 03  mov       %g3, %o0
    0x10000475c:            92 10 00 04  mov       %g4, %o1
    0x100004760:            40 04 12 78  call      +0x1049e0     <0x100109140>
    0x100004764:            01 00 00 00  nop
    0x100004768:            10 80 00 30  ba        +0xc0         <0x100004828>
    0x10000476c:            01 00 00 00  nop
    0x100004770:            05 00 04 00  sethi     %hi(0x100000), %g2
    0x100004774:            86 10 a1 0a  or        %g2, 0x10a, %g3
    0x100004778:            89 28 f0 0c  sllx      %g3, 0xc, %g4
    0x10000477c:            8a 01 21 30  add       %g4, 0x130, %g5
    0x100004780:            da 59 60 00  ldx       [%g5], %o5
    0x100004784:            de 5b 60 80  ldx       [%o5 + 0x80], %o7
    0x100004788:            80 a3 e0 00  cmp       %o7, 0x0
    0x10000478c:            12 60 00 08  bne,pn    %xcc, +0x20   <0x1000047ac>
    0x100004790:            01 00 00 00  nop
    0x100004794:            10 80 00 02  ba        +0x8          <0x10000479c>
    0x100004798:            01 00 00 00  nop
    0x10000479c:            84 10 20 01  mov       0x1, %g2
    0x1000047a0:            c4 23 a8 bf  st        %g2, [%sp + 0x8bf]
    0x1000047a4:            10 80 00 05  ba        +0x14         <0x1000047b8>
    0x1000047a8:            01 00 00 00  nop
    0x1000047ac:            c0 23 a8 bf  clr       [%sp + 0x8bf]
    0x1000047b0:            10 80 00 02  ba        +0x8          <0x1000047b8>
    0x1000047b4:            01 00 00 00  nop
    0x1000047b8:            c4 03 a8 bf  ld        [%sp + 0x8bf], %g2
    0x1000047bc:            87 38 a0 00  sra       %g2, 0x0, %g3
    0x1000047c0:            09 00 04 00  sethi     %hi(0x100000), %g4
    0x1000047c4:            8a 11 21 0a  or        %g4, 0x10a, %g5
    0x1000047c8:            89 29 70 0c  sllx      %g5, 0xc, %g4
    0x1000047cc:            8a 01 21 30  add       %g4, 0x130, %g5
    0x1000047d0:            c8 59 60 00  ldx       [%g5], %g4
    0x1000047d4:            c6 71 20 80  stx       %g3, [%g4 + 0x80]
    0x1000047d8:            0b 00 04 00  sethi     %hi(0x100000), %g5
    0x1000047dc:            9a 11 61 0a  or        %g5, 0x10a, %o5
    0x1000047e0:            9f 2b 70 0c  sllx      %o5, 0xc, %o7
    0x1000047e4:            a0 03 e1 30  add       %o7, 0x130, %l0
    0x1000047e8:            e2 5c 20 00  ldx       [%l0], %l1
    0x1000047ec:            c0 74 60 78  clrx      [%l1 + 0x78]
    0x1000047f0:            25 00 04 00  sethi     %hi(0x100000), %l2
    0x1000047f4:            a6 14 a1 0a  or        %l2, 0x10a, %l3
    0x1000047f8:            a9 2c f0 0c  sllx      %l3, 0xc, %l4
    0x1000047fc:            aa 05 21 30  add       %l4, 0x130, %l5
    0x100004800:            ec 5d 60 00  ldx       [%l5], %l6
    0x100004804:            ae 05 a0 68  add       %l6, 0x68, %l7
    0x100004808:            90 10 00 17  mov       %l7, %o0
    0x10000480c:            40 04 12 5d  call      +0x104974     <0x100109180>
    0x100004810:            01 00 00 00  nop
    0x100004814:            84 10 00 08  mov       %o0, %g2
    0x100004818:            87 38 a0 00  sra       %g2, 0x0, %g3
    0x10000481c:            c6 73 a8 df  stx       %g3, [%sp + 0x8df]
    0x100004820:            10 80 00 02  ba        +0x8          <0x100004828>
    0x100004824:            01 00 00 00  nop
    0x100004828:            05 00 04 00  sethi     %hi(0x100000), %g2
    0x10000482c:            86 10 a1 0a  or        %g2, 0x10a, %g3
    0x100004830:            89 28 f0 0c  sllx      %g3, 0xc, %g4
    0x100004834:            8a 01 21 30  add       %g4, 0x130, %g5
    0x100004838:            da 59 60 00  ldx       [%g5], %o5
    0x10000483c:            9e 03 60 50  add       %o5, 0x50, %o7
    0x100004840:            90 10 00 0f  mov       %o7, %o0
    0x100004844:            40 04 12 07  call      +0x10481c     <0x100109060>
    0x100004848:            01 00 00 00  nop
    0x10000484c:            e0 5b a9 77  ldx       [%sp + 0x977], %l0
    0x100004850:            80 a4 20 00  cmp       %l0, 0x0
    0x100004854:            02 60 00 0a  be,pn     %xcc, +0x28   <0x10000487c>
    0x100004858:            01 00 00 00  nop
    0x10000485c:            10 80 00 02  ba        +0x8          <0x100004864>
    0x100004860:            01 00 00 00  nop
    0x100004864:            c4 5b a9 6f  ldx       [%sp + 0x96f], %g2
    0x100004868:            80 a0 a0 00  cmp       %g2, 0x0
    0x10000486c:            12 60 00 04  bne,pn    %xcc, +0x10   <0x10000487c>
    0x100004870:            01 00 00 00  nop
    0x100004874:            10 80 00 55  ba        +0x154        <0x1000049c8>
    0x100004878:            01 00 00 00  nop
    0x10000487c:            c4 5b a9 67  ldx       [%sp + 0x967], %g2
    0x100004880:            c3 18 a0 00  ldd       [%g2], %d32
    0x100004884:            07 00 04 00  sethi     %hi(0x100000), %g3
    0x100004888:            88 10 e1 0a  or        %g3, 0x10a, %g4
    0x10000488c:            8b 29 30 0c  sllx      %g4, 0xc, %g5
    0x100004890:            9a 01 61 30  add       %g5, 0x130, %o5
    0x100004894:            de 5b 60 00  ldx       [%o5], %o7
    0x100004898:            e0 5b e0 00  ldx       [%o7], %l0
    0x10000489c:            e2 5b a9 77  ldx       [%sp + 0x977], %l1
    0x1000048a0:            a5 2c 70 03  sllx      %l1, 0x3, %l2
    0x1000048a4:            c3 3c 00 12  std       %d32, [%l0 + %l2]
    0x1000048a8:            e6 5b a9 67  ldx       [%sp + 0x967], %l3
    0x1000048ac:            c3 1c e0 08  ldd       [%l3 + 0x8], %d32
    0x1000048b0:            29 00 04 00  sethi     %hi(0x100000), %l4
    0x1000048b4:            aa 15 21 0a  or        %l4, 0x10a, %l5
    0x1000048b8:            ad 2d 70 0c  sllx      %l5, 0xc, %l6
    0x1000048bc:            ae 05 a1 30  add       %l6, 0x130, %l7
    0x1000048c0:            c4 5d e0 00  ldx       [%l7], %g2
    0x1000048c4:            c6 58 a0 08  ldx       [%g2 + 0x8], %g3
    0x1000048c8:            c8 5b a9 77  ldx       [%sp + 0x977], %g4
    0x1000048cc:            8b 29 30 03  sllx      %g4, 0x3, %g5
    0x1000048d0:            c3 38 c0 05  std       %d32, [%g3 + %g5]
    0x1000048d4:            da 5b a9 67  ldx       [%sp + 0x967], %o5
    0x1000048d8:            c3 1b 60 10  ldd       [%o5 + 0x10], %d32
    0x1000048dc:            1f 00 04 00  sethi     %hi(0x100000), %o7
    0x1000048e0:            a0 13 e1 0a  or        %o7, 0x10a, %l0
    0x1000048e4:            a3 2c 30 0c  sllx      %l0, 0xc, %l1
    0x1000048e8:            a4 04 61 30  add       %l1, 0x130, %l2
    0x1000048ec:            e6 5c a0 00  ldx       [%l2], %l3
    0x1000048f0:            e8 5c e0 10  ldx       [%l3 + 0x10], %l4
    0x1000048f4:            ea 5b a9 77  ldx       [%sp + 0x977], %l5
    0x1000048f8:            ad 2d 70 03  sllx      %l5, 0x3, %l6
    0x1000048fc:            c3 3d 00 16  std       %d32, [%l4 + %l6]
    0x100004900:            ee 5b a9 67  ldx       [%sp + 0x967], %l7
    0x100004904:            c3 1d e0 18  ldd       [%l7 + 0x18], %d32
    0x100004908:            05 00 04 00  sethi     %hi(0x100000), %g2
    0x10000490c:            86 10 a1 0a  or        %g2, 0x10a, %g3
    0x100004910:            89 28 f0 0c  sllx      %g3, 0xc, %g4
    0x100004914:            8a 01 21 30  add       %g4, 0x130, %g5
    0x100004918:            da 59 60 00  ldx       [%g5], %o5
    0x10000491c:            de 5b 60 18  ldx       [%o5 + 0x18], %o7
    0x100004920:            e0 5b a9 77  ldx       [%sp + 0x977], %l0
    0x100004924:            a3 2c 30 03  sllx      %l0, 0x3, %l1
    0x100004928:            c3 3b c0 11  std       %d32, [%o7 + %l1]
    0x10000492c:            e4 5b a8 e7  ldx       [%sp + 0x8e7], %l2
    0x100004930:            e6 5b a8 ff  ldx       [%sp + 0x8ff], %l3
    0x100004934:            a8 24 80 13  sub       %l2, %l3, %l4
    0x100004938:            e8 73 a9 8f  stx       %l4, [%sp + 0x98f]
    0x10000493c:            d1 1b a9 8f  ldd       [%sp + 0x98f], %d8
    0x100004940:            2b 00 04 00  sethi     %hi(0x100000), %l5
    0x100004944:            ac 15 60 03  or        %l5, 0x3, %l6
    0x100004948:            af 2d b0 0c  sllx      %l6, 0xc, %l7
    0x10000494c:            84 05 ed 20  add       %l7, 0xd20, %g2
    0x100004950:            d5 18 a0 00  ldd       [%g2], %d10
    0x100004954:            99 a0 00 2a  fmovs     %f10, %f12
    0x100004958:            9b a0 00 28  fmovs     %f8, %f13
    0x10000495c:            83 a3 08 ca  fsubd     %d12, %d10, %d32
    0x100004960:            07 00 04 00  sethi     %hi(0x100000), %g3
    0x100004964:            88 10 e0 03  or        %g3, 0x3, %g4
    0x100004968:            8b 29 30 0c  sllx      %g4, 0xc, %g5
    0x10000496c:            9a 01 6d 28  add       %g5, 0xd28, %o5
    0x100004970:            c7 1b 60 00  ldd       [%o5], %d34
    0x100004974:            8b a0 49 43  fmuld     %d32, %d34, %d36
    0x100004978:            1f 00 04 00  sethi     %hi(0x100000), %o7
    0x10000497c:            a0 13 e0 03  or        %o7, 0x3, %l0
    0x100004980:            a3 2c 30 0c  sllx      %l0, 0xc, %l1
    0x100004984:            a4 04 6d 20  add       %l1, 0xd20, %l2
    0x100004988:            d5 1c a0 00  ldd       [%l2], %d10
    0x10000498c:            99 a0 00 2a  fmovs     %f10, %f12
    0x100004990:            9b a0 00 29  fmovs     %f9, %f13
    0x100004994:            91 a3 08 ca  fsubd     %d12, %d10, %d8
    0x100004998:            83 a2 08 45  faddd     %d8, %d36, %d32
    0x10000499c:            27 00 04 00  sethi     %hi(0x100000), %l3
    0x1000049a0:            a8 14 e1 0a  or        %l3, 0x10a, %l4
    0x1000049a4:            ab 2d 30 0c  sllx      %l4, 0xc, %l5
    0x1000049a8:            ac 05 61 30  add       %l5, 0x130, %l6
    0x1000049ac:            ee 5d a0 00  ldx       [%l6], %l7
    0x1000049b0:            c4 5d e0 20  ldx       [%l7 + 0x20], %g2
    0x1000049b4:            c6 5b a9 77  ldx       [%sp + 0x977], %g3
    0x1000049b8:            89 28 f0 03  sllx      %g3, 0x3, %g4
    0x1000049bc:            c3 38 80 04  std       %d32, [%g2 + %g4]
    0x1000049c0:            10 80 00 02  ba        +0x8          <0x1000049c8>
    0x1000049c4:            01 00 00 00  nop
    0x1000049c8:            c4 5b a9 77  ldx       [%sp + 0x977], %g2
    0x1000049cc:            80 a0 a0 00  cmp       %g2, 0x0
    0x1000049d0:            02 60 00 04  be,pn     %xcc, +0x10   <0x1000049e0>
    0x1000049d4:            01 00 00 00  nop
    0x1000049d8:            10 80 00 29  ba        +0xa4         <0x100004a7c>
    0x1000049dc:            01 00 00 00  nop
    0x1000049e0:            84 03 a8 af  add       %sp, 0x8af, %g2
    0x1000049e4:            90 10 00 02  mov       %g2, %o0
    0x1000049e8:            92 10 00 00  clr       %o1
    0x1000049ec:            40 04 11 3d  call      +0x1044f4     <0x100108ee0>
    0x1000049f0:            01 00 00 00  nop
    0x1000049f4:            c6 5b a8 af  ldx       [%sp + 0x8af], %g3
    0x1000049f8:            89 28 f0 05  sllx      %g3, 0x5, %g4
    0x1000049fc:            8a 20 c0 04  sub       %g3, %g4, %g5
    0x100004a00:            89 29 70 09  sllx      %g5, 0x9, %g4
    0x100004a04:            8a 21 00 03  sub       %g4, %g3, %g5
    0x100004a08:            89 29 70 06  sllx      %g5, 0x6, %g4
    0x100004a0c:            90 21 00 05  sub       %g4, %g5, %o0
    0x100004a10:            92 20 c0 08  sub       %g3, %o0, %o1
    0x100004a14:            d4 5b a8 b7  ldx       [%sp + 0x8b7], %o2
    0x100004a18:            96 02 80 09  add       %o2, %o1, %o3
    0x100004a1c:            d6 73 a9 8f  stx       %o3, [%sp + 0x98f]
    0x100004a20:            19 00 04 00  sethi     %hi(0x100000), %o4
    0x100004a24:            9a 13 21 0a  or        %o4, 0x10a, %o5
    0x100004a28:            9f 2b 70 0c  sllx      %o5, 0xc, %o7
    0x100004a2c:            a0 03 e1 30  add       %o7, 0x130, %l0
    0x100004a30:            e2 5c 20 00  ldx       [%l0], %l1
    0x100004a34:            e4 5b a8 ff  ldx       [%sp + 0x8ff], %l2
    0x100004a38:            e4 74 60 38  stx       %l2, [%l1 + 0x38]
    0x100004a3c:            27 00 04 00  sethi     %hi(0x100000), %l3
    0x100004a40:            a8 14 e1 0a  or        %l3, 0x10a, %l4
    0x100004a44:            ab 2d 30 0c  sllx      %l4, 0xc, %l5
    0x100004a48:            ac 05 61 30  add       %l5, 0x130, %l6
    0x100004a4c:            ee 5d a0 00  ldx       [%l6], %l7
    0x100004a50:            c4 5b a8 e7  ldx       [%sp + 0x8e7], %g2
    0x100004a54:            c4 75 e0 40  stx       %g2, [%l7 + 0x40]
    0x100004a58:            07 00 04 00  sethi     %hi(0x100000), %g3
    0x100004a5c:            88 10 e1 0a  or        %g3, 0x10a, %g4
    0x100004a60:            8b 29 30 0c  sllx      %g4, 0xc, %g5
    0x100004a64:            90 01 61 30  add       %g5, 0x130, %o0
    0x100004a68:            d2 5a 20 00  ldx       [%o0], %o1
    0x100004a6c:            d4 5b a9 8f  ldx       [%sp + 0x98f], %o2
    0x100004a70:            d4 72 60 30  stx       %o2, [%o1 + 0x30]
    0x100004a74:            10 80 00 02  ba        +0x8          <0x100004a7c>
    0x100004a78:            01 00 00 00  nop
    0x100004a7c:            81 c7 e0 08  ret
    0x100004a80:            81 e8 00 00  restore
    0x100004a84:            00 00 00 00  illtrap   0x0
    0x100004a88:            00 00 00 00  illtrap   0x0
    0x100004a8c:            00 00 00 00  illtrap   0x0
    0x100004a90:            00 00 00 00  illtrap   0x0
    0x100004a94:            00 00 00 00  illtrap   0x0
    0x100004a98:            00 00 00 00  illtrap   0x0
    0x100004a9c:            00 00 00 00  illtrap   0x0
lu0()
    0x100004aa0:            9d e3 bf 50  save      %sp, -0xb0, %sp
    0x100004aa4:            04 c6 40 a1  brlez,pn  %i1, +0x284   <0x100004d28>
    0x100004aa8:            85 2e b0 03  sllx      %i2, 0x3, %g2
    0x100004aac:            af 2e 70 03  sllx      %i1, 0x3, %l7
    0x100004ab0:            ac 06 7f ff  add       %i1, -0x1, %l6
    0x100004ab4:            86 05 ff f8  add       %l7, -0x8, %g3
    0x100004ab8:            82 00 80 18  add       %g2, %i0, %g1
    0x100004abc:            88 10 00 16  mov       %l6, %g4
    0x100004ac0:            ae 00 a0 08  add       %g2, 0x8, %l7
    0x100004ac4:            b4 10 20 01  mov       0x1, %i2
    0x100004ac8:            80 a6 80 19  cmp       %i2, %i1
    0x100004acc:            16 60 00 90  bge,pn    %xcc, +0x240  <0x100004d0c>
    0x100004ad0:            a8 10 00 1a  mov       %i2, %l4
    0x100004ad4:            a6 06 20 08  add       %i0, 0x8, %l3
    0x100004ad8:            aa 10 00 01  mov       %g1, %l5
    0x100004adc:            e1 1e 20 00  ldd       [%i0], %d16
    0x100004ae0:            a2 01 3f ff  add       %g4, -0x1, %l1
    0x100004ae4:            c9 1d 60 00  ldd       [%l5], %d4
    0x100004ae8:            ad a1 09 d0  fdivd     %d4, %d16, %d22
    0x100004aec:            04 c1 00 83  brlez,pn  %g4, +0x20c   <0x100004cf8>
    0x100004af0:            ed 3d 60 00  std       %d22, [%l5]
    0x100004af4:            80 a4 60 03  cmp       %l1, 0x3
    0x100004af8:            98 05 60 08  add       %l5, 0x8, %o4
    0x100004afc:            06 60 00 09  bl,pn     %xcc, +0x24   <0x100004b20>
    0x100004b00:            a1 a0 00 d6  fnegd     %d22, %d16
    0x100004b04:            92 23 00 13  sub       %o4, %l3, %o1
    0x100004b08:            8b 3a 70 3f  srax      %o1, 0x3f, %g5
    0x100004b0c:            90 1a 40 05  xor       %o1, %g5, %o0
    0x100004b10:            ba 22 00 05  sub       %o0, %g5, %i5
    0x100004b14:            80 a7 40 03  cmp       %i5, %g3
    0x100004b18:            16 68 00 32  bge,pt    %xcc, +0xc8   <0x100004be0>
    0x100004b1c:            01 00 00 00  nop
    0x100004b20:            80 a1 20 04  cmp       %g4, 0x4
    0x100004b24:            9a 10 20 00  clr       %o5
    0x100004b28:            a0 10 00 13  mov       %l3, %l0
    0x100004b2c:            06 60 00 20  bl,pn     %xcc, +0x80   <0x100004bac>
    0x100004b30:            01 00 00 00  nop
    0x100004b34:            ba 01 3f fc  add       %g4, -0x4, %i5
    0x100004b38:            c1 6b 21 10  prefetch  [%o4 + 0x110], #n_reads
    0x100004b3c:            9a 03 60 04  add       %o5, 0x4, %o5
    0x100004b40:            d1 1c 20 00  ldd       [%l0], %d8
    0x100004b44:            a0 04 20 20  add       %l0, 0x20, %l0
    0x100004b48:            80 a3 40 1d  cmp       %o5, %i5
    0x100004b4c:            98 03 20 20  add       %o4, 0x20, %o4
    0x100004b50:            99 a2 09 50  fmuld     %d8, %d16, %d12
    0x100004b54:            dd 1b 3f e0  ldd       [%o4 - 0x20], %d14
    0x100004b58:            b5 a3 88 4c  faddd     %d14, %d12, %d26
    0x100004b5c:            f5 3b 3f e0  std       %d26, [%o4 - 0x20]
    0x100004b60:            f9 1c 3f e8  ldd       [%l0 - 0x18], %d28
    0x100004b64:            85 a7 09 50  fmuld     %d28, %d16, %d2
    0x100004b68:            fd 1b 3f e8  ldd       [%o4 - 0x18], %d30
    0x100004b6c:            8d a7 88 42  faddd     %d30, %d2, %d6
    0x100004b70:            cd 3b 3f e8  std       %d6, [%o4 - 0x18]
    0x100004b74:            e9 1c 3f f0  ldd       [%l0 - 0x10], %d20
    0x100004b78:            ad a5 09 50  fmuld     %d20, %d16, %d22
    0x100004b7c:            c9 1b 3f f0  ldd       [%o4 - 0x10], %d4
    0x100004b80:            b1 a1 08 56  faddd     %d4, %d22, %d24
    0x100004b84:            f1 3b 3f f0  std       %d24, [%o4 - 0x10]
    0x100004b88:            c1 1c 3f f8  ldd       [%l0 - 0x8], %d0
    0x100004b8c:            95 a0 09 50  fmuld     %d0, %d16, %d10
    0x100004b90:            e5 1b 3f f8  ldd       [%o4 - 0x8], %d18
    0x100004b94:            91 a4 88 4a  faddd     %d18, %d10, %d8
    0x100004b98:            04 6f ff e8  ble,pt    %xcc, -0x60   <0x100004b38>
    0x100004b9c:            d1 3b 3f f8  std       %d8, [%o4 - 0x8]
    0x100004ba0:            80 a3 40 11  cmp       %o5, %l1
    0x100004ba4:            14 60 00 0d  bg,pn     %xcc, +0x34   <0x100004bd8>
    0x100004ba8:            01 00 00 00  nop
    0x100004bac:            fd 1c 20 00  ldd       [%l0], %d30
    0x100004bb0:            85 a7 89 50  fmuld     %d30, %d16, %d2
    0x100004bb4:            cd 1b 20 00  ldd       [%o4], %d6
    0x100004bb8:            9a 03 60 01  add       %o5, 0x1, %o5
    0x100004bbc:            80 a3 40 11  cmp       %o5, %l1
    0x100004bc0:            a0 04 20 08  add       %l0, 0x8, %l0
    0x100004bc4:            a9 a1 88 42  faddd     %d6, %d2, %d20
    0x100004bc8:            e9 3b 20 00  std       %d20, [%o4]
    0x100004bcc:            98 03 20 08  add       %o4, 0x8, %o4
    0x100004bd0:            24 6f ff f8  ble,a,pt  %xcc, -0x20   <0x100004bb0>
    0x100004bd4:            fd 1c 20 00  ldd       [%l0], %d30
    0x100004bd8:            10 80 00 49  ba        +0x124        <0x100004cfc>
    0x100004bdc:            a8 05 20 01  add       %l4, 0x1, %l4
    0x100004be0:            80 a1 20 08  cmp       %g4, 0x8
    0x100004be4:            b8 10 20 00  clr       %i4
    0x100004be8:            9e 10 00 13  mov       %l3, %o7
    0x100004bec:            06 60 00 38  bl,pn     %xcc, +0xe0   <0x100004ccc>
    0x100004bf0:            01 00 00 00  nop
    0x100004bf4:            fd 1e 20 08  ldd       [%i0 + 0x8], %d30
    0x100004bf8:            f9 1e 20 10  ldd       [%i0 + 0x10], %d28
    0x100004bfc:            e9 1e 20 18  ldd       [%i0 + 0x18], %d20
    0x100004c00:            c1 1e 20 20  ldd       [%i0 + 0x20], %d0
    0x100004c04:            d1 1d 60 08  ldd       [%l5 + 0x8], %d8
    0x100004c08:            9e 06 20 28  add       %i0, 0x28, %o7
    0x100004c0c:            95 a7 09 50  fmuld     %d28, %d16, %d10
    0x100004c10:            cd 1d 60 10  ldd       [%l5 + 0x10], %d6
    0x100004c14:            a4 05 60 20  add       %l5, 0x20, %l2
    0x100004c18:            b8 10 20 04  mov       0x4, %i4
    0x100004c1c:            85 a7 89 50  fmuld     %d30, %d16, %d2
    0x100004c20:            c9 1d 60 18  ldd       [%l5 + 0x18], %d4
    0x100004c24:            b6 01 3f fc  add       %g4, -0x4, %i3
    0x100004c28:            c1 6c a1 10  prefetch  [%l2 + 0x110], #n_reads
    0x100004c2c:            b8 07 20 04  add       %i4, 0x4, %i4
    0x100004c30:            ed 1b e0 00  ldd       [%o7], %d22
    0x100004c34:            9e 03 e0 20  add       %o7, 0x20, %o7
    0x100004c38:            85 a2 08 42  faddd     %d8, %d2, %d2
    0x100004c3c:            80 a7 00 1b  cmp       %i4, %i3
    0x100004c40:            f1 1c a0 00  ldd       [%l2], %d24
    0x100004c44:            a4 04 a0 20  add       %l2, 0x20, %l2
    0x100004c48:            c5 3c bf c8  std       %d2, [%l2 - 0x38]
    0x100004c4c:            a9 a5 09 50  fmuld     %d20, %d16, %d20
    0x100004c50:            8d a1 88 4a  faddd     %d6, %d10, %d6
    0x100004c54:            d5 1b ff e8  ldd       [%o7 - 0x18], %d10
    0x100004c58:            d1 1c bf e8  ldd       [%l2 - 0x18], %d8
    0x100004c5c:            cd 3c bf d0  std       %d6, [%l2 - 0x30]
    0x100004c60:            81 a0 09 50  fmuld     %d0, %d16, %d0
    0x100004c64:            89 a1 08 54  faddd     %d4, %d20, %d4
    0x100004c68:            e9 1b ff f0  ldd       [%o7 - 0x10], %d20
    0x100004c6c:            cd 1c bf f0  ldd       [%l2 - 0x10], %d6
    0x100004c70:            c9 3c bf d8  std       %d4, [%l2 - 0x28]
    0x100004c74:            85 a5 89 50  fmuld     %d22, %d16, %d2
    0x100004c78:            a5 a6 08 40  faddd     %d24, %d0, %d18
    0x100004c7c:            c1 1b ff f8  ldd       [%o7 - 0x8], %d0
    0x100004c80:            c9 1c bf f8  ldd       [%l2 - 0x8], %d4
    0x100004c84:            e5 3c bf e0  std       %d18, [%l2 - 0x20]
    0x100004c88:            04 6f ff e8  ble,pt    %xcc, -0x60   <0x100004c28>
    0x100004c8c:            95 a2 89 50  fmuld     %d10, %d16, %d10
    0x100004c90:            99 a0 09 50  fmuld     %d0, %d16, %d12
    0x100004c94:            dd 1c a0 00  ldd       [%l2], %d14
    0x100004c98:            a5 a5 09 50  fmuld     %d20, %d16, %d18
    0x100004c9c:            81 a1 88 4a  faddd     %d6, %d10, %d0
    0x100004ca0:            c1 3c bf f0  std       %d0, [%l2 - 0x10]
    0x100004ca4:            b1 a2 08 42  faddd     %d8, %d2, %d24
    0x100004ca8:            80 a7 00 11  cmp       %i4, %l1
    0x100004cac:            f1 3c bf e8  std       %d24, [%l2 - 0x18]
    0x100004cb0:            ad a1 08 52  faddd     %d4, %d18, %d22
    0x100004cb4:            ed 3c bf f8  std       %d22, [%l2 - 0x8]
    0x100004cb8:            98 04 a0 08  add       %l2, 0x8, %o4
    0x100004cbc:            b5 a3 88 4c  faddd     %d14, %d12, %d26
    0x100004cc0:            f5 3c a0 00  std       %d26, [%l2]
    0x100004cc4:            14 60 00 0d  bg,pn     %xcc, +0x34   <0x100004cf8>
    0x100004cc8:            01 00 00 00  nop
    0x100004ccc:            dd 1b e0 00  ldd       [%o7], %d14
    0x100004cd0:            99 a3 89 50  fmuld     %d14, %d16, %d12
    0x100004cd4:            f5 1b 20 00  ldd       [%o4], %d26
    0x100004cd8:            b8 07 20 01  add       %i4, 0x1, %i4
    0x100004cdc:            80 a7 00 11  cmp       %i4, %l1
    0x100004ce0:            9e 03 e0 08  add       %o7, 0x8, %o7
    0x100004ce4:            b9 a6 88 4c  faddd     %d26, %d12, %d28
    0x100004ce8:            f9 3b 20 00  std       %d28, [%o4]
    0x100004cec:            98 03 20 08  add       %o4, 0x8, %o4
    0x100004cf0:            24 6f ff f8  ble,a,pt  %xcc, -0x20   <0x100004cd0>
    0x100004cf4:            dd 1b e0 00  ldd       [%o7], %d14
    0x100004cf8:            a8 05 20 01  add       %l4, 0x1, %l4
    0x100004cfc:            80 a5 00 16  cmp       %l4, %l6
    0x100004d00:            aa 05 40 02  add       %l5, %g2, %l5
    0x100004d04:            24 6f ff 78  ble,a,pt  %xcc, -0x220  <0x100004ae4>
    0x100004d08:            e1 1e 20 00  ldd       [%i0], %d16
    0x100004d0c:            80 a6 80 16  cmp       %i2, %l6
    0x100004d10:            b0 06 00 17  add       %i0, %l7, %i0
    0x100004d14:            82 00 40 17  add       %g1, %l7, %g1
    0x100004d18:            86 00 ff f8  add       %g3, -0x8, %g3
    0x100004d1c:            88 21 20 01  sub       %g4, 0x1, %g4
    0x100004d20:            04 6f ff 6a  ble,pt    %xcc, -0x258  <0x100004ac8>
    0x100004d24:            b4 06 a0 01  add       %i2, 0x1, %i2
    0x100004d28:            81 c7 e0 08  ret
    0x100004d2c:            81 e8 20 00  restore   %g0, 0x0, %g0
    0x100004d30:            00 00 00 00  illtrap   0x0
    0x100004d34:            00 00 00 00  illtrap   0x0
    0x100004d38:            00 00 00 00  illtrap   0x0
    0x100004d3c:            00 00 00 00  illtrap   0x0
    0x100004d40:            00 00 00 00  illtrap   0x0
    0x100004d44:            00 00 00 00  illtrap   0x0
bdiv()
    0x100004d48:            9d e3 bf 50  save      %sp, -0xb0, %sp
    0x100004d4c:            04 c7 40 9d  brlez,pn  %i5, +0x274   <0x100004fc0>
    0x100004d50:            85 2e f0 03  sllx      %i3, 0x3, %g2
    0x100004d54:            89 2e b0 03  sllx      %i2, 0x3, %g4
    0x100004d58:            8a 00 80 19  add       %g2, %i1, %g5
    0x100004d5c:            86 01 00 18  add       %g4, %i0, %g3
    0x100004d60:            82 00 a0 08  add       %g2, 0x8, %g1
    0x100004d64:            90 07 7f ff  add       %i5, -0x1, %o0
    0x100004d68:            a4 07 3f ff  add       %i4, -0x1, %l2
    0x100004d6c:            b2 10 20 01  mov       0x1, %i1
    0x100004d70:            80 a6 40 1d  cmp       %i1, %i5
    0x100004d74:            16 60 00 8d  bge,pn    %xcc, +0x234  <0x100004fa8>
    0x100004d78:            ac 10 00 19  mov       %i1, %l6
    0x100004d7c:            ae 10 00 03  mov       %g3, %l7
    0x100004d80:            aa 10 00 05  mov       %g5, %l5
    0x100004d84:            04 c7 00 84  brlez,pn  %i4, +0x210   <0x100004f94>
    0x100004d88:            80 a4 a0 03  cmp       %l2, 0x3
    0x100004d8c:            e1 1d 60 00  ldd       [%l5], %d16
    0x100004d90:            06 60 00 52  bl,pn     %xcc, +0x148  <0x100004ed8>
    0x100004d94:            a1 a0 00 d0  fnegd     %d16, %d16
    0x100004d98:            92 25 c0 18  sub       %l7, %i0, %o1
    0x100004d9c:            a7 3a 70 3f  srax      %o1, 0x3f, %l3
    0x100004da0:            a8 1a 40 13  xor       %o1, %l3, %l4
    0x100004da4:            a0 25 00 13  sub       %l4, %l3, %l0
    0x100004da8:            a3 2f 30 03  sllx      %i4, 0x3, %l1
    0x100004dac:            80 a4 00 11  cmp       %l0, %l1
    0x100004db0:            06 60 00 4a  bl,pn     %xcc, +0x128  <0x100004ed8>
    0x100004db4:            b6 10 20 00  clr       %i3
    0x100004db8:            80 a7 20 08  cmp       %i4, 0x8
    0x100004dbc:            94 10 00 17  mov       %l7, %o2
    0x100004dc0:            a6 10 00 18  mov       %i0, %l3
    0x100004dc4:            06 60 00 38  bl,pn     %xcc, +0xe0   <0x100004ea4>
    0x100004dc8:            01 00 00 00  nop
    0x100004dcc:            fd 1e 20 00  ldd       [%i0], %d30
    0x100004dd0:            f9 1e 20 08  ldd       [%i0 + 0x8], %d28
    0x100004dd4:            e9 1e 20 10  ldd       [%i0 + 0x10], %d20
    0x100004dd8:            c1 1e 20 18  ldd       [%i0 + 0x18], %d0
    0x100004ddc:            d1 1d e0 00  ldd       [%l7], %d8
    0x100004de0:            a6 06 20 20  add       %i0, 0x20, %l3
    0x100004de4:            95 a7 09 50  fmuld     %d28, %d16, %d10
    0x100004de8:            cd 1d e0 08  ldd       [%l7 + 0x8], %d6
    0x100004dec:            a2 05 e0 18  add       %l7, 0x18, %l1
    0x100004df0:            b6 10 20 04  mov       0x4, %i3
    0x100004df4:            85 a7 89 50  fmuld     %d30, %d16, %d2
    0x100004df8:            c9 1d e0 10  ldd       [%l7 + 0x10], %d4
    0x100004dfc:            a8 07 3f fc  add       %i4, -0x4, %l4
    0x100004e00:            c1 6c 61 10  prefetch  [%l1 + 0x110], #n_reads
    0x100004e04:            b6 06 e0 04  add       %i3, 0x4, %i3
    0x100004e08:            ed 1c e0 00  ldd       [%l3], %d22
    0x100004e0c:            a6 04 e0 20  add       %l3, 0x20, %l3
    0x100004e10:            85 a2 08 42  faddd     %d8, %d2, %d2
    0x100004e14:            80 a6 c0 14  cmp       %i3, %l4
    0x100004e18:            f1 1c 60 00  ldd       [%l1], %d24
    0x100004e1c:            a2 04 60 20  add       %l1, 0x20, %l1
    0x100004e20:            c5 3c 7f c8  std       %d2, [%l1 - 0x38]
    0x100004e24:            a9 a5 09 50  fmuld     %d20, %d16, %d20
    0x100004e28:            8d a1 88 4a  faddd     %d6, %d10, %d6
    0x100004e2c:            d5 1c ff e8  ldd       [%l3 - 0x18], %d10
    0x100004e30:            d1 1c 7f e8  ldd       [%l1 - 0x18], %d8
    0x100004e34:            cd 3c 7f d0  std       %d6, [%l1 - 0x30]
    0x100004e38:            81 a0 09 50  fmuld     %d0, %d16, %d0
    0x100004e3c:            89 a1 08 54  faddd     %d4, %d20, %d4
    0x100004e40:            e9 1c ff f0  ldd       [%l3 - 0x10], %d20
    0x100004e44:            cd 1c 7f f0  ldd       [%l1 - 0x10], %d6
    0x100004e48:            c9 3c 7f d8  std       %d4, [%l1 - 0x28]
    0x100004e4c:            85 a5 89 50  fmuld     %d22, %d16, %d2
    0x100004e50:            a5 a6 08 40  faddd     %d24, %d0, %d18
    0x100004e54:            c1 1c ff f8  ldd       [%l3 - 0x8], %d0
    0x100004e58:            c9 1c 7f f8  ldd       [%l1 - 0x8], %d4
    0x100004e5c:            e5 3c 7f e0  std       %d18, [%l1 - 0x20]
    0x100004e60:            04 6f ff e8  ble,pt    %xcc, -0x60   <0x100004e00>
    0x100004e64:            95 a2 89 50  fmuld     %d10, %d16, %d10
    0x100004e68:            99 a0 09 50  fmuld     %d0, %d16, %d12
    0x100004e6c:            dd 1c 60 00  ldd       [%l1], %d14
    0x100004e70:            a5 a5 09 50  fmuld     %d20, %d16, %d18
    0x100004e74:            81 a1 88 4a  faddd     %d6, %d10, %d0
    0x100004e78:            c1 3c 7f f0  std       %d0, [%l1 - 0x10]
    0x100004e7c:            b1 a2 08 42  faddd     %d8, %d2, %d24
    0x100004e80:            80 a6 c0 12  cmp       %i3, %l2
    0x100004e84:            f1 3c 7f e8  std       %d24, [%l1 - 0x18]
    0x100004e88:            ad a1 08 52  faddd     %d4, %d18, %d22
    0x100004e8c:            ed 3c 7f f8  std       %d22, [%l1 - 0x8]
    0x100004e90:            94 04 60 08  add       %l1, 0x8, %o2
    0x100004e94:            b5 a3 88 4c  faddd     %d14, %d12, %d26
    0x100004e98:            f5 3c 60 00  std       %d26, [%l1]
    0x100004e9c:            14 60 00 0d  bg,pn     %xcc, +0x34   <0x100004ed0>
    0x100004ea0:            01 00 00 00  nop
    0x100004ea4:            dd 1c e0 00  ldd       [%l3], %d14
    0x100004ea8:            99 a3 89 50  fmuld     %d14, %d16, %d12
    0x100004eac:            f5 1a a0 00  ldd       [%o2], %d26
    0x100004eb0:            b6 06 e0 01  add       %i3, 0x1, %i3
    0x100004eb4:            80 a6 c0 12  cmp       %i3, %l2
    0x100004eb8:            a6 04 e0 08  add       %l3, 0x8, %l3
    0x100004ebc:            b9 a6 88 4c  faddd     %d26, %d12, %d28
    0x100004ec0:            f9 3a a0 00  std       %d28, [%o2]
    0x100004ec4:            94 02 a0 08  add       %o2, 0x8, %o2
    0x100004ec8:            24 6f ff f8  ble,a,pt  %xcc, -0x20   <0x100004ea8>
    0x100004ecc:            dd 1c e0 00  ldd       [%l3], %d14
    0x100004ed0:            10 80 00 32  ba        +0xc8         <0x100004f98>
    0x100004ed4:            ac 05 a0 01  add       %l6, 0x1, %l6
    0x100004ed8:            80 a7 20 04  cmp       %i4, 0x4
    0x100004edc:            a0 10 20 00  clr       %l0
    0x100004ee0:            9a 10 00 17  mov       %l7, %o5
    0x100004ee4:            9e 10 00 18  mov       %i0, %o7
    0x100004ee8:            06 60 00 20  bl,pn     %xcc, +0x80   <0x100004f68>
    0x100004eec:            01 00 00 00  nop
    0x100004ef0:            b4 07 3f fc  add       %i4, -0x4, %i2
    0x100004ef4:            c1 6b 61 10  prefetch  [%o5 + 0x110], #n_reads
    0x100004ef8:            a0 04 20 04  add       %l0, 0x4, %l0
    0x100004efc:            d1 1b e0 00  ldd       [%o7], %d8
    0x100004f00:            9e 03 e0 20  add       %o7, 0x20, %o7
    0x100004f04:            80 a4 00 1a  cmp       %l0, %i2
    0x100004f08:            9a 03 60 20  add       %o5, 0x20, %o5
    0x100004f0c:            99 a2 09 50  fmuld     %d8, %d16, %d12
    0x100004f10:            dd 1b 7f e0  ldd       [%o5 - 0x20], %d14
    0x100004f14:            b5 a3 88 4c  faddd     %d14, %d12, %d26
    0x100004f18:            f5 3b 7f e0  std       %d26, [%o5 - 0x20]
    0x100004f1c:            f9 1b ff e8  ldd       [%o7 - 0x18], %d28
    0x100004f20:            85 a7 09 50  fmuld     %d28, %d16, %d2
    0x100004f24:            fd 1b 7f e8  ldd       [%o5 - 0x18], %d30
    0x100004f28:            8d a7 88 42  faddd     %d30, %d2, %d6
    0x100004f2c:            cd 3b 7f e8  std       %d6, [%o5 - 0x18]
    0x100004f30:            e9 1b ff f0  ldd       [%o7 - 0x10], %d20
    0x100004f34:            ad a5 09 50  fmuld     %d20, %d16, %d22
    0x100004f38:            c9 1b 7f f0  ldd       [%o5 - 0x10], %d4
    0x100004f3c:            b1 a1 08 56  faddd     %d4, %d22, %d24
    0x100004f40:            f1 3b 7f f0  std       %d24, [%o5 - 0x10]
    0x100004f44:            c1 1b ff f8  ldd       [%o7 - 0x8], %d0
    0x100004f48:            95 a0 09 50  fmuld     %d0, %d16, %d10
    0x100004f4c:            e5 1b 7f f8  ldd       [%o5 - 0x8], %d18
    0x100004f50:            91 a4 88 4a  faddd     %d18, %d10, %d8
    0x100004f54:            04 6f ff e8  ble,pt    %xcc, -0x60   <0x100004ef4>
    0x100004f58:            d1 3b 7f f8  std       %d8, [%o5 - 0x8]
    0x100004f5c:            80 a4 00 12  cmp       %l0, %l2
    0x100004f60:            14 60 00 0d  bg,pn     %xcc, +0x34   <0x100004f94>
    0x100004f64:            01 00 00 00  nop
    0x100004f68:            fd 1b e0 00  ldd       [%o7], %d30
    0x100004f6c:            85 a7 89 50  fmuld     %d30, %d16, %d2
    0x100004f70:            cd 1b 60 00  ldd       [%o5], %d6
    0x100004f74:            a0 04 20 01  add       %l0, 0x1, %l0
    0x100004f78:            80 a4 00 12  cmp       %l0, %l2
    0x100004f7c:            9e 03 e0 08  add       %o7, 0x8, %o7
    0x100004f80:            a9 a1 88 42  faddd     %d6, %d2, %d20
    0x100004f84:            e9 3b 60 00  std       %d20, [%o5]
    0x100004f88:            9a 03 60 08  add       %o5, 0x8, %o5
    0x100004f8c:            24 6f ff f8  ble,a,pt  %xcc, -0x20   <0x100004f6c>
    0x100004f90:            fd 1b e0 00  ldd       [%o7], %d30
    0x100004f94:            ac 05 a0 01  add       %l6, 0x1, %l6
    0x100004f98:            80 a5 80 08  cmp       %l6, %o0
    0x100004f9c:            aa 05 40 02  add       %l5, %g2, %l5
    0x100004fa0:            04 6f ff 79  ble,pt    %xcc, -0x21c  <0x100004d84>
    0x100004fa4:            ae 05 c0 04  add       %l7, %g4, %l7
    0x100004fa8:            80 a6 40 08  cmp       %i1, %o0
    0x100004fac:            86 00 c0 04  add       %g3, %g4, %g3
    0x100004fb0:            b0 06 00 04  add       %i0, %g4, %i0
    0x100004fb4:            8a 01 40 01  add       %g5, %g1, %g5
    0x100004fb8:            04 6f ff 6e  ble,pt    %xcc, -0x248  <0x100004d70>
    0x100004fbc:            b2 06 60 01  add       %i1, 0x1, %i1
    0x100004fc0:            81 c7 e0 08  ret
    0x100004fc4:            81 e8 20 00  restore   %g0, 0x0, %g0
    0x100004fc8:            00 00 00 00  illtrap   0x0
    0x100004fcc:            00 00 00 00  illtrap   0x0
    0x100004fd0:            00 00 00 00  illtrap   0x0
    0x100004fd4:            00 00 00 00  illtrap   0x0
    0x100004fd8:            00 00 00 00  illtrap   0x0
    0x100004fdc:            00 00 00 00  illtrap   0x0
bmodd()
    0x100004fe0:            9d e3 bf 50  save      %sp, -0xb0, %sp
    0x100004fe4:            04 c6 80 a1  brlez,pn  %i2, +0x284   <0x100005268>
    0x100004fe8:            af 2f 30 03  sllx      %i4, 0x3, %l7
    0x100004fec:            ac 06 bf ff  add       %i2, -0x1, %l6
    0x100004ff0:            ab 2e b0 03  sllx      %i2, 0x3, %l5
    0x100004ff4:            ae 05 e0 08  add       %l7, 0x8, %l7
    0x100004ff8:            83 2f 70 03  sllx      %i5, 0x3, %g1
    0x100004ffc:            88 05 7f f8  add       %l5, -0x8, %g4
    0x100005000:            86 06 ff ff  add       %i3, -0x1, %g3
    0x100005004:            8a 10 00 16  mov       %l6, %g5
    0x100005008:            84 10 20 00  clr       %g2
    0x10000500c:            04 c6 c0 90  brlez,pn  %i3, +0x240   <0x10000524c>
    0x100005010:            a8 10 20 00  clr       %l4
    0x100005014:            a6 06 20 08  add       %i0, 0x8, %l3
    0x100005018:            90 10 00 19  mov       %i1, %o0
    0x10000501c:            e1 1e 20 00  ldd       [%i0], %d16
    0x100005020:            a2 01 7f ff  add       %g5, -0x1, %l1
    0x100005024:            c9 1a 20 00  ldd       [%o0], %d4
    0x100005028:            ad a1 09 d0  fdivd     %d4, %d16, %d22
    0x10000502c:            04 c1 40 83  brlez,pn  %g5, +0x20c   <0x100005238>
    0x100005030:            ed 3a 20 00  std       %d22, [%o0]
    0x100005034:            80 a4 60 03  cmp       %l1, 0x3
    0x100005038:            9a 02 20 08  add       %o0, 0x8, %o5
    0x10000503c:            06 60 00 09  bl,pn     %xcc, +0x24   <0x100005060>
    0x100005040:            a1 a0 00 d6  fnegd     %d22, %d16
    0x100005044:            94 23 40 13  sub       %o5, %l3, %o2
    0x100005048:            a5 3a b0 3f  srax      %o2, 0x3f, %l2
    0x10000504c:            92 1a 80 12  xor       %o2, %l2, %o1
    0x100005050:            9e 22 40 12  sub       %o1, %l2, %o7
    0x100005054:            80 a3 c0 04  cmp       %o7, %g4
    0x100005058:            16 68 00 32  bge,pt    %xcc, +0xc8   <0x100005120>
    0x10000505c:            01 00 00 00  nop
    0x100005060:            80 a1 60 04  cmp       %g5, 0x4
    0x100005064:            9e 10 20 00  clr       %o7
    0x100005068:            a0 10 00 13  mov       %l3, %l0
    0x10000506c:            06 60 00 20  bl,pn     %xcc, +0x80   <0x1000050ec>
    0x100005070:            01 00 00 00  nop
    0x100005074:            ba 01 7f fc  add       %g5, -0x4, %i5
    0x100005078:            c1 6b 61 10  prefetch  [%o5 + 0x110], #n_reads
    0x10000507c:            9e 03 e0 04  add       %o7, 0x4, %o7
    0x100005080:            d1 1c 20 00  ldd       [%l0], %d8
    0x100005084:            a0 04 20 20  add       %l0, 0x20, %l0
    0x100005088:            80 a3 c0 1d  cmp       %o7, %i5
    0x10000508c:            9a 03 60 20  add       %o5, 0x20, %o5
    0x100005090:            99 a2 09 50  fmuld     %d8, %d16, %d12
    0x100005094:            dd 1b 7f e0  ldd       [%o5 - 0x20], %d14
    0x100005098:            b5 a3 88 4c  faddd     %d14, %d12, %d26
    0x10000509c:            f5 3b 7f e0  std       %d26, [%o5 - 0x20]
    0x1000050a0:            f9 1c 3f e8  ldd       [%l0 - 0x18], %d28
    0x1000050a4:            85 a7 09 50  fmuld     %d28, %d16, %d2
    0x1000050a8:            fd 1b 7f e8  ldd       [%o5 - 0x18], %d30
    0x1000050ac:            8d a7 88 42  faddd     %d30, %d2, %d6
    0x1000050b0:            cd 3b 7f e8  std       %d6, [%o5 - 0x18]
    0x1000050b4:            e9 1c 3f f0  ldd       [%l0 - 0x10], %d20
    0x1000050b8:            ad a5 09 50  fmuld     %d20, %d16, %d22
    0x1000050bc:            c9 1b 7f f0  ldd       [%o5 - 0x10], %d4
    0x1000050c0:            b1 a1 08 56  faddd     %d4, %d22, %d24
    0x1000050c4:            f1 3b 7f f0  std       %d24, [%o5 - 0x10]
    0x1000050c8:            c1 1c 3f f8  ldd       [%l0 - 0x8], %d0
    0x1000050cc:            95 a0 09 50  fmuld     %d0, %d16, %d10
    0x1000050d0:            e5 1b 7f f8  ldd       [%o5 - 0x8], %d18
    0x1000050d4:            91 a4 88 4a  faddd     %d18, %d10, %d8
    0x1000050d8:            04 6f ff e8  ble,pt    %xcc, -0x60   <0x100005078>
    0x1000050dc:            d1 3b 7f f8  std       %d8, [%o5 - 0x8]
    0x1000050e0:            80 a3 c0 11  cmp       %o7, %l1
    0x1000050e4:            14 60 00 0d  bg,pn     %xcc, +0x34   <0x100005118>
    0x1000050e8:            01 00 00 00  nop
    0x1000050ec:            fd 1c 20 00  ldd       [%l0], %d30
    0x1000050f0:            85 a7 89 50  fmuld     %d30, %d16, %d2
    0x1000050f4:            cd 1b 60 00  ldd       [%o5], %d6
    0x1000050f8:            9e 03 e0 01  add       %o7, 0x1, %o7
    0x1000050fc:            80 a3 c0 11  cmp       %o7, %l1
    0x100005100:            a0 04 20 08  add       %l0, 0x8, %l0
    0x100005104:            a9 a1 88 42  faddd     %d6, %d2, %d20
    0x100005108:            e9 3b 60 00  std       %d20, [%o5]
    0x10000510c:            9a 03 60 08  add       %o5, 0x8, %o5
    0x100005110:            24 6f ff f8  ble,a,pt  %xcc, -0x20   <0x1000050f0>
    0x100005114:            fd 1c 20 00  ldd       [%l0], %d30
    0x100005118:            10 80 00 49  ba        +0x124        <0x10000523c>
    0x10000511c:            a8 05 20 01  add       %l4, 0x1, %l4
    0x100005120:            80 a1 60 08  cmp       %g5, 0x8
    0x100005124:            b8 10 20 00  clr       %i4
    0x100005128:            ba 10 00 13  mov       %l3, %i5
    0x10000512c:            06 60 00 38  bl,pn     %xcc, +0xe0   <0x10000520c>
    0x100005130:            01 00 00 00  nop
    0x100005134:            fd 1e 20 08  ldd       [%i0 + 0x8], %d30
    0x100005138:            f9 1e 20 10  ldd       [%i0 + 0x10], %d28
    0x10000513c:            e9 1e 20 18  ldd       [%i0 + 0x18], %d20
    0x100005140:            c1 1e 20 20  ldd       [%i0 + 0x20], %d0
    0x100005144:            d1 1a 20 08  ldd       [%o0 + 0x8], %d8
    0x100005148:            ba 06 20 28  add       %i0, 0x28, %i5
    0x10000514c:            95 a7 09 50  fmuld     %d28, %d16, %d10
    0x100005150:            cd 1a 20 10  ldd       [%o0 + 0x10], %d6
    0x100005154:            a4 02 20 20  add       %o0, 0x20, %l2
    0x100005158:            b8 10 20 04  mov       0x4, %i4
    0x10000515c:            85 a7 89 50  fmuld     %d30, %d16, %d2
    0x100005160:            c9 1a 20 18  ldd       [%o0 + 0x18], %d4
    0x100005164:            b4 01 7f fc  add       %g5, -0x4, %i2
    0x100005168:            c1 6c a1 10  prefetch  [%l2 + 0x110], #n_reads
    0x10000516c:            b8 07 20 04  add       %i4, 0x4, %i4
    0x100005170:            ed 1f 60 00  ldd       [%i5], %d22
    0x100005174:            ba 07 60 20  add       %i5, 0x20, %i5
    0x100005178:            85 a2 08 42  faddd     %d8, %d2, %d2
    0x10000517c:            80 a7 00 1a  cmp       %i4, %i2
    0x100005180:            f1 1c a0 00  ldd       [%l2], %d24
    0x100005184:            a4 04 a0 20  add       %l2, 0x20, %l2
    0x100005188:            c5 3c bf c8  std       %d2, [%l2 - 0x38]
    0x10000518c:            a9 a5 09 50  fmuld     %d20, %d16, %d20
    0x100005190:            8d a1 88 4a  faddd     %d6, %d10, %d6
    0x100005194:            d5 1f 7f e8  ldd       [%i5 - 0x18], %d10
    0x100005198:            d1 1c bf e8  ldd       [%l2 - 0x18], %d8
    0x10000519c:            cd 3c bf d0  std       %d6, [%l2 - 0x30]
    0x1000051a0:            81 a0 09 50  fmuld     %d0, %d16, %d0
    0x1000051a4:            89 a1 08 54  faddd     %d4, %d20, %d4
    0x1000051a8:            e9 1f 7f f0  ldd       [%i5 - 0x10], %d20
    0x1000051ac:            cd 1c bf f0  ldd       [%l2 - 0x10], %d6
    0x1000051b0:            c9 3c bf d8  std       %d4, [%l2 - 0x28]
    0x1000051b4:            85 a5 89 50  fmuld     %d22, %d16, %d2
    0x1000051b8:            a5 a6 08 40  faddd     %d24, %d0, %d18
    0x1000051bc:            c1 1f 7f f8  ldd       [%i5 - 0x8], %d0
    0x1000051c0:            c9 1c bf f8  ldd       [%l2 - 0x8], %d4
    0x1000051c4:            e5 3c bf e0  std       %d18, [%l2 - 0x20]
    0x1000051c8:            04 6f ff e8  ble,pt    %xcc, -0x60   <0x100005168>
    0x1000051cc:            95 a2 89 50  fmuld     %d10, %d16, %d10
    0x1000051d0:            99 a0 09 50  fmuld     %d0, %d16, %d12
    0x1000051d4:            dd 1c a0 00  ldd       [%l2], %d14
    0x1000051d8:            a5 a5 09 50  fmuld     %d20, %d16, %d18
    0x1000051dc:            81 a1 88 4a  faddd     %d6, %d10, %d0
    0x1000051e0:            c1 3c bf f0  std       %d0, [%l2 - 0x10]
    0x1000051e4:            b1 a2 08 42  faddd     %d8, %d2, %d24
    0x1000051e8:            80 a7 00 11  cmp       %i4, %l1
    0x1000051ec:            f1 3c bf e8  std       %d24, [%l2 - 0x18]
    0x1000051f0:            ad a1 08 52  faddd     %d4, %d18, %d22
    0x1000051f4:            ed 3c bf f8  std       %d22, [%l2 - 0x8]
    0x1000051f8:            9a 04 a0 08  add       %l2, 0x8, %o5
    0x1000051fc:            b5 a3 88 4c  faddd     %d14, %d12, %d26
    0x100005200:            f5 3c a0 00  std       %d26, [%l2]
    0x100005204:            14 60 00 0d  bg,pn     %xcc, +0x34   <0x100005238>
    0x100005208:            01 00 00 00  nop
    0x10000520c:            dd 1f 60 00  ldd       [%i5], %d14
    0x100005210:            99 a3 89 50  fmuld     %d14, %d16, %d12
    0x100005214:            f5 1b 60 00  ldd       [%o5], %d26
    0x100005218:            b8 07 20 01  add       %i4, 0x1, %i4
    0x10000521c:            80 a7 00 11  cmp       %i4, %l1
    0x100005220:            ba 07 60 08  add       %i5, 0x8, %i5
    0x100005224:            b9 a6 88 4c  faddd     %d26, %d12, %d28
    0x100005228:            f9 3b 60 00  std       %d28, [%o5]
    0x10000522c:            9a 03 60 08  add       %o5, 0x8, %o5
    0x100005230:            24 6f ff f8  ble,a,pt  %xcc, -0x20   <0x100005210>
    0x100005234:            dd 1f 60 00  ldd       [%i5], %d14
    0x100005238:            a8 05 20 01  add       %l4, 0x1, %l4
    0x10000523c:            80 a5 00 03  cmp       %l4, %g3
    0x100005240:            90 02 00 01  add       %o0, %g1, %o0
    0x100005244:            24 6f ff 78  ble,a,pt  %xcc, -0x220  <0x100005024>
    0x100005248:            e1 1e 20 00  ldd       [%i0], %d16
    0x10000524c:            84 00 a0 01  add       %g2, 0x1, %g2
    0x100005250:            80 a0 80 16  cmp       %g2, %l6
    0x100005254:            b0 06 00 17  add       %i0, %l7, %i0
    0x100005258:            88 01 3f f8  add       %g4, -0x8, %g4
    0x10000525c:            8a 21 60 01  sub       %g5, 0x1, %g5
    0x100005260:            04 6f ff 6b  ble,pt    %xcc, -0x254  <0x10000500c>
    0x100005264:            b2 06 60 08  add       %i1, 0x8, %i1
    0x100005268:            81 c7 e0 08  ret
    0x10000526c:            81 e8 20 00  restore   %g0, 0x0, %g0
    0x100005270:            00 00 00 00  illtrap   0x0
    0x100005274:            00 00 00 00  illtrap   0x0
    0x100005278:            00 00 00 00  illtrap   0x0
    0x10000527c:            00 00 00 00  illtrap   0x0
    0x100005280:            00 00 00 00  illtrap   0x0
    0x100005284:            00 00 00 00  illtrap   0x0
bmod()
    0x100005288:            9d e3 bf 50  save      %sp, -0xb0, %sp
    0x10000528c:            ee 5f a8 af  ldx       [%fp + 0x8af], %l7
    0x100005290:            d6 5f a8 b7  ldx       [%fp + 0x8b7], %o3
    0x100005294:            ec 5f a8 bf  ldx       [%fp + 0x8bf], %l6
    0x100005298:            04 c7 40 82  brlez,pn  %i5, +0x208   <0x1000054a0>
    0x10000529c:            84 07 7f ff  add       %i5, -0x1, %g2
    0x1000052a0:            87 2d f0 03  sllx      %l7, 0x3, %g3
    0x1000052a4:            8b 2d b0 03  sllx      %l6, 0x3, %g5
    0x1000052a8:            91 2a f0 03  sllx      %o3, 0x3, %o0
    0x1000052ac:            92 07 3f ff  add       %i4, -0x1, %o1
    0x1000052b0:            a6 06 ff ff  add       %i3, -0x1, %l3
    0x1000052b4:            88 10 20 00  clr       %g4
    0x1000052b8:            04 c7 00 75  brlez,pn  %i4, +0x1d4   <0x10000548c>
    0x1000052bc:            ae 10 20 00  clr       %l7
    0x1000052c0:            ac 10 00 19  mov       %i1, %l6
    0x1000052c4:            82 10 00 1a  mov       %i2, %g1
    0x1000052c8:            04 c6 c0 6c  brlez,pn  %i3, +0x1b0   <0x100005478>
    0x1000052cc:            80 a4 e0 03  cmp       %l3, 0x3
    0x1000052d0:            f9 1d a0 00  ldd       [%l6], %d28
    0x1000052d4:            06 60 00 4c  bl,pn     %xcc, +0x130  <0x100005404>
    0x1000052d8:            a1 a0 00 dc  fnegd     %d28, %d16
    0x1000052dc:            a8 20 40 18  sub       %g1, %i0, %l4
    0x1000052e0:            ab 3d 30 3f  srax      %l4, 0x3f, %l5
    0x1000052e4:            a2 1d 00 15  xor       %l4, %l5, %l1
    0x1000052e8:            a4 24 40 15  sub       %l1, %l5, %l2
    0x1000052ec:            a1 2e f0 03  sllx      %i3, 0x3, %l0
    0x1000052f0:            80 a4 80 10  cmp       %l2, %l0
    0x1000052f4:            06 60 00 44  bl,pn     %xcc, +0x110  <0x100005404>
    0x1000052f8:            a8 10 20 00  clr       %l4
    0x1000052fc:            80 a6 e0 07  cmp       %i3, 0x7
    0x100005300:            94 10 00 01  mov       %g1, %o2
    0x100005304:            a2 10 00 18  mov       %i0, %l1
    0x100005308:            06 60 00 32  bl,pn     %xcc, +0xc8   <0x1000053d0>
    0x10000530c:            01 00 00 00  nop
    0x100005310:            fd 1e 20 00  ldd       [%i0], %d30
    0x100005314:            f9 1e 20 08  ldd       [%i0 + 0x8], %d28
    0x100005318:            d5 1e 20 10  ldd       [%i0 + 0x10], %d10
    0x10000531c:            c1 1e 20 18  ldd       [%i0 + 0x18], %d0
    0x100005320:            d1 18 60 00  ldd       [%g1], %d8
    0x100005324:            a2 06 20 20  add       %i0, 0x20, %l1
    0x100005328:            a5 a7 09 50  fmuld     %d28, %d16, %d18
    0x10000532c:            cd 18 60 08  ldd       [%g1 + 0x8], %d6
    0x100005330:            aa 00 60 18  add       %g1, 0x18, %l5
    0x100005334:            a8 10 20 04  mov       0x4, %l4
    0x100005338:            85 a7 89 50  fmuld     %d30, %d16, %d2
    0x10000533c:            c9 18 60 10  ldd       [%g1 + 0x10], %d4
    0x100005340:            ba 06 ff fd  add       %i3, -0x3, %i5
    0x100005344:            a8 05 20 03  add       %l4, 0x3, %l4
    0x100005348:            f1 1c 60 00  ldd       [%l1], %d24
    0x10000534c:            a2 04 60 18  add       %l1, 0x18, %l1
    0x100005350:            85 a2 08 42  faddd     %d8, %d2, %d2
    0x100005354:            80 a5 00 1d  cmp       %l4, %i5
    0x100005358:            d1 1d 60 00  ldd       [%l5], %d8
    0x10000535c:            aa 05 60 18  add       %l5, 0x18, %l5
    0x100005360:            c5 3d 7f d0  std       %d2, [%l5 - 0x30]
    0x100005364:            a9 a2 89 50  fmuld     %d10, %d16, %d20
    0x100005368:            a5 a1 88 52  faddd     %d6, %d18, %d18
    0x10000536c:            d5 1c 7f f0  ldd       [%l1 - 0x10], %d10
    0x100005370:            cd 1d 7f f0  ldd       [%l5 - 0x10], %d6
    0x100005374:            e5 3d 7f d8  std       %d18, [%l5 - 0x28]
    0x100005378:            85 a0 09 50  fmuld     %d0, %d16, %d2
    0x10000537c:            ad a1 08 54  faddd     %d4, %d20, %d22
    0x100005380:            c1 1c 7f f8  ldd       [%l1 - 0x8], %d0
    0x100005384:            c9 1d 7f f8  ldd       [%l5 - 0x8], %d4
    0x100005388:            ed 3d 7f e0  std       %d22, [%l5 - 0x20]
    0x10000538c:            04 6f ff ee  ble,pt    %xcc, -0x48   <0x100005344>
    0x100005390:            a5 a6 09 50  fmuld     %d24, %d16, %d18
    0x100005394:            99 a0 09 50  fmuld     %d0, %d16, %d12
    0x100005398:            dd 1d 60 00  ldd       [%l5], %d14
    0x10000539c:            a9 a2 89 50  fmuld     %d10, %d16, %d20
    0x1000053a0:            81 a1 88 52  faddd     %d6, %d18, %d0
    0x1000053a4:            c1 3d 7f f0  std       %d0, [%l5 - 0x10]
    0x1000053a8:            b1 a2 08 42  faddd     %d8, %d2, %d24
    0x1000053ac:            80 a5 00 13  cmp       %l4, %l3
    0x1000053b0:            f1 3d 7f e8  std       %d24, [%l5 - 0x18]
    0x1000053b4:            ad a1 08 54  faddd     %d4, %d20, %d22
    0x1000053b8:            ed 3d 7f f8  std       %d22, [%l5 - 0x8]
    0x1000053bc:            94 05 60 08  add       %l5, 0x8, %o2
    0x1000053c0:            b5 a3 88 4c  faddd     %d14, %d12, %d26
    0x1000053c4:            f5 3d 60 00  std       %d26, [%l5]
    0x1000053c8:            14 60 00 0d  bg,pn     %xcc, +0x34   <0x1000053fc>
    0x1000053cc:            01 00 00 00  nop
    0x1000053d0:            c9 1c 60 00  ldd       [%l1], %d4
    0x1000053d4:            8d a1 09 50  fmuld     %d4, %d16, %d6
    0x1000053d8:            d1 1a a0 00  ldd       [%o2], %d8
    0x1000053dc:            a8 05 20 01  add       %l4, 0x1, %l4
    0x1000053e0:            80 a5 00 13  cmp       %l4, %l3
    0x1000053e4:            a2 04 60 08  add       %l1, 0x8, %l1
    0x1000053e8:            95 a2 08 46  faddd     %d8, %d6, %d10
    0x1000053ec:            d5 3a a0 00  std       %d10, [%o2]
    0x1000053f0:            94 02 a0 08  add       %o2, 0x8, %o2
    0x1000053f4:            24 6f ff f8  ble,a,pt  %xcc, -0x20   <0x1000053d4>
    0x1000053f8:            c9 1c 60 00  ldd       [%l1], %d4
    0x1000053fc:            10 80 00 20  ba        +0x80         <0x10000547c>
    0x100005400:            ae 05 e0 01  add       %l7, 0x1, %l7
    0x100005404:            80 a6 e0 01  cmp       %i3, 0x1
    0x100005408:            a4 10 20 00  clr       %l2
    0x10000540c:            9e 10 00 01  mov       %g1, %o7
    0x100005410:            a0 10 00 18  mov       %i0, %l0
    0x100005414:            06 60 00 0e  bl,pn     %xcc, +0x38   <0x10000544c>
    0x100005418:            01 00 00 00  nop
    0x10000541c:            a4 04 a0 01  add       %l2, 0x1, %l2
    0x100005420:            c1 1c 20 00  ldd       [%l0], %d0
    0x100005424:            a0 04 20 08  add       %l0, 0x8, %l0
    0x100005428:            80 a4 80 13  cmp       %l2, %l3
    0x10000542c:            9e 03 e0 08  add       %o7, 0x8, %o7
    0x100005430:            9d a0 09 50  fmuld     %d0, %d16, %d14
    0x100005434:            d9 1b ff f8  ldd       [%o7 - 0x8], %d12
    0x100005438:            b5 a3 08 4e  faddd     %d12, %d14, %d26
    0x10000543c:            04 6f ff f8  ble,pt    %xcc, -0x20   <0x10000541c>
    0x100005440:            f5 3b ff f8  std       %d26, [%o7 - 0x8]
    0x100005444:            10 80 00 0d  ba        +0x34         <0x100005478>
    0x100005448:            01 00 00 00  nop
    0x10000544c:            c1 1c 20 00  ldd       [%l0], %d0
    0x100005450:            9d a0 09 50  fmuld     %d0, %d16, %d14
    0x100005454:            d9 1b e0 00  ldd       [%o7], %d12
    0x100005458:            a4 04 a0 01  add       %l2, 0x1, %l2
    0x10000545c:            80 a4 80 13  cmp       %l2, %l3
    0x100005460:            a0 04 20 08  add       %l0, 0x8, %l0
    0x100005464:            b5 a3 08 4e  faddd     %d12, %d14, %d26
    0x100005468:            f5 3b e0 00  std       %d26, [%o7]
    0x10000546c:            9e 03 e0 08  add       %o7, 0x8, %o7
    0x100005470:            24 6f ff f8  ble,a,pt  %xcc, -0x20   <0x100005450>
    0x100005474:            c1 1c 20 00  ldd       [%l0], %d0
    0x100005478:            ae 05 e0 01  add       %l7, 0x1, %l7
    0x10000547c:            80 a5 c0 09  cmp       %l7, %o1
    0x100005480:            82 00 40 05  add       %g1, %g5, %g1
    0x100005484:            04 6f ff 91  ble,pt    %xcc, -0x1bc  <0x1000052c8>
    0x100005488:            ac 05 80 08  add       %l6, %o0, %l6
    0x10000548c:            88 01 20 01  add       %g4, 0x1, %g4
    0x100005490:            80 a1 00 02  cmp       %g4, %g2
    0x100005494:            b0 06 00 03  add       %i0, %g3, %i0
    0x100005498:            04 6f ff 88  ble,pt    %xcc, -0x1e0  <0x1000052b8>
    0x10000549c:            b2 06 60 08  add       %i1, 0x8, %i1
    0x1000054a0:            81 c7 e0 08  ret
    0x1000054a4:            81 e8 20 00  restore   %g0, 0x0, %g0
    0x1000054a8:            00 00 00 00  illtrap   0x0
    0x1000054ac:            00 00 00 00  illtrap   0x0
    0x1000054b0:            00 00 00 00  illtrap   0x0
    0x1000054b4:            00 00 00 00  illtrap   0x0
    0x1000054b8:            00 00 00 00  illtrap   0x0
    0x1000054bc:            00 00 00 00  illtrap   0x0
daxpy()
    0x1000054c0:            04 c2 80 86  brlez,pn  %o2, +0x218   <0x1000056d8>
    0x1000054c4:            8a 02 bf ff  add       %o2, -0x1, %g5
    0x1000054c8:            80 a1 60 03  cmp       %g5, 0x3
    0x1000054cc:            96 10 00 09  mov       %o1, %o3
    0x1000054d0:            06 60 00 0a  bl,pn     %xcc, +0x28   <0x1000054f8>
    0x1000054d4:            88 10 00 08  mov       %o0, %g4
    0x1000054d8:            82 22 00 09  sub       %o0, %o1, %g1
    0x1000054dc:            99 38 70 3f  srax      %g1, 0x3f, %o4
    0x1000054e0:            9a 18 40 0c  xor       %g1, %o4, %o5
    0x1000054e4:            92 23 40 0c  sub       %o5, %o4, %o1
    0x1000054e8:            95 2a b0 03  sllx      %o2, 0x3, %o2
    0x1000054ec:            80 a2 40 0a  cmp       %o1, %o2
    0x1000054f0:            16 68 00 34  bge,pt    %xcc, +0xd0   <0x1000055c0>
    0x1000054f4:            98 10 20 00  clr       %o4
    0x1000054f8:            84 01 60 01  add       %g5, 0x1, %g2
    0x1000054fc:            80 a0 a0 04  cmp       %g2, 0x4
    0x100005500:            92 10 20 00  clr       %o1
    0x100005504:            90 10 00 0b  mov       %o3, %o0
    0x100005508:            06 60 00 21  bl,pn     %xcc, +0x84   <0x10000558c>
    0x10000550c:            01 00 00 00  nop
    0x100005510:            9a 21 60 03  sub       %g5, 0x3, %o5
    0x100005514:            c1 6a 20 90  prefetch  [%o0 + 0x90], #n_reads
    0x100005518:            c1 69 20 90  prefetch  [%g4 + 0x90], #n_reads
    0x10000551c:            92 02 60 04  add       %o1, 0x4, %o1
    0x100005520:            d5 1a 20 00  ldd       [%o0], %d10
    0x100005524:            90 02 20 20  add       %o0, 0x20, %o0
    0x100005528:            80 a2 40 0d  cmp       %o1, %o5
    0x10000552c:            88 01 20 20  add       %g4, 0x20, %g4
    0x100005530:            9d a2 89 46  fmuld     %d10, %d6, %d14
    0x100005534:            e1 19 3f e0  ldd       [%g4 - 0x20], %d16
    0x100005538:            b9 a4 08 4e  faddd     %d16, %d14, %d28
    0x10000553c:            f9 39 3f e0  std       %d28, [%g4 - 0x20]
    0x100005540:            fd 1a 3f e8  ldd       [%o0 - 0x18], %d30
    0x100005544:            85 a7 89 46  fmuld     %d30, %d6, %d2
    0x100005548:            ff 19 3f e8  ldd       [%g4 - 0x18], %d62
    0x10000554c:            91 a7 c8 42  faddd     %d62, %d2, %d8
    0x100005550:            d1 39 3f e8  std       %d8, [%g4 - 0x18]
    0x100005554:            ed 1a 3f f0  ldd       [%o0 - 0x10], %d22
    0x100005558:            b1 a5 89 46  fmuld     %d22, %d6, %d24
    0x10000555c:            c9 19 3f f0  ldd       [%g4 - 0x10], %d4
    0x100005560:            b5 a1 08 58  faddd     %d4, %d24, %d26
    0x100005564:            f5 39 3f f0  std       %d26, [%g4 - 0x10]
    0x100005568:            c1 1a 3f f8  ldd       [%o0 - 0x8], %d0
    0x10000556c:            99 a0 09 46  fmuld     %d0, %d6, %d12
    0x100005570:            e9 19 3f f8  ldd       [%g4 - 0x8], %d20
    0x100005574:            95 a5 08 4c  faddd     %d20, %d12, %d10
    0x100005578:            04 6f ff e7  ble,pt    %xcc, -0x64   <0x100005514>
    0x10000557c:            d5 39 3f f8  std       %d10, [%g4 - 0x8]
    0x100005580:            80 a2 40 05  cmp       %o1, %g5
    0x100005584:            14 60 00 0d  bg,pn     %xcc, +0x34   <0x1000055b8>
    0x100005588:            01 00 00 00  nop
    0x10000558c:            ff 1a 20 00  ldd       [%o0], %d62
    0x100005590:            85 a7 c9 46  fmuld     %d62, %d6, %d2
    0x100005594:            d1 19 20 00  ldd       [%g4], %d8
    0x100005598:            92 02 60 01  add       %o1, 0x1, %o1
    0x10000559c:            80 a2 40 05  cmp       %o1, %g5
    0x1000055a0:            90 02 20 08  add       %o0, 0x8, %o0
    0x1000055a4:            ad a2 08 42  faddd     %d8, %d2, %d22
    0x1000055a8:            ed 39 20 00  std       %d22, [%g4]
    0x1000055ac:            88 01 20 08  add       %g4, 0x8, %g4
    0x1000055b0:            24 6f ff f8  ble,a,pt  %xcc, -0x20   <0x100005590>
    0x1000055b4:            ff 1a 20 00  ldd       [%o0], %d62
    0x1000055b8:            81 c3 e0 08  retl
    0x1000055bc:            01 00 00 00  nop
    0x1000055c0:            86 01 60 01  add       %g5, 0x1, %g3
    0x1000055c4:            80 a0 e0 08  cmp       %g3, 0x8
    0x1000055c8:            06 60 00 39  bl,pn     %xcc, +0xe4   <0x1000056ac>
    0x1000055cc:            01 00 00 00  nop
    0x1000055d0:            ff 1a e0 00  ldd       [%o3], %d62
    0x1000055d4:            ed 1a e0 10  ldd       [%o3 + 0x10], %d22
    0x1000055d8:            fd 1a e0 08  ldd       [%o3 + 0x8], %d30
    0x1000055dc:            c1 1a e0 18  ldd       [%o3 + 0x18], %d0
    0x1000055e0:            d5 1a 20 00  ldd       [%o0], %d10
    0x1000055e4:            96 02 e0 20  add       %o3, 0x20, %o3
    0x1000055e8:            99 a7 89 46  fmuld     %d30, %d6, %d12
    0x1000055ec:            d1 1a 20 08  ldd       [%o0 + 0x8], %d8
    0x1000055f0:            94 02 20 18  add       %o0, 0x18, %o2
    0x1000055f4:            9a 21 60 03  sub       %g5, 0x3, %o5
    0x1000055f8:            85 a7 c9 46  fmuld     %d62, %d6, %d2
    0x1000055fc:            c9 1a 20 10  ldd       [%o0 + 0x10], %d4
    0x100005600:            98 10 20 04  mov       0x4, %o4
    0x100005604:            c1 6a e0 90  prefetch  [%o3 + 0x90], #n_reads
    0x100005608:            c1 6a a0 90  prefetch  [%o2 + 0x90], #n_reads
    0x10000560c:            98 03 20 04  add       %o4, 0x4, %o4
    0x100005610:            f1 1a e0 00  ldd       [%o3], %d24
    0x100005614:            96 02 e0 20  add       %o3, 0x20, %o3
    0x100005618:            85 a2 88 42  faddd     %d10, %d2, %d2
    0x10000561c:            80 a3 00 0d  cmp       %o4, %o5
    0x100005620:            f5 1a a0 00  ldd       [%o2], %d26
    0x100005624:            94 02 a0 20  add       %o2, 0x20, %o2
    0x100005628:            c5 3a bf c8  std       %d2, [%o2 - 0x38]
    0x10000562c:            ad a5 89 46  fmuld     %d22, %d6, %d22
    0x100005630:            91 a2 08 4c  faddd     %d8, %d12, %d8
    0x100005634:            d9 1a ff e8  ldd       [%o3 - 0x18], %d12
    0x100005638:            d5 1a bf e8  ldd       [%o2 - 0x18], %d10
    0x10000563c:            d1 3a bf d0  std       %d8, [%o2 - 0x30]
    0x100005640:            81 a0 09 46  fmuld     %d0, %d6, %d0
    0x100005644:            89 a1 08 56  faddd     %d4, %d22, %d4
    0x100005648:            ed 1a ff f0  ldd       [%o3 - 0x10], %d22
    0x10000564c:            d1 1a bf f0  ldd       [%o2 - 0x10], %d8
    0x100005650:            c9 3a bf d8  std       %d4, [%o2 - 0x28]
    0x100005654:            85 a6 09 46  fmuld     %d24, %d6, %d2
    0x100005658:            a9 a6 88 40  faddd     %d26, %d0, %d20
    0x10000565c:            c1 1a ff f8  ldd       [%o3 - 0x8], %d0
    0x100005660:            c9 1a bf f8  ldd       [%o2 - 0x8], %d4
    0x100005664:            e9 3a bf e0  std       %d20, [%o2 - 0x20]
    0x100005668:            04 6f ff e7  ble,pt    %xcc, -0x64   <0x100005604>
    0x10000566c:            99 a3 09 46  fmuld     %d12, %d6, %d12
    0x100005670:            9d a0 09 46  fmuld     %d0, %d6, %d14
    0x100005674:            e1 1a a0 00  ldd       [%o2], %d16
    0x100005678:            a9 a5 89 46  fmuld     %d22, %d6, %d20
    0x10000567c:            81 a2 08 4c  faddd     %d8, %d12, %d0
    0x100005680:            c1 3a bf f0  std       %d0, [%o2 - 0x10]
    0x100005684:            b5 a2 88 42  faddd     %d10, %d2, %d26
    0x100005688:            80 a3 00 05  cmp       %o4, %g5
    0x10000568c:            f5 3a bf e8  std       %d26, [%o2 - 0x18]
    0x100005690:            b1 a1 08 54  faddd     %d4, %d20, %d24
    0x100005694:            f1 3a bf f8  std       %d24, [%o2 - 0x8]
    0x100005698:            88 02 a0 08  add       %o2, 0x8, %g4
    0x10000569c:            b9 a4 08 4e  faddd     %d16, %d14, %d28
    0x1000056a0:            f9 3a a0 00  std       %d28, [%o2]
    0x1000056a4:            14 60 00 0d  bg,pn     %xcc, +0x34   <0x1000056d8>
    0x1000056a8:            01 00 00 00  nop
    0x1000056ac:            e1 1a e0 00  ldd       [%o3], %d16
    0x1000056b0:            9d a4 09 46  fmuld     %d16, %d6, %d14
    0x1000056b4:            f9 19 20 00  ldd       [%g4], %d28
    0x1000056b8:            98 03 20 01  add       %o4, 0x1, %o4
    0x1000056bc:            80 a3 00 05  cmp       %o4, %g5
    0x1000056c0:            96 02 e0 08  add       %o3, 0x8, %o3
    0x1000056c4:            bd a7 08 4e  faddd     %d28, %d14, %d30
    0x1000056c8:            fd 39 20 00  std       %d30, [%g4]
    0x1000056cc:            88 01 20 08  add       %g4, 0x8, %g4
    0x1000056d0:            24 6f ff f8  ble,a,pt  %xcc, -0x20   <0x1000056b0>
    0x1000056d4:            e1 1a e0 00  ldd       [%o3], %d16
    0x1000056d8:            81 c3 e0 08  retl
    0x1000056dc:            01 00 00 00  nop
BlockOwner()
    0x1000056e0:            09 00 04 00  sethi     %hi(0x100000), %g4
    0x1000056e4:            86 11 21 09  or        %g4, 0x109, %g3
    0x1000056e8:            85 28 f0 0c  sllx      %g3, 0xc, %g2
    0x1000056ec:            d8 58 a4 e0  ldx       [%g2 + 0x4e0], %o4
    0x1000056f0:            82 23 20 01  sub       %o4, 0x1, %g1
    0x1000056f4:            80 8b 00 01  btst      %g1, %o4
    0x1000056f8:            12 60 00 0c  bne,pn    %xcc, +0x30   <0x100005728>
    0x1000056fc:            96 02 00 09  add       %o0, %o1, %o3
    0x100005700:            02 c3 00 0a  brz,pn    %o4, +0x28    <0x100005728>
    0x100005704:            93 3a f0 3f  srax      %o3, 0x3f, %o1
    0x100005708:            98 1a c0 09  xor       %o3, %o1, %o4
    0x10000570c:            96 23 00 09  sub       %o4, %o1, %o3
    0x100005710:            90 8a c0 01  andcc     %o3, %g1, %o0
    0x100005714:            94 1a 00 09  xor       %o0, %o1, %o2
    0x100005718:            8a 22 80 09  sub       %o2, %o1, %g5
    0x10000571c:            91 66 50 05  movne     %xcc, %g5, %o0
    0x100005720:            81 c3 e0 08  retl
    0x100005724:            01 00 00 00  nop
    0x100005728:            9b 6a c0 0c  sdivx     %o3, %o4, %o5
    0x10000572c:            9a 4b 40 0c  mulx      %o5, %o4, %o5
    0x100005730:            81 c3 e0 08  retl
    0x100005734:            90 22 c0 0d  sub       %o3, %o5, %o0
BlockOwnerColumn()
    0x100005738:            09 00 04 00  sethi     %hi(0x100000), %g4
    0x10000573c:            86 11 21 09  or        %g4, 0x109, %g3
    0x100005740:            85 28 f0 0c  sllx      %g3, 0xc, %g2
    0x100005744:            d8 58 a4 e0  ldx       [%g2 + 0x4e0], %o4
    0x100005748:            82 23 20 01  sub       %o4, 0x1, %g1
    0x10000574c:            80 8b 00 01  btst      %g1, %o4
    0x100005750:            12 60 00 0c  bne,pn    %xcc, +0x30   <0x100005780>
    0x100005754:            01 00 00 00  nop
    0x100005758:            02 c3 00 0a  brz,pn    %o4, +0x28    <0x100005780>
    0x10000575c:            93 3a 30 3f  srax      %o0, 0x3f, %o1
    0x100005760:            98 1a 00 09  xor       %o0, %o1, %o4
    0x100005764:            96 23 00 09  sub       %o4, %o1, %o3
    0x100005768:            90 8a c0 01  andcc     %o3, %g1, %o0
    0x10000576c:            94 1a 00 09  xor       %o0, %o1, %o2
    0x100005770:            8a 22 80 09  sub       %o2, %o1, %g5
    0x100005774:            91 66 50 05  movne     %xcc, %g5, %o0
    0x100005778:            81 c3 e0 08  retl
    0x10000577c:            01 00 00 00  nop
    0x100005780:            9b 6a 00 0c  sdivx     %o0, %o4, %o5
    0x100005784:            9a 4b 40 0c  mulx      %o5, %o4, %o5
    0x100005788:            81 c3 e0 08  retl
    0x10000578c:            90 22 00 0d  sub       %o0, %o5, %o0
BlockOwnerRow()
    0x100005790:            19 00 04 00  sethi     %hi(0x100000), %o4
    0x100005794:            94 13 21 09  or        %o4, 0x109, %o2
    0x100005798:            89 2a b0 0c  sllx      %o2, 0xc, %g4
    0x10000579c:            c4 59 24 e0  ldx       [%g4 + 0x4e0], %g2
    0x1000057a0:            88 20 a0 01  sub       %g2, 0x1, %g4
    0x1000057a4:            86 88 80 04  andcc     %g2, %g4, %g3
    0x1000057a8:            12 60 00 0c  bne,pn    %xcc, +0x30   <0x1000057d8>
    0x1000057ac:            01 00 00 00  nop
    0x1000057b0:            02 c0 80 0a  brz,pn    %g2, +0x28    <0x1000057d8>
    0x1000057b4:            8b 3a 70 3f  srax      %o1, 0x3f, %g5
    0x1000057b8:            92 1a 40 05  xor       %o1, %g5, %o1
    0x1000057bc:            90 22 40 05  sub       %o1, %g5, %o0
    0x1000057c0:            96 8a 00 04  andcc     %o0, %g4, %o3
    0x1000057c4:            82 1a c0 05  xor       %o3, %g5, %g1
    0x1000057c8:            9a 20 40 05  sub       %g1, %g5, %o5
    0x1000057cc:            97 66 50 0d  movne     %xcc, %o5, %o3
    0x1000057d0:            10 80 00 06  ba        +0x18         <0x1000057e8>
    0x1000057d4:            83 30 b0 3f  srlx      %g2, 0x3f, %g1
    0x1000057d8:            97 6a 40 02  sdivx     %o1, %g2, %o3
    0x1000057dc:            94 4a c0 02  mulx      %o3, %g2, %o2
    0x1000057e0:            96 22 40 0a  sub       %o1, %o2, %o3
    0x1000057e4:            83 30 b0 3f  srlx      %g2, 0x3f, %g1
    0x1000057e8:            9a 00 80 01  add       %g2, %g1, %o5
    0x1000057ec:            99 3b 70 01  srax      %o5, 0x1, %o4
    0x1000057f0:            0a c0 c0 0c  brnz,pn   %g3, +0x30    <0x100005820>
    0x1000057f4:            86 02 c0 0c  add       %o3, %o4, %g3
    0x1000057f8:            02 c0 80 0a  brz,pn    %g2, +0x28    <0x100005820>
    0x1000057fc:            93 38 f0 3f  srax      %g3, 0x3f, %o1
    0x100005800:            98 18 c0 09  xor       %g3, %o1, %o4
    0x100005804:            96 23 00 09  sub       %o4, %o1, %o3
    0x100005808:            90 8a c0 04  andcc     %o3, %g4, %o0
    0x10000580c:            94 1a 00 09  xor       %o0, %o1, %o2
    0x100005810:            8a 22 80 09  sub       %o2, %o1, %g5
    0x100005814:            91 66 50 05  movne     %xcc, %g5, %o0
    0x100005818:            81 c3 e0 08  retl
    0x10000581c:            01 00 00 00  nop
    0x100005820:            9b 68 c0 02  sdivx     %g3, %g2, %o5
    0x100005824:            9a 4b 40 02  mulx      %o5, %g2, %o5
    0x100005828:            81 c3 e0 08  retl
    0x10000582c:            90 20 c0 0d  sub       %g3, %o5, %o0
    0x100005830:            43 30 00 00  call      +0xcc00000    <0x10cc05830>
    0x100005834:            00 00 00 00  illtrap   0x0
    0x100005838:            41 f0 00 00  call      +0x7c00000    <0x107c05838>
    0x10000583c:            00 00 00 00  illtrap   0x0
    0x100005840:            43 30 00 00  call      +0xcc00000    <0x10cc05840>
    0x100005844:            00 00 00 00  illtrap   0x0
    0x100005848:            00 00 00 00  illtrap   0x0
    0x10000584c:            00 00 00 00  illtrap   0x0
    0x100005850:            00 00 00 00  illtrap   0x0
    0x100005854:            00 00 00 00  illtrap   0x0
    0x100005858:            00 00 00 00  illtrap   0x0
    0x10000585c:            00 00 00 00  illtrap   0x0
lu()
    0x100005860:            9d e3 bc b0  save      %sp, -0x350, %sp
    0x100005864:            04 c6 05 97  brlez,pn  %i0, +0x165c  <0x100006ec0>
    0x100005868:            a4 10 00 18  mov       %i0, %l2
    0x10000586c:            21 00 04 00  sethi     %hi(0x100000), %l0
    0x100005870:            92 14 21 09  or        %l0, 0x109, %o1
    0x100005874:            97 2a 70 0c  sllx      %o1, 0xc, %o3
    0x100005878:            15 00 04 00  sethi     %hi(0x100000), %o2
    0x10000587c:            d6 73 a8 e7  stx       %o3, [%sp + 0x8e7]
    0x100005880:            96 12 a1 09  or        %o2, 0x109, %o3
    0x100005884:            99 2a f0 0c  sllx      %o3, 0xc, %o4
    0x100005888:            d8 73 a8 ef  stx       %o4, [%sp + 0x8ef]
    0x10000588c:            1b 00 04 00  sethi     %hi(0x100000), %o5
    0x100005890:            19 00 04 00  sethi     %hi(0x100000), %o4
    0x100005894:            f6 73 a8 cf  stx       %i3, [%sp + 0x8cf]
    0x100005898:            88 13 60 05  or        %o5, 0x5, %g4
    0x10000589c:            9e 13 21 0a  or        %o4, 0x10a, %o7
    0x1000058a0:            b6 10 20 00  clr       %i3
    0x1000058a4:            f0 73 a8 bf  stx       %i0, [%sp + 0x8bf]
    0x1000058a8:            90 10 20 00  clr       %o0
    0x1000058ac:            f2 73 a8 c7  stx       %i1, [%sp + 0x8c7]
    0x1000058b0:            ab 29 30 0c  sllx      %g4, 0xc, %l5
    0x1000058b4:            ea 73 a8 af  stx       %l5, [%sp + 0x8af]
    0x1000058b8:            9b 2b f0 0c  sllx      %o7, 0xc, %o5
    0x1000058bc:            c0 77 a6 ff  clrx      [%fp + 0x6ff]
    0x1000058c0:            b7 7f 34 01  movrne    %i4, 0x1, %i3
    0x1000058c4:            91 7e a4 01  movre     %i2, 0x1, %o0
    0x1000058c8:            da 73 a8 f7  stx       %o5, [%sp + 0x8f7]
    0x1000058cc:            9e 12 00 1b  or        %o0, %i3, %o7
    0x1000058d0:            de 23 a8 df  st        %o7, [%sp + 0x8df]
    0x1000058d4:            b0 05 68 30  add       %l5, 0x830, %i0
    0x1000058d8:            f0 73 a8 b7  stx       %i0, [%sp + 0x8b7]
    0x1000058dc:            a6 04 bf ff  add       %l2, -0x1, %l3
    0x1000058e0:            e6 73 a8 d7  stx       %l3, [%sp + 0x8d7]
    0x1000058e4:            a0 10 20 00  clr       %l0
    0x1000058e8:            c0 73 a9 57  clrx      [%sp + 0x957]
    0x1000058ec:            94 10 00 19  mov       %i1, %o2
    0x1000058f0:            d6 5b a8 bf  ldx       [%sp + 0x8bf], %o3
    0x1000058f4:            ae 04 00 0a  add       %l0, %o2, %l7
    0x1000058f8:            ee 73 a8 ff  stx       %l7, [%sp + 0x8ff]
    0x1000058fc:            80 a5 c0 0b  cmp       %l7, %o3
    0x100005900:            34 60 00 06  bg,a,pn   %xcc, +0x18   <0x100005918>
    0x100005904:            d6 77 a7 df  stx       %o3, [%fp + 0x7df]
    0x100005908:            d4 73 a9 07  stx       %o2, [%sp + 0x907]
    0x10000590c:            ee 77 a7 df  stx       %l7, [%fp + 0x7df]
    0x100005910:            10 80 00 05  ba        +0x14         <0x100005924>
    0x100005914:            31 00 04 00  sethi     %hi(0x100000), %i0
    0x100005918:            b6 22 c0 10  sub       %o3, %l0, %i3
    0x10000591c:            f6 73 a9 07  stx       %i3, [%sp + 0x907]
    0x100005920:            31 00 04 00  sethi     %hi(0x100000), %i0
    0x100005924:            96 16 21 0a  or        %i0, 0x10a, %o3
    0x100005928:            bb 2a f0 0c  sllx      %o3, 0xc, %i5
    0x10000592c:            02 c6 80 5a  brz,pn    %i2, +0x168   <0x100005a94>
    0x100005930:            fa 73 a9 5f  stx       %i5, [%sp + 0x95f]
    0x100005934:            0a c7 00 26  brnz,pn   %i4, +0x98    <0x1000059cc>
    0x100005938:            e4 5b a8 e7  ldx       [%sp + 0x8e7], %l2
    0x10000593c:            e6 5b a9 57  ldx       [%sp + 0x957], %l3
    0x100005940:            d0 5c a4 e0  ldx       [%l2 + 0x4e0], %o0
    0x100005944:            98 22 20 01  sub       %o0, 0x1, %o4
    0x100005948:            80 8a 00 0c  btst      %o4, %o0
    0x10000594c:            12 60 00 0c  bne,pn    %xcc, +0x30   <0x10000597c>
    0x100005950:            aa 04 c0 13  add       %l3, %l3, %l5
    0x100005954:            02 c2 00 0a  brz,pn    %o0, +0x28    <0x10000597c>
    0x100005958:            85 3d 70 3f  srax      %l5, 0x3f, %g2
    0x10000595c:            ba 1d 40 02  xor       %l5, %g2, %i5
    0x100005960:            ac 27 40 02  sub       %i5, %g2, %l6
    0x100005964:            88 8d 80 0c  andcc     %l6, %o4, %g4
    0x100005968:            b6 19 00 02  xor       %g4, %g2, %i3
    0x10000596c:            86 26 c0 02  sub       %i3, %g2, %g3
    0x100005970:            89 66 50 03  movne     %xcc, %g3, %g4
    0x100005974:            10 80 00 06  ba        +0x18         <0x10000598c>
    0x100005978:            80 a1 00 1a  cmp       %g4, %i2
    0x10000597c:            a3 6d 40 08  sdivx     %l5, %o0, %l1
    0x100005980:            a6 4c 40 08  mulx      %l1, %o0, %l3
    0x100005984:            88 25 40 13  sub       %l5, %l3, %g4
    0x100005988:            80 a1 00 1a  cmp       %g4, %i2
    0x10000598c:            12 60 01 25  bne,pn    %xcc, +0x494  <0x100005e20>
    0x100005990:            f0 5b a9 07  ldx       [%sp + 0x907], %i0
    0x100005994:            04 c6 01 23  brlez,pn  %i0, +0x48c   <0x100005e20>
    0x100005998:            ee 5b a9 5f  ldx       [%sp + 0x95f], %l7
    0x10000599c:            c8 5b a9 57  ldx       [%sp + 0x957], %g4
    0x1000059a0:            c4 5b a8 ef  ldx       [%sp + 0x8ef], %g2
    0x1000059a4:            ea 5d e1 28  ldx       [%l7 + 0x128], %l5
    0x1000059a8:            9a 06 3f ff  add       %i0, -0x1, %o5
    0x1000059ac:            e6 58 a6 90  ldx       [%g2 + 0x690], %l3
    0x1000059b0:            a8 49 00 15  mulx      %g4, %l5, %l4
    0x1000059b4:            b2 01 00 14  add       %g4, %l4, %i1
    0x1000059b8:            b1 2e 70 03  sllx      %i1, 0x3, %i0
    0x1000059bc:            d8 5c c0 18  ldx       [%l3 + %i0], %o4
    0x1000059c0:            ba 10 20 00  clr       %i5
    0x1000059c4:            10 80 00 66  ba        +0x198        <0x100005b5c>
    0x1000059c8:            e0 5b a9 07  ldx       [%sp + 0x907], %l0
    0x1000059cc:            92 10 20 00  clr       %o1
    0x1000059d0:            40 04 0d 44  call      +0x103510     <0x100108ee0>
    0x1000059d4:            90 07 a7 cf  add       %fp, 0x7cf, %o0
    0x1000059d8:            e8 5b a8 e7  ldx       [%sp + 0x8e7], %l4
    0x1000059dc:            f6 5f a7 cf  ldx       [%fp + 0x7cf], %i3
    0x1000059e0:            f2 5b a9 57  ldx       [%sp + 0x957], %i1
    0x1000059e4:            e0 5d 24 e0  ldx       [%l4 + 0x4e0], %l0
    0x1000059e8:            a5 2e f0 05  sllx      %i3, 0x5, %l2
    0x1000059ec:            92 06 40 19  add       %i1, %i1, %o1
    0x1000059f0:            a8 26 c0 12  sub       %i3, %l2, %l4
    0x1000059f4:            b3 2d 30 09  sllx      %l4, 0x9, %i1
    0x1000059f8:            ac 26 40 1b  sub       %i1, %i3, %l6
    0x1000059fc:            b1 2d b0 06  sllx      %l6, 0x6, %i0
    0x100005a00:            84 26 00 16  sub       %i0, %l6, %g2
    0x100005a04:            a6 24 20 01  sub       %l0, 0x1, %l3
    0x100005a08:            c8 5f a7 d7  ldx       [%fp + 0x7d7], %g4
    0x100005a0c:            86 26 c0 02  sub       %i3, %g2, %g3
    0x100005a10:            80 8c 00 13  btst      %l3, %l0
    0x100005a14:            8a 01 00 03  add       %g4, %g3, %g5
    0x100005a18:            12 60 00 0c  bne,pn    %xcc, +0x30   <0x100005a48>
    0x100005a1c:            ca 77 a7 c7  stx       %g5, [%fp + 0x7c7]
    0x100005a20:            02 c4 00 0a  brz,pn    %l0, +0x28    <0x100005a48>
    0x100005a24:            99 3a 70 3f  srax      %o1, 0x3f, %o4
    0x100005a28:            92 1a 40 0c  xor       %o1, %o4, %o1
    0x100005a2c:            94 22 40 0c  sub       %o1, %o4, %o2
    0x100005a30:            9e 8a 80 13  andcc     %o2, %l3, %o7
    0x100005a34:            96 1b c0 0c  xor       %o7, %o4, %o3
    0x100005a38:            9a 22 c0 0c  sub       %o3, %o4, %o5
    0x100005a3c:            9f 66 50 0d  movne     %xcc, %o5, %o7
    0x100005a40:            10 80 00 06  ba        +0x18         <0x100005a58>
    0x100005a44:            80 a3 c0 1a  cmp       %o7, %i2
    0x100005a48:            8b 6a 40 10  sdivx     %o1, %l0, %g5
    0x100005a4c:            90 49 40 10  mulx      %g5, %l0, %o0
    0x100005a50:            9e 22 40 08  sub       %o1, %o0, %o7
    0x100005a54:            80 a3 c0 1a  cmp       %o7, %i2
    0x100005a58:            12 60 00 e4  bne,pn    %xcc, +0x390  <0x100005de8>
    0x100005a5c:            ee 5b a9 07  ldx       [%sp + 0x907], %l7
    0x100005a60:            04 c5 c0 e2  brlez,pn  %l7, +0x388   <0x100005de8>
    0x100005a64:            f6 5f 61 28  ldx       [%i5 + 0x128], %i3
    0x100005a68:            fa 5b a9 57  ldx       [%sp + 0x957], %i5
    0x100005a6c:            e8 5b a8 ef  ldx       [%sp + 0x8ef], %l4
    0x100005a70:            9a 05 ff ff  add       %l7, -0x1, %o5
    0x100005a74:            9e 4f 40 1b  mulx      %i5, %i3, %o7
    0x100005a78:            e4 5d 26 90  ldx       [%l4 + 0x690], %l2
    0x100005a7c:            ae 07 40 0f  add       %i5, %o7, %l7
    0x100005a80:            91 2d f0 03  sllx      %l7, 0x3, %o0
    0x100005a84:            d8 5c 80 08  ldx       [%l2 + %o0], %o4
    0x100005a88:            ba 10 20 00  clr       %i5
    0x100005a8c:            10 80 00 34  ba        +0xd0         <0x100005b5c>
    0x100005a90:            e0 5b a9 07  ldx       [%sp + 0x907], %l0
    0x100005a94:            92 10 20 00  clr       %o1
    0x100005a98:            40 04 0d 12  call      +0x103448     <0x100108ee0>
    0x100005a9c:            90 07 a7 cf  add       %fp, 0x7cf, %o0
    0x100005aa0:            ec 5b a9 57  ldx       [%sp + 0x957], %l6
    0x100005aa4:            d0 5f a7 cf  ldx       [%fp + 0x7cf], %o0
    0x100005aa8:            e6 5b a8 e7  ldx       [%sp + 0x8e7], %l3
    0x100005aac:            a2 05 80 16  add       %l6, %l6, %l1
    0x100005ab0:            ad 2a 30 05  sllx      %o0, 0x5, %l6
    0x100005ab4:            ae 22 00 16  sub       %o0, %l6, %l7
    0x100005ab8:            85 2d f0 09  sllx      %l7, 0x9, %g2
    0x100005abc:            88 20 80 08  sub       %g2, %o0, %g4
    0x100005ac0:            87 29 30 06  sllx      %g4, 0x6, %g3
    0x100005ac4:            8a 20 c0 04  sub       %g3, %g4, %g5
    0x100005ac8:            e8 5c e4 e0  ldx       [%l3 + 0x4e0], %l4
    0x100005acc:            aa 22 00 05  sub       %o0, %g5, %l5
    0x100005ad0:            de 5f a7 d7  ldx       [%fp + 0x7d7], %o7
    0x100005ad4:            92 25 20 01  sub       %l4, 0x1, %o1
    0x100005ad8:            80 8d 00 09  btst      %o1, %l4
    0x100005adc:            94 03 c0 15  add       %o7, %l5, %o2
    0x100005ae0:            12 60 00 0c  bne,pn    %xcc, +0x30   <0x100005b10>
    0x100005ae4:            d4 77 a7 c7  stx       %o2, [%fp + 0x7c7]
    0x100005ae8:            02 c5 00 0a  brz,pn    %l4, +0x28    <0x100005b10>
    0x100005aec:            b3 3c 70 3f  srax      %l1, 0x3f, %i1
    0x100005af0:            a4 1c 40 19  xor       %l1, %i1, %l2
    0x100005af4:            aa 24 80 19  sub       %l2, %i1, %l5
    0x100005af8:            ba 8d 40 09  andcc     %l5, %o1, %i5
    0x100005afc:            a8 1f 40 19  xor       %i5, %i1, %l4
    0x100005b00:            b0 25 00 19  sub       %l4, %i1, %i0
    0x100005b04:            bb 66 50 18  movne     %xcc, %i0, %i5
    0x100005b08:            10 80 00 06  ba        +0x18         <0x100005b20>
    0x100005b0c:            80 a7 40 1a  cmp       %i5, %i2
    0x100005b10:            af 6c 40 14  sdivx     %l1, %l4, %l7
    0x100005b14:            90 4d c0 14  mulx      %l7, %l4, %o0
    0x100005b18:            ba 24 40 08  sub       %l1, %o0, %i5
    0x100005b1c:            80 a7 40 1a  cmp       %i5, %i2
    0x100005b20:            12 60 00 b2  bne,pn    %xcc, +0x2c8  <0x100005de8>
    0x100005b24:            e8 5b a9 07  ldx       [%sp + 0x907], %l4
    0x100005b28:            04 c5 00 b0  brlez,pn  %l4, +0x2c0   <0x100005de8>
    0x100005b2c:            ec 5b a9 5f  ldx       [%sp + 0x95f], %l6
    0x100005b30:            d4 5b a9 57  ldx       [%sp + 0x957], %o2
    0x100005b34:            d0 5b a8 ef  ldx       [%sp + 0x8ef], %o0
    0x100005b38:            ec 5d a1 28  ldx       [%l6 + 0x128], %l6
    0x100005b3c:            e0 5b a9 07  ldx       [%sp + 0x907], %l0
    0x100005b40:            fa 5a 26 90  ldx       [%o0 + 0x690], %i5
    0x100005b44:            84 4a 80 16  mulx      %o2, %l6, %g2
    0x100005b48:            86 02 80 02  add       %o2, %g2, %g3
    0x100005b4c:            a3 28 f0 03  sllx      %g3, 0x3, %l1
    0x100005b50:            9a 05 3f ff  add       %l4, -0x1, %o5
    0x100005b54:            d8 5f 40 11  ldx       [%i5 + %l1], %o4
    0x100005b58:            ba 10 20 00  clr       %i5
    0x100005b5c:            87 2c 30 03  sllx      %l0, 0x3, %g3
    0x100005b60:            88 00 ff f8  add       %g3, -0x8, %g4
    0x100005b64:            84 00 c0 0c  add       %g3, %o4, %g2
    0x100005b68:            ae 00 e0 08  add       %g3, 0x8, %l7
    0x100005b6c:            8a 04 3f ff  add       %l0, -0x1, %g5
    0x100005b70:            ba 07 60 01  add       %i5, 0x1, %i5
    0x100005b74:            e0 5b a9 07  ldx       [%sp + 0x907], %l0
    0x100005b78:            80 a7 40 10  cmp       %i5, %l0
    0x100005b7c:            16 60 00 90  bge,pn    %xcc, +0x240  <0x100005dbc>
    0x100005b80:            ac 10 00 1d  mov       %i5, %l6
    0x100005b84:            a8 03 20 08  add       %o4, 0x8, %l4
    0x100005b88:            90 10 00 02  mov       %g2, %o0
    0x100005b8c:            f7 1b 20 00  ldd       [%o4], %d58
    0x100005b90:            a6 01 7f ff  add       %g5, -0x1, %l3
    0x100005b94:            df 1a 20 00  ldd       [%o0], %d46
    0x100005b98:            ab a3 c9 db  fdivd     %d46, %d58, %d52
    0x100005b9c:            04 c1 40 83  brlez,pn  %g5, +0x20c   <0x100005da8>
    0x100005ba0:            eb 3a 20 00  std       %d52, [%o0]
    0x100005ba4:            80 a4 e0 03  cmp       %l3, 0x3
    0x100005ba8:            96 02 20 08  add       %o0, 0x8, %o3
    0x100005bac:            06 60 00 09  bl,pn     %xcc, +0x24   <0x100005bd0>
    0x100005bb0:            a3 a0 00 d5  fnegd     %d52, %d48
    0x100005bb4:            a2 22 c0 14  sub       %o3, %l4, %l1
    0x100005bb8:            95 3c 70 3f  srax      %l1, 0x3f, %o2
    0x100005bbc:            b0 1c 40 0a  xor       %l1, %o2, %i0
    0x100005bc0:            92 26 00 0a  sub       %i0, %o2, %o1
    0x100005bc4:            80 a2 40 04  cmp       %o1, %g4
    0x100005bc8:            16 68 00 32  bge,pt    %xcc, +0xc8   <0x100005c90>
    0x100005bcc:            01 00 00 00  nop
    0x100005bd0:            80 a1 60 04  cmp       %g5, 0x4
    0x100005bd4:            b6 10 20 00  clr       %i3
    0x100005bd8:            94 10 00 14  mov       %l4, %o2
    0x100005bdc:            06 60 00 20  bl,pn     %xcc, +0x80   <0x100005c5c>
    0x100005be0:            01 00 00 00  nop
    0x100005be4:            b0 01 7f fc  add       %g5, -0x4, %i0
    0x100005be8:            c1 6a e1 10  prefetch  [%o3 + 0x110], #n_reads
    0x100005bec:            b6 06 e0 04  add       %i3, 0x4, %i3
    0x100005bf0:            fd 1a a0 00  ldd       [%o2], %d30
    0x100005bf4:            94 02 a0 20  add       %o2, 0x20, %o2
    0x100005bf8:            80 a6 c0 18  cmp       %i3, %i0
    0x100005bfc:            96 02 e0 20  add       %o3, 0x20, %o3
    0x100005c00:            b1 a7 89 51  fmuld     %d30, %d48, %d24
    0x100005c04:            eb 1a ff e0  ldd       [%o3 - 0x20], %d52
    0x100005c08:            93 a5 48 58  faddd     %d52, %d24, %d40
    0x100005c0c:            d3 3a ff e0  std       %d40, [%o3 - 0x20]
    0x100005c10:            f5 1a bf e8  ldd       [%o2 - 0x18], %d26
    0x100005c14:            bb a6 89 51  fmuld     %d26, %d48, %d60
    0x100005c18:            f7 1a ff e8  ldd       [%o3 - 0x18], %d58
    0x100005c1c:            af a6 c8 5d  faddd     %d58, %d60, %d54
    0x100005c20:            ef 3a ff e8  std       %d54, [%o3 - 0x18]
    0x100005c24:            ff 1a bf f0  ldd       [%o2 - 0x10], %d62
    0x100005c28:            9f a7 c9 51  fmuld     %d62, %d48, %d46
    0x100005c2c:            f9 1a ff f0  ldd       [%o3 - 0x10], %d28
    0x100005c30:            9b a7 08 4f  faddd     %d28, %d46, %d44
    0x100005c34:            db 3a ff f0  std       %d44, [%o3 - 0x10]
    0x100005c38:            e7 1a bf f8  ldd       [%o2 - 0x8], %d50
    0x100005c3c:            97 a4 c9 51  fmuld     %d50, %d48, %d42
    0x100005c40:            f3 1a ff f8  ldd       [%o3 - 0x8], %d56
    0x100005c44:            bd a6 48 4b  faddd     %d56, %d42, %d30
    0x100005c48:            04 6f ff e8  ble,pt    %xcc, -0x60   <0x100005be8>
    0x100005c4c:            fd 3a ff f8  std       %d30, [%o3 - 0x8]
    0x100005c50:            80 a6 c0 13  cmp       %i3, %l3
    0x100005c54:            14 60 00 0d  bg,pn     %xcc, +0x34   <0x100005c88>
    0x100005c58:            01 00 00 00  nop
    0x100005c5c:            eb 1a a0 00  ldd       [%o2], %d52
    0x100005c60:            b9 a5 49 51  fmuld     %d52, %d48, %d28
    0x100005c64:            fb 1a e0 00  ldd       [%o3], %d60
    0x100005c68:            b6 06 e0 01  add       %i3, 0x1, %i3
    0x100005c6c:            80 a6 c0 13  cmp       %i3, %l3
    0x100005c70:            94 02 a0 08  add       %o2, 0x8, %o2
    0x100005c74:            93 a7 48 5c  faddd     %d60, %d28, %d40
    0x100005c78:            d3 3a e0 00  std       %d40, [%o3]
    0x100005c7c:            96 02 e0 08  add       %o3, 0x8, %o3
    0x100005c80:            24 6f ff f8  ble,a,pt  %xcc, -0x20   <0x100005c60>
    0x100005c84:            eb 1a a0 00  ldd       [%o2], %d52
    0x100005c88:            10 80 00 49  ba        +0x124        <0x100005dac>
    0x100005c8c:            ac 05 a0 01  add       %l6, 0x1, %l6
    0x100005c90:            80 a1 60 08  cmp       %g5, 0x8
    0x100005c94:            a0 10 20 00  clr       %l0
    0x100005c98:            a2 10 00 14  mov       %l4, %l1
    0x100005c9c:            06 60 00 38  bl,pn     %xcc, +0xe0   <0x100005d7c>
    0x100005ca0:            01 00 00 00  nop
    0x100005ca4:            f5 1b 20 10  ldd       [%o4 + 0x10], %d26
    0x100005ca8:            fb 1b 20 08  ldd       [%o4 + 0x8], %d60
    0x100005cac:            eb 1b 20 18  ldd       [%o4 + 0x18], %d52
    0x100005cb0:            f1 1b 20 20  ldd       [%o4 + 0x20], %d24
    0x100005cb4:            d3 1a 20 08  ldd       [%o0 + 0x8], %d40
    0x100005cb8:            a2 03 20 28  add       %o4, 0x28, %l1
    0x100005cbc:            97 a6 89 51  fmuld     %d26, %d48, %d42
    0x100005cc0:            fd 1a 20 10  ldd       [%o0 + 0x10], %d30
    0x100005cc4:            9e 02 20 20  add       %o0, 0x20, %o7
    0x100005cc8:            a0 10 20 04  mov       0x4, %l0
    0x100005ccc:            b5 a7 49 51  fmuld     %d60, %d48, %d26
    0x100005cd0:            f9 1a 20 18  ldd       [%o0 + 0x18], %d28
    0x100005cd4:            92 01 7f fc  add       %g5, -0x4, %o1
    0x100005cd8:            c1 6b e1 10  prefetch  [%o7 + 0x110], #n_reads
    0x100005cdc:            a0 04 20 04  add       %l0, 0x4, %l0
    0x100005ce0:            df 1c 60 00  ldd       [%l1], %d46
    0x100005ce4:            a2 04 60 20  add       %l1, 0x20, %l1
    0x100005ce8:            b7 a2 48 5a  faddd     %d40, %d26, %d58
    0x100005cec:            80 a4 00 09  cmp       %l0, %o1
    0x100005cf0:            db 1b e0 00  ldd       [%o7], %d44
    0x100005cf4:            9e 03 e0 20  add       %o7, 0x20, %o7
    0x100005cf8:            f7 3b ff c8  std       %d58, [%o7 - 0x38]
    0x100005cfc:            bf a5 49 51  fmuld     %d52, %d48, %d62
    0x100005d00:            af a7 88 4b  faddd     %d30, %d42, %d54
    0x100005d04:            d7 1c 7f e8  ldd       [%l1 - 0x18], %d42
    0x100005d08:            d3 1b ff e8  ldd       [%o7 - 0x18], %d40
    0x100005d0c:            ef 3b ff d0  std       %d54, [%o7 - 0x30]
    0x100005d10:            a7 a6 09 51  fmuld     %d24, %d48, %d50
    0x100005d14:            b9 a7 08 5f  faddd     %d28, %d62, %d28
    0x100005d18:            eb 1c 7f f0  ldd       [%l1 - 0x10], %d52
    0x100005d1c:            fd 1b ff f0  ldd       [%o7 - 0x10], %d30
    0x100005d20:            f9 3b ff d8  std       %d28, [%o7 - 0x28]
    0x100005d24:            b5 a3 c9 51  fmuld     %d46, %d48, %d26
    0x100005d28:            b3 a3 48 53  faddd     %d44, %d50, %d56
    0x100005d2c:            f1 1c 7f f8  ldd       [%l1 - 0x8], %d24
    0x100005d30:            f9 1b ff f8  ldd       [%o7 - 0x8], %d28
    0x100005d34:            f3 3b ff e0  std       %d56, [%o7 - 0x20]
    0x100005d38:            04 6f ff e8  ble,pt    %xcc, -0x60   <0x100005cd8>
    0x100005d3c:            97 a2 c9 51  fmuld     %d42, %d48, %d42
    0x100005d40:            9b a6 09 51  fmuld     %d24, %d48, %d44
    0x100005d44:            df 1b e0 00  ldd       [%o7], %d46
    0x100005d48:            ab a5 49 51  fmuld     %d52, %d48, %d52
    0x100005d4c:            97 a7 88 4b  faddd     %d30, %d42, %d42
    0x100005d50:            d7 3b ff f0  std       %d42, [%o7 - 0x10]
    0x100005d54:            93 a2 48 5a  faddd     %d40, %d26, %d40
    0x100005d58:            80 a4 00 13  cmp       %l0, %l3
    0x100005d5c:            d3 3b ff e8  std       %d40, [%o7 - 0x18]
    0x100005d60:            b1 a7 08 55  faddd     %d28, %d52, %d24
    0x100005d64:            f1 3b ff f8  std       %d24, [%o7 - 0x8]
    0x100005d68:            96 03 e0 08  add       %o7, 0x8, %o3
    0x100005d6c:            b3 a3 c8 4d  faddd     %d46, %d44, %d56
    0x100005d70:            f3 3b e0 00  std       %d56, [%o7]
    0x100005d74:            14 60 00 0d  bg,pn     %xcc, +0x34   <0x100005da8>
    0x100005d78:            01 00 00 00  nop
    0x100005d7c:            ff 1c 60 00  ldd       [%l1], %d62
    0x100005d80:            b5 a7 c9 51  fmuld     %d62, %d48, %d26
    0x100005d84:            f7 1a e0 00  ldd       [%o3], %d58
    0x100005d88:            a0 04 20 01  add       %l0, 0x1, %l0
    0x100005d8c:            80 a4 00 13  cmp       %l0, %l3
    0x100005d90:            a2 04 60 08  add       %l1, 0x8, %l1
    0x100005d94:            9f a6 c8 5a  faddd     %d58, %d26, %d46
    0x100005d98:            df 3a e0 00  std       %d46, [%o3]
    0x100005d9c:            96 02 e0 08  add       %o3, 0x8, %o3
    0x100005da0:            24 6f ff f8  ble,a,pt  %xcc, -0x20   <0x100005d80>
    0x100005da4:            ff 1c 60 00  ldd       [%l1], %d62
    0x100005da8:            ac 05 a0 01  add       %l6, 0x1, %l6
    0x100005dac:            80 a5 80 0d  cmp       %l6, %o5
    0x100005db0:            90 02 00 03  add       %o0, %g3, %o0
    0x100005db4:            24 6f ff 78  ble,a,pt  %xcc, -0x220  <0x100005b94>
    0x100005db8:            f7 1b 20 00  ldd       [%o4], %d58
    0x100005dbc:            80 a7 40 0d  cmp       %i5, %o5
    0x100005dc0:            98 03 00 17  add       %o4, %l7, %o4
    0x100005dc4:            84 00 80 17  add       %g2, %l7, %g2
    0x100005dc8:            88 01 3f f8  add       %g4, -0x8, %g4
    0x100005dcc:            8a 21 60 01  sub       %g5, 0x1, %g5
    0x100005dd0:            04 6f ff 69  ble,pt    %xcc, -0x25c  <0x100005b74>
    0x100005dd4:            ba 07 60 01  add       %i5, 0x1, %i5
    0x100005dd8:            e4 03 a8 df  ld        [%sp + 0x8df], %l2
    0x100005ddc:            80 90 00 12  tst       %l2
    0x100005de0:            22 48 00 11  be,a,pt   %icc, +0x44   <0x100005e24>
    0x100005de4:            d0 5b a8 f7  ldx       [%sp + 0x8f7], %o0
    0x100005de8:            92 10 20 00  clr       %o1
    0x100005dec:            40 04 0c 3d  call      +0x1030f4     <0x100108ee0>
    0x100005df0:            90 07 a7 b7  add       %fp, 0x7b7, %o0
    0x100005df4:            f6 5f a7 b7  ldx       [%fp + 0x7b7], %i3
    0x100005df8:            fa 5f a7 bf  ldx       [%fp + 0x7bf], %i5
    0x100005dfc:            b1 2e f0 05  sllx      %i3, 0x5, %i0
    0x100005e00:            96 26 c0 18  sub       %i3, %i0, %o3
    0x100005e04:            9b 2a f0 09  sllx      %o3, 0x9, %o5
    0x100005e08:            a0 23 40 1b  sub       %o5, %i3, %l0
    0x100005e0c:            99 2c 30 06  sllx      %l0, 0x6, %o4
    0x100005e10:            a4 23 00 10  sub       %o4, %l0, %l2
    0x100005e14:            a6 26 c0 12  sub       %i3, %l2, %l3
    0x100005e18:            b2 07 40 13  add       %i5, %l3, %i1
    0x100005e1c:            f2 77 a7 af  stx       %i1, [%fp + 0x7af]
    0x100005e20:            d0 5b a8 f7  ldx       [%sp + 0x8f7], %o0
    0x100005e24:            e2 5a 21 30  ldx       [%o0 + 0x130], %l1
    0x100005e28:            40 04 0c 86  call      +0x103218     <0x100109040>
    0x100005e2c:            90 04 60 50  add       %l1, 0x50, %o0
    0x100005e30:            0a c2 04 26  brnz,pn   %o0, +0x1098  <0x100006ec8>
    0x100005e34:            ca 5b a8 f7  ldx       [%sp + 0x8f7], %g5
    0x100005e38:            e8 59 61 30  ldx       [%g5 + 0x130], %l4
    0x100005e3c:            c8 5d 20 78  ldx       [%l4 + 0x78], %g4
    0x100005e40:            e2 5b a8 e7  ldx       [%sp + 0x8e7], %l1
    0x100005e44:            8a 01 20 01  add       %g4, 0x1, %g5
    0x100005e48:            ca 75 20 78  stx       %g5, [%l4 + 0x78]
    0x100005e4c:            d0 5c 64 e0  ldx       [%l1 + 0x4e0], %o0
    0x100005e50:            ea 5d 20 80  ldx       [%l4 + 0x80], %l5
    0x100005e54:            80 a1 40 08  cmp       %g5, %o0
    0x100005e58:            02 60 00 19  be,pn     %xcc, +0x64   <0x100005ebc>
    0x100005e5c:            90 10 20 01  mov       0x1, %o0
    0x100005e60:            40 04 0c b8  call      +0x1032e0     <0x100109140>
    0x100005e64:            92 07 a7 a7  add       %fp, 0x7a7, %o1
    0x100005e68:            c8 5b a8 f7  ldx       [%sp + 0x8f7], %g4
    0x100005e6c:            c6 59 21 30  ldx       [%g4 + 0x130], %g3
    0x100005e70:            c4 58 e0 80  ldx       [%g3 + 0x80], %g2
    0x100005e74:            80 a5 40 02  cmp       %l5, %g2
    0x100005e78:            12 60 00 0b  bne,pn    %xcc, +0x2c   <0x100005ea4>
    0x100005e7c:            92 00 e0 50  add       %g3, 0x50, %o1
    0x100005e80:            40 04 0c b8  call      +0x1032e0     <0x100109160>
    0x100005e84:            90 00 e0 68  add       %g3, 0x68, %o0
    0x100005e88:            0a c2 00 07  brnz,pn   %o0, +0x1c    <0x100005ea4>
    0x100005e8c:            c6 5b a8 f7  ldx       [%sp + 0x8f7], %g3
    0x100005e90:            c6 58 e1 30  ldx       [%g3 + 0x130], %g3
    0x100005e94:            ee 58 e0 80  ldx       [%g3 + 0x80], %l7
    0x100005e98:            80 a5 40 17  cmp       %l5, %l7
    0x100005e9c:            02 6f ff f9  be,pt     %xcc, -0x1c   <0x100005e80>
    0x100005ea0:            92 00 e0 50  add       %g3, 0x50, %o1
    0x100005ea4:            ec 07 a7 ab  ld        [%fp + 0x7ab], %l6
    0x100005ea8:            92 07 a7 9f  add       %fp, 0x79f, %o1
    0x100005eac:            40 04 0c a5  call      +0x103294     <0x100109140>
    0x100005eb0:            91 3d a0 00  sra       %l6, 0x0, %o0
    0x100005eb4:            10 80 00 09  ba        +0x24         <0x100005ed8>
    0x100005eb8:            f0 5b a8 f7  ldx       [%sp + 0x8f7], %i0
    0x100005ebc:            b2 10 20 00  clr       %i1
    0x100005ec0:            b3 7d 64 01  movre     %l5, 0x1, %i1
    0x100005ec4:            f2 75 20 80  stx       %i1, [%l4 + 0x80]
    0x100005ec8:            90 05 20 68  add       %l4, 0x68, %o0
    0x100005ecc:            40 04 0c ad  call      +0x1032b4     <0x100109180>
    0x100005ed0:            c0 75 20 78  clrx      [%l4 + 0x78]
    0x100005ed4:            f0 5b a8 f7  ldx       [%sp + 0x8f7], %i0
    0x100005ed8:            f6 5e 21 30  ldx       [%i0 + 0x130], %i3
    0x100005edc:            40 04 0c 61  call      +0x103184     <0x100109060>
    0x100005ee0:            90 06 e0 50  add       %i3, 0x50, %o0
    0x100005ee4:            f2 5b a9 57  ldx       [%sp + 0x957], %i1
    0x100005ee8:            a0 06 60 01  add       %i1, 0x1, %l0
    0x100005eec:            02 c6 80 30  brz,pn    %i2, +0xc0    <0x100005fac>
    0x100005ef0:            e0 73 a9 0f  stx       %l0, [%sp + 0x90f]
    0x100005ef4:            02 c7 00 1e  brz,pn    %i4, +0x78    <0x100005f6c>
    0x100005ef8:            92 10 20 00  clr       %o1
    0x100005efc:            40 04 0b f9  call      +0x102fe4     <0x100108ee0>
    0x100005f00:            90 07 a7 8f  add       %fp, 0x78f, %o0
    0x100005f04:            fa 5f a7 8f  ldx       [%fp + 0x78f], %i5
    0x100005f08:            f6 5f a7 df  ldx       [%fp + 0x7df], %i3
    0x100005f0c:            ea 5b a8 bf  ldx       [%sp + 0x8bf], %l5
    0x100005f10:            8b 2f 70 05  sllx      %i5, 0x5, %g5
    0x100005f14:            92 27 40 05  sub       %i5, %g5, %o1
    0x100005f18:            a3 2a 70 09  sllx      %o1, 0x9, %l1
    0x100005f1c:            96 24 40 1d  sub       %l1, %i5, %o3
    0x100005f20:            a7 2a f0 06  sllx      %o3, 0x6, %l3
    0x100005f24:            9e 24 c0 0b  sub       %l3, %o3, %o7
    0x100005f28:            da 5f a7 97  ldx       [%fp + 0x797], %o5
    0x100005f2c:            ae 27 40 0f  sub       %i5, %o7, %l7
    0x100005f30:            80 a6 c0 15  cmp       %i3, %l5
    0x100005f34:            94 03 40 17  add       %o5, %l7, %o2
    0x100005f38:            16 60 02 05  bge,pn    %xcc, +0x814  <0x10000674c>
    0x100005f3c:            d4 77 a7 87  stx       %o2, [%fp + 0x787]
    0x100005f40:            d0 5b a9 5f  ldx       [%sp + 0x95f], %o0
    0x100005f44:            d2 5b a8 ef  ldx       [%sp + 0x8ef], %o1
    0x100005f48:            e6 5a 21 28  ldx       [%o0 + 0x128], %l3
    0x100005f4c:            c6 5a 66 90  ldx       [%o1 + 0x690], %g3
    0x100005f50:            ba 4e 40 13  mulx      %i1, %l3, %i5
    0x100005f54:            ac 06 40 1d  add       %i1, %i5, %l6
    0x100005f58:            85 2d b0 03  sllx      %l6, 0x3, %g2
    0x100005f5c:            d6 58 c0 02  ldx       [%g3 + %g2], %o3
    0x100005f60:            d6 73 a9 67  stx       %o3, [%sp + 0x967]
    0x100005f64:            10 80 00 2f  ba        +0xbc         <0x100006020>
    0x100005f68:            d0 5b a8 e7  ldx       [%sp + 0x8e7], %o0
    0x100005f6c:            f6 5f a7 df  ldx       [%fp + 0x7df], %i3
    0x100005f70:            de 5b a8 bf  ldx       [%sp + 0x8bf], %o7
    0x100005f74:            80 a6 c0 0f  cmp       %i3, %o7
    0x100005f78:            16 60 02 03  bge,pn    %xcc, +0x80c  <0x100006784>
    0x100005f7c:            d8 5b a9 5f  ldx       [%sp + 0x95f], %o4
    0x100005f80:            da 5b a8 ef  ldx       [%sp + 0x8ef], %o5
    0x100005f84:            e2 5b 21 28  ldx       [%o4 + 0x128], %l1
    0x100005f88:            e0 5b 66 90  ldx       [%o5 + 0x690], %l0
    0x100005f8c:            ba 4e 40 11  mulx      %i1, %l1, %i5
    0x100005f90:            88 06 40 1d  add       %i1, %i5, %g4
    0x100005f94:            8b 29 30 03  sllx      %g4, 0x3, %g5
    0x100005f98:            f0 5c 00 05  ldx       [%l0 + %g5], %i0
    0x100005f9c:            e0 5b a9 0f  ldx       [%sp + 0x90f], %l0
    0x100005fa0:            f0 73 a9 67  stx       %i0, [%sp + 0x967]
    0x100005fa4:            10 80 00 1f  ba        +0x7c         <0x100006020>
    0x100005fa8:            d0 5b a8 e7  ldx       [%sp + 0x8e7], %o0
    0x100005fac:            92 10 20 00  clr       %o1
    0x100005fb0:            40 04 0b cc  call      +0x102f30     <0x100108ee0>
    0x100005fb4:            90 07 a7 8f  add       %fp, 0x78f, %o0
    0x100005fb8:            fa 5f a7 8f  ldx       [%fp + 0x78f], %i5
    0x100005fbc:            f6 5f a7 df  ldx       [%fp + 0x7df], %i3
    0x100005fc0:            e0 5f a7 97  ldx       [%fp + 0x797], %l0
    0x100005fc4:            a3 2f 70 05  sllx      %i5, 0x5, %l1
    0x100005fc8:            aa 27 40 11  sub       %i5, %l1, %l5
    0x100005fcc:            a9 2d 70 09  sllx      %l5, 0x9, %l4
    0x100005fd0:            96 25 00 1d  sub       %l4, %i5, %o3
    0x100005fd4:            b1 2a f0 06  sllx      %o3, 0x6, %i0
    0x100005fd8:            9a 26 00 0b  sub       %i0, %o3, %o5
    0x100005fdc:            ea 5b a8 bf  ldx       [%sp + 0x8bf], %l5
    0x100005fe0:            98 27 40 0d  sub       %i5, %o5, %o4
    0x100005fe4:            a4 04 00 0c  add       %l0, %o4, %l2
    0x100005fe8:            80 a6 c0 15  cmp       %i3, %l5
    0x100005fec:            16 60 01 d8  bge,pn    %xcc, +0x760  <0x10000674c>
    0x100005ff0:            e4 77 a7 87  stx       %l2, [%fp + 0x787]
    0x100005ff4:            ea 5b a9 5f  ldx       [%sp + 0x95f], %l5
    0x100005ff8:            e4 5b a8 ef  ldx       [%sp + 0x8ef], %l2
    0x100005ffc:            d0 5b a8 e7  ldx       [%sp + 0x8e7], %o0
    0x100006000:            d2 5d 61 28  ldx       [%l5 + 0x128], %o1
    0x100006004:            d8 5c a6 90  ldx       [%l2 + 0x690], %o4
    0x100006008:            e0 5b a9 0f  ldx       [%sp + 0x90f], %l0
    0x10000600c:            ba 4e 40 09  mulx      %i1, %o1, %i5
    0x100006010:            94 06 40 1d  add       %i1, %i5, %o2
    0x100006014:            97 2a b0 03  sllx      %o2, 0x3, %o3
    0x100006018:            f2 5b 00 0b  ldx       [%o4 + %o3], %i1
    0x10000601c:            f2 73 a9 67  stx       %i1, [%sp + 0x967]
    0x100006020:            94 10 20 00  clr       %o2
    0x100006024:            d8 5a 24 e0  ldx       [%o0 + 0x4e0], %o4
    0x100006028:            95 7b 24 01  movre     %o4, 0x1, %o2
    0x10000602c:            ab 3b 30 3f  srax      %o4, 0x3f, %l5
    0x100006030:            a4 03 00 0a  add       %o4, %o2, %l2
    0x100006034:            90 1b 00 15  xor       %o4, %l5, %o0
    0x100006038:            94 24 a0 01  sub       %l2, 0x1, %o2
    0x10000603c:            d4 73 a9 97  stx       %o2, [%sp + 0x997]
    0x100006040:            92 22 00 15  sub       %o0, %l5, %o1
    0x100006044:            d2 73 a9 6f  stx       %o1, [%sp + 0x96f]
    0x100006048:            96 8c 80 0a  andcc     %l2, %o2, %o3
    0x10000604c:            12 60 00 0c  bne,pn    %xcc, +0x30   <0x10000607c>
    0x100006050:            d6 73 a9 9f  stx       %o3, [%sp + 0x99f]
    0x100006054:            02 c4 80 0a  brz,pn    %l2, +0x28    <0x10000607c>
    0x100006058:            a3 3c 30 3f  srax      %l0, 0x3f, %l1
    0x10000605c:            a6 1c 00 11  xor       %l0, %l1, %l3
    0x100006060:            ac 24 c0 11  sub       %l3, %l1, %l6
    0x100006064:            a8 8d 80 0a  andcc     %l6, %o2, %l4
    0x100006068:            84 1d 00 11  xor       %l4, %l1, %g2
    0x10000606c:            86 20 80 11  sub       %g2, %l1, %g3
    0x100006070:            a9 66 50 03  movne     %xcc, %g3, %l4
    0x100006074:            10 80 00 06  ba        +0x18         <0x10000608c>
    0x100006078:            b2 07 40 10  add       %i5, %l0, %i1
    0x10000607c:            a9 6c 00 12  sdivx     %l0, %l2, %l4
    0x100006080:            b0 4d 00 12  mulx      %l4, %l2, %i0
    0x100006084:            a8 24 00 18  sub       %l0, %i0, %l4
    0x100006088:            b2 07 40 10  add       %i5, %l0, %i1
    0x10000608c:            ca 5b a9 07  ldx       [%sp + 0x907], %g5
    0x100006090:            ee 5b a9 67  ldx       [%sp + 0x967], %l7
    0x100006094:            ab 2e 70 03  sllx      %i1, 0x3, %l5
    0x100006098:            c4 5b a8 ef  ldx       [%sp + 0x8ef], %g2
    0x10000609c:            bb 29 70 03  sllx      %g5, 0x3, %i5
    0x1000060a0:            b0 07 40 17  add       %i5, %l7, %i0
    0x1000060a4:            c6 5b a9 6f  ldx       [%sp + 0x96f], %g3
    0x1000060a8:            a2 07 60 08  add       %i5, 0x8, %l1
    0x1000060ac:            a6 01 7f ff  add       %g5, -0x1, %l3
    0x1000060b0:            ee 58 a6 90  ldx       [%g2 + 0x690], %l7
    0x1000060b4:            88 00 ff ff  add       %g3, -0x1, %g4
    0x1000060b8:            f0 73 a9 a7  stx       %i0, [%sp + 0x9a7]
    0x1000060bc:            84 05 40 17  add       %l5, %l7, %g2
    0x1000060c0:            c8 73 a9 77  stx       %g4, [%sp + 0x977]
    0x1000060c4:            80 a5 00 1a  cmp       %l4, %i2
    0x1000060c8:            d4 5b a8 c7  ldx       [%sp + 0x8c7], %o2
    0x1000060cc:            12 60 00 a6  bne,pn    %xcc, +0x298  <0x100006364>
    0x1000060d0:            8a 06 c0 0a  add       %i3, %o2, %g5
    0x1000060d4:            c6 5b a8 bf  ldx       [%sp + 0x8bf], %g3
    0x1000060d8:            ec 5b a9 07  ldx       [%sp + 0x907], %l6
    0x1000060dc:            b2 20 c0 1b  sub       %g3, %i3, %i1
    0x1000060e0:            80 a1 40 03  cmp       %g5, %g3
    0x1000060e4:            b3 64 90 0a  movle     %xcc, %o2, %i1
    0x1000060e8:            04 c5 80 9f  brlez,pn  %l6, +0x27c   <0x100006364>
    0x1000060ec:            93 2e 70 03  sllx      %i1, 0x3, %o1
    0x1000060f0:            d8 58 a0 00  ldx       [%g2], %o4
    0x1000060f4:            86 06 7f ff  add       %i1, -0x1, %g3
    0x1000060f8:            aa 10 20 01  mov       0x1, %l5
    0x1000060fc:            d6 5b a9 a7  ldx       [%sp + 0x9a7], %o3
    0x100006100:            94 02 40 0c  add       %o1, %o4, %o2
    0x100006104:            f6 5b a9 07  ldx       [%sp + 0x907], %i3
    0x100006108:            80 a5 40 1b  cmp       %l5, %i3
    0x10000610c:            16 60 00 90  bge,pn    %xcc, +0x240  <0x10000634c>
    0x100006110:            90 10 00 15  mov       %l5, %o0
    0x100006114:            88 10 00 0b  mov       %o3, %g4
    0x100006118:            9a 10 00 0a  mov       %o2, %o5
    0x10000611c:            04 c6 40 87  brlez,pn  %i1, +0x21c   <0x100006338>
    0x100006120:            80 a0 e0 03  cmp       %g3, 0x3
    0x100006124:            f9 19 20 00  ldd       [%g4], %d28
    0x100006128:            06 60 00 54  bl,pn     %xcc, +0x150  <0x100006278>
    0x10000612c:            b9 a0 00 dc  fnegd     %d28, %d28
    0x100006130:            ae 23 40 0c  sub       %o5, %o4, %l7
    0x100006134:            ad 3d f0 3f  srax      %l7, 0x3f, %l6
    0x100006138:            b0 1d c0 16  xor       %l7, %l6, %i0
    0x10000613c:            b6 26 00 16  sub       %i0, %l6, %i3
    0x100006140:            80 a6 c0 09  cmp       %i3, %o1
    0x100006144:            06 60 00 4d  bl,pn     %xcc, +0x134  <0x100006278>
    0x100006148:            ac 10 20 00  clr       %l6
    0x10000614c:            80 a6 60 08  cmp       %i1, 0x8
    0x100006150:            9e 10 00 0d  mov       %o5, %o7
    0x100006154:            ae 10 00 0c  mov       %o4, %l7
    0x100006158:            06 60 00 3b  bl,pn     %xcc, +0xec   <0x100006244>
    0x10000615c:            01 00 00 00  nop
    0x100006160:            fb 1b 20 08  ldd       [%o4 + 0x8], %d60
    0x100006164:            df 1b 20 00  ldd       [%o4], %d46
    0x100006168:            f5 1b 20 10  ldd       [%o4 + 0x10], %d26
    0x10000616c:            f1 1b 20 18  ldd       [%o4 + 0x18], %d24
    0x100006170:            ef 1b 60 00  ldd       [%o5], %d54
    0x100006174:            a3 a0 00 5c  fmovd     %d28, %d48
    0x100006178:            ae 03 20 20  add       %o4, 0x20, %l7
    0x10000617c:            a7 a7 49 5c  fmuld     %d60, %d28, %d50
    0x100006180:            f3 1b 60 08  ldd       [%o5 + 0x8], %d56
    0x100006184:            9e 03 60 18  add       %o5, 0x18, %o7
    0x100006188:            ac 10 20 04  mov       0x4, %l6
    0x10000618c:            bb a3 c9 5c  fmuld     %d46, %d28, %d60
    0x100006190:            f7 1b 60 10  ldd       [%o5 + 0x10], %d58
    0x100006194:            b6 06 7f fc  add       %i1, -0x4, %i3
    0x100006198:            c1 6d e0 90  prefetch  [%l7 + 0x90], #n_reads
    0x10000619c:            c1 6b e0 90  prefetch  [%o7 + 0x90], #n_reads
    0x1000061a0:            ac 05 a0 04  add       %l6, 0x4, %l6
    0x1000061a4:            d3 1d e0 00  ldd       [%l7], %d40
    0x1000061a8:            ae 05 e0 20  add       %l7, 0x20, %l7
    0x1000061ac:            af a5 c8 5d  faddd     %d54, %d60, %d54
    0x1000061b0:            80 a5 80 1b  cmp       %l6, %i3
    0x1000061b4:            db 1b e0 00  ldd       [%o7], %d44
    0x1000061b8:            9e 03 e0 20  add       %o7, 0x20, %o7
    0x1000061bc:            ef 3b ff c8  std       %d54, [%o7 - 0x38]
    0x1000061c0:            bd a6 89 51  fmuld     %d26, %d48, %d30
    0x1000061c4:            b9 a6 48 53  faddd     %d56, %d50, %d28
    0x1000061c8:            d7 1d ff e8  ldd       [%l7 - 0x18], %d42
    0x1000061cc:            ef 1b ff e8  ldd       [%o7 - 0x18], %d54
    0x1000061d0:            f9 3b ff d0  std       %d28, [%o7 - 0x30]
    0x1000061d4:            a7 a6 09 51  fmuld     %d24, %d48, %d50
    0x1000061d8:            ab a6 c8 5e  faddd     %d58, %d30, %d52
    0x1000061dc:            f5 1d ff f0  ldd       [%l7 - 0x10], %d26
    0x1000061e0:            f3 1b ff f0  ldd       [%o7 - 0x10], %d56
    0x1000061e4:            eb 3b ff d8  std       %d52, [%o7 - 0x28]
    0x1000061e8:            bb a2 49 51  fmuld     %d40, %d48, %d60
    0x1000061ec:            bf a3 48 53  faddd     %d44, %d50, %d62
    0x1000061f0:            f1 1d ff f8  ldd       [%l7 - 0x8], %d24
    0x1000061f4:            f7 1b ff f8  ldd       [%o7 - 0x8], %d58
    0x1000061f8:            ff 3b ff e0  std       %d62, [%o7 - 0x20]
    0x1000061fc:            04 6f ff e7  ble,pt    %xcc, -0x64   <0x100006198>
    0x100006200:            a7 a2 c9 51  fmuld     %d42, %d48, %d50
    0x100006204:            ab a6 89 51  fmuld     %d26, %d48, %d52
    0x100006208:            bf a6 09 51  fmuld     %d24, %d48, %d62
    0x10000620c:            9e 03 e0 08  add       %o7, 0x8, %o7
    0x100006210:            f5 1b ff f8  ldd       [%o7 - 0x8], %d26
    0x100006214:            b9 a0 00 51  fmovd     %d48, %d28
    0x100006218:            a3 a6 48 53  faddd     %d56, %d50, %d48
    0x10000621c:            e3 3b ff e8  std       %d48, [%o7 - 0x18]
    0x100006220:            b1 a6 c8 55  faddd     %d58, %d52, %d24
    0x100006224:            f1 3b ff f0  std       %d24, [%o7 - 0x10]
    0x100006228:            93 a5 c8 5d  faddd     %d54, %d60, %d40
    0x10000622c:            80 a5 80 03  cmp       %l6, %g3
    0x100006230:            d3 3b ff e0  std       %d40, [%o7 - 0x20]
    0x100006234:            b7 a6 88 5f  faddd     %d26, %d62, %d58
    0x100006238:            f7 3b ff f8  std       %d58, [%o7 - 0x8]
    0x10000623c:            14 60 00 0d  bg,pn     %xcc, +0x34   <0x100006270>
    0x100006240:            01 00 00 00  nop
    0x100006244:            d7 1d e0 00  ldd       [%l7], %d42
    0x100006248:            b1 a2 c9 5c  fmuld     %d42, %d28, %d24
    0x10000624c:            ff 1b e0 00  ldd       [%o7], %d62
    0x100006250:            ac 05 a0 01  add       %l6, 0x1, %l6
    0x100006254:            80 a5 80 03  cmp       %l6, %g3
    0x100006258:            ae 05 e0 08  add       %l7, 0x8, %l7
    0x10000625c:            b5 a7 c8 58  faddd     %d62, %d24, %d26
    0x100006260:            f5 3b e0 00  std       %d26, [%o7]
    0x100006264:            9e 03 e0 08  add       %o7, 0x8, %o7
    0x100006268:            24 6f ff f8  ble,a,pt  %xcc, -0x20   <0x100006248>
    0x10000626c:            d7 1d e0 00  ldd       [%l7], %d42
    0x100006270:            10 80 00 33  ba        +0xcc         <0x10000633c>
    0x100006274:            90 02 20 01  add       %o0, 0x1, %o0
    0x100006278:            80 a6 60 04  cmp       %i1, 0x4
    0x10000627c:            ac 10 20 00  clr       %l6
    0x100006280:            b6 10 00 0d  mov       %o5, %i3
    0x100006284:            9e 10 00 0c  mov       %o4, %o7
    0x100006288:            06 60 00 21  bl,pn     %xcc, +0x84   <0x10000630c>
    0x10000628c:            01 00 00 00  nop
    0x100006290:            ae 06 7f fc  add       %i1, -0x4, %l7
    0x100006294:            c1 6b e0 90  prefetch  [%o7 + 0x90], #n_reads
    0x100006298:            c1 6e e0 90  prefetch  [%i3 + 0x90], #n_reads
    0x10000629c:            ac 05 a0 04  add       %l6, 0x4, %l6
    0x1000062a0:            f3 1b e0 00  ldd       [%o7], %d56
    0x1000062a4:            9e 03 e0 20  add       %o7, 0x20, %o7
    0x1000062a8:            80 a5 80 17  cmp       %l6, %l7
    0x1000062ac:            b6 06 e0 20  add       %i3, 0x20, %i3
    0x1000062b0:            b5 a6 49 5c  fmuld     %d56, %d28, %d26
    0x1000062b4:            f1 1e ff e0  ldd       [%i3 - 0x20], %d24
    0x1000062b8:            b7 a6 08 5a  faddd     %d24, %d26, %d58
    0x1000062bc:            f7 3e ff e0  std       %d58, [%i3 - 0x20]
    0x1000062c0:            fb 1b ff e8  ldd       [%o7 - 0x18], %d60
    0x1000062c4:            af a7 49 5c  fmuld     %d60, %d28, %d54
    0x1000062c8:            df 1e ff e8  ldd       [%i3 - 0x18], %d46
    0x1000062cc:            bd a3 c8 57  faddd     %d46, %d54, %d30
    0x1000062d0:            fd 3e ff e8  std       %d30, [%i3 - 0x18]
    0x1000062d4:            eb 1b ff f0  ldd       [%o7 - 0x10], %d52
    0x1000062d8:            9b a5 49 5c  fmuld     %d52, %d28, %d44
    0x1000062dc:            d3 1e ff f0  ldd       [%i3 - 0x10], %d40
    0x1000062e0:            a7 a2 48 4d  faddd     %d40, %d44, %d50
    0x1000062e4:            e7 3e ff f0  std       %d50, [%i3 - 0x10]
    0x1000062e8:            ff 1b ff f8  ldd       [%o7 - 0x8], %d62
    0x1000062ec:            a3 a7 c9 5c  fmuld     %d62, %d28, %d48
    0x1000062f0:            d7 1e ff f8  ldd       [%i3 - 0x8], %d42
    0x1000062f4:            b3 a2 c8 51  faddd     %d42, %d48, %d56
    0x1000062f8:            04 6f ff e7  ble,pt    %xcc, -0x64   <0x100006294>
    0x1000062fc:            f3 3e ff f8  std       %d56, [%i3 - 0x8]
    0x100006300:            80 a5 80 03  cmp       %l6, %g3
    0x100006304:            14 60 00 0d  bg,pn     %xcc, +0x34   <0x100006338>
    0x100006308:            01 00 00 00  nop
    0x10000630c:            f7 1b e0 00  ldd       [%o7], %d58
    0x100006310:            9f a6 c9 5c  fmuld     %d58, %d28, %d46
    0x100006314:            eb 1e e0 00  ldd       [%i3], %d52
    0x100006318:            ac 05 a0 01  add       %l6, 0x1, %l6
    0x10000631c:            80 a5 80 03  cmp       %l6, %g3
    0x100006320:            9e 03 e0 08  add       %o7, 0x8, %o7
    0x100006324:            bb a5 48 4f  faddd     %d52, %d46, %d60
    0x100006328:            fb 3e e0 00  std       %d60, [%i3]
    0x10000632c:            b6 06 e0 08  add       %i3, 0x8, %i3
    0x100006330:            24 6f ff f8  ble,a,pt  %xcc, -0x20   <0x100006310>
    0x100006334:            f7 1b e0 00  ldd       [%o7], %d58
    0x100006338:            90 02 20 01  add       %o0, 0x1, %o0
    0x10000633c:            80 a2 00 13  cmp       %o0, %l3
    0x100006340:            9a 03 40 09  add       %o5, %o1, %o5
    0x100006344:            04 6f ff 76  ble,pt    %xcc, -0x228  <0x10000611c>
    0x100006348:            88 01 00 1d  add       %g4, %i5, %g4
    0x10000634c:            80 a5 40 13  cmp       %l5, %l3
    0x100006350:            94 02 80 09  add       %o2, %o1, %o2
    0x100006354:            98 03 00 09  add       %o4, %o1, %o4
    0x100006358:            96 02 c0 11  add       %o3, %l1, %o3
    0x10000635c:            04 6f ff 6a  ble,pt    %xcc, -0x258  <0x100006104>
    0x100006360:            aa 05 60 01  add       %l5, 0x1, %l5
    0x100006364:            a0 04 20 01  add       %l0, 0x1, %l0
    0x100006368:            b6 10 00 05  mov       %g5, %i3
    0x10000636c:            97 34 30 3f  srlx      %l0, 0x3f, %o3
    0x100006370:            9a 1a e0 01  xor       %o3, 0x1, %o5
    0x100006374:            94 20 00 0d  neg       %o5, %o2
    0x100006378:            a8 05 20 01  add       %l4, 0x1, %l4
    0x10000637c:            d0 5b a8 d7  ldx       [%sp + 0x8d7], %o0
    0x100006380:            86 10 20 00  clr       %g3
    0x100006384:            84 00 a0 08  add       %g2, 0x8, %g2
    0x100006388:            80 a1 40 08  cmp       %g5, %o0
    0x10000638c:            ca 5b a9 77  ldx       [%sp + 0x977], %g5
    0x100006390:            d2 5b a9 6f  ldx       [%sp + 0x96f], %o1
    0x100006394:            98 0a 80 05  and       %o2, %g5, %o4
    0x100006398:            90 03 20 01  add       %o4, 0x1, %o0
    0x10000639c:            aa 1d 00 08  xor       %l4, %o0, %l5
    0x1000063a0:            87 7d 64 01  movre     %l5, 0x1, %g3
    0x1000063a4:            88 20 00 03  neg       %g3, %g4
    0x1000063a8:            8b 39 20 00  sra       %g4, 0x0, %g5
    0x1000063ac:            92 09 40 09  and       %g5, %o1, %o1
    0x1000063b0:            a8 25 00 09  sub       %l4, %o1, %l4
    0x1000063b4:            04 6f ff 45  ble,pt    %xcc, -0x2ec  <0x1000060c8>
    0x1000063b8:            80 a5 00 1a  cmp       %l4, %i2
    0x1000063bc:            f2 5b a9 9f  ldx       [%sp + 0x99f], %i1
    0x1000063c0:            ee 5f a7 df  ldx       [%fp + 0x7df], %l7
    0x1000063c4:            f6 5b a9 0f  ldx       [%sp + 0x90f], %i3
    0x1000063c8:            0a c6 40 0d  brnz,pn   %i1, +0x34    <0x1000063fc>
    0x1000063cc:            01 00 00 00  nop
    0x1000063d0:            02 c4 80 0b  brz,pn    %l2, +0x2c    <0x1000063fc>
    0x1000063d4:            a9 3e f0 3f  srax      %i3, 0x3f, %l4
    0x1000063d8:            9e 1e c0 14  xor       %i3, %l4, %o7
    0x1000063dc:            e4 5b a9 97  ldx       [%sp + 0x997], %l2
    0x1000063e0:            b2 23 c0 14  sub       %o7, %l4, %i1
    0x1000063e4:            a4 8e 40 12  andcc     %i1, %l2, %l2
    0x1000063e8:            aa 1c 80 14  xor       %l2, %l4, %l5
    0x1000063ec:            b0 25 40 14  sub       %l5, %l4, %i0
    0x1000063f0:            a5 66 50 18  movne     %xcc, %i0, %l2
    0x1000063f4:            10 80 00 06  ba        +0x18         <0x10000640c>
    0x1000063f8:            d4 5b a9 5f  ldx       [%sp + 0x95f], %o2
    0x1000063fc:            9b 6e c0 12  sdivx     %i3, %l2, %o5
    0x100006400:            a4 4b 40 12  mulx      %o5, %l2, %l2
    0x100006404:            d4 5b a9 5f  ldx       [%sp + 0x95f], %o2
    0x100006408:            a4 26 c0 12  sub       %i3, %l2, %l2
    0x10000640c:            e0 5a a1 28  ldx       [%o2 + 0x128], %l0
    0x100006410:            d6 5b a8 e7  ldx       [%sp + 0x8e7], %o3
    0x100006414:            f0 5b a8 ef  ldx       [%sp + 0x8ef], %i0
    0x100006418:            ab 2c 30 03  sllx      %l0, 0x3, %l5
    0x10000641c:            94 4e c0 15  mulx      %i3, %l5, %o2
    0x100006420:            ca 5a e4 e0  ldx       [%o3 + 0x4e0], %g5
    0x100006424:            98 07 7f f8  add       %i5, -0x8, %o4
    0x100006428:            d6 5e 26 90  ldx       [%i0 + 0x690], %o3
    0x10000642c:            89 31 70 3f  srlx      %g5, 0x3f, %g4
    0x100006430:            d2 5f a6 ff  ldx       [%fp + 0x6ff], %o1
    0x100006434:            d8 73 a9 8f  stx       %o4, [%sp + 0x98f]
    0x100006438:            90 01 40 04  add       %g5, %g4, %o0
    0x10000643c:            98 02 c0 09  add       %o3, %o1, %o4
    0x100006440:            9f 3a 30 01  srax      %o0, 0x1, %o7
    0x100006444:            ea 73 a9 7f  stx       %l5, [%sp + 0x97f]
    0x100006448:            ac 03 00 0a  add       %o4, %o2, %l6
    0x10000644c:            de 73 a9 87  stx       %o7, [%sp + 0x987]
    0x100006450:            96 10 00 0f  mov       %o7, %o3
    0x100006454:            d8 5b a8 e7  ldx       [%sp + 0x8e7], %o4
    0x100006458:            92 04 80 0b  add       %l2, %o3, %o1
    0x10000645c:            e8 5b a8 c7  ldx       [%sp + 0x8c7], %l4
    0x100006460:            d4 5b 24 e0  ldx       [%o4 + 0x4e0], %o2
    0x100006464:            9e 22 a0 01  sub       %o2, 0x1, %o7
    0x100006468:            80 8a 80 0f  btst      %o7, %o2
    0x10000646c:            12 60 00 0c  bne,pn    %xcc, +0x30   <0x10000649c>
    0x100006470:            90 05 c0 14  add       %l7, %l4, %o0
    0x100006474:            02 c2 80 0a  brz,pn    %o2, +0x28    <0x10000649c>
    0x100006478:            99 3a 70 3f  srax      %o1, 0x3f, %o4
    0x10000647c:            92 1a 40 0c  xor       %o1, %o4, %o1
    0x100006480:            94 22 40 0c  sub       %o1, %o4, %o2
    0x100006484:            9e 8a 80 0f  andcc     %o2, %o7, %o7
    0x100006488:            96 1b c0 0c  xor       %o7, %o4, %o3
    0x10000648c:            9a 22 c0 0c  sub       %o3, %o4, %o5
    0x100006490:            9f 66 50 0d  movne     %xcc, %o5, %o7
    0x100006494:            10 80 00 06  ba        +0x18         <0x1000064ac>
    0x100006498:            80 a3 c0 1a  cmp       %o7, %i2
    0x10000649c:            89 6a 40 0a  sdivx     %o1, %o2, %g4
    0x1000064a0:            8a 49 00 0a  mulx      %g4, %o2, %g5
    0x1000064a4:            9e 22 40 05  sub       %o1, %g5, %o7
    0x1000064a8:            80 a3 c0 1a  cmp       %o7, %i2
    0x1000064ac:            12 60 00 8d  bne,pn    %xcc, +0x234  <0x1000066e0>
    0x1000064b0:            de 5b a8 bf  ldx       [%sp + 0x8bf], %o7
    0x1000064b4:            d4 5b a9 07  ldx       [%sp + 0x907], %o2
    0x1000064b8:            b2 23 c0 17  sub       %o7, %l7, %i1
    0x1000064bc:            80 a2 00 0f  cmp       %o0, %o7
    0x1000064c0:            b3 64 90 14  movle     %xcc, %l4, %i1
    0x1000064c4:            04 c2 80 87  brlez,pn  %o2, +0x21c   <0x1000066e0>
    0x1000064c8:            92 10 20 00  clr       %o1
    0x1000064cc:            d8 5b a9 67  ldx       [%sp + 0x967], %o4
    0x1000064d0:            ca 5d a0 00  ldx       [%l6], %g5
    0x1000064d4:            9a 10 00 13  mov       %l3, %o5
    0x1000064d8:            d6 5b a9 8f  ldx       [%sp + 0x98f], %o3
    0x1000064dc:            94 06 7f ff  add       %i1, -0x1, %o2
    0x1000064e0:            04 c6 40 79  brlez,pn  %i1, +0x1e4   <0x1000066c4>
    0x1000064e4:            86 10 20 00  clr       %g3
    0x1000064e8:            84 03 20 08  add       %o4, 0x8, %g2
    0x1000064ec:            88 10 00 05  mov       %g5, %g4
    0x1000064f0:            fd 1b 20 00  ldd       [%o4], %d30
    0x1000064f4:            ae 03 7f ff  add       %o5, -0x1, %l7
    0x1000064f8:            f5 19 20 00  ldd       [%g4], %d26
    0x1000064fc:            bb a6 89 de  fdivd     %d26, %d30, %d60
    0x100006500:            04 c3 40 6c  brlez,pn  %o5, +0x1b0   <0x1000066b0>
    0x100006504:            fb 39 20 00  std       %d60, [%g4]
    0x100006508:            80 a5 e0 03  cmp       %l7, 0x3
    0x10000650c:            9e 01 20 08  add       %g4, 0x8, %o7
    0x100006510:            06 60 00 09  bl,pn     %xcc, +0x24   <0x100006534>
    0x100006514:            a3 a0 00 dd  fnegd     %d60, %d48
    0x100006518:            aa 23 c0 02  sub       %o7, %g2, %l5
    0x10000651c:            a9 3d 70 3f  srax      %l5, 0x3f, %l4
    0x100006520:            b0 1d 40 14  xor       %l5, %l4, %i0
    0x100006524:            a0 26 00 14  sub       %i0, %l4, %l0
    0x100006528:            80 a4 00 0b  cmp       %l0, %o3
    0x10000652c:            16 68 00 21  bge,pt    %xcc, +0x84   <0x1000065b0>
    0x100006530:            01 00 00 00  nop
    0x100006534:            80 a3 60 01  cmp       %o5, 0x1
    0x100006538:            a8 10 20 00  clr       %l4
    0x10000653c:            a0 10 00 02  mov       %g2, %l0
    0x100006540:            06 60 00 0f  bl,pn     %xcc, +0x3c   <0x10000657c>
    0x100006544:            01 00 00 00  nop
    0x100006548:            a8 05 20 01  add       %l4, 0x1, %l4
    0x10000654c:            f3 1c 20 00  ldd       [%l0], %d56
    0x100006550:            a0 04 20 08  add       %l0, 0x8, %l0
    0x100006554:            80 a5 00 17  cmp       %l4, %l7
    0x100006558:            9e 03 e0 08  add       %o7, 0x8, %o7
    0x10000655c:            9b a6 49 51  fmuld     %d56, %d48, %d44
    0x100006560:            d7 1b ff f8  ldd       [%o7 - 0x8], %d42
    0x100006564:            b1 a2 c8 4d  faddd     %d42, %d44, %d24
    0x100006568:            04 6f ff f8  ble,pt    %xcc, -0x20   <0x100006548>
    0x10000656c:            f1 3b ff f8  std       %d24, [%o7 - 0x8]
    0x100006570:            01 00 00 00  nop
    0x100006574:            10 80 00 50  ba        +0x140        <0x1000066b4>
    0x100006578:            86 00 e0 01  add       %g3, 0x1, %g3
    0x10000657c:            f3 1c 20 00  ldd       [%l0], %d56
    0x100006580:            9b a6 49 51  fmuld     %d56, %d48, %d44
    0x100006584:            d7 1b e0 00  ldd       [%o7], %d42
    0x100006588:            a8 05 20 01  add       %l4, 0x1, %l4
    0x10000658c:            80 a5 00 17  cmp       %l4, %l7
    0x100006590:            a0 04 20 08  add       %l0, 0x8, %l0
    0x100006594:            b1 a2 c8 4d  faddd     %d42, %d44, %d24
    0x100006598:            f1 3b e0 00  std       %d24, [%o7]
    0x10000659c:            9e 03 e0 08  add       %o7, 0x8, %o7
    0x1000065a0:            24 6f ff f8  ble,a,pt  %xcc, -0x20   <0x100006580>
    0x1000065a4:            f3 1c 20 00  ldd       [%l0], %d56
    0x1000065a8:            10 80 00 43  ba        +0x10c        <0x1000066b4>
    0x1000065ac:            86 00 e0 01  add       %g3, 0x1, %g3
    0x1000065b0:            80 a3 60 07  cmp       %o5, 0x7
    0x1000065b4:            a8 10 20 00  clr       %l4
    0x1000065b8:            a0 10 00 02  mov       %g2, %l0
    0x1000065bc:            06 60 00 32  bl,pn     %xcc, +0xc8   <0x100006684>
    0x1000065c0:            01 00 00 00  nop
    0x1000065c4:            d3 1b 20 08  ldd       [%o4 + 0x8], %d40
    0x1000065c8:            fb 1b 20 10  ldd       [%o4 + 0x10], %d60
    0x1000065cc:            eb 1b 20 18  ldd       [%o4 + 0x18], %d52
    0x1000065d0:            ff 1b 20 20  ldd       [%o4 + 0x20], %d62
    0x1000065d4:            f1 19 20 08  ldd       [%g4 + 0x8], %d24
    0x1000065d8:            a0 03 20 28  add       %o4, 0x28, %l0
    0x1000065dc:            bd a2 49 51  fmuld     %d40, %d48, %d30
    0x1000065e0:            d7 19 20 10  ldd       [%g4 + 0x10], %d42
    0x1000065e4:            aa 01 20 20  add       %g4, 0x20, %l5
    0x1000065e8:            a8 10 20 04  mov       0x4, %l4
    0x1000065ec:            b3 a7 49 51  fmuld     %d60, %d48, %d56
    0x1000065f0:            d3 19 20 18  ldd       [%g4 + 0x18], %d40
    0x1000065f4:            b0 03 7f fd  add       %o5, -0x3, %i0
    0x1000065f8:            a8 05 20 03  add       %l4, 0x3, %l4
    0x1000065fc:            db 1c 20 00  ldd       [%l0], %d44
    0x100006600:            a0 04 20 18  add       %l0, 0x18, %l0
    0x100006604:            bd a6 08 5e  faddd     %d24, %d30, %d30
    0x100006608:            80 a5 00 18  cmp       %l4, %i0
    0x10000660c:            f1 1d 60 00  ldd       [%l5], %d24
    0x100006610:            aa 05 60 18  add       %l5, 0x18, %l5
    0x100006614:            fd 3d 7f d0  std       %d30, [%l5 - 0x30]
    0x100006618:            af a5 49 51  fmuld     %d52, %d48, %d54
    0x10000661c:            a7 a2 c8 59  faddd     %d42, %d56, %d50
    0x100006620:            eb 1c 3f f0  ldd       [%l0 - 0x10], %d52
    0x100006624:            d7 1d 7f f0  ldd       [%l5 - 0x10], %d42
    0x100006628:            e7 3d 7f d8  std       %d50, [%l5 - 0x28]
    0x10000662c:            bd a7 c9 51  fmuld     %d62, %d48, %d30
    0x100006630:            b3 a2 48 57  faddd     %d40, %d54, %d56
    0x100006634:            ff 1c 3f f8  ldd       [%l0 - 0x8], %d62
    0x100006638:            d3 1d 7f f8  ldd       [%l5 - 0x8], %d40
    0x10000663c:            f3 3d 7f e0  std       %d56, [%l5 - 0x20]
    0x100006640:            04 6f ff ee  ble,pt    %xcc, -0x48   <0x1000065f8>
    0x100006644:            b3 a3 49 51  fmuld     %d44, %d48, %d56
    0x100006648:            b9 a5 49 51  fmuld     %d52, %d48, %d28
    0x10000664c:            f7 1d 60 00  ldd       [%l5], %d58
    0x100006650:            9f a7 c9 51  fmuld     %d62, %d48, %d46
    0x100006654:            b5 a6 08 5e  faddd     %d24, %d30, %d26
    0x100006658:            f5 3d 7f e8  std       %d26, [%l5 - 0x18]
    0x10000665c:            af a2 c8 59  faddd     %d42, %d56, %d54
    0x100006660:            ef 3d 7f f0  std       %d54, [%l5 - 0x10]
    0x100006664:            bf a2 48 5c  faddd     %d40, %d28, %d62
    0x100006668:            80 a5 00 17  cmp       %l4, %l7
    0x10000666c:            ff 3d 7f f8  std       %d62, [%l5 - 0x8]
    0x100006670:            9e 05 60 08  add       %l5, 0x8, %o7
    0x100006674:            ab a6 c8 4f  faddd     %d58, %d46, %d52
    0x100006678:            eb 3d 60 00  std       %d52, [%l5]
    0x10000667c:            14 60 00 0d  bg,pn     %xcc, +0x34   <0x1000066b0>
    0x100006680:            01 00 00 00  nop
    0x100006684:            d3 1c 20 00  ldd       [%l0], %d40
    0x100006688:            bd a2 49 51  fmuld     %d40, %d48, %d30
    0x10000668c:            e7 1b e0 00  ldd       [%o7], %d50
    0x100006690:            a8 05 20 01  add       %l4, 0x1, %l4
    0x100006694:            80 a5 00 17  cmp       %l4, %l7
    0x100006698:            a0 04 20 08  add       %l0, 0x8, %l0
    0x10000669c:            af a4 c8 5e  faddd     %d50, %d30, %d54
    0x1000066a0:            ef 3b e0 00  std       %d54, [%o7]
    0x1000066a4:            9e 03 e0 08  add       %o7, 0x8, %o7
    0x1000066a8:            24 6f ff f8  ble,a,pt  %xcc, -0x20   <0x100006688>
    0x1000066ac:            d3 1c 20 00  ldd       [%l0], %d40
    0x1000066b0:            86 00 e0 01  add       %g3, 0x1, %g3
    0x1000066b4:            80 a0 c0 0a  cmp       %g3, %o2
    0x1000066b8:            88 01 00 1d  add       %g4, %i5, %g4
    0x1000066bc:            24 6f ff 8f  ble,a,pt  %xcc, -0x1c4  <0x1000064f8>
    0x1000066c0:            fd 1b 20 00  ldd       [%o4], %d30
    0x1000066c4:            92 02 60 01  add       %o1, 0x1, %o1
    0x1000066c8:            80 a2 40 13  cmp       %o1, %l3
    0x1000066cc:            98 03 00 11  add       %o4, %l1, %o4
    0x1000066d0:            96 02 ff f8  add       %o3, -0x8, %o3
    0x1000066d4:            9a 23 60 01  sub       %o5, 0x1, %o5
    0x1000066d8:            04 6f ff 82  ble,pt    %xcc, -0x1f8  <0x1000064e0>
    0x1000066dc:            8a 01 60 08  add       %g5, 0x8, %g5
    0x1000066e0:            b6 06 e0 01  add       %i3, 0x1, %i3
    0x1000066e4:            85 36 f0 3f  srlx      %i3, 0x3f, %g2
    0x1000066e8:            a0 18 a0 01  xor       %g2, 0x1, %l0
    0x1000066ec:            a4 04 a0 01  add       %l2, 0x1, %l2
    0x1000066f0:            98 10 20 00  clr       %o4
    0x1000066f4:            ae 10 00 08  mov       %o0, %l7
    0x1000066f8:            de 5b a8 d7  ldx       [%sp + 0x8d7], %o7
    0x1000066fc:            ea 5b a9 77  ldx       [%sp + 0x977], %l5
    0x100006700:            f2 5b a9 7f  ldx       [%sp + 0x97f], %i1
    0x100006704:            80 a2 00 0f  cmp       %o0, %o7
    0x100006708:            9e 20 00 10  neg       %l0, %o7
    0x10000670c:            b0 0b c0 15  and       %o7, %l5, %i0
    0x100006710:            96 06 20 01  add       %i0, 0x1, %o3
    0x100006714:            9a 1c 80 0b  xor       %l2, %o3, %o5
    0x100006718:            99 7b 64 01  movre     %o5, 0x1, %o4
    0x10000671c:            90 20 00 0c  neg       %o4, %o0
    0x100006720:            ac 05 80 19  add       %l6, %i1, %l6
    0x100006724:            f0 5b a9 6f  ldx       [%sp + 0x96f], %i0
    0x100006728:            ab 3a 20 00  sra       %o0, 0x0, %l5
    0x10000672c:            b2 0d 40 18  and       %l5, %i0, %i1
    0x100006730:            a4 24 80 19  sub       %l2, %i1, %l2
    0x100006734:            24 6f ff 48  ble,a,pt  %xcc, -0x2e0  <0x100006454>
    0x100006738:            d6 5b a9 87  ldx       [%sp + 0x987], %o3
    0x10000673c:            c4 03 a8 df  ld        [%sp + 0x8df], %g2
    0x100006740:            80 90 00 02  tst       %g2
    0x100006744:            22 48 00 11  be,a,pt   %icc, +0x44   <0x100006788>
    0x100006748:            d2 5b a8 f7  ldx       [%sp + 0x8f7], %o1
    0x10000674c:            92 10 20 00  clr       %o1
    0x100006750:            40 04 09 e4  call      +0x102790     <0x100108ee0>
    0x100006754:            90 07 a7 77  add       %fp, 0x777, %o0
    0x100006758:            c6 5f a7 77  ldx       [%fp + 0x777], %g3
    0x10000675c:            ca 5f a7 7f  ldx       [%fp + 0x77f], %g5
    0x100006760:            a5 28 f0 05  sllx      %g3, 0x5, %l2
    0x100006764:            b2 20 c0 12  sub       %g3, %l2, %i1
    0x100006768:            a7 2e 70 09  sllx      %i1, 0x9, %l3
    0x10000676c:            ae 24 c0 03  sub       %l3, %g3, %l7
    0x100006770:            ad 2d f0 06  sllx      %l7, 0x6, %l6
    0x100006774:            84 25 80 17  sub       %l6, %l7, %g2
    0x100006778:            88 20 c0 02  sub       %g3, %g2, %g4
    0x10000677c:            90 01 40 04  add       %g5, %g4, %o0
    0x100006780:            d0 77 a7 6f  stx       %o0, [%fp + 0x76f]
    0x100006784:            d2 5b a8 f7  ldx       [%sp + 0x8f7], %o1
    0x100006788:            d8 5a 61 30  ldx       [%o1 + 0x130], %o4
    0x10000678c:            40 04 0a 2d  call      +0x1028b4     <0x100109040>
    0x100006790:            90 03 20 50  add       %o4, 0x50, %o0
    0x100006794:            0a c2 01 d8  brnz,pn   %o0, +0x760   <0x100006ef4>
    0x100006798:            ec 5b a8 f7  ldx       [%sp + 0x8f7], %l6
    0x10000679c:            da 5d a1 30  ldx       [%l6 + 0x130], %o5
    0x1000067a0:            ea 5b 60 78  ldx       [%o5 + 0x78], %l5
    0x1000067a4:            e6 5b a8 e7  ldx       [%sp + 0x8e7], %l3
    0x1000067a8:            a8 05 60 01  add       %l5, 0x1, %l4
    0x1000067ac:            e8 73 60 78  stx       %l4, [%o5 + 0x78]
    0x1000067b0:            f0 5c e4 e0  ldx       [%l3 + 0x4e0], %i0
    0x1000067b4:            f6 5b 60 80  ldx       [%o5 + 0x80], %i3
    0x1000067b8:            80 a5 00 18  cmp       %l4, %i0
    0x1000067bc:            02 60 00 19  be,pn     %xcc, +0x64   <0x100006820>
    0x1000067c0:            90 10 20 01  mov       0x1, %o0
    0x1000067c4:            40 04 0a 5f  call      +0x10297c     <0x100109140>
    0x1000067c8:            92 07 a7 67  add       %fp, 0x767, %o1
    0x1000067cc:            ec 5b a8 f7  ldx       [%sp + 0x8f7], %l6
    0x1000067d0:            de 5d a1 30  ldx       [%l6 + 0x130], %o7
    0x1000067d4:            d2 5b e0 80  ldx       [%o7 + 0x80], %o1
    0x1000067d8:            80 a6 c0 09  cmp       %i3, %o1
    0x1000067dc:            12 60 00 0b  bne,pn    %xcc, +0x2c   <0x100006808>
    0x1000067e0:            92 03 e0 50  add       %o7, 0x50, %o1
    0x1000067e4:            90 03 e0 68  add       %o7, 0x68, %o0
    0x1000067e8:            40 04 0a 5e  call      +0x102978     <0x100109160>
    0x1000067ec:            01 00 00 00  nop
    0x1000067f0:            0a c2 00 06  brnz,pn   %o0, +0x18    <0x100006808>
    0x1000067f4:            de 5d a1 30  ldx       [%l6 + 0x130], %o7
    0x1000067f8:            d4 5b e0 80  ldx       [%o7 + 0x80], %o2
    0x1000067fc:            80 a6 c0 0a  cmp       %i3, %o2
    0x100006800:            02 6f ff f9  be,pt     %xcc, -0x1c   <0x1000067e4>
    0x100006804:            92 03 e0 50  add       %o7, 0x50, %o1
    0x100006808:            e2 07 a7 6b  ld        [%fp + 0x76b], %l1
    0x10000680c:            92 07 a7 5f  add       %fp, 0x75f, %o1
    0x100006810:            40 04 0a 4c  call      +0x102930     <0x100109140>
    0x100006814:            91 3c 60 00  sra       %l1, 0x0, %o0
    0x100006818:            10 80 00 09  ba        +0x24         <0x10000683c>
    0x10000681c:            d0 5b a8 f7  ldx       [%sp + 0x8f7], %o0
    0x100006820:            90 10 20 00  clr       %o0
    0x100006824:            91 7e e4 01  movre     %i3, 0x1, %o0
    0x100006828:            d0 73 60 80  stx       %o0, [%o5 + 0x80]
    0x10000682c:            90 03 60 68  add       %o5, 0x68, %o0
    0x100006830:            40 04 0a 54  call      +0x102950     <0x100109180>
    0x100006834:            c0 73 60 78  clrx      [%o5 + 0x78]
    0x100006838:            d0 5b a8 f7  ldx       [%sp + 0x8f7], %o0
    0x10000683c:            c8 5a 21 30  ldx       [%o0 + 0x130], %g4
    0x100006840:            40 04 0a 08  call      +0x102820     <0x100109060>
    0x100006844:            90 01 20 50  add       %g4, 0x50, %o0
    0x100006848:            02 c6 80 21  brz,pn    %i2, +0x84    <0x1000068cc>
    0x10000684c:            92 10 20 00  clr       %o1
    0x100006850:            02 c7 00 17  brz,pn    %i4, +0x5c    <0x1000068ac>
    0x100006854:            92 10 20 00  clr       %o1
    0x100006858:            40 04 09 a2  call      +0x102688     <0x100108ee0>
    0x10000685c:            90 07 a7 4f  add       %fp, 0x74f, %o0
    0x100006860:            f6 5f a7 4f  ldx       [%fp + 0x74f], %i3
    0x100006864:            d0 5f a7 df  ldx       [%fp + 0x7df], %o0
    0x100006868:            da 5b a8 bf  ldx       [%sp + 0x8bf], %o5
    0x10000686c:            a5 2e f0 05  sllx      %i3, 0x5, %l2
    0x100006870:            a8 26 c0 12  sub       %i3, %l2, %l4
    0x100006874:            b3 2d 30 09  sllx      %l4, 0x9, %i1
    0x100006878:            ac 26 40 1b  sub       %i1, %i3, %l6
    0x10000687c:            b1 2d b0 06  sllx      %l6, 0x6, %i0
    0x100006880:            84 26 00 16  sub       %i0, %l6, %g2
    0x100006884:            c8 5f a7 57  ldx       [%fp + 0x757], %g4
    0x100006888:            86 26 c0 02  sub       %i3, %g2, %g3
    0x10000688c:            80 a2 00 0d  cmp       %o0, %o5
    0x100006890:            a0 01 00 03  add       %g4, %g3, %l0
    0x100006894:            16 60 01 28  bge,pn    %xcc, +0x4a0  <0x100006d34>
    0x100006898:            e0 77 a7 47  stx       %l0, [%fp + 0x747]
    0x10000689c:            fa 5b a9 0f  ldx       [%sp + 0x90f], %i5
    0x1000068a0:            fa 73 a9 17  stx       %i5, [%sp + 0x917]
    0x1000068a4:            10 80 00 1e  ba        +0x78         <0x10000691c>
    0x1000068a8:            f6 5b a9 57  ldx       [%sp + 0x957], %i3
    0x1000068ac:            d0 5f a7 df  ldx       [%fp + 0x7df], %o0
    0x1000068b0:            d8 5b a8 bf  ldx       [%sp + 0x8bf], %o4
    0x1000068b4:            80 a2 00 0c  cmp       %o0, %o4
    0x1000068b8:            16 60 01 77  bge,pn    %xcc, +0x5dc  <0x100006e94>
    0x1000068bc:            c4 5b a9 0f  ldx       [%sp + 0x90f], %g2
    0x1000068c0:            c4 73 a9 17  stx       %g2, [%sp + 0x917]
    0x1000068c4:            10 80 00 16  ba        +0x58         <0x10000691c>
    0x1000068c8:            f6 5b a9 57  ldx       [%sp + 0x957], %i3
    0x1000068cc:            40 04 09 85  call      +0x102614     <0x100108ee0>
    0x1000068d0:            90 07 a7 4f  add       %fp, 0x74f, %o0
    0x1000068d4:            ec 5f a7 4f  ldx       [%fp + 0x74f], %l6
    0x1000068d8:            d0 5f a7 df  ldx       [%fp + 0x7df], %o0
    0x1000068dc:            c4 5f a7 57  ldx       [%fp + 0x757], %g2
    0x1000068e0:            97 2d b0 05  sllx      %l6, 0x5, %o3
    0x1000068e4:            9a 25 80 0b  sub       %l6, %o3, %o5
    0x1000068e8:            99 2b 70 09  sllx      %o5, 0x9, %o4
    0x1000068ec:            b2 23 00 16  sub       %o4, %l6, %i1
    0x1000068f0:            a5 2e 70 06  sllx      %i1, 0x6, %l2
    0x1000068f4:            a6 24 80 19  sub       %l2, %i1, %l3
    0x1000068f8:            da 5b a8 bf  ldx       [%sp + 0x8bf], %o5
    0x1000068fc:            ae 25 80 13  sub       %l6, %l3, %l7
    0x100006900:            86 00 80 17  add       %g2, %l7, %g3
    0x100006904:            80 a2 00 0d  cmp       %o0, %o5
    0x100006908:            16 60 01 0b  bge,pn    %xcc, +0x42c  <0x100006d34>
    0x10000690c:            c6 77 a7 47  stx       %g3, [%fp + 0x747]
    0x100006910:            c8 5b a9 0f  ldx       [%sp + 0x90f], %g4
    0x100006914:            f6 5b a9 57  ldx       [%sp + 0x957], %i3
    0x100006918:            c8 73 a9 17  stx       %g4, [%sp + 0x917]
    0x10000691c:            e8 5b a9 5f  ldx       [%sp + 0x95f], %l4
    0x100006920:            c4 5b a8 e7  ldx       [%sp + 0x8e7], %g2
    0x100006924:            fa 5b a9 0f  ldx       [%sp + 0x90f], %i5
    0x100006928:            e8 5d 21 28  ldx       [%l4 + 0x128], %l4
    0x10000692c:            e0 58 a4 e0  ldx       [%g2 + 0x4e0], %l0
    0x100006930:            88 10 20 00  clr       %g4
    0x100006934:            b2 4d 00 1b  mulx      %l4, %i3, %i1
    0x100006938:            95 2d 30 03  sllx      %l4, 0x3, %o2
    0x10000693c:            a2 4f 40 0a  mulx      %i5, %o2, %l1
    0x100006940:            89 7c 24 01  movre     %l0, 0x1, %g4
    0x100006944:            ee 5b a9 07  ldx       [%sp + 0x907], %l7
    0x100006948:            86 04 00 04  add       %l0, %g4, %g3
    0x10000694c:            85 3c 30 3f  srax      %l0, 0x3f, %g2
    0x100006950:            c8 5b a8 ef  ldx       [%sp + 0x8ef], %g4
    0x100006954:            9b 2d f0 03  sllx      %l7, 0x3, %o5
    0x100006958:            d2 5f a6 ff  ldx       [%fp + 0x6ff], %o1
    0x10000695c:            98 05 ff ff  add       %l7, -0x1, %o4
    0x100006960:            ac 1c 00 02  xor       %l0, %g2, %l6
    0x100006964:            ee 59 26 90  ldx       [%g4 + 0x690], %l7
    0x100006968:            b0 06 40 1d  add       %i1, %i5, %i0
    0x10000696c:            8a 25 80 02  sub       %l6, %g2, %g5
    0x100006970:            a4 07 40 1b  add       %i5, %i3, %l2
    0x100006974:            ca 73 a9 2f  stx       %g5, [%sp + 0x92f]
    0x100006978:            a7 2e 30 03  sllx      %i0, 0x3, %l3
    0x10000697c:            c6 73 a9 37  stx       %g3, [%sp + 0x937]
    0x100006980:            ac 01 7f ff  add       %g5, -0x1, %l6
    0x100006984:            ec 73 a9 27  stx       %l6, [%sp + 0x927]
    0x100006988:            9e 04 40 09  add       %l1, %o1, %o7
    0x10000698c:            ba 04 c0 0a  add       %l3, %o2, %i5
    0x100006990:            e0 5b a8 c7  ldx       [%sp + 0x8c7], %l0
    0x100006994:            aa 04 a0 01  add       %l2, 0x1, %l5
    0x100006998:            ea 77 a7 17  stx       %l5, [%fp + 0x717]
    0x10000699c:            8a 07 40 17  add       %i5, %l7, %g5
    0x1000069a0:            ca 77 a7 0f  stx       %g5, [%fp + 0x70f]
    0x1000069a4:            96 04 c0 17  add       %l3, %l7, %o3
    0x1000069a8:            d6 77 a7 07  stx       %o3, [%fp + 0x707]
    0x1000069ac:            a2 03 c0 17  add       %o7, %l7, %l1
    0x1000069b0:            e2 73 a9 1f  stx       %l1, [%sp + 0x91f]
    0x1000069b4:            f2 5b a8 bf  ldx       [%sp + 0x8bf], %i1
    0x1000069b8:            c6 5b a9 37  ldx       [%sp + 0x937], %g3
    0x1000069bc:            f6 5f a7 07  ldx       [%fp + 0x707], %i3
    0x1000069c0:            b0 02 00 10  add       %o0, %l0, %i0
    0x1000069c4:            c8 5f a7 17  ldx       [%fp + 0x717], %g4
    0x1000069c8:            80 a6 00 19  cmp       %i0, %i1
    0x1000069cc:            f0 73 a9 3f  stx       %i0, [%sp + 0x93f]
    0x1000069d0:            b0 26 40 08  sub       %i1, %o0, %i0
    0x1000069d4:            e2 5e e0 00  ldx       [%i3], %l1
    0x1000069d8:            b1 64 90 10  movle     %xcc, %l0, %i0
    0x1000069dc:            ee 5f a7 df  ldx       [%fp + 0x7df], %l7
    0x1000069e0:            a0 20 e0 01  sub       %g3, 0x1, %l0
    0x1000069e4:            d6 5b a9 0f  ldx       [%sp + 0x90f], %o3
    0x1000069e8:            80 88 c0 10  btst      %l0, %g3
    0x1000069ec:            12 60 00 0d  bne,pn    %xcc, +0x34   <0x100006a20>
    0x1000069f0:            e2 73 a9 47  stx       %l1, [%sp + 0x947]
    0x1000069f4:            a2 10 00 03  mov       %g3, %l1
    0x1000069f8:            02 c4 40 0a  brz,pn    %l1, +0x28    <0x100006a20>
    0x1000069fc:            b7 39 30 3f  srax      %g4, 0x3f, %i3
    0x100006a00:            ac 19 00 1b  xor       %g4, %i3, %l6
    0x100006a04:            84 25 80 1b  sub       %l6, %i3, %g2
    0x100006a08:            a2 88 80 10  andcc     %g2, %l0, %l1
    0x100006a0c:            86 1c 40 1b  xor       %l1, %i3, %g3
    0x100006a10:            a0 20 c0 1b  sub       %g3, %i3, %l0
    0x100006a14:            a3 66 50 10  movne     %xcc, %l0, %l1
    0x100006a18:            10 80 00 06  ba        +0x18         <0x100006a30>
    0x100006a1c:            e2 73 a9 4f  stx       %l1, [%sp + 0x94f]
    0x100006a20:            bb 69 00 03  sdivx     %g4, %g3, %i5
    0x100006a24:            a6 4f 40 03  mulx      %i5, %g3, %l3
    0x100006a28:            a2 21 00 13  sub       %g4, %l3, %l1
    0x100006a2c:            e2 73 a9 4f  stx       %l1, [%sp + 0x94f]
    0x100006a30:            e8 5b a8 c7  ldx       [%sp + 0x8c7], %l4
    0x100006a34:            ca 5f a7 0f  ldx       [%fp + 0x70f], %g5
    0x100006a38:            89 2e 30 03  sllx      %i0, 0x3, %g4
    0x100006a3c:            d0 5b a9 1f  ldx       [%sp + 0x91f], %o0
    0x100006a40:            a2 06 3f ff  add       %i0, -0x1, %l1
    0x100006a44:            ea 5b a8 bf  ldx       [%sp + 0x8bf], %l5
    0x100006a48:            92 05 c0 14  add       %l7, %l4, %o1
    0x100006a4c:            b2 25 40 17  sub       %l5, %l7, %i1
    0x100006a50:            80 a2 40 15  cmp       %o1, %l5
    0x100006a54:            b3 64 90 14  movle     %xcc, %l4, %i1
    0x100006a58:            e8 5b a9 4f  ldx       [%sp + 0x94f], %l4
    0x100006a5c:            80 a5 00 1a  cmp       %l4, %i2
    0x100006a60:            12 60 00 84  bne,pn    %xcc, +0x210  <0x100006c70>
    0x100006a64:            de 5b a9 07  ldx       [%sp + 0x907], %o7
    0x100006a68:            04 c3 c0 82  brlez,pn  %o7, +0x208   <0x100006c70>
    0x100006a6c:            ae 10 20 00  clr       %l7
    0x100006a70:            ea 59 60 00  ldx       [%g5], %l5
    0x100006a74:            c6 5b a9 47  ldx       [%sp + 0x947], %g3
    0x100006a78:            ec 5a 20 00  ldx       [%o0], %l6
    0x100006a7c:            84 06 7f ff  add       %i1, -0x1, %g2
    0x100006a80:            04 c6 40 77  brlez,pn  %i1, +0x1dc   <0x100006c5c>
    0x100006a84:            a6 10 20 00  clr       %l3
    0x100006a88:            a4 10 00 16  mov       %l6, %l2
    0x100006a8c:            a8 10 00 15  mov       %l5, %l4
    0x100006a90:            04 c6 00 6e  brlez,pn  %i0, +0x1b8   <0x100006c48>
    0x100006a94:            80 a4 60 03  cmp       %l1, 0x3
    0x100006a98:            f9 1c a0 00  ldd       [%l2], %d28
    0x100006a9c:            06 60 00 09  bl,pn     %xcc, +0x24   <0x100006ac0>
    0x100006aa0:            bd a0 00 dc  fnegd     %d28, %d30
    0x100006aa4:            9e 25 00 03  sub       %l4, %g3, %o7
    0x100006aa8:            bb 3b f0 3f  srax      %o7, 0x3f, %i5
    0x100006aac:            a0 1b c0 1d  xor       %o7, %i5, %l0
    0x100006ab0:            b6 24 00 1d  sub       %l0, %i5, %i3
    0x100006ab4:            80 a6 c0 04  cmp       %i3, %g4
    0x100006ab8:            16 68 00 22  bge,pt    %xcc, +0x88   <0x100006b40>
    0x100006abc:            ba 10 20 00  clr       %i5
    0x100006ac0:            80 a6 20 01  cmp       %i0, 0x1
    0x100006ac4:            9e 10 20 00  clr       %o7
    0x100006ac8:            a0 10 00 14  mov       %l4, %l0
    0x100006acc:            ba 10 00 03  mov       %g3, %i5
    0x100006ad0:            06 60 00 0f  bl,pn     %xcc, +0x3c   <0x100006b0c>
    0x100006ad4:            01 00 00 00  nop
    0x100006ad8:            9e 03 e0 01  add       %o7, 0x1, %o7
    0x100006adc:            db 1f 60 00  ldd       [%i5], %d44
    0x100006ae0:            ba 07 60 08  add       %i5, 0x8, %i5
    0x100006ae4:            80 a3 c0 11  cmp       %o7, %l1
    0x100006ae8:            a0 04 20 08  add       %l0, 0x8, %l0
    0x100006aec:            97 a3 49 5e  fmuld     %d44, %d30, %d42
    0x100006af0:            f1 1c 3f f8  ldd       [%l0 - 0x8], %d24
    0x100006af4:            bf a6 08 4b  faddd     %d24, %d42, %d62
    0x100006af8:            04 6f ff f8  ble,pt    %xcc, -0x20   <0x100006ad8>
    0x100006afc:            ff 3c 3f f8  std       %d62, [%l0 - 0x8]
    0x100006b00:            01 00 00 00  nop
    0x100006b04:            10 80 00 52  ba        +0x148        <0x100006c4c>
    0x100006b08:            a6 04 e0 01  add       %l3, 0x1, %l3
    0x100006b0c:            db 1f 60 00  ldd       [%i5], %d44
    0x100006b10:            97 a3 49 5e  fmuld     %d44, %d30, %d42
    0x100006b14:            f1 1c 20 00  ldd       [%l0], %d24
    0x100006b18:            9e 03 e0 01  add       %o7, 0x1, %o7
    0x100006b1c:            80 a3 c0 11  cmp       %o7, %l1
    0x100006b20:            ba 07 60 08  add       %i5, 0x8, %i5
    0x100006b24:            bf a6 08 4b  faddd     %d24, %d42, %d62
    0x100006b28:            ff 3c 20 00  std       %d62, [%l0]
    0x100006b2c:            a0 04 20 08  add       %l0, 0x8, %l0
    0x100006b30:            24 6f ff f8  ble,a,pt  %xcc, -0x20   <0x100006b10>
    0x100006b34:            db 1f 60 00  ldd       [%i5], %d44
    0x100006b38:            10 80 00 45  ba        +0x114        <0x100006c4c>
    0x100006b3c:            a6 04 e0 01  add       %l3, 0x1, %l3
    0x100006b40:            80 a6 20 07  cmp       %i0, 0x7
    0x100006b44:            9e 10 00 14  mov       %l4, %o7
    0x100006b48:            a0 10 00 03  mov       %g3, %l0
    0x100006b4c:            06 60 00 34  bl,pn     %xcc, +0xd0   <0x100006c1c>
    0x100006b50:            01 00 00 00  nop
    0x100006b54:            db 18 e0 00  ldd       [%g3], %d44
    0x100006b58:            d3 18 e0 08  ldd       [%g3 + 0x8], %d40
    0x100006b5c:            ff 18 e0 10  ldd       [%g3 + 0x10], %d62
    0x100006b60:            f5 18 e0 18  ldd       [%g3 + 0x18], %d26
    0x100006b64:            ef 1d 20 00  ldd       [%l4], %d54
    0x100006b68:            a3 a0 00 5e  fmovd     %d30, %d48
    0x100006b6c:            a0 00 e0 20  add       %g3, 0x20, %l0
    0x100006b70:            a7 a2 49 5e  fmuld     %d40, %d30, %d50
    0x100006b74:            f9 1d 20 08  ldd       [%l4 + 0x8], %d28
    0x100006b78:            9e 05 20 18  add       %l4, 0x18, %o7
    0x100006b7c:            ba 10 20 04  mov       0x4, %i5
    0x100006b80:            bb a3 49 5e  fmuld     %d44, %d30, %d60
    0x100006b84:            f7 1d 20 10  ldd       [%l4 + 0x10], %d58
    0x100006b88:            b6 06 3f fd  add       %i0, -0x3, %i3
    0x100006b8c:            ba 07 60 03  add       %i5, 0x3, %i5
    0x100006b90:            f1 1c 20 00  ldd       [%l0], %d24
    0x100006b94:            a0 04 20 18  add       %l0, 0x18, %l0
    0x100006b98:            bd a5 c8 5d  faddd     %d54, %d60, %d30
    0x100006b9c:            80 a7 40 1b  cmp       %i5, %i3
    0x100006ba0:            ef 1b e0 00  ldd       [%o7], %d54
    0x100006ba4:            9e 03 e0 18  add       %o7, 0x18, %o7
    0x100006ba8:            fd 3b ff d0  std       %d30, [%o7 - 0x30]
    0x100006bac:            97 a7 c9 51  fmuld     %d62, %d48, %d42
    0x100006bb0:            a7 a7 08 53  faddd     %d28, %d50, %d50
    0x100006bb4:            ff 1c 3f f0  ldd       [%l0 - 0x10], %d62
    0x100006bb8:            f9 1b ff f0  ldd       [%o7 - 0x10], %d28
    0x100006bbc:            e7 3b ff d8  std       %d50, [%o7 - 0x28]
    0x100006bc0:            bb a6 89 51  fmuld     %d26, %d48, %d60
    0x100006bc4:            b3 a6 c8 4b  faddd     %d58, %d42, %d56
    0x100006bc8:            f5 1c 3f f8  ldd       [%l0 - 0x8], %d26
    0x100006bcc:            f7 1b ff f8  ldd       [%o7 - 0x8], %d58
    0x100006bd0:            f3 3b ff e0  std       %d56, [%o7 - 0x20]
    0x100006bd4:            04 6f ff ee  ble,pt    %xcc, -0x48   <0x100006b8c>
    0x100006bd8:            a7 a6 09 51  fmuld     %d24, %d48, %d50
    0x100006bdc:            b1 a7 c9 51  fmuld     %d62, %d48, %d24
    0x100006be0:            ab a6 89 51  fmuld     %d26, %d48, %d52
    0x100006be4:            df 1b e0 00  ldd       [%o7], %d46
    0x100006be8:            b9 a7 08 53  faddd     %d28, %d50, %d28
    0x100006bec:            9e 03 e0 08  add       %o7, 0x8, %o7
    0x100006bf0:            f9 3b ff e8  std       %d28, [%o7 - 0x18]
    0x100006bf4:            b5 a6 c8 58  faddd     %d58, %d24, %d26
    0x100006bf8:            b7 a5 c8 5d  faddd     %d54, %d60, %d58
    0x100006bfc:            f7 3b ff e0  std       %d58, [%o7 - 0x20]
    0x100006c00:            bb a3 c8 55  faddd     %d46, %d52, %d60
    0x100006c04:            80 a7 40 11  cmp       %i5, %l1
    0x100006c08:            f5 3b ff f0  std       %d26, [%o7 - 0x10]
    0x100006c0c:            fb 3b ff f8  std       %d60, [%o7 - 0x8]
    0x100006c10:            bd a0 00 51  fmovd     %d48, %d30
    0x100006c14:            14 60 00 0d  bg,pn     %xcc, +0x34   <0x100006c48>
    0x100006c18:            01 00 00 00  nop
    0x100006c1c:            e3 1c 20 00  ldd       [%l0], %d48
    0x100006c20:            a7 a4 49 5e  fmuld     %d48, %d30, %d50
    0x100006c24:            ef 1b e0 00  ldd       [%o7], %d54
    0x100006c28:            ba 07 60 01  add       %i5, 0x1, %i5
    0x100006c2c:            80 a7 40 11  cmp       %i5, %l1
    0x100006c30:            a0 04 20 08  add       %l0, 0x8, %l0
    0x100006c34:            b3 a5 c8 53  faddd     %d54, %d50, %d56
    0x100006c38:            f3 3b e0 00  std       %d56, [%o7]
    0x100006c3c:            9e 03 e0 08  add       %o7, 0x8, %o7
    0x100006c40:            24 6f ff f8  ble,a,pt  %xcc, -0x20   <0x100006c20>
    0x100006c44:            e3 1c 20 00  ldd       [%l0], %d48
    0x100006c48:            a6 04 e0 01  add       %l3, 0x1, %l3
    0x100006c4c:            80 a4 c0 02  cmp       %l3, %g2
    0x100006c50:            a8 05 00 04  add       %l4, %g4, %l4
    0x100006c54:            04 6f ff 8f  ble,pt    %xcc, -0x1c4  <0x100006a90>
    0x100006c58:            a4 04 80 0d  add       %l2, %o5, %l2
    0x100006c5c:            ae 05 e0 01  add       %l7, 0x1, %l7
    0x100006c60:            80 a5 c0 0c  cmp       %l7, %o4
    0x100006c64:            86 00 c0 04  add       %g3, %g4, %g3
    0x100006c68:            04 6f ff 86  ble,pt    %xcc, -0x1e8  <0x100006a80>
    0x100006c6c:            ac 05 a0 08  add       %l6, 0x8, %l6
    0x100006c70:            96 02 e0 01  add       %o3, 0x1, %o3
    0x100006c74:            ae 10 00 09  mov       %o1, %l7
    0x100006c78:            8a 01 40 0a  add       %g5, %o2, %g5
    0x100006c7c:            90 02 00 0a  add       %o0, %o2, %o0
    0x100006c80:            fa 5b a8 d7  ldx       [%sp + 0x8d7], %i5
    0x100006c84:            e6 5b a9 17  ldx       [%sp + 0x917], %l3
    0x100006c88:            e4 5b a9 4f  ldx       [%sp + 0x94f], %l2
    0x100006c8c:            80 a2 40 1d  cmp       %o1, %i5
    0x100006c90:            ac 02 c0 13  add       %o3, %l3, %l6
    0x100006c94:            87 35 b0 3f  srlx      %l6, 0x3f, %g3
    0x100006c98:            a8 18 e0 01  xor       %g3, 0x1, %l4
    0x100006c9c:            ba 20 00 14  neg       %l4, %i5
    0x100006ca0:            a0 04 a0 01  add       %l2, 0x1, %l0
    0x100006ca4:            a4 10 20 00  clr       %l2
    0x100006ca8:            d2 5b a9 27  ldx       [%sp + 0x927], %o1
    0x100006cac:            92 0f 40 09  and       %i5, %o1, %o1
    0x100006cb0:            84 02 60 01  add       %o1, 0x1, %g2
    0x100006cb4:            9e 1c 00 02  xor       %l0, %g2, %o7
    0x100006cb8:            a5 7b e4 01  movre     %o7, 0x1, %l2
    0x100006cbc:            c4 5b a9 2f  ldx       [%sp + 0x92f], %g2
    0x100006cc0:            b2 20 00 12  neg       %l2, %i1
    0x100006cc4:            a7 3e 60 00  sra       %i1, 0x0, %l3
    0x100006cc8:            b6 0c c0 02  and       %l3, %g2, %i3
    0x100006ccc:            a6 24 00 1b  sub       %l0, %i3, %l3
    0x100006cd0:            e6 73 a9 4f  stx       %l3, [%sp + 0x94f]
    0x100006cd4:            24 6f ff 5c  ble,a,pt  %xcc, -0x290  <0x100006a44>
    0x100006cd8:            e8 5b a8 c7  ldx       [%sp + 0x8c7], %l4
    0x100006cdc:            ee 5f a7 07  ldx       [%fp + 0x707], %l7
    0x100006ce0:            f6 5f a7 0f  ldx       [%fp + 0x70f], %i3
    0x100006ce4:            c6 5f a7 17  ldx       [%fp + 0x717], %g3
    0x100006ce8:            e4 5b a9 17  ldx       [%sp + 0x917], %l2
    0x100006cec:            e2 5b a9 3f  ldx       [%sp + 0x93f], %l1
    0x100006cf0:            c8 5b a8 d7  ldx       [%sp + 0x8d7], %g4
    0x100006cf4:            a6 05 e0 08  add       %l7, 0x8, %l3
    0x100006cf8:            e6 77 a7 07  stx       %l3, [%fp + 0x707]
    0x100006cfc:            ae 06 e0 08  add       %i3, 0x8, %l7
    0x100006d00:            b6 00 e0 01  add       %g3, 0x1, %i3
    0x100006d04:            ee 77 a7 0f  stx       %l7, [%fp + 0x70f]
    0x100006d08:            ac 04 a0 01  add       %l2, 0x1, %l6
    0x100006d0c:            f6 77 a7 17  stx       %i3, [%fp + 0x717]
    0x100006d10:            80 a4 40 04  cmp       %l1, %g4
    0x100006d14:            ec 73 a9 17  stx       %l6, [%sp + 0x917]
    0x100006d18:            90 10 00 11  mov       %l1, %o0
    0x100006d1c:            24 6f ff 26  ble,a,pt  %xcc, -0x368  <0x1000069b4>
    0x100006d20:            e0 5b a8 c7  ldx       [%sp + 0x8c7], %l0
    0x100006d24:            d8 03 a8 df  ld        [%sp + 0x8df], %o4
    0x100006d28:            80 90 00 0c  tst       %o4
    0x100006d2c:            22 48 00 5b  be,a,pt   %icc, +0x16c  <0x100006e98>
    0x100006d30:            c4 5b a8 d7  ldx       [%sp + 0x8d7], %g2
    0x100006d34:            92 10 20 00  clr       %o1
    0x100006d38:            40 04 08 6a  call      +0x1021a8     <0x100108ee0>
    0x100006d3c:            90 07 a7 37  add       %fp, 0x737, %o0
    0x100006d40:            ee 5f a7 37  ldx       [%fp + 0x737], %l7
    0x100006d44:            ca 5b a8 b7  ldx       [%sp + 0x8b7], %g5
    0x100006d48:            c6 5f a7 3f  ldx       [%fp + 0x73f], %g3
    0x100006d4c:            d4 5b a8 af  ldx       [%sp + 0x8af], %o2
    0x100006d50:            d0 5f a7 47  ldx       [%fp + 0x747], %o0
    0x100006d54:            e2 5f a7 6f  ldx       [%fp + 0x76f], %l1
    0x100006d58:            d2 5f a7 87  ldx       [%fp + 0x787], %o1
    0x100006d5c:            ea 5f a7 af  ldx       [%fp + 0x7af], %l5
    0x100006d60:            df 19 60 08  ldd       [%g5 + 0x8], %d46
    0x100006d64:            e5 01 60 10  ld        [%g5 + 0x10], %f18
    0x100006d68:            c5 01 60 10  ld        [%g5 + 0x10], %f2
    0x100006d6c:            d9 01 60 10  ld        [%g5 + 0x10], %f12
    0x100006d70:            e1 01 60 10  ld        [%g5 + 0x10], %f16
    0x100006d74:            c9 01 60 10  ld        [%g5 + 0x10], %f4
    0x100006d78:            e9 01 60 10  ld        [%g5 + 0x10], %f20
    0x100006d7c:            ed 01 60 10  ld        [%g5 + 0x10], %f22
    0x100006d80:            dd 01 60 10  ld        [%g5 + 0x10], %f14
    0x100006d84:            f6 5f a7 c7  ldx       [%fp + 0x7c7], %i3
    0x100006d88:            f5 1a a8 30  ldd       [%o2 + 0x830], %d26
    0x100006d8c:            f1 1a a8 30  ldd       [%o2 + 0x830], %d24
    0x100006d90:            db 1a a8 30  ldd       [%o2 + 0x830], %d44
    0x100006d94:            9b 2d f0 05  sllx      %l7, 0x5, %o5
    0x100006d98:            ef 1a a8 30  ldd       [%o2 + 0x830], %d54
    0x100006d9c:            98 25 c0 0d  sub       %l7, %o5, %o4
    0x100006da0:            eb 1a a8 30  ldd       [%o2 + 0x830], %d52
    0x100006da4:            a5 2b 30 09  sllx      %o4, 0x9, %l2
    0x100006da8:            e7 1a a8 30  ldd       [%o2 + 0x830], %d50
    0x100006dac:            a6 24 80 17  sub       %l2, %l7, %l3
    0x100006db0:            b3 2c f0 06  sllx      %l3, 0x6, %i1
    0x100006db4:            e3 1a a8 30  ldd       [%o2 + 0x830], %d48
    0x100006db8:            ac 26 40 13  sub       %i1, %l3, %l6
    0x100006dbc:            f3 1a a8 30  ldd       [%o2 + 0x830], %d56
    0x100006dc0:            84 25 c0 16  sub       %l7, %l6, %g2
    0x100006dc4:            88 00 c0 02  add       %g3, %g2, %g4
    0x100006dc8:            d6 5b a8 cf  ldx       [%sp + 0x8cf], %o3
    0x100006dcc:            8a 21 00 08  sub       %g4, %o0, %g5
    0x100006dd0:            ca 73 a9 cf  stx       %g5, [%sp + 0x9cf]
    0x100006dd4:            9e 22 00 11  sub       %o0, %l1, %o7
    0x100006dd8:            c1 1b a9 cf  ldd       [%sp + 0x9cf], %d0
    0x100006ddc:            94 24 40 09  sub       %l1, %o1, %o2
    0x100006de0:            ba 22 40 15  sub       %o1, %l5, %i5
    0x100006de4:            87 a0 00 20  fmovs     %f0, %f3
    0x100006de8:            8b a0 00 21  fmovs     %f1, %f5
    0x100006dec:            d4 73 a9 d7  stx       %o2, [%sp + 0x9d7]
    0x100006df0:            cd 1b a9 d7  ldd       [%sp + 0x9d7], %d6
    0x100006df4:            b0 07 40 0f  add       %i5, %o7, %i0
    0x100006df8:            a8 25 40 1b  sub       %l5, %i3, %l4
    0x100006dfc:            9b a0 00 26  fmovs     %f6, %f13
    0x100006e00:            bf a0 88 cd  fsubd     %d2, %d44, %d62
    0x100006e04:            9b a1 08 d8  fsubd     %d4, %d24, %d44
    0x100006e08:            9f a0 00 27  fmovs     %f7, %f15
    0x100006e0c:            f0 73 a9 c7  stx       %i0, [%sp + 0x9c7]
    0x100006e10:            e8 73 a9 df  stx       %l4, [%sp + 0x9df]
    0x100006e14:            bb a3 08 da  fsubd     %d12, %d26, %d60
    0x100006e18:            d1 1b a9 c7  ldd       [%sp + 0x9c7], %d8
    0x100006e1c:            d5 1b a9 df  ldd       [%sp + 0x9df], %d10
    0x100006e20:            b5 a3 88 d9  fsubd     %d14, %d56, %d26
    0x100006e24:            a3 a0 00 28  fmovs     %f8, %f17
    0x100006e28:            a7 a0 00 2a  fmovs     %f10, %f19
    0x100006e2c:            ab a0 00 29  fmovs     %f9, %f21
    0x100006e30:            af a0 00 2b  fmovs     %f11, %f23
    0x100006e34:            d7 1a e0 10  ldd       [%o3 + 0x10], %d42
    0x100006e38:            fd 1a e0 00  ldd       [%o3], %d30
    0x100006e3c:            b7 a4 08 d7  fsubd     %d16, %d54, %d58
    0x100006e40:            b1 a4 88 d5  fsubd     %d18, %d52, %d24
    0x100006e44:            af a5 08 d3  fsubd     %d20, %d50, %d54
    0x100006e48:            ab a5 88 d1  fsubd     %d22, %d48, %d52
    0x100006e4c:            a7 a7 c9 4f  fmuld     %d62, %d46, %d50
    0x100006e50:            a3 a7 49 4f  fmuld     %d60, %d46, %d48
    0x100006e54:            f9 1a e0 08  ldd       [%o3 + 0x8], %d28
    0x100006e58:            b3 a6 09 4f  fmuld     %d24, %d46, %d56
    0x100006e5c:            bb a6 c9 4f  fmuld     %d58, %d46, %d60
    0x100006e60:            d3 1a e0 18  ldd       [%o3 + 0x18], %d40
    0x100006e64:            bf a3 48 53  faddd     %d44, %d50, %d62
    0x100006e68:            a7 a6 88 51  faddd     %d26, %d48, %d50
    0x100006e6c:            b7 a5 48 59  faddd     %d52, %d56, %d58
    0x100006e70:            b1 a5 c8 5d  faddd     %d54, %d60, %d24
    0x100006e74:            9f a2 c8 5f  faddd     %d42, %d62, %d46
    0x100006e78:            df 3a e0 10  std       %d46, [%o3 + 0x10]
    0x100006e7c:            97 a7 08 53  faddd     %d28, %d50, %d42
    0x100006e80:            d7 3a e0 08  std       %d42, [%o3 + 0x8]
    0x100006e84:            9b a2 48 58  faddd     %d40, %d24, %d44
    0x100006e88:            db 3a e0 18  std       %d44, [%o3 + 0x18]
    0x100006e8c:            a3 a7 88 5b  faddd     %d30, %d58, %d48
    0x100006e90:            e3 3a e0 00  std       %d48, [%o3]
    0x100006e94:            c4 5b a8 d7  ldx       [%sp + 0x8d7], %g2
    0x100006e98:            e2 5f a6 ff  ldx       [%fp + 0x6ff], %l1
    0x100006e9c:            d6 5b a8 ff  ldx       [%sp + 0x8ff], %o3
    0x100006ea0:            d8 5b a9 0f  ldx       [%sp + 0x90f], %o4
    0x100006ea4:            ba 04 60 08  add       %l1, 0x8, %i5
    0x100006ea8:            d8 73 a9 57  stx       %o4, [%sp + 0x957]
    0x100006eac:            80 a2 c0 02  cmp       %o3, %g2
    0x100006eb0:            fa 77 a6 ff  stx       %i5, [%fp + 0x6ff]
    0x100006eb4:            a0 10 00 0b  mov       %o3, %l0
    0x100006eb8:            24 6f fa 8e  ble,a,pt  %xcc, -0x15c8 <0x1000058f0>
    0x100006ebc:            d4 5b a8 c7  ldx       [%sp + 0x8c7], %o2
    0x100006ec0:            81 c7 e0 08  ret
    0x100006ec4:            81 e8 20 00  restore   %g0, 0x0, %g0
    0x100006ec8:            1f 00 04 00  sethi     %hi(0x100000), %o7
    0x100006ecc:            94 13 e0 08  or        %o7, 0x8, %o2
    0x100006ed0:            93 2a b0 0c  sllx      %o2, 0xc, %o1
    0x100006ed4:            40 04 08 4b  call      +0x10212c     <0x100109000>
    0x100006ed8:            90 02 6c e8  add       %o1, 0xce8, %o0
    0x100006edc:            40 04 07 f1  call      +0x101fc4     <0x100108ea0>
    0x100006ee0:            90 10 3f ff  mov       -0x1, %o0
    0x100006ee4:            da 5b a8 f7  ldx       [%sp + 0x8f7], %o5
    0x100006ee8:            e8 5b 61 30  ldx       [%o5 + 0x130], %l4
    0x100006eec:            10 bf fb d5  ba        -0x10ac       <0x100005e40>
    0x100006ef0:            c8 5d 20 78  ldx       [%l4 + 0x78], %g4
    0x100006ef4:            3b 00 04 00  sethi     %hi(0x100000), %i5
    0x100006ef8:            a0 17 60 08  or        %i5, 0x8, %l0
    0x100006efc:            97 2c 30 0c  sllx      %l0, 0xc, %o3
    0x100006f00:            40 04 08 40  call      +0x102100     <0x100109000>
    0x100006f04:            90 02 ed 18  add       %o3, 0xd18, %o0
    0x100006f08:            40 04 07 e6  call      +0x101f98     <0x100108ea0>
    0x100006f0c:            90 10 3f ff  mov       -0x1, %o0
    0x100006f10:            fa 5b a8 f7  ldx       [%sp + 0x8f7], %i5
    0x100006f14:            da 5f 61 30  ldx       [%i5 + 0x130], %o5
    0x100006f18:            10 bf fe 23  ba        -0x774        <0x1000067a4>
    0x100006f1c:            ea 5b 60 78  ldx       [%o5 + 0x78], %l5
    0x100006f20:            3f 00 00 20  sethi     %hi(0x8000), %i7
    0x100006f24:            00 40 00 80  bn,pn     %icc, +0x200  <0x100007124>
    0x100006f28:            40 24 00 00  call      +0x900000     <0x100906f28>
    0x100006f2c:            00 00 00 00  illtrap   0x0
    0x100006f30:            00 00 00 00  illtrap   0x0
    0x100006f34:            00 00 00 00  illtrap   0x0
InitA()
    0x100006f38:            9d e3 bf 40  save      %sp, -0xc0, %sp
    0x100006f3c:            23 00 04 00  sethi     %hi(0x100000), %l1
    0x100006f40:            a4 14 61 09  or        %l1, 0x109, %l2
    0x100006f44:            90 10 20 01  mov       0x1, %o0
    0x100006f48:            a1 2c b0 0c  sllx      %l2, 0xc, %l0
    0x100006f4c:            27 00 04 00  sethi     %hi(0x100000), %l3
    0x100006f50:            39 00 04 00  sethi     %hi(0x100000), %i4
    0x100006f54:            ac 14 e1 09  or        %l3, 0x109, %l6
    0x100006f58:            ad 2d b0 0c  sllx      %l6, 0xc, %l6
    0x100006f5c:            40 04 08 19  call      +0x102064     <0x100108fc0>
    0x100006f60:            f0 73 a8 af  stx       %i0, [%sp + 0x8af]
    0x100006f64:            e4 5c 24 e8  ldx       [%l0 + 0x4e8], %l2
    0x100006f68:            98 17 21 09  or        %i4, 0x109, %o4
    0x100006f6c:            b9 2b 30 0c  sllx      %o4, 0xc, %i4
    0x100006f70:            b0 24 a0 01  sub       %l2, 0x1, %i0
    0x100006f74:            e6 5d a4 d8  ldx       [%l6 + 0x4d8], %l3
    0x100006f78:            80 8c 80 18  btst      %i0, %l2
    0x100006f7c:            e2 5f 26 90  ldx       [%i4 + 0x690], %l1
    0x100006f80:            12 60 00 0c  bne,pn    %xcc, +0x30   <0x100006fb0>
    0x100006f84:            01 00 00 00  nop
    0x100006f88:            02 c4 80 0a  brz,pn    %l2, +0x28    <0x100006fb0>
    0x100006f8c:            af 3c f0 3f  srax      %l3, 0x3f, %l7
    0x100006f90:            a8 1c c0 17  xor       %l3, %l7, %l4
    0x100006f94:            aa 25 00 17  sub       %l4, %l7, %l5
    0x100006f98:            ba 8d 40 18  andcc     %l5, %i0, %i5
    0x100006f9c:            b4 1f 40 17  xor       %i5, %l7, %i2
    0x100006fa0:            96 26 80 17  sub       %i2, %l7, %o3
    0x100006fa4:            bb 66 50 0b  movne     %xcc, %o3, %i5
    0x100006fa8:            10 80 00 05  ba        +0x14         <0x100006fbc>
    0x100006fac:            01 00 00 00  nop
    0x100006fb0:            bb 6c c0 12  sdivx     %l3, %l2, %i5
    0x100006fb4:            b6 4f 40 12  mulx      %i5, %l2, %i3
    0x100006fb8:            ba 24 c0 1b  sub       %l3, %i3, %i5
    0x100006fbc:            04 c4 c0 5a  brlez,pn  %l3, +0x168   <0x100007124>
    0x100006fc0:            1f 00 04 00  sethi     %hi(0x100000), %o7
    0x100006fc4:            9a 13 e0 06  or        %o7, 0x6, %o5
    0x100006fc8:            b3 2b 70 0c  sllx      %o5, 0xc, %i1
    0x100006fcc:            ae 06 6f 30  add       %i1, 0xf30, %l7
    0x100006fd0:            a8 10 20 00  clr       %l4
    0x100006fd4:            04 c4 c0 50  brlez,pn  %l3, +0x140   <0x100007114>
    0x100006fd8:            b6 10 20 00  clr       %i3
    0x100006fdc:            93 6d 00 12  sdivx     %l4, %l2, %o1
    0x100006fe0:            87 6e c0 12  sdivx     %i3, %l2, %g3
    0x100006fe4:            15 00 04 00  sethi     %hi(0x100000), %o2
    0x100006fe8:            96 12 a1 0a  or        %o2, 0x10a, %o3
    0x100006fec:            83 2a f0 0c  sllx      %o3, 0xc, %g1
    0x100006ff0:            a2 24 c0 1b  sub       %l3, %i3, %l1
    0x100006ff4:            b0 24 c0 1d  sub       %l3, %i5, %i0
    0x100006ff8:            b2 10 00 12  mov       %l2, %i1
    0x100006ffc:            b4 10 00 12  mov       %l2, %i2
    0x100007000:            ca 58 61 28  ldx       [%g1 + 0x128], %g5
    0x100007004:            80 a4 40 1d  cmp       %l1, %i5
    0x100007008:            b3 64 90 18  movle     %xcc, %i0, %i1
    0x10000700c:            98 4a 40 05  mulx      %o1, %g5, %o4
    0x100007010:            a6 24 c0 14  sub       %l3, %l4, %l3
    0x100007014:            b5 64 90 1d  movle     %xcc, %i5, %i2
    0x100007018:            80 a4 c0 1d  cmp       %l3, %i5
    0x10000701c:            b1 66 90 12  movg      %xcc, %l2, %i0
    0x100007020:            40 04 07 f0  call      +0x101fc0     <0x100108fe0>
    0x100007024:            aa 00 c0 0c  add       %g3, %o4, %l5
    0x100007028:            e6 5d a4 d8  ldx       [%l6 + 0x4d8], %l3
    0x10000702c:            9e 26 60 01  sub       %i1, 0x1, %o7
    0x100007030:            e4 5c 24 e8  ldx       [%l0 + 0x4e8], %l2
    0x100007034:            80 8e 40 0f  btst      %o7, %i1
    0x100007038:            e2 5f 26 90  ldx       [%i4 + 0x690], %l1
    0x10000703c:            12 60 00 0c  bne,pn    %xcc, +0x30   <0x10000706c>
    0x100007040:            01 00 00 00  nop
    0x100007044:            02 c6 40 0a  brz,pn    %i1, +0x28    <0x10000706c>
    0x100007048:            85 3e f0 3f  srax      %i3, 0x3f, %g2
    0x10000704c:            8a 1e c0 02  xor       %i3, %g2, %g5
    0x100007050:            92 21 40 02  sub       %g5, %g2, %o1
    0x100007054:            88 8a 40 0f  andcc     %o1, %o7, %g4
    0x100007058:            86 19 00 02  xor       %g4, %g2, %g3
    0x10000705c:            94 20 c0 02  sub       %g3, %g2, %o2
    0x100007060:            89 66 50 0a  movne     %xcc, %o2, %g4
    0x100007064:            10 80 00 06  ba        +0x18         <0x10000707c>
    0x100007068:            9a 26 20 01  sub       %i0, 0x1, %o5
    0x10000706c:            89 6e c0 19  sdivx     %i3, %i1, %g4
    0x100007070:            82 49 00 19  mulx      %g4, %i1, %g1
    0x100007074:            88 26 c0 01  sub       %i3, %g1, %g4
    0x100007078:            9a 26 20 01  sub       %i0, 0x1, %o5
    0x10000707c:            80 8e 00 0d  btst      %o5, %i0
    0x100007080:            12 60 00 0c  bne,pn    %xcc, +0x30   <0x1000070b0>
    0x100007084:            01 00 00 00  nop
    0x100007088:            02 c6 00 0a  brz,pn    %i0, +0x28    <0x1000070b0>
    0x10000708c:            99 3d 30 3f  srax      %l4, 0x3f, %o4
    0x100007090:            92 1d 00 0c  xor       %l4, %o4, %o1
    0x100007094:            94 22 40 0c  sub       %o1, %o4, %o2
    0x100007098:            9e 8a 80 0d  andcc     %o2, %o5, %o7
    0x10000709c:            96 1b c0 0c  xor       %o7, %o4, %o3
    0x1000070a0:            b0 22 c0 0c  sub       %o3, %o4, %i0
    0x1000070a4:            9f 66 50 18  movne     %xcc, %i0, %o7
    0x1000070a8:            10 80 00 06  ba        +0x18         <0x1000070c0>
    0x1000070ac:            b2 4b c0 1a  mulx      %o7, %i2, %i1
    0x1000070b0:            85 6d 00 18  sdivx     %l4, %i0, %g2
    0x1000070b4:            8a 48 80 18  mulx      %g2, %i0, %g5
    0x1000070b8:            9e 25 00 05  sub       %l4, %g5, %o7
    0x1000070bc:            b2 4b c0 1a  mulx      %o7, %i2, %i1
    0x1000070c0:            d0 73 a8 b7  stx       %o0, [%sp + 0x8b7]
    0x1000070c4:            d5 1b a8 b7  ldd       [%sp + 0x8b7], %d10
    0x1000070c8:            d9 1d ff f0  ldd       [%l7 - 0x10], %d12
    0x1000070cc:            83 2d 70 03  sllx      %l5, 0x3, %g1
    0x1000070d0:            9d a0 11 0a  fxtod     %d10, %d14
    0x1000070d4:            80 a6 c0 14  cmp       %i3, %l4
    0x1000070d8:            c4 5c 40 01  ldx       [%l1 + %g1], %g2
    0x1000070dc:            86 01 00 19  add       %g4, %i1, %g3
    0x1000070e0:            a5 a3 89 4c  fmuld     %d14, %d12, %d18
    0x1000070e4:            02 60 00 05  be,pn     %xcc, +0x14   <0x1000070f8>
    0x1000070e8:            89 28 f0 03  sllx      %g3, 0x3, %g4
    0x1000070ec:            e5 38 80 04  std       %d18, [%g2 + %g4]
    0x1000070f0:            10 80 00 06  ba        +0x18         <0x100007108>
    0x1000070f4:            b6 06 e0 01  add       %i3, 0x1, %i3
    0x1000070f8:            e1 1d ff f8  ldd       [%l7 - 0x8], %d16
    0x1000070fc:            b6 06 e0 01  add       %i3, 0x1, %i3
    0x100007100:            a9 a4 89 50  fmuld     %d18, %d16, %d20
    0x100007104:            e9 38 80 04  std       %d20, [%g2 + %g4]
    0x100007108:            80 a6 c0 13  cmp       %i3, %l3
    0x10000710c:            26 6f ff b5  bl,a,pt   %xcc, -0x12c  <0x100006fe0>
    0x100007110:            93 6d 00 12  sdivx     %l4, %l2, %o1
    0x100007114:            a8 05 20 01  add       %l4, 0x1, %l4
    0x100007118:            80 a5 00 13  cmp       %l4, %l3
    0x10000711c:            06 6f ff ae  bl,pt     %xcc, -0x148  <0x100006fd4>
    0x100007120:            01 00 00 00  nop
    0x100007124:            04 c4 c0 e7  brlez,pn  %l3, +0x39c   <0x1000074c0>
    0x100007128:            b4 10 20 00  clr       %i2
    0x10000712c:            80 a4 e0 04  cmp       %l3, 0x4
    0x100007130:            b2 04 ff ff  add       %l3, -0x1, %i1
    0x100007134:            f6 5b a8 af  ldx       [%sp + 0x8af], %i3
    0x100007138:            06 60 00 0f  bl,pn     %xcc, +0x3c   <0x100007174>
    0x10000713c:            01 00 00 00  nop
    0x100007140:            b8 04 ff fc  add       %l3, -0x4, %i4
    0x100007144:            ed 6e e1 10  prefetch  [%i3 + 0x110], #n_writes_strong
    0x100007148:            c0 76 e0 00  clrx      [%i3]
    0x10000714c:            b4 06 a0 04  add       %i2, 0x4, %i2
    0x100007150:            b6 06 e0 20  add       %i3, 0x20, %i3
    0x100007154:            c0 76 ff e8  clrx      [%i3 - 0x18]
    0x100007158:            80 a6 80 1c  cmp       %i2, %i4
    0x10000715c:            c0 76 ff f0  clrx      [%i3 - 0x10]
    0x100007160:            04 6f ff f9  ble,pt    %xcc, -0x1c   <0x100007144>
    0x100007164:            c0 76 ff f8  clrx      [%i3 - 0x8]
    0x100007168:            80 a6 80 19  cmp       %i2, %i1
    0x10000716c:            14 60 00 08  bg,pn     %xcc, +0x20   <0x10000718c>
    0x100007170:            01 00 00 00  nop
    0x100007174:            b4 06 a0 01  add       %i2, 0x1, %i2
    0x100007178:            80 a6 80 19  cmp       %i2, %i1
    0x10000717c:            c0 76 e0 00  clrx      [%i3]
    0x100007180:            b6 06 e0 08  add       %i3, 0x8, %i3
    0x100007184:            04 6f ff fd  ble,pt    %xcc, -0xc    <0x100007178>
    0x100007188:            b4 06 a0 01  add       %i2, 0x1, %i2
    0x10000718c:            a0 10 20 00  clr       %l0
    0x100007190:            a1 7c a4 01  movre     %l2, 0x1, %l0
    0x100007194:            86 04 80 10  add       %l2, %l0, %g3
    0x100007198:            93 3c b0 3f  srax      %l2, 0x3f, %o1
    0x10000719c:            82 20 e0 01  sub       %g3, 0x1, %g1
    0x1000071a0:            80 88 c0 01  btst      %g1, %g3
    0x1000071a4:            8a 1c 80 09  xor       %l2, %o1, %g5
    0x1000071a8:            82 21 40 09  sub       %g5, %o1, %g1
    0x1000071ac:            12 60 00 06  bne,pn    %xcc, +0x18   <0x1000071c4>
    0x1000071b0:            ae 10 20 00  clr       %l7
    0x1000071b4:            02 c0 c0 04  brz,pn    %g3, +0x10    <0x1000071c4>
    0x1000071b8:            84 10 20 00  clr       %g2
    0x1000071bc:            10 80 00 06  ba        +0x18         <0x1000071d4>
    0x1000071c0:            87 68 00 03  sdivx     %g0, %g3, %g3
    0x1000071c4:            97 68 00 03  sdivx     %g0, %g3, %o3
    0x1000071c8:            94 4a c0 03  mulx      %o3, %g3, %o2
    0x1000071cc:            84 20 00 0a  neg       %o2, %g2
    0x1000071d0:            86 10 00 0b  mov       %o3, %g3
    0x1000071d4:            2d 00 04 00  sethi     %hi(0x100000), %l6
    0x1000071d8:            aa 15 a1 0a  or        %l6, 0x10a, %l5
    0x1000071dc:            9b 2d 70 0c  sllx      %l5, 0xc, %o5
    0x1000071e0:            a0 10 20 00  clr       %l0
    0x1000071e4:            a1 7c b8 01  movrgz    %l2, 0x1, %l0
    0x1000071e8:            9f 2c 30 01  sllx      %l0, 0x1, %o7
    0x1000071ec:            94 03 ff ff  add       %o7, -0x1, %o2
    0x1000071f0:            92 10 00 03  mov       %g3, %o1
    0x1000071f4:            90 10 00 02  mov       %g2, %o0
    0x1000071f8:            88 00 7f ff  add       %g1, -0x1, %g4
    0x1000071fc:            d8 5b 61 28  ldx       [%o5 + 0x128], %o4
    0x100007200:            96 24 c0 1d  sub       %l3, %i5, %o3
    0x100007204:            b8 24 c0 17  sub       %l3, %l7, %i4
    0x100007208:            8b 2b 30 03  sllx      %o4, 0x3, %g5
    0x10000720c:            80 a7 00 1d  cmp       %i4, %i5
    0x100007210:            04 60 00 4e  ble,pn    %xcc, +0x138  <0x100007348>
    0x100007214:            98 10 20 00  clr       %o4
    0x100007218:            b0 24 a0 01  sub       %l2, 0x1, %i0
    0x10000721c:            80 8c 80 18  btst      %i0, %l2
    0x100007220:            aa 10 00 13  mov       %l3, %l5
    0x100007224:            a8 10 00 03  mov       %g3, %l4
    0x100007228:            ec 5b a8 af  ldx       [%sp + 0x8af], %l6
    0x10000722c:            12 60 00 0c  bne,pn    %xcc, +0x30   <0x10000725c>
    0x100007230:            a0 10 00 02  mov       %g2, %l0
    0x100007234:            02 c4 80 0a  brz,pn    %l2, +0x28    <0x10000725c>
    0x100007238:            b9 3d f0 3f  srax      %l7, 0x3f, %i4
    0x10000723c:            9a 1d c0 1c  xor       %l7, %i4, %o5
    0x100007240:            b4 23 40 1c  sub       %o5, %i4, %i2
    0x100007244:            b6 8e 80 18  andcc     %i2, %i0, %i3
    0x100007248:            b0 1e c0 1c  xor       %i3, %i4, %i0
    0x10000724c:            9e 26 00 1c  sub       %i0, %i4, %o7
    0x100007250:            b7 66 50 0f  movne     %xcc, %o7, %i3
    0x100007254:            10 80 00 06  ba        +0x18         <0x10000726c>
    0x100007258:            b8 4a 40 05  mulx      %o1, %g5, %i4
    0x10000725c:            b7 6d c0 12  sdivx     %l7, %l2, %i3
    0x100007260:            9e 4e c0 12  mulx      %i3, %l2, %o7
    0x100007264:            b8 4a 40 05  mulx      %o1, %g5, %i4
    0x100007268:            b6 25 c0 0f  sub       %l7, %o7, %i3
    0x10000726c:            b8 07 00 11  add       %i4, %l1, %i4
    0x100007270:            80 a5 40 1d  cmp       %l5, %i5
    0x100007274:            b4 10 00 12  mov       %l2, %i2
    0x100007278:            b5 64 90 0b  movle     %xcc, %o3, %i2
    0x10000727c:            9a 10 00 12  mov       %l2, %o5
    0x100007280:            b0 26 a0 01  sub       %i2, 0x1, %i0
    0x100007284:            9b 64 90 1d  movle     %xcc, %i5, %o5
    0x100007288:            80 8e 80 18  btst      %i0, %i2
    0x10000728c:            12 60 00 0c  bne,pn    %xcc, +0x30   <0x1000072bc>
    0x100007290:            01 00 00 00  nop
    0x100007294:            02 c6 80 0a  brz,pn    %i2, +0x28    <0x1000072bc>
    0x100007298:            9f 3b 30 3f  srax      %o4, 0x3f, %o7
    0x10000729c:            b4 1b 00 0f  xor       %o4, %o7, %i2
    0x1000072a0:            b4 26 80 0f  sub       %i2, %o7, %i2
    0x1000072a4:            b0 8e 80 18  andcc     %i2, %i0, %i0
    0x1000072a8:            b4 1e 00 0f  xor       %i0, %o7, %i2
    0x1000072ac:            9e 26 80 0f  sub       %i2, %o7, %o7
    0x1000072b0:            b1 66 50 0f  movne     %xcc, %o7, %i0
    0x1000072b4:            10 80 00 06  ba        +0x18         <0x1000072cc>
    0x1000072b8:            b4 4e c0 0d  mulx      %i3, %o5, %i2
    0x1000072bc:            b1 6b 00 1a  sdivx     %o4, %i2, %i0
    0x1000072c0:            b4 4e 00 1a  mulx      %i0, %i2, %i2
    0x1000072c4:            b0 23 00 1a  sub       %o4, %i2, %i0
    0x1000072c8:            b4 4e c0 0d  mulx      %i3, %o5, %i2
    0x1000072cc:            98 03 20 01  add       %o4, 0x1, %o4
    0x1000072d0:            b0 06 00 1a  add       %i0, %i2, %i0
    0x1000072d4:            9f 33 30 3f  srlx      %o4, 0x3f, %o7
    0x1000072d8:            9b 2e 30 03  sllx      %i0, 0x3, %o5
    0x1000072dc:            b4 1b e0 01  xor       %o7, 0x1, %i2
    0x1000072e0:            b0 20 00 1a  neg       %i2, %i0
    0x1000072e4:            9e 0e 00 04  and       %i0, %g4, %o7
    0x1000072e8:            b4 03 e0 01  add       %o7, 0x1, %i2
    0x1000072ec:            9f 2d 30 03  sllx      %l4, 0x3, %o7
    0x1000072f0:            b0 04 20 01  add       %l0, 0x1, %i0
    0x1000072f4:            b4 1e 00 1a  xor       %i0, %i2, %i2
    0x1000072f8:            a0 10 20 00  clr       %l0
    0x1000072fc:            a1 7e a4 01  movre     %i2, 0x1, %l0
    0x100007300:            a0 20 00 10  neg       %l0
    0x100007304:            b5 3c 20 00  sra       %l0, 0x0, %i2
    0x100007308:            a0 0e 80 01  and       %i2, %g1, %l0
    0x10000730c:            80 a3 00 19  cmp       %o4, %i1
    0x100007310:            de 5b c0 1c  ldx       [%o7 + %i4], %o7
    0x100007314:            aa 25 60 01  sub       %l5, 0x1, %l5
    0x100007318:            a0 26 00 10  sub       %i0, %l0, %l0
    0x10000731c:            c1 1b c0 0d  ldd       [%o7 + %o5], %d0
    0x100007320:            9a 0e 80 0a  and       %i2, %o2, %o5
    0x100007324:            c5 1d a0 00  ldd       [%l6], %d2
    0x100007328:            a8 05 00 0d  add       %l4, %o5, %l4
    0x10000732c:            81 a0 88 40  faddd     %d2, %d0, %d0
    0x100007330:            c1 3d a0 00  std       %d0, [%l6]
    0x100007334:            ac 05 a0 08  add       %l6, 0x8, %l6
    0x100007338:            04 6f ff cf  ble,pt    %xcc, -0xc4   <0x100007274>
    0x10000733c:            80 a5 40 1d  cmp       %l5, %i5
    0x100007340:            10 80 00 4e  ba        +0x138        <0x100007478>
    0x100007344:            ae 05 e0 01  add       %l7, 0x1, %l7
    0x100007348:            b6 22 e0 01  sub       %o3, 0x1, %i3
    0x10000734c:            80 8a c0 1b  btst      %i3, %o3
    0x100007350:            b0 10 00 13  mov       %l3, %i0
    0x100007354:            9e 10 00 03  mov       %g3, %o7
    0x100007358:            e0 5b a8 af  ldx       [%sp + 0x8af], %l0
    0x10000735c:            12 60 00 0c  bne,pn    %xcc, +0x30   <0x10000738c>
    0x100007360:            ac 10 00 02  mov       %g2, %l6
    0x100007364:            02 c2 c0 0a  brz,pn    %o3, +0x28    <0x10000738c>
    0x100007368:            b9 3d f0 3f  srax      %l7, 0x3f, %i4
    0x10000736c:            9a 1d c0 1c  xor       %l7, %i4, %o5
    0x100007370:            b4 23 40 1c  sub       %o5, %i4, %i2
    0x100007374:            b6 8e 80 1b  andcc     %i2, %i3, %i3
    0x100007378:            a8 1e c0 1c  xor       %i3, %i4, %l4
    0x10000737c:            aa 25 00 1c  sub       %l4, %i4, %l5
    0x100007380:            b7 66 50 15  movne     %xcc, %l5, %i3
    0x100007384:            10 80 00 06  ba        +0x18         <0x10000739c>
    0x100007388:            a8 4a 40 05  mulx      %o1, %g5, %l4
    0x10000738c:            ab 6d c0 0b  sdivx     %l7, %o3, %l5
    0x100007390:            b6 4d 40 0b  mulx      %l5, %o3, %i3
    0x100007394:            a8 4a 40 05  mulx      %o1, %g5, %l4
    0x100007398:            b6 25 c0 1b  sub       %l7, %i3, %i3
    0x10000739c:            b8 05 00 11  add       %l4, %l1, %i4
    0x1000073a0:            80 a6 00 1d  cmp       %i0, %i5
    0x1000073a4:            aa 10 00 12  mov       %l2, %l5
    0x1000073a8:            ab 64 90 0b  movle     %xcc, %o3, %l5
    0x1000073ac:            a8 10 00 12  mov       %l2, %l4
    0x1000073b0:            9a 25 60 01  sub       %l5, 0x1, %o5
    0x1000073b4:            a9 64 90 1d  movle     %xcc, %i5, %l4
    0x1000073b8:            80 8d 40 0d  btst      %o5, %l5
    0x1000073bc:            12 60 00 0d  bne,pn    %xcc, +0x34   <0x1000073f0>
    0x1000073c0:            01 00 00 00  nop
    0x1000073c4:            02 c5 40 0b  brz,pn    %l5, +0x2c    <0x1000073f0>
    0x1000073c8:            01 00 00 00  nop
    0x1000073cc:            ab 3b 30 3f  srax      %o4, 0x3f, %l5
    0x1000073d0:            b4 1b 00 15  xor       %o4, %l5, %i2
    0x1000073d4:            b4 26 80 15  sub       %i2, %l5, %i2
    0x1000073d8:            9a 8e 80 0d  andcc     %i2, %o5, %o5
    0x1000073dc:            b4 1b 40 15  xor       %o5, %l5, %i2
    0x1000073e0:            aa 26 80 15  sub       %i2, %l5, %l5
    0x1000073e4:            9b 66 50 15  movne     %xcc, %l5, %o5
    0x1000073e8:            10 80 00 06  ba        +0x18         <0x100007400>
    0x1000073ec:            a8 4e c0 14  mulx      %i3, %l4, %l4
    0x1000073f0:            b5 6b 00 15  sdivx     %o4, %l5, %i2
    0x1000073f4:            aa 4e 80 15  mulx      %i2, %l5, %l5
    0x1000073f8:            a8 4e c0 14  mulx      %i3, %l4, %l4
    0x1000073fc:            9a 23 00 15  sub       %o4, %l5, %o5
    0x100007400:            aa 03 40 14  add       %o5, %l4, %l5
    0x100007404:            98 03 20 01  add       %o4, 0x1, %o4
    0x100007408:            9b 33 30 3f  srlx      %o4, 0x3f, %o5
    0x10000740c:            a9 2d 70 03  sllx      %l5, 0x3, %l4
    0x100007410:            b4 1b 60 01  xor       %o5, 0x1, %i2
    0x100007414:            aa 20 00 1a  neg       %i2, %l5
    0x100007418:            9a 0d 40 04  and       %l5, %g4, %o5
    0x10000741c:            ab 2b f0 03  sllx      %o7, 0x3, %l5
    0x100007420:            b4 03 60 01  add       %o5, 0x1, %i2
    0x100007424:            ac 05 a0 01  add       %l6, 0x1, %l6
    0x100007428:            b4 1d 80 1a  xor       %l6, %i2, %i2
    0x10000742c:            9a 10 20 00  clr       %o5
    0x100007430:            9b 7e a4 01  movre     %i2, 0x1, %o5
    0x100007434:            9a 20 00 0d  neg       %o5
    0x100007438:            b5 3b 60 00  sra       %o5, 0x0, %i2
    0x10000743c:            9a 0e 80 01  and       %i2, %g1, %o5
    0x100007440:            80 a3 00 19  cmp       %o4, %i1
    0x100007444:            ea 5d 40 1c  ldx       [%l5 + %i4], %l5
    0x100007448:            b0 26 20 01  sub       %i0, 0x1, %i0
    0x10000744c:            ac 25 80 0d  sub       %l6, %o5, %l6
    0x100007450:            c9 1d 40 14  ldd       [%l5 + %l4], %d4
    0x100007454:            a8 0e 80 0a  and       %i2, %o2, %l4
    0x100007458:            cd 1c 20 00  ldd       [%l0], %d6
    0x10000745c:            9e 03 c0 14  add       %o7, %l4, %o7
    0x100007460:            91 a1 88 44  faddd     %d6, %d4, %d8
    0x100007464:            d1 3c 20 00  std       %d8, [%l0]
    0x100007468:            a0 04 20 08  add       %l0, 0x8, %l0
    0x10000746c:            04 6f ff ce  ble,pt    %xcc, -0xc8   <0x1000073a4>
    0x100007470:            80 a6 00 1d  cmp       %i0, %i5
    0x100007474:            ae 05 e0 01  add       %l7, 0x1, %l7
    0x100007478:            a9 35 f0 3f  srlx      %l7, 0x3f, %l4
    0x10000747c:            aa 1d 20 01  xor       %l4, 0x1, %l5
    0x100007480:            b8 20 00 15  neg       %l5, %i4
    0x100007484:            ac 0f 00 04  and       %i4, %g4, %l6
    0x100007488:            b0 02 20 01  add       %o0, 0x1, %i0
    0x10000748c:            98 05 a0 01  add       %l6, 0x1, %o4
    0x100007490:            9e 1e 00 0c  xor       %i0, %o4, %o7
    0x100007494:            b6 10 20 00  clr       %i3
    0x100007498:            b7 7b e4 01  movre     %o7, 0x1, %i3
    0x10000749c:            90 20 00 1b  neg       %i3, %o0
    0x1000074a0:            b5 3a 20 00  sra       %o0, 0x0, %i2
    0x1000074a4:            a0 0e 80 01  and       %i2, %g1, %l0
    0x1000074a8:            a8 0e 80 0a  and       %i2, %o2, %l4
    0x1000074ac:            80 a5 c0 19  cmp       %l7, %i1
    0x1000074b0:            90 26 00 10  sub       %i0, %l0, %o0
    0x1000074b4:            92 02 40 14  add       %o1, %l4, %o1
    0x1000074b8:            04 6f ff 55  ble,pt    %xcc, -0x2ac  <0x10000720c>
    0x1000074bc:            b8 24 c0 17  sub       %l3, %l7, %i4
    0x1000074c0:            81 c7 e0 08  ret
    0x1000074c4:            81 e8 20 00  restore   %g0, 0x0, %g0
    0x1000074c8:            00 00 00 00  illtrap   0x0
    0x1000074cc:            00 00 00 00  illtrap   0x0
TouchA()
    0x1000074d0:            9d e3 bf 50  save      %sp, -0xb0, %sp
    0x1000074d4:            03 00 04 00  sethi     %hi(0x100000), %g1
    0x1000074d8:            84 10 61 0a  or        %g1, 0x10a, %g2
    0x1000074dc:            87 28 b0 0c  sllx      %g2, 0xc, %g3
    0x1000074e0:            09 00 04 00  sethi     %hi(0x100000), %g4
    0x1000074e4:            fa 58 e1 28  ldx       [%g3 + 0x128], %i5
    0x1000074e8:            8a 11 20 07  or        %g4, 0x7, %g5
    0x1000074ec:            91 29 70 0c  sllx      %g5, 0xc, %o0
    0x1000074f0:            c1 1a 24 c8  ldd       [%o0 + 0x4c8], %d0
    0x1000074f4:            04 c7 40 da  brlez,pn  %i5, +0x368   <0x10000785c>
    0x1000074f8:            13 00 04 00  sethi     %hi(0x100000), %o1
    0x1000074fc:            94 12 61 09  or        %o1, 0x109, %o2
    0x100007500:            9f 2a b0 0c  sllx      %o2, 0xc, %o7
    0x100007504:            17 00 04 00  sethi     %hi(0x100000), %o3
    0x100007508:            25 00 04 00  sethi     %hi(0x100000), %l2
    0x10000750c:            ac 10 20 00  clr       %l6
    0x100007510:            b8 12 e1 09  or        %o3, 0x109, %i4
    0x100007514:            a6 14 a1 09  or        %l2, 0x109, %l3
    0x100007518:            a3 2f 30 0c  sllx      %i4, 0xc, %l1
    0x10000751c:            a9 2c f0 0c  sllx      %l3, 0xc, %l4
    0x100007520:            92 10 20 00  clr       %o1
    0x100007524:            94 07 7f ff  add       %i5, -0x1, %o2
    0x100007528:            85 2f 70 03  sllx      %i5, 0x3, %g2
    0x10000752c:            e0 5b e4 e0  ldx       [%o7 + 0x4e0], %l0
    0x100007530:            d0 5c 64 d8  ldx       [%l1 + 0x4d8], %o0
    0x100007534:            c6 5d 26 90  ldx       [%l4 + 0x690], %g3
    0x100007538:            af 3c 30 3f  srax      %l0, 0x3f, %l7
    0x10000753c:            b4 1c 00 17  xor       %l0, %l7, %i2
    0x100007540:            ad 7c 24 01  movre     %l0, 0x1, %l6
    0x100007544:            8a 26 80 17  sub       %i2, %l7, %g5
    0x100007548:            82 04 00 16  add       %l0, %l6, %g1
    0x10000754c:            88 01 7f ff  add       %g5, -0x1, %g4
    0x100007550:            ae 20 60 01  sub       %g1, 0x1, %l7
    0x100007554:            80 88 40 17  btst      %l7, %g1
    0x100007558:            12 60 00 0c  bne,pn    %xcc, +0x30   <0x100007588>
    0x10000755c:            96 10 20 00  clr       %o3
    0x100007560:            02 c0 40 0a  brz,pn    %g1, +0x28    <0x100007588>
    0x100007564:            9b 3a 70 3f  srax      %o1, 0x3f, %o5
    0x100007568:            aa 1a 40 0d  xor       %o1, %o5, %l5
    0x10000756c:            ac 25 40 0d  sub       %l5, %o5, %l6
    0x100007570:            b4 8d 80 17  andcc     %l6, %l7, %i2
    0x100007574:            b6 1e 80 0d  xor       %i2, %o5, %i3
    0x100007578:            98 26 c0 0d  sub       %i3, %o5, %o4
    0x10000757c:            b5 66 50 0c  movne     %xcc, %o4, %i2
    0x100007580:            10 80 00 06  ba        +0x18         <0x100007598>
    0x100007584:            ae 10 00 03  mov       %g3, %l7
    0x100007588:            b5 6a 40 01  sdivx     %o1, %g1, %i2
    0x10000758c:            ae 4e 80 01  mulx      %i2, %g1, %l7
    0x100007590:            b4 22 40 17  sub       %o1, %l7, %i2
    0x100007594:            ae 10 00 03  mov       %g3, %l7
    0x100007598:            80 a6 80 19  cmp       %i2, %i1
    0x10000759c:            12 60 00 98  bne,pn    %xcc, +0x260  <0x1000077fc>
    0x1000075a0:            80 a2 40 0a  cmp       %o1, %o2
    0x1000075a4:            12 60 00 18  bne,pn    %xcc, +0x60   <0x100007604>
    0x1000075a8:            b8 26 20 01  sub       %i0, 0x1, %i4
    0x1000075ac:            80 8e 00 1c  btst      %i4, %i0
    0x1000075b0:            12 60 00 0e  bne,pn    %xcc, +0x38   <0x1000075e8>
    0x1000075b4:            01 00 00 00  nop
    0x1000075b8:            02 c6 00 0c  brz,pn    %i0, +0x30    <0x1000075e8>
    0x1000075bc:            a1 3a 30 3f  srax      %o0, 0x3f, %l0
    0x1000075c0:            a4 1a 00 10  xor       %o0, %l0, %l2
    0x1000075c4:            a6 24 80 10  sub       %l2, %l0, %l3
    0x1000075c8:            b6 8c c0 1c  andcc     %l3, %i4, %i3
    0x1000075cc:            a2 1e c0 10  xor       %i3, %l0, %l1
    0x1000075d0:            a8 24 40 10  sub       %l1, %l0, %l4
    0x1000075d4:            b7 66 50 14  movne     %xcc, %l4, %i3
    0x1000075d8:            80 90 00 1b  tst       %i3
    0x1000075dc:            b7 64 50 18  move      %xcc, %i0, %i3
    0x1000075e0:            10 80 00 0b  ba        +0x2c         <0x10000760c>
    0x1000075e4:            80 a2 c0 0a  cmp       %o3, %o2
    0x1000075e8:            b7 6a 00 18  sdivx     %o0, %i0, %i3
    0x1000075ec:            9a 4e c0 18  mulx      %i3, %i0, %o5
    0x1000075f0:            b6 22 00 0d  sub       %o0, %o5, %i3
    0x1000075f4:            80 90 00 1b  tst       %i3
    0x1000075f8:            b7 64 50 18  move      %xcc, %i0, %i3
    0x1000075fc:            10 80 00 04  ba        +0x10         <0x10000760c>
    0x100007600:            80 a2 c0 0a  cmp       %o3, %o2
    0x100007604:            b6 10 00 18  mov       %i0, %i3
    0x100007608:            80 a2 c0 0a  cmp       %o3, %o2
    0x10000760c:            12 60 00 18  bne,pn    %xcc, +0x60   <0x10000766c>
    0x100007610:            98 26 20 01  sub       %i0, 0x1, %o4
    0x100007614:            80 8e 00 0c  btst      %o4, %i0
    0x100007618:            12 60 00 0e  bne,pn    %xcc, +0x38   <0x100007650>
    0x10000761c:            01 00 00 00  nop
    0x100007620:            02 c6 00 0c  brz,pn    %i0, +0x30    <0x100007650>
    0x100007624:            ab 3a 30 3f  srax      %o0, 0x3f, %l5
    0x100007628:            a4 1a 00 15  xor       %o0, %l5, %l2
    0x10000762c:            a6 24 80 15  sub       %l2, %l5, %l3
    0x100007630:            b8 8c c0 0c  andcc     %l3, %o4, %i4
    0x100007634:            a8 1f 00 15  xor       %i4, %l5, %l4
    0x100007638:            ac 25 00 15  sub       %l4, %l5, %l6
    0x10000763c:            b9 66 50 16  movne     %xcc, %l6, %i4
    0x100007640:            80 90 00 1c  tst       %i4
    0x100007644:            b9 64 50 18  move      %xcc, %i0, %i4
    0x100007648:            10 80 00 0b  ba        +0x2c         <0x100007674>
    0x10000764c:            80 a0 00 1c  cmp       %g0, %i4
    0x100007650:            a1 6a 00 18  sdivx     %o0, %i0, %l0
    0x100007654:            a2 4c 00 18  mulx      %l0, %i0, %l1
    0x100007658:            b8 22 00 11  sub       %o0, %l1, %i4
    0x10000765c:            80 90 00 1c  tst       %i4
    0x100007660:            b9 64 50 18  move      %xcc, %i0, %i4
    0x100007664:            10 80 00 04  ba        +0x10         <0x100007674>
    0x100007668:            80 a0 00 1c  cmp       %g0, %i4
    0x10000766c:            b8 10 00 18  mov       %i0, %i4
    0x100007670:            80 a0 00 18  cmp       %g0, %i0
    0x100007674:            a0 10 20 00  clr       %l0
    0x100007678:            a1 64 f0 01  movl      %xcc, 0x1, %l0
    0x10000767c:            9a 10 20 00  clr       %o5
    0x100007680:            80 a0 00 1b  cmp       %g0, %i3
    0x100007684:            9b 64 f0 01  movl      %xcc, 0x1, %o5
    0x100007688:            80 8c 00 0d  btst      %o5, %l0
    0x10000768c:            02 40 00 5c  be,pn     %icc, +0x170  <0x1000077fc>
    0x100007690:            a8 06 ff ff  add       %i3, -0x1, %l4
    0x100007694:            ac 10 20 00  clr       %l6
    0x100007698:            aa 10 20 00  clr       %l5
    0x10000769c:            a0 07 3f ff  add       %i4, -0x1, %l0
    0x1000076a0:            99 2f 30 03  sllx      %i4, 0x3, %o4
    0x1000076a4:            e2 5d e0 00  ldx       [%l7], %l1
    0x1000076a8:            a4 10 20 00  clr       %l2
    0x1000076ac:            9a 04 20 01  add       %l0, 0x1, %o5
    0x1000076b0:            80 a3 60 18  cmp       %o5, 0x18
    0x1000076b4:            b6 10 00 15  mov       %l5, %i3
    0x1000076b8:            06 60 00 45  bl,pn     %xcc, +0x114  <0x1000077cc>
    0x1000076bc:            01 00 00 00  nop
    0x1000076c0:            ff 1c 40 15  ldd       [%l1 + %l5], %d62
    0x1000076c4:            37 00 04 00  sethi     %hi(0x100000), %i3
    0x1000076c8:            b8 16 e0 07  or        %i3, 0x7, %i4
    0x1000076cc:            9a 04 40 15  add       %l1, %l5, %o5
    0x1000076d0:            d5 1b 60 08  ldd       [%o5 + 0x8], %d10
    0x1000076d4:            d1 1b 60 10  ldd       [%o5 + 0x10], %d8
    0x1000076d8:            d9 1b 60 18  ldd       [%o5 + 0x18], %d12
    0x1000076dc:            dd 1b 60 20  ldd       [%o5 + 0x20], %d14
    0x1000076e0:            e1 1b 60 28  ldd       [%o5 + 0x28], %d16
    0x1000076e4:            e5 1b 60 30  ldd       [%o5 + 0x30], %d18
    0x1000076e8:            e9 1b 60 38  ldd       [%o5 + 0x38], %d20
    0x1000076ec:            ed 1b 60 40  ldd       [%o5 + 0x40], %d22
    0x1000076f0:            bb 2f 30 0c  sllx      %i4, 0xc, %i5
    0x1000076f4:            cd 1f 64 c8  ldd       [%i5 + 0x4c8], %d6
    0x1000076f8:            99 a0 08 4c  faddd     %d0, %d12, %d12
    0x1000076fc:            f1 1b 60 48  ldd       [%o5 + 0x48], %d24
    0x100007700:            89 a1 88 4a  faddd     %d6, %d10, %d4
    0x100007704:            b9 a1 88 5f  faddd     %d6, %d62, %d28
    0x100007708:            f5 1b 60 50  ldd       [%o5 + 0x50], %d26
    0x10000770c:            a6 03 60 60  add       %o5, 0x60, %l3
    0x100007710:            a4 10 20 0c  mov       0xc, %l2
    0x100007714:            95 a1 88 48  faddd     %d6, %d8, %d10
    0x100007718:            c5 1b 60 58  ldd       [%o5 + 0x58], %d2
    0x10000771c:            ba 24 20 0b  sub       %l0, 0xb, %i5
    0x100007720:            a4 04 a0 0c  add       %l2, 0xc, %l2
    0x100007724:            d1 1c e0 00  ldd       [%l3], %d8
    0x100007728:            a6 04 e0 60  add       %l3, 0x60, %l3
    0x10000772c:            9d a7 08 4e  faddd     %d28, %d14, %d14
    0x100007730:            a1 a1 08 50  faddd     %d4, %d16, %d16
    0x100007734:            80 a4 80 1d  cmp       %l2, %i5
    0x100007738:            cd 1c ff a8  ldd       [%l3 - 0x58], %d6
    0x10000773c:            a5 a2 88 52  faddd     %d10, %d18, %d18
    0x100007740:            d5 1c ff b0  ldd       [%l3 - 0x50], %d10
    0x100007744:            a9 a3 08 54  faddd     %d12, %d20, %d20
    0x100007748:            d9 1c ff b8  ldd       [%l3 - 0x48], %d12
    0x10000774c:            89 a3 88 56  faddd     %d14, %d22, %d4
    0x100007750:            dd 1c ff c0  ldd       [%l3 - 0x40], %d14
    0x100007754:            bd a4 08 58  faddd     %d16, %d24, %d30
    0x100007758:            e1 1c ff c8  ldd       [%l3 - 0x38], %d16
    0x10000775c:            b5 a4 88 5a  faddd     %d18, %d26, %d26
    0x100007760:            e5 1c ff d0  ldd       [%l3 - 0x30], %d18
    0x100007764:            85 a5 08 42  faddd     %d20, %d2, %d2
    0x100007768:            e9 1c ff d8  ldd       [%l3 - 0x28], %d20
    0x10000776c:            b9 a1 08 48  faddd     %d4, %d8, %d28
    0x100007770:            ed 1c ff e0  ldd       [%l3 - 0x20], %d22
    0x100007774:            89 a7 88 46  faddd     %d30, %d6, %d4
    0x100007778:            f1 1c ff e8  ldd       [%l3 - 0x18], %d24
    0x10000777c:            95 a6 88 4a  faddd     %d26, %d10, %d10
    0x100007780:            f5 1c ff f0  ldd       [%l3 - 0x10], %d26
    0x100007784:            99 a0 88 4c  faddd     %d2, %d12, %d12
    0x100007788:            04 6f ff e6  ble,pt    %xcc, -0x68   <0x100007720>
    0x10000778c:            c5 1c ff f8  ldd       [%l3 - 0x8], %d2
    0x100007790:            8d a1 08 50  faddd     %d4, %d16, %d6
    0x100007794:            91 a7 08 4e  faddd     %d28, %d14, %d8
    0x100007798:            bf a2 88 52  faddd     %d10, %d18, %d62
    0x10000779c:            89 a3 08 54  faddd     %d12, %d20, %d4
    0x1000077a0:            80 a4 80 10  cmp       %l2, %l0
    0x1000077a4:            b6 24 c0 11  sub       %l3, %l1, %i3
    0x1000077a8:            b1 a1 88 58  faddd     %d6, %d24, %d24
    0x1000077ac:            bd a2 08 56  faddd     %d8, %d22, %d30
    0x1000077b0:            b9 a7 c8 5a  faddd     %d62, %d26, %d28
    0x1000077b4:            b5 a1 08 42  faddd     %d4, %d2, %d26
    0x1000077b8:            85 a7 88 58  faddd     %d30, %d24, %d2
    0x1000077bc:            ad a0 88 5c  faddd     %d2, %d28, %d22
    0x1000077c0:            81 a5 88 5a  faddd     %d22, %d26, %d0
    0x1000077c4:            14 60 00 09  bg,pn     %xcc, +0x24   <0x1000077e8>
    0x1000077c8:            01 00 00 00  nop
    0x1000077cc:            a4 04 a0 01  add       %l2, 0x1, %l2
    0x1000077d0:            80 a4 80 10  cmp       %l2, %l0
    0x1000077d4:            f1 1e c0 11  ldd       [%i3 + %l1], %d24
    0x1000077d8:            b6 06 e0 08  add       %i3, 0x8, %i3
    0x1000077dc:            81 a0 08 58  faddd     %d0, %d24, %d0
    0x1000077e0:            04 6f ff fc  ble,pt    %xcc, -0x10   <0x1000077d0>
    0x1000077e4:            a4 04 a0 01  add       %l2, 0x1, %l2
    0x1000077e8:            ac 05 a0 01  add       %l6, 0x1, %l6
    0x1000077ec:            80 a5 80 14  cmp       %l6, %l4
    0x1000077f0:            aa 05 40 0c  add       %l5, %o4, %l5
    0x1000077f4:            04 6f ff ae  ble,pt    %xcc, -0x148  <0x1000076ac>
    0x1000077f8:            a4 10 20 00  clr       %l2
    0x1000077fc:            96 02 e0 01  add       %o3, 0x1, %o3
    0x100007800:            b6 02 c0 09  add       %o3, %o1, %i3
    0x100007804:            9b 36 f0 3f  srlx      %i3, 0x3f, %o5
    0x100007808:            98 1b 60 01  xor       %o5, 0x1, %o4
    0x10000780c:            b8 20 00 0c  neg       %o4, %i4
    0x100007810:            a4 0f 00 04  and       %i4, %g4, %l2
    0x100007814:            aa 06 a0 01  add       %i2, 0x1, %l5
    0x100007818:            a6 04 a0 01  add       %l2, 0x1, %l3
    0x10000781c:            9e 1d 40 13  xor       %l5, %l3, %o7
    0x100007820:            a2 10 20 00  clr       %l1
    0x100007824:            a3 7b e4 01  movre     %o7, 0x1, %l1
    0x100007828:            a8 20 00 11  neg       %l1, %l4
    0x10000782c:            b5 3d 20 00  sra       %l4, 0x0, %i2
    0x100007830:            ac 0e 80 05  and       %i2, %g5, %l6
    0x100007834:            80 a2 c0 0a  cmp       %o3, %o2
    0x100007838:            b4 25 40 16  sub       %l5, %l6, %i2
    0x10000783c:            ae 05 e0 08  add       %l7, 0x8, %l7
    0x100007840:            04 6f ff 57  ble,pt    %xcc, -0x2a4  <0x10000759c>
    0x100007844:            80 a6 80 19  cmp       %i2, %i1
    0x100007848:            92 02 60 01  add       %o1, 0x1, %o1
    0x10000784c:            80 a2 40 0a  cmp       %o1, %o2
    0x100007850:            86 00 c0 02  add       %g3, %g2, %g3
    0x100007854:            04 6f ff 40  ble,pt    %xcc, -0x300  <0x100007554>
    0x100007858:            ae 20 60 01  sub       %g1, 0x1, %l7
    0x10000785c:            81 c7 e0 08  ret
    0x100007860:            81 e8 20 00  restore   %g0, 0x0, %g0
PrintA()
    0x100007864:            9d e3 bf 50  save      %sp, -0xb0, %sp
    0x100007868:            39 00 04 00  sethi     %hi(0x100000), %i4
    0x10000786c:            ba 17 21 09  or        %i4, 0x109, %i5
    0x100007870:            bb 2f 70 0c  sllx      %i5, 0xc, %i5
    0x100007874:            ec 5f 64 d8  ldx       [%i5 + 0x4d8], %l6
    0x100007878:            04 c5 80 6b  brlez,pn  %l6, +0x1ac   <0x100007a24>
    0x10000787c:            23 00 04 00  sethi     %hi(0x100000), %l1
    0x100007880:            82 14 61 09  or        %l1, 0x109, %g1
    0x100007884:            b9 28 70 0c  sllx      %g1, 0xc, %i4
    0x100007888:            ee 5f 24 e8  ldx       [%i4 + 0x4e8], %l7
    0x10000788c:            b0 25 e0 01  sub       %l7, 0x1, %i0
    0x100007890:            80 8d c0 18  btst      %i0, %l7
    0x100007894:            12 60 00 0c  bne,pn    %xcc, +0x30   <0x1000078c4>
    0x100007898:            a2 10 20 00  clr       %l1
    0x10000789c:            02 c5 c0 0a  brz,pn    %l7, +0x28    <0x1000078c4>
    0x1000078a0:            89 3d b0 3f  srax      %l6, 0x3f, %g4
    0x1000078a4:            a0 1d 80 04  xor       %l6, %g4, %l0
    0x1000078a8:            90 24 00 04  sub       %l0, %g4, %o0
    0x1000078ac:            a0 8a 00 18  andcc     %o0, %i0, %l0
    0x1000078b0:            b6 1c 00 04  xor       %l0, %g4, %i3
    0x1000078b4:            86 26 c0 04  sub       %i3, %g4, %g3
    0x1000078b8:            a1 66 50 03  movne     %xcc, %g3, %l0
    0x1000078bc:            10 80 00 05  ba        +0x14         <0x1000078d0>
    0x1000078c0:            01 00 00 00  nop
    0x1000078c4:            b3 6d 80 17  sdivx     %l6, %l7, %i1
    0x1000078c8:            b4 4e 40 17  mulx      %i1, %l7, %i2
    0x1000078cc:            a0 25 80 1a  sub       %l6, %i2, %l0
    0x1000078d0:            04 c5 80 4d  brlez,pn  %l6, +0x134   <0x100007a04>
    0x1000078d4:            1f 00 04 00  sethi     %hi(0x100000), %o7
    0x1000078d8:            9a 13 e0 08  or        %o7, 0x8, %o5
    0x1000078dc:            05 00 04 00  sethi     %hi(0x100000), %g2
    0x1000078e0:            a5 2b 70 0c  sllx      %o5, 0xc, %l2
    0x1000078e4:            98 10 a1 09  or        %g2, 0x109, %o4
    0x1000078e8:            b4 04 ad 48  add       %l2, 0xd48, %i2
    0x1000078ec:            b3 2b 30 0c  sllx      %o4, 0xc, %i1
    0x1000078f0:            b6 10 20 00  clr       %i3
    0x1000078f4:            92 25 80 11  sub       %l6, %l1, %o1
    0x1000078f8:            b0 25 80 10  sub       %l6, %l0, %i0
    0x1000078fc:            aa 25 80 1b  sub       %l6, %i3, %l5
    0x100007900:            a6 10 00 17  mov       %l7, %l3
    0x100007904:            ac 10 00 17  mov       %l7, %l6
    0x100007908:            80 a2 40 10  cmp       %o1, %l0
    0x10000790c:            a7 64 90 18  movle     %xcc, %i0, %l3
    0x100007910:            ad 64 90 10  movle     %xcc, %l0, %l6
    0x100007914:            80 a5 40 10  cmp       %l5, %l0
    0x100007918:            b1 66 90 17  movg      %xcc, %l7, %i0
    0x10000791c:            8a 24 e0 01  sub       %l3, 0x1, %g5
    0x100007920:            80 8c c0 05  btst      %g5, %l3
    0x100007924:            12 60 00 0d  bne,pn    %xcc, +0x34   <0x100007958>
    0x100007928:            01 00 00 00  nop
    0x10000792c:            02 c4 c0 0b  brz,pn    %l3, +0x2c    <0x100007958>
    0x100007930:            01 00 00 00  nop
    0x100007934:            a7 3c 70 3f  srax      %l1, 0x3f, %l3
    0x100007938:            96 1c 40 13  xor       %l1, %l3, %o3
    0x10000793c:            94 22 c0 13  sub       %o3, %l3, %o2
    0x100007940:            8a 8a 80 05  andcc     %o2, %g5, %g5
    0x100007944:            92 19 40 13  xor       %g5, %l3, %o1
    0x100007948:            aa 22 40 13  sub       %o1, %l3, %l5
    0x10000794c:            8b 66 50 15  movne     %xcc, %l5, %g5
    0x100007950:            10 80 00 06  ba        +0x18         <0x100007968>
    0x100007954:            a4 26 20 01  sub       %i0, 0x1, %l2
    0x100007958:            85 6c 40 13  sdivx     %l1, %l3, %g2
    0x10000795c:            98 48 80 13  mulx      %g2, %l3, %o4
    0x100007960:            8a 24 40 0c  sub       %l1, %o4, %g5
    0x100007964:            a4 26 20 01  sub       %i0, 0x1, %l2
    0x100007968:            80 8e 00 12  btst      %l2, %i0
    0x10000796c:            12 60 00 0c  bne,pn    %xcc, +0x30   <0x10000799c>
    0x100007970:            01 00 00 00  nop
    0x100007974:            02 c6 00 0a  brz,pn    %i0, +0x28    <0x10000799c>
    0x100007978:            9f 3e f0 3f  srax      %i3, 0x3f, %o7
    0x10000797c:            86 1e c0 0f  xor       %i3, %o7, %g3
    0x100007980:            82 20 c0 0f  sub       %g3, %o7, %g1
    0x100007984:            9a 88 40 12  andcc     %g1, %l2, %o5
    0x100007988:            b0 1b 40 0f  xor       %o5, %o7, %i0
    0x10000798c:            a8 26 00 0f  sub       %i0, %o7, %l4
    0x100007990:            9b 66 50 14  movne     %xcc, %l4, %o5
    0x100007994:            10 80 00 06  ba        +0x18         <0x1000079ac>
    0x100007998:            a5 6e c0 17  sdivx     %i3, %l7, %l2
    0x10000799c:            91 6e c0 18  sdivx     %i3, %i0, %o0
    0x1000079a0:            a5 6e c0 17  sdivx     %i3, %l7, %l2
    0x1000079a4:            88 4a 00 18  mulx      %o0, %i0, %g4
    0x1000079a8:            9a 26 c0 04  sub       %i3, %g4, %o5
    0x1000079ac:            a7 6c 40 17  sdivx     %l1, %l7, %l3
    0x1000079b0:            b0 4b 40 16  mulx      %o5, %l6, %i0
    0x1000079b4:            2d 00 04 00  sethi     %hi(0x100000), %l6
    0x1000079b8:            a8 15 a1 0a  or        %l6, 0x10a, %l4
    0x1000079bc:            d2 5e 66 90  ldx       [%i1 + 0x690], %o1
    0x1000079c0:            9f 2d 30 0c  sllx      %l4, 0xc, %o7
    0x1000079c4:            da 5b e1 28  ldx       [%o7 + 0x128], %o5
    0x1000079c8:            ae 01 40 18  add       %g5, %i0, %l7
    0x1000079cc:            90 10 00 1a  mov       %i2, %o0
    0x1000079d0:            98 4c 80 0d  mulx      %l2, %o5, %o4
    0x1000079d4:            96 04 c0 0c  add       %l3, %o4, %o3
    0x1000079d8:            95 2a f0 03  sllx      %o3, 0x3, %o2
    0x1000079dc:            ca 5a 40 0a  ldx       [%o1 + %o2], %g5
    0x1000079e0:            ab 2d f0 03  sllx      %l7, 0x3, %l5
    0x1000079e4:            40 04 05 87  call      +0x10161c     <0x100109000>
    0x1000079e8:            d2 59 40 15  ldx       [%g5 + %l5], %o1
    0x1000079ec:            ec 5f 64 d8  ldx       [%i5 + 0x4d8], %l6
    0x1000079f0:            b6 06 e0 01  add       %i3, 0x1, %i3
    0x1000079f4:            ee 5f 24 e8  ldx       [%i4 + 0x4e8], %l7
    0x1000079f8:            80 a6 c0 16  cmp       %i3, %l6
    0x1000079fc:            06 6f ff bf  bl,pt     %xcc, -0x104  <0x1000078f8>
    0x100007a00:            92 25 80 11  sub       %l6, %l1, %o1
    0x100007a04:            a2 04 60 01  add       %l1, 0x1, %l1
    0x100007a08:            40 04 05 a6  call      +0x101698     <0x1001090a0>
    0x100007a0c:            90 10 20 0a  mov       0xa, %o0
    0x100007a10:            ec 5f 64 d8  ldx       [%i5 + 0x4d8], %l6
    0x100007a14:            ee 5f 24 e8  ldx       [%i4 + 0x4e8], %l7
    0x100007a18:            80 a4 40 16  cmp       %l1, %l6
    0x100007a1c:            06 6f ff ad  bl,pt     %xcc, -0x14c  <0x1000078d0>
    0x100007a20:            01 00 00 00  nop
    0x100007a24:            29 00 04 00  sethi     %hi(0x100000), %l4
    0x100007a28:            96 15 21 09  or        %l4, 0x109, %o3
    0x100007a2c:            95 2a f0 0c  sllx      %o3, 0xc, %o2
    0x100007a30:            b0 02 a7 20  add       %o2, 0x720, %i0
    0x100007a34:            40 04 05 a3  call      +0x10168c     <0x1001090c0>
    0x100007a38:            81 e8 20 00  restore   %g0, 0x0, %g0
    0x100007a3c:            00 00 00 00  illtrap   0x0
    0x100007a40:            3e e4 f8 b5  0x3ee4f8b5
    0x100007a44:            88 e3 68 f1  subccc    %o5, 0x8f1, %g4
    0x100007a48:            bf f0 00 00  0xbff00000
    0x100007a4c:            00 00 00 00  illtrap   0x0
    0x100007a50:            00 00 00 00  illtrap   0x0
    0x100007a54:            00 00 00 00  illtrap   0x0
CheckResult()
    0x100007a58:            9d e3 be d0  save      %sp, -0x130, %sp
    0x100007a5c:            37 00 04 00  sethi     %hi(0x100000), %i3
    0x100007a60:            96 16 e1 09  or        %i3, 0x109, %o3
    0x100007a64:            bb 2a f0 0c  sllx      %o3, 0xc, %i5
    0x100007a68:            b6 10 20 00  clr       %i3
    0x100007a6c:            d8 5f 64 e8  ldx       [%i5 + 0x4e8], %o4
    0x100007a70:            f2 73 a8 b7  stx       %i1, [%sp + 0x8b7]
    0x100007a74:            88 23 20 01  sub       %o4, 0x1, %g4
    0x100007a78:            80 8b 00 04  btst      %g4, %o4
    0x100007a7c:            12 60 00 0c  bne,pn    %xcc, +0x30   <0x100007aac>
    0x100007a80:            a8 10 00 1a  mov       %i2, %l4
    0x100007a84:            02 c3 00 0a  brz,pn    %o4, +0x28    <0x100007aac>
    0x100007a88:            85 3e 30 3f  srax      %i0, 0x3f, %g2
    0x100007a8c:            9e 1e 00 02  xor       %i0, %g2, %o7
    0x100007a90:            ae 23 c0 02  sub       %o7, %g2, %l7
    0x100007a94:            ae 8d c0 04  andcc     %l7, %g4, %l7
    0x100007a98:            b2 1d c0 02  xor       %l7, %g2, %i1
    0x100007a9c:            a6 26 40 02  sub       %i1, %g2, %l3
    0x100007aa0:            af 66 50 13  movne     %xcc, %l3, %l7
    0x100007aa4:            10 80 00 06  ba        +0x18         <0x100007abc>
    0x100007aa8:            a1 2e 30 03  sllx      %i0, 0x3, %l0
    0x100007aac:            b9 6e 00 0c  sdivx     %i0, %o4, %i4
    0x100007ab0:            92 4f 00 0c  mulx      %i4, %o4, %o1
    0x100007ab4:            ae 26 00 09  sub       %i0, %o1, %l7
    0x100007ab8:            a1 2e 30 03  sllx      %i0, 0x3, %l0
    0x100007abc:            40 04 05 21  call      +0x101484     <0x100108f40>
    0x100007ac0:            90 10 00 10  mov       %l0, %o0
    0x100007ac4:            02 c2 02 7a  brz,pn    %o0, +0x9e8   <0x1000084ac>
    0x100007ac8:            d0 73 a8 af  stx       %o0, [%sp + 0x8af]
    0x100007acc:            39 00 04 00  sethi     %hi(0x100000), %i4
    0x100007ad0:            b2 17 20 07  or        %i4, 0x7, %i1
    0x100007ad4:            a5 2e 70 0c  sllx      %i1, 0xc, %l2
    0x100007ad8:            e4 73 a8 c7  stx       %l2, [%sp + 0x8c7]
    0x100007adc:            a6 04 aa 50  add       %l2, 0xa50, %l3
    0x100007ae0:            b8 06 3f ff  add       %i0, -0x1, %i4
    0x100007ae4:            04 c6 01 16  brlez,pn  %i0, +0x458   <0x100007f3c>
    0x100007ae8:            e6 73 a8 bf  stx       %l3, [%sp + 0x8bf]
    0x100007aec:            27 00 04 00  sethi     %hi(0x100000), %l3
    0x100007af0:            96 14 e1 0a  or        %l3, 0x10a, %o3
    0x100007af4:            f2 5f 64 e8  ldx       [%i5 + 0x4e8], %i1
    0x100007af8:            89 2a f0 0c  sllx      %o3, 0xc, %g4
    0x100007afc:            fa 59 21 28  ldx       [%g4 + 0x128], %i5
    0x100007b00:            80 a7 20 03  cmp       %i4, 0x3
    0x100007b04:            06 60 00 3e  bl,pn     %xcc, +0xf8   <0x100007bfc>
    0x100007b08:            fa 73 a8 d7  stx       %i5, [%sp + 0x8d7]
    0x100007b0c:            d6 5b a8 af  ldx       [%sp + 0x8af], %o3
    0x100007b10:            92 22 c0 1a  sub       %o3, %i2, %o1
    0x100007b14:            bb 3a 70 3f  srax      %o1, 0x3f, %i5
    0x100007b18:            9e 1a 40 1d  xor       %o1, %i5, %o7
    0x100007b1c:            84 23 c0 1d  sub       %o7, %i5, %g2
    0x100007b20:            80 a0 80 10  cmp       %g2, %l0
    0x100007b24:            06 60 00 36  bl,pn     %xcc, +0xd8   <0x100007bfc>
    0x100007b28:            9a 10 20 00  clr       %o5
    0x100007b2c:            80 a6 20 0c  cmp       %i0, 0xc
    0x100007b30:            90 10 00 0b  mov       %o3, %o0
    0x100007b34:            06 60 00 28  bl,pn     %xcc, +0xa0   <0x100007bd4>
    0x100007b38:            01 00 00 00  nop
    0x100007b3c:            d1 1e a0 00  ldd       [%i2], %d8
    0x100007b40:            c1 1e a0 08  ldd       [%i2 + 0x8], %d0
    0x100007b44:            cd 1e a0 10  ldd       [%i2 + 0x10], %d6
    0x100007b48:            a8 06 a0 20  add       %i2, 0x20, %l4
    0x100007b4c:            9a 10 20 04  mov       0x4, %o5
    0x100007b50:            d5 1e a0 18  ldd       [%i2 + 0x18], %d10
    0x100007b54:            84 06 3f f8  add       %i0, -0x8, %g2
    0x100007b58:            c1 6d 20 a0  prefetch  [%l4 + 0xa0], #n_reads
    0x100007b5c:            ed 6a 20 a0  prefetch  [%o0 + 0xa0], #n_writes_strong
    0x100007b60:            9a 03 60 08  add       %o5, 0x8, %o5
    0x100007b64:            90 02 20 40  add       %o0, 0x40, %o0
    0x100007b68:            d9 1d 20 00  ldd       [%l4], %d12
    0x100007b6c:            d1 3a 3f c0  std       %d8, [%o0 - 0x40]
    0x100007b70:            80 a3 40 02  cmp       %o5, %g2
    0x100007b74:            a8 05 20 40  add       %l4, 0x40, %l4
    0x100007b78:            dd 1d 3f c8  ldd       [%l4 - 0x38], %d14
    0x100007b7c:            c1 3a 3f c8  std       %d0, [%o0 - 0x38]
    0x100007b80:            f5 1d 3f d0  ldd       [%l4 - 0x30], %d26
    0x100007b84:            cd 3a 3f d0  std       %d6, [%o0 - 0x30]
    0x100007b88:            f9 1d 3f d8  ldd       [%l4 - 0x28], %d28
    0x100007b8c:            d5 3a 3f d8  std       %d10, [%o0 - 0x28]
    0x100007b90:            d1 1d 3f e0  ldd       [%l4 - 0x20], %d8
    0x100007b94:            d9 3a 3f e0  std       %d12, [%o0 - 0x20]
    0x100007b98:            c1 1d 3f e8  ldd       [%l4 - 0x18], %d0
    0x100007b9c:            dd 3a 3f e8  std       %d14, [%o0 - 0x18]
    0x100007ba0:            cd 1d 3f f0  ldd       [%l4 - 0x10], %d6
    0x100007ba4:            f5 3a 3f f0  std       %d26, [%o0 - 0x10]
    0x100007ba8:            d5 1d 3f f8  ldd       [%l4 - 0x8], %d10
    0x100007bac:            04 6f ff eb  ble,pt    %xcc, -0x54   <0x100007b58>
    0x100007bb0:            f9 3a 3f f8  std       %d28, [%o0 - 0x8]
    0x100007bb4:            d5 3a 20 18  std       %d10, [%o0 + 0x18]
    0x100007bb8:            cd 3a 20 10  std       %d6, [%o0 + 0x10]
    0x100007bbc:            c1 3a 20 08  std       %d0, [%o0 + 0x8]
    0x100007bc0:            80 a3 40 1c  cmp       %o5, %i4
    0x100007bc4:            d1 3a 20 00  std       %d8, [%o0]
    0x100007bc8:            90 02 20 20  add       %o0, 0x20, %o0
    0x100007bcc:            14 60 00 0a  bg,pn     %xcc, +0x28   <0x100007bf4>
    0x100007bd0:            01 00 00 00  nop
    0x100007bd4:            9a 03 60 01  add       %o5, 0x1, %o5
    0x100007bd8:            80 a3 40 1c  cmp       %o5, %i4
    0x100007bdc:            dd 1d 20 00  ldd       [%l4], %d14
    0x100007be0:            a8 05 20 08  add       %l4, 0x8, %l4
    0x100007be4:            dd 3a 20 00  std       %d14, [%o0]
    0x100007be8:            90 02 20 08  add       %o0, 0x8, %o0
    0x100007bec:            04 6f ff fb  ble,pt    %xcc, -0x14   <0x100007bd8>
    0x100007bf0:            9a 03 60 01  add       %o5, 0x1, %o5
    0x100007bf4:            10 80 00 24  ba        +0x90         <0x100007c84>
    0x100007bf8:            9a 10 20 00  clr       %o5
    0x100007bfc:            80 a6 20 04  cmp       %i0, 0x4
    0x100007c00:            98 10 00 1a  mov       %i2, %o4
    0x100007c04:            ac 10 20 00  clr       %l6
    0x100007c08:            d2 5b a8 af  ldx       [%sp + 0x8af], %o1
    0x100007c0c:            06 60 00 15  bl,pn     %xcc, +0x54   <0x100007c60>
    0x100007c10:            01 00 00 00  nop
    0x100007c14:            88 06 3f fc  add       %i0, -0x4, %g4
    0x100007c18:            c1 6b 20 90  prefetch  [%o4 + 0x90], #n_reads
    0x100007c1c:            ed 6a 60 90  prefetch  [%o1 + 0x90], #n_writes_strong
    0x100007c20:            ac 05 a0 04  add       %l6, 0x4, %l6
    0x100007c24:            92 02 60 20  add       %o1, 0x20, %o1
    0x100007c28:            e5 1b 20 00  ldd       [%o4], %d18
    0x100007c2c:            80 a5 80 04  cmp       %l6, %g4
    0x100007c30:            98 03 20 20  add       %o4, 0x20, %o4
    0x100007c34:            e5 3a 7f e0  std       %d18, [%o1 - 0x20]
    0x100007c38:            e1 1b 3f e8  ldd       [%o4 - 0x18], %d16
    0x100007c3c:            e1 3a 7f e8  std       %d16, [%o1 - 0x18]
    0x100007c40:            cd 1b 3f f0  ldd       [%o4 - 0x10], %d6
    0x100007c44:            cd 3a 7f f0  std       %d6, [%o1 - 0x10]
    0x100007c48:            d1 1b 3f f8  ldd       [%o4 - 0x8], %d8
    0x100007c4c:            04 6f ff f3  ble,pt    %xcc, -0x34   <0x100007c18>
    0x100007c50:            d1 3a 7f f8  std       %d8, [%o1 - 0x8]
    0x100007c54:            80 a5 80 1c  cmp       %l6, %i4
    0x100007c58:            14 60 00 0a  bg,pn     %xcc, +0x28   <0x100007c80>
    0x100007c5c:            01 00 00 00  nop
    0x100007c60:            ac 05 a0 01  add       %l6, 0x1, %l6
    0x100007c64:            80 a5 80 1c  cmp       %l6, %i4
    0x100007c68:            d9 1b 20 00  ldd       [%o4], %d12
    0x100007c6c:            98 03 20 08  add       %o4, 0x8, %o4
    0x100007c70:            d9 3a 60 00  std       %d12, [%o1]
    0x100007c74:            92 02 60 08  add       %o1, 0x8, %o1
    0x100007c78:            04 6f ff fb  ble,pt    %xcc, -0x14   <0x100007c64>
    0x100007c7c:            ac 05 a0 01  add       %l6, 0x1, %l6
    0x100007c80:            9a 10 20 00  clr       %o5
    0x100007c84:            9b 7e 64 01  movre     %i1, 0x1, %o5
    0x100007c88:            88 06 40 0d  add       %i1, %o5, %g4
    0x100007c8c:            98 21 20 01  sub       %g4, 0x1, %o4
    0x100007c90:            a5 3e 70 3f  srax      %i1, 0x3f, %l2
    0x100007c94:            9e 89 00 0c  andcc     %g4, %o4, %o7
    0x100007c98:            a8 1e 40 12  xor       %i1, %l2, %l4
    0x100007c9c:            de 73 a8 ef  stx       %o7, [%sp + 0x8ef]
    0x100007ca0:            96 25 00 12  sub       %l4, %l2, %o3
    0x100007ca4:            d8 73 a8 f7  stx       %o4, [%sp + 0x8f7]
    0x100007ca8:            12 60 00 06  bne,pn    %xcc, +0x18   <0x100007cc0>
    0x100007cac:            ba 10 20 00  clr       %i5
    0x100007cb0:            02 c1 00 04  brz,pn    %g4, +0x10    <0x100007cc0>
    0x100007cb4:            9e 10 20 00  clr       %o7
    0x100007cb8:            10 80 00 05  ba        +0x14         <0x100007ccc>
    0x100007cbc:            91 68 00 04  sdivx     %g0, %g4, %o0
    0x100007cc0:            91 68 00 04  sdivx     %g0, %g4, %o0
    0x100007cc4:            94 4a 00 04  mulx      %o0, %g4, %o2
    0x100007cc8:            9e 20 00 0a  neg       %o2, %o7
    0x100007ccc:            9a 10 20 00  clr       %o5
    0x100007cd0:            9b 7e 78 01  movrgz    %i1, 0x1, %o5
    0x100007cd4:            b5 2b 70 01  sllx      %o5, 0x1, %i2
    0x100007cd8:            94 06 bf ff  add       %i2, -0x1, %o2
    0x100007cdc:            8a 10 00 1c  mov       %i4, %g5
    0x100007ce0:            e6 5b a8 d7  ldx       [%sp + 0x8d7], %l3
    0x100007ce4:            86 02 ff ff  add       %o3, -0x1, %g3
    0x100007ce8:            92 26 00 17  sub       %i0, %l7, %o1
    0x100007cec:            a9 2c f0 03  sllx      %l3, 0x3, %l4
    0x100007cf0:            d8 5b a8 af  ldx       [%sp + 0x8af], %o4
    0x100007cf4:            e8 73 a8 ff  stx       %l4, [%sp + 0x8ff]
    0x100007cf8:            9a 26 00 1d  sub       %i0, %i5, %o5
    0x100007cfc:            aa 10 00 19  mov       %i1, %l5
    0x100007d00:            80 a3 40 17  cmp       %o5, %l7
    0x100007d04:            ab 64 90 09  movle     %xcc, %o1, %l5
    0x100007d08:            a8 10 00 19  mov       %i1, %l4
    0x100007d0c:            ac 25 60 01  sub       %l5, 0x1, %l6
    0x100007d10:            a9 64 90 17  movle     %xcc, %l7, %l4
    0x100007d14:            80 8d 40 16  btst      %l6, %l5
    0x100007d18:            12 60 00 0c  bne,pn    %xcc, +0x30   <0x100007d48>
    0x100007d1c:            01 00 00 00  nop
    0x100007d20:            02 c5 40 0a  brz,pn    %l5, +0x28    <0x100007d48>
    0x100007d24:            a3 3f 70 3f  srax      %i5, 0x3f, %l1
    0x100007d28:            a0 1f 40 11  xor       %i5, %l1, %l0
    0x100007d2c:            aa 24 00 11  sub       %l0, %l1, %l5
    0x100007d30:            a6 8d 40 16  andcc     %l5, %l6, %l3
    0x100007d34:            84 1c c0 11  xor       %l3, %l1, %g2
    0x100007d38:            82 20 80 11  sub       %g2, %l1, %g1
    0x100007d3c:            a7 66 50 01  movne     %xcc, %g1, %l3
    0x100007d40:            10 80 00 06  ba        +0x18         <0x100007d58>
    0x100007d44:            82 4c c0 14  mulx      %l3, %l4, %g1
    0x100007d48:            a7 6f 40 15  sdivx     %i5, %l5, %l3
    0x100007d4c:            a4 4c c0 15  mulx      %l3, %l5, %l2
    0x100007d50:            a6 27 40 12  sub       %i5, %l2, %l3
    0x100007d54:            82 4c c0 14  mulx      %l3, %l4, %g1
    0x100007d58:            ea 5b a8 d7  ldx       [%sp + 0x8d7], %l5
    0x100007d5c:            ec 5b a8 b7  ldx       [%sp + 0x8b7], %l6
    0x100007d60:            f9 1b 20 00  ldd       [%o4], %d28
    0x100007d64:            a8 4a 00 15  mulx      %o0, %l5, %l4
    0x100007d68:            aa 02 00 14  add       %o0, %l4, %l5
    0x100007d6c:            85 2d 70 03  sllx      %l5, 0x3, %g2
    0x100007d70:            f4 58 80 16  ldx       [%g2 + %l6], %i2
    0x100007d74:            ac 04 c0 01  add       %l3, %g1, %l6
    0x100007d78:            9b 2d b0 03  sllx      %l6, 0x3, %o5
    0x100007d7c:            f1 1e 80 0d  ldd       [%i2 + %o5], %d24
    0x100007d80:            ba 07 60 01  add       %i5, 0x1, %i5
    0x100007d84:            80 a7 40 18  cmp       %i5, %i0
    0x100007d88:            a5 a7 09 d8  fdivd     %d28, %d24, %d18
    0x100007d8c:            16 60 00 51  bge,pn    %xcc, +0x144  <0x100007ed0>
    0x100007d90:            e5 3b 20 00  std       %d18, [%o4]
    0x100007d94:            ea 5b a8 ef  ldx       [%sp + 0x8ef], %l5
    0x100007d98:            0a c5 40 0d  brnz,pn   %l5, +0x34    <0x100007dcc>
    0x100007d9c:            84 10 00 1d  mov       %i5, %g2
    0x100007da0:            02 c1 00 0b  brz,pn    %g4, +0x2c    <0x100007dcc>
    0x100007da4:            a5 3f 70 3f  srax      %i5, 0x3f, %l2
    0x100007da8:            f4 5b a8 f7  ldx       [%sp + 0x8f7], %i2
    0x100007dac:            a2 1f 40 12  xor       %i5, %l2, %l1
    0x100007db0:            9a 24 40 12  sub       %l1, %l2, %o5
    0x100007db4:            b4 8b 40 1a  andcc     %o5, %i2, %i2
    0x100007db8:            a8 1e 80 12  xor       %i2, %l2, %l4
    0x100007dbc:            ac 25 00 12  sub       %l4, %l2, %l6
    0x100007dc0:            b5 66 50 16  movne     %xcc, %l6, %i2
    0x100007dc4:            10 80 00 06  ba        +0x18         <0x100007ddc>
    0x100007dc8:            ab 6f 40 04  sdivx     %i5, %g4, %l5
    0x100007dcc:            b5 6f 40 04  sdivx     %i5, %g4, %i2
    0x100007dd0:            aa 4e 80 04  mulx      %i2, %g4, %l5
    0x100007dd4:            b4 27 40 15  sub       %i5, %l5, %i2
    0x100007dd8:            ab 6f 40 04  sdivx     %i5, %g4, %l5
    0x100007ddc:            da 5b a8 ff  ldx       [%sp + 0x8ff], %o5
    0x100007de0:            e8 5b a8 b7  ldx       [%sp + 0x8b7], %l4
    0x100007de4:            ac 10 00 05  mov       %g5, %l6
    0x100007de8:            82 4a 00 0d  mulx      %o0, %o5, %g1
    0x100007dec:            a8 00 40 14  add       %g1, %l4, %l4
    0x100007df0:            82 03 20 08  add       %o4, 0x8, %g1
    0x100007df4:            80 a1 40 17  cmp       %g5, %l7
    0x100007df8:            a0 10 00 19  mov       %i1, %l0
    0x100007dfc:            a1 64 90 09  movle     %xcc, %o1, %l0
    0x100007e00:            9a 10 00 19  mov       %i1, %o5
    0x100007e04:            a4 24 20 01  sub       %l0, 0x1, %l2
    0x100007e08:            9b 64 90 17  movle     %xcc, %l7, %o5
    0x100007e0c:            80 8c 00 12  btst      %l2, %l0
    0x100007e10:            12 60 00 0c  bne,pn    %xcc, +0x30   <0x100007e40>
    0x100007e14:            01 00 00 00  nop
    0x100007e18:            02 c4 00 0a  brz,pn    %l0, +0x28    <0x100007e40>
    0x100007e1c:            a3 38 b0 3f  srax      %g2, 0x3f, %l1
    0x100007e20:            a0 18 80 11  xor       %g2, %l1, %l0
    0x100007e24:            a0 24 00 11  sub       %l0, %l1, %l0
    0x100007e28:            a4 8c 00 12  andcc     %l0, %l2, %l2
    0x100007e2c:            a0 1c 80 11  xor       %l2, %l1, %l0
    0x100007e30:            a0 24 00 11  sub       %l0, %l1, %l0
    0x100007e34:            a5 66 50 10  movne     %xcc, %l0, %l2
    0x100007e38:            10 80 00 06  ba        +0x18         <0x100007e50>
    0x100007e3c:            a2 4b 40 13  mulx      %o5, %l3, %l1
    0x100007e40:            a5 68 80 10  sdivx     %g2, %l0, %l2
    0x100007e44:            a2 4c 80 10  mulx      %l2, %l0, %l1
    0x100007e48:            a4 20 80 11  sub       %g2, %l1, %l2
    0x100007e4c:            a2 4b 40 13  mulx      %o5, %l3, %l1
    0x100007e50:            84 00 a0 01  add       %g2, 0x1, %g2
    0x100007e54:            a1 30 b0 3f  srlx      %g2, 0x3f, %l0
    0x100007e58:            9a 1c 20 01  xor       %l0, 0x1, %o5
    0x100007e5c:            a0 20 00 0d  neg       %o5, %l0
    0x100007e60:            9a 0c 00 03  and       %l0, %g3, %o5
    0x100007e64:            a0 03 60 01  add       %o5, 0x1, %l0
    0x100007e68:            9a 06 a0 01  add       %i2, 0x1, %o5
    0x100007e6c:            b4 1b 40 10  xor       %o5, %l0, %i2
    0x100007e70:            a0 10 20 00  clr       %l0
    0x100007e74:            a1 7e a4 01  movre     %i2, 0x1, %l0
    0x100007e78:            a4 04 80 11  add       %l2, %l1, %l2
    0x100007e7c:            a3 2d 70 03  sllx      %l5, 0x3, %l1
    0x100007e80:            b4 10 00 10  mov       %l0, %i2
    0x100007e84:            a5 2c b0 03  sllx      %l2, 0x3, %l2
    0x100007e88:            b4 20 00 1a  neg       %i2
    0x100007e8c:            80 a0 80 1c  cmp       %g2, %i4
    0x100007e90:            e0 5c 40 14  ldx       [%l1 + %l4], %l0
    0x100007e94:            a3 3e a0 00  sra       %i2, 0x0, %l1
    0x100007e98:            ac 25 a0 01  sub       %l6, 0x1, %l6
    0x100007e9c:            fd 1c 00 12  ldd       [%l0 + %l2], %d30
    0x100007ea0:            ed 1b 20 00  ldd       [%o4], %d22
    0x100007ea4:            a4 0c 40 0b  and       %l1, %o3, %l2
    0x100007ea8:            a2 0c 40 0a  and       %l1, %o2, %l1
    0x100007eac:            b5 a7 89 56  fmuld     %d30, %d22, %d26
    0x100007eb0:            b4 23 40 12  sub       %o5, %l2, %i2
    0x100007eb4:            c9 18 60 00  ldd       [%g1], %d4
    0x100007eb8:            aa 05 40 11  add       %l5, %l1, %l5
    0x100007ebc:            81 a1 08 da  fsubd     %d4, %d26, %d0
    0x100007ec0:            c1 38 60 00  std       %d0, [%g1]
    0x100007ec4:            82 00 60 08  add       %g1, 0x8, %g1
    0x100007ec8:            04 6f ff cc  ble,pt    %xcc, -0xd0   <0x100007df8>
    0x100007ecc:            80 a5 80 17  cmp       %l6, %l7
    0x100007ed0:            b5 37 70 3f  srlx      %i5, 0x3f, %i2
    0x100007ed4:            9a 1e a0 01  xor       %i2, 0x1, %o5
    0x100007ed8:            aa 20 00 0d  neg       %o5, %l5
    0x100007edc:            a2 0d 40 03  and       %l5, %g3, %l1
    0x100007ee0:            a4 03 e0 01  add       %o7, 0x1, %l2
    0x100007ee4:            a8 04 60 01  add       %l1, 0x1, %l4
    0x100007ee8:            9e 1c 80 14  xor       %l2, %l4, %o7
    0x100007eec:            a0 10 20 00  clr       %l0
    0x100007ef0:            a1 7b e4 01  movre     %o7, 0x1, %l0
    0x100007ef4:            84 20 00 10  neg       %l0, %g2
    0x100007ef8:            83 38 a0 00  sra       %g2, 0x0, %g1
    0x100007efc:            a6 08 40 0b  and       %g1, %o3, %l3
    0x100007f00:            b4 08 40 0a  and       %g1, %o2, %i2
    0x100007f04:            80 a7 40 1c  cmp       %i5, %i4
    0x100007f08:            8a 21 60 01  sub       %g5, 0x1, %g5
    0x100007f0c:            98 03 20 08  add       %o4, 0x8, %o4
    0x100007f10:            9e 24 80 13  sub       %l2, %l3, %o7
    0x100007f14:            90 02 00 1a  add       %o0, %i2, %o0
    0x100007f18:            04 6f ff 79  ble,pt    %xcc, -0x21c  <0x100007cfc>
    0x100007f1c:            9a 26 00 1d  sub       %i0, %i5, %o5
    0x100007f20:            0e c7 00 10  brgez,pn  %i4, +0x40    <0x100007f60>
    0x100007f24:            b4 10 00 1c  mov       %i4, %i2
    0x100007f28:            f0 5b a8 c7  ldx       [%sp + 0x8c7], %i0
    0x100007f2c:            aa 10 20 00  clr       %l5
    0x100007f30:            c5 1e 2a 50  ldd       [%i0 + 0xa50], %d2
    0x100007f34:            10 80 00 f6  ba        +0x3d8        <0x10000830c>
    0x100007f38:            ee 5b a8 bf  ldx       [%sp + 0x8bf], %l7
    0x100007f3c:            26 cf 01 49  brlz,a,pt %i4, +0x524   <0x100008460>
    0x100007f40:            c5 1c aa 50  ldd       [%l2 + 0xa50], %d2
    0x100007f44:            11 00 04 00  sethi     %hi(0x100000), %o0
    0x100007f48:            8a 12 21 0a  or        %o0, 0x10a, %g5
    0x100007f4c:            f2 5f 64 e8  ldx       [%i5 + 0x4e8], %i1
    0x100007f50:            95 29 70 0c  sllx      %g5, 0xc, %o2
    0x100007f54:            d0 5a a1 28  ldx       [%o2 + 0x128], %o0
    0x100007f58:            d0 73 a8 d7  stx       %o0, [%sp + 0x8d7]
    0x100007f5c:            b4 10 00 1c  mov       %i4, %i2
    0x100007f60:            a0 10 20 00  clr       %l0
    0x100007f64:            a1 7e 64 01  movre     %i1, 0x1, %l0
    0x100007f68:            92 06 40 10  add       %i1, %l0, %o1
    0x100007f6c:            ab 3e 70 3f  srax      %i1, 0x3f, %l5
    0x100007f70:            a2 22 60 01  sub       %o1, 0x1, %l1
    0x100007f74:            82 1e 40 15  xor       %i1, %l5, %g1
    0x100007f78:            94 8a 40 11  andcc     %o1, %l1, %o2
    0x100007f7c:            9e 20 40 15  sub       %g1, %l5, %o7
    0x100007f80:            12 60 00 0c  bne,pn    %xcc, +0x30   <0x100007fb0>
    0x100007f84:            d4 73 a8 cf  stx       %o2, [%sp + 0x8cf]
    0x100007f88:            02 c2 40 0a  brz,pn    %o1, +0x28    <0x100007fb0>
    0x100007f8c:            bb 3f 30 3f  srax      %i4, 0x3f, %i5
    0x100007f90:            9a 1f 00 1d  xor       %i4, %i5, %o5
    0x100007f94:            86 23 40 1d  sub       %o5, %i5, %g3
    0x100007f98:            a0 88 c0 11  andcc     %g3, %l1, %l0
    0x100007f9c:            a8 1c 00 1d  xor       %l0, %i5, %l4
    0x100007fa0:            ac 25 00 1d  sub       %l4, %i5, %l6
    0x100007fa4:            a1 66 50 16  movne     %xcc, %l6, %l0
    0x100007fa8:            10 80 00 06  ba        +0x18         <0x100007fc0>
    0x100007fac:            95 6f 00 09  sdivx     %i4, %o1, %o2
    0x100007fb0:            8b 6f 00 09  sdivx     %i4, %o1, %g5
    0x100007fb4:            94 49 40 09  mulx      %g5, %o1, %o2
    0x100007fb8:            a0 27 00 0a  sub       %i4, %o2, %l0
    0x100007fbc:            94 10 00 05  mov       %g5, %o2
    0x100007fc0:            91 2f 30 03  sllx      %i4, 0x3, %o0
    0x100007fc4:            c6 5b a8 d7  ldx       [%sp + 0x8d7], %g3
    0x100007fc8:            ca 5b a8 af  ldx       [%sp + 0x8af], %g5
    0x100007fcc:            e0 73 a8 df  stx       %l0, [%sp + 0x8df]
    0x100007fd0:            89 28 f0 03  sllx      %g3, 0x3, %g4
    0x100007fd4:            c8 73 a8 e7  stx       %g4, [%sp + 0x8e7]
    0x100007fd8:            88 10 20 00  clr       %g4
    0x100007fdc:            89 7e 78 01  movrgz    %i1, 0x1, %g4
    0x100007fe0:            99 29 30 01  sllx      %g4, 0x1, %o4
    0x100007fe4:            9a 03 3f ff  add       %o4, -0x1, %o5
    0x100007fe8:            98 02 00 05  add       %o0, %g5, %o4
    0x100007fec:            90 03 ff ff  add       %o7, -0x1, %o0
    0x100007ff0:            96 26 00 17  sub       %i0, %l7, %o3
    0x100007ff4:            04 c6 80 ac  brlez,pn  %i2, +0x2b0   <0x1000082a4>
    0x100007ff8:            ac 26 00 1a  sub       %i0, %i2, %l6
    0x100007ffc:            80 a5 80 17  cmp       %l6, %l7
    0x100008000:            8a 10 20 00  clr       %g5
    0x100008004:            04 60 00 51  ble,pn    %xcc, +0x144  <0x100008148>
    0x100008008:            88 06 bf ff  add       %i2, -0x1, %g4
    0x10000800c:            e0 5b a8 cf  ldx       [%sp + 0x8cf], %l0
    0x100008010:            c5 1b 20 00  ldd       [%o4], %d2
    0x100008014:            0a c4 00 06  brnz,pn   %l0, +0x18    <0x10000802c>
    0x100008018:            01 00 00 00  nop
    0x10000801c:            02 c2 40 04  brz,pn    %o1, +0x10    <0x10000802c>
    0x100008020:            a4 10 20 00  clr       %l2
    0x100008024:            10 80 00 06  ba        +0x18         <0x10000803c>
    0x100008028:            aa 26 60 01  sub       %i1, 0x1, %l5
    0x10000802c:            87 68 00 09  sdivx     %g0, %o1, %g3
    0x100008030:            a8 48 c0 09  mulx      %g3, %o1, %l4
    0x100008034:            a4 20 00 14  neg       %l4, %l2
    0x100008038:            aa 26 60 01  sub       %i1, 0x1, %l5
    0x10000803c:            c4 5b a8 af  ldx       [%sp + 0x8af], %g2
    0x100008040:            a8 8e 40 15  andcc     %i1, %l5, %l4
    0x100008044:            12 60 00 0c  bne,pn    %xcc, +0x30   <0x100008074>
    0x100008048:            87 68 00 09  sdivx     %g0, %o1, %g3
    0x10000804c:            02 c6 40 0a  brz,pn    %i1, +0x28    <0x100008074>
    0x100008050:            ad 3e b0 3f  srax      %i2, 0x3f, %l6
    0x100008054:            ba 1e 80 16  xor       %i2, %l6, %i5
    0x100008058:            a2 27 40 16  sub       %i5, %l6, %l1
    0x10000805c:            82 8c 40 15  andcc     %l1, %l5, %g1
    0x100008060:            a6 18 40 16  xor       %g1, %l6, %l3
    0x100008064:            a0 24 c0 16  sub       %l3, %l6, %l0
    0x100008068:            83 66 50 10  movne     %xcc, %l0, %g1
    0x10000806c:            10 80 00 06  ba        +0x18         <0x100008084>
    0x100008070:            82 48 40 19  mulx      %g1, %i1, %g1
    0x100008074:            83 6e 80 19  sdivx     %i2, %i1, %g1
    0x100008078:            a0 48 40 19  mulx      %g1, %i1, %l0
    0x10000807c:            82 26 80 10  sub       %i2, %l0, %g1
    0x100008080:            82 48 40 19  mulx      %g1, %i1, %g1
    0x100008084:            e2 5b a8 e7  ldx       [%sp + 0x8e7], %l1
    0x100008088:            e6 5b a8 b7  ldx       [%sp + 0x8b7], %l3
    0x10000808c:            ac 4a 80 11  mulx      %o2, %l1, %l6
    0x100008090:            ac 05 80 13  add       %l6, %l3, %l6
    0x100008094:            0a c5 00 0c  brnz,pn   %l4, +0x30    <0x1000080c4>
    0x100008098:            01 00 00 00  nop
    0x10000809c:            02 c6 40 0a  brz,pn    %i1, +0x28    <0x1000080c4>
    0x1000080a0:            a1 39 70 3f  srax      %g5, 0x3f, %l0
    0x1000080a4:            a2 19 40 10  xor       %g5, %l0, %l1
    0x1000080a8:            a6 24 40 10  sub       %l1, %l0, %l3
    0x1000080ac:            a2 8c c0 15  andcc     %l3, %l5, %l1
    0x1000080b0:            ba 1c 40 10  xor       %l1, %l0, %i5
    0x1000080b4:            a6 27 40 10  sub       %i5, %l0, %l3
    0x1000080b8:            a3 66 50 13  movne     %xcc, %l3, %l1
    0x1000080bc:            10 80 00 06  ba        +0x18         <0x1000080d4>
    0x1000080c0:            ba 04 40 01  add       %l1, %g1, %i5
    0x1000080c4:            bb 69 40 19  sdivx     %g5, %i1, %i5
    0x1000080c8:            a0 4f 40 19  mulx      %i5, %i1, %l0
    0x1000080cc:            a2 21 40 10  sub       %g5, %l0, %l1
    0x1000080d0:            ba 04 40 01  add       %l1, %g1, %i5
    0x1000080d4:            8a 01 60 01  add       %g5, 0x1, %g5
    0x1000080d8:            a3 2f 70 03  sllx      %i5, 0x3, %l1
    0x1000080dc:            a7 31 70 3f  srlx      %g5, 0x3f, %l3
    0x1000080e0:            ba 1c e0 01  xor       %l3, 0x1, %i5
    0x1000080e4:            a6 20 00 1d  neg       %i5, %l3
    0x1000080e8:            ba 0c c0 08  and       %l3, %o0, %i5
    0x1000080ec:            a6 04 a0 01  add       %l2, 0x1, %l3
    0x1000080f0:            a1 28 f0 03  sllx      %g3, 0x3, %l0
    0x1000080f4:            ba 07 60 01  add       %i5, 0x1, %i5
    0x1000080f8:            ba 1c c0 1d  xor       %l3, %i5, %i5
    0x1000080fc:            80 a1 40 04  cmp       %g5, %g4
    0x100008100:            e4 5c 00 16  ldx       [%l0 + %l6], %l2
    0x100008104:            a0 10 20 00  clr       %l0
    0x100008108:            a1 7f 64 01  movre     %i5, 0x1, %l0
    0x10000810c:            a0 20 00 10  neg       %l0
    0x100008110:            e1 1c 80 11  ldd       [%l2 + %l1], %d16
    0x100008114:            a3 3c 20 00  sra       %l0, 0x0, %l1
    0x100008118:            a4 0c 40 0f  and       %l1, %o7, %l2
    0x10000811c:            8d a4 09 42  fmuld     %d16, %d2, %d6
    0x100008120:            a4 24 c0 12  sub       %l3, %l2, %l2
    0x100008124:            d1 18 a0 00  ldd       [%g2], %d8
    0x100008128:            a6 0c 40 0d  and       %l1, %o5, %l3
    0x10000812c:            86 00 c0 13  add       %g3, %l3, %g3
    0x100008130:            95 a2 08 c6  fsubd     %d8, %d6, %d10
    0x100008134:            d5 38 a0 00  std       %d10, [%g2]
    0x100008138:            04 6f ff d7  ble,pt    %xcc, -0xa4   <0x100008094>
    0x10000813c:            84 00 a0 08  add       %g2, 0x8, %g2
    0x100008140:            10 80 00 5a  ba        +0x168        <0x1000082a8>
    0x100008144:            98 23 20 08  sub       %o4, 0x8, %o4
    0x100008148:            ec 5b a8 cf  ldx       [%sp + 0x8cf], %l6
    0x10000814c:            0a c5 80 06  brnz,pn   %l6, +0x18    <0x100008164>
    0x100008150:            01 00 00 00  nop
    0x100008154:            02 c2 40 04  brz,pn    %o1, +0x10    <0x100008164>
    0x100008158:            86 10 20 00  clr       %g3
    0x10000815c:            10 80 00 05  ba        +0x14         <0x100008170>
    0x100008160:            a5 68 00 09  sdivx     %g0, %o1, %l2
    0x100008164:            a5 68 00 09  sdivx     %g0, %o1, %l2
    0x100008168:            a6 4c 80 09  mulx      %l2, %o1, %l3
    0x10000816c:            86 20 00 13  neg       %l3, %g3
    0x100008170:            a2 22 e0 01  sub       %o3, 0x1, %l1
    0x100008174:            80 8a c0 11  btst      %l1, %o3
    0x100008178:            e8 5b a8 af  ldx       [%sp + 0x8af], %l4
    0x10000817c:            12 60 00 0c  bne,pn    %xcc, +0x30   <0x1000081ac>
    0x100008180:            a6 10 00 18  mov       %i0, %l3
    0x100008184:            02 c2 c0 0a  brz,pn    %o3, +0x28    <0x1000081ac>
    0x100008188:            ab 3e b0 3f  srax      %i2, 0x3f, %l5
    0x10000818c:            ac 1e 80 15  xor       %i2, %l5, %l6
    0x100008190:            a0 25 80 15  sub       %l6, %l5, %l0
    0x100008194:            a2 8c 00 11  andcc     %l0, %l1, %l1
    0x100008198:            82 1c 40 15  xor       %l1, %l5, %g1
    0x10000819c:            84 20 40 15  sub       %g1, %l5, %g2
    0x1000081a0:            a3 66 50 02  movne     %xcc, %g2, %l1
    0x1000081a4:            10 80 00 06  ba        +0x18         <0x1000081bc>
    0x1000081a8:            c2 5b a8 e7  ldx       [%sp + 0x8e7], %g1
    0x1000081ac:            85 6e 80 0b  sdivx     %i2, %o3, %g2
    0x1000081b0:            ba 48 80 0b  mulx      %g2, %o3, %i5
    0x1000081b4:            c2 5b a8 e7  ldx       [%sp + 0x8e7], %g1
    0x1000081b8:            a2 26 80 1d  sub       %i2, %i5, %l1
    0x1000081bc:            aa 4a 80 01  mulx      %o2, %g1, %l5
    0x1000081c0:            c4 5b a8 b7  ldx       [%sp + 0x8b7], %g2
    0x1000081c4:            80 a4 c0 17  cmp       %l3, %l7
    0x1000081c8:            aa 05 40 02  add       %l5, %g2, %l5
    0x1000081cc:            82 10 00 19  mov       %i1, %g1
    0x1000081d0:            83 64 90 0b  movle     %xcc, %o3, %g1
    0x1000081d4:            ac 10 00 19  mov       %i1, %l6
    0x1000081d8:            84 20 60 01  sub       %g1, 0x1, %g2
    0x1000081dc:            ad 64 90 17  movle     %xcc, %l7, %l6
    0x1000081e0:            80 88 40 02  btst      %g2, %g1
    0x1000081e4:            12 60 00 0d  bne,pn    %xcc, +0x34   <0x100008218>
    0x1000081e8:            01 00 00 00  nop
    0x1000081ec:            02 c0 40 0b  brz,pn    %g1, +0x2c    <0x100008218>
    0x1000081f0:            01 00 00 00  nop
    0x1000081f4:            83 39 70 3f  srax      %g5, 0x3f, %g1
    0x1000081f8:            a0 19 40 01  xor       %g5, %g1, %l0
    0x1000081fc:            ba 24 00 01  sub       %l0, %g1, %i5
    0x100008200:            a0 8f 40 02  andcc     %i5, %g2, %l0
    0x100008204:            84 1c 00 01  xor       %l0, %g1, %g2
    0x100008208:            82 20 80 01  sub       %g2, %g1, %g1
    0x10000820c:            a1 66 50 01  movne     %xcc, %g1, %l0
    0x100008210:            10 80 00 06  ba        +0x18         <0x100008228>
    0x100008214:            ba 4c 40 16  mulx      %l1, %l6, %i5
    0x100008218:            bb 69 40 01  sdivx     %g5, %g1, %i5
    0x10000821c:            84 4f 40 01  mulx      %i5, %g1, %g2
    0x100008220:            ba 4c 40 16  mulx      %l1, %l6, %i5
    0x100008224:            a0 21 40 02  sub       %g5, %g2, %l0
    0x100008228:            ad 2c b0 03  sllx      %l2, 0x3, %l6
    0x10000822c:            8a 01 60 01  add       %g5, 0x1, %g5
    0x100008230:            82 04 00 1d  add       %l0, %i5, %g1
    0x100008234:            85 31 70 3f  srlx      %g5, 0x3f, %g2
    0x100008238:            a0 18 a0 01  xor       %g2, 0x1, %l0
    0x10000823c:            83 28 70 03  sllx      %g1, 0x3, %g1
    0x100008240:            ba 20 00 10  neg       %l0, %i5
    0x100008244:            84 0f 40 08  and       %i5, %o0, %g2
    0x100008248:            a0 00 e0 01  add       %g3, 0x1, %l0
    0x10000824c:            ba 00 a0 01  add       %g2, 0x1, %i5
    0x100008250:            86 1c 00 1d  xor       %l0, %i5, %g3
    0x100008254:            ba 10 20 00  clr       %i5
    0x100008258:            bb 78 e4 01  movre     %g3, 0x1, %i5
    0x10000825c:            86 20 00 1d  neg       %i5, %g3
    0x100008260:            85 38 e0 00  sra       %g3, 0x0, %g2
    0x100008264:            ec 5d 80 15  ldx       [%l6 + %l5], %l6
    0x100008268:            80 a1 40 04  cmp       %g5, %g4
    0x10000826c:            a6 24 e0 01  sub       %l3, 0x1, %l3
    0x100008270:            dd 1d 80 01  ldd       [%l6 + %g1], %d14
    0x100008274:            d5 1b 20 00  ldd       [%o4], %d10
    0x100008278:            82 08 80 0f  and       %g2, %o7, %g1
    0x10000827c:            86 24 00 01  sub       %l0, %g1, %g3
    0x100008280:            99 a3 89 4a  fmuld     %d14, %d10, %d12
    0x100008284:            a0 08 80 0d  and       %g2, %o5, %l0
    0x100008288:            c5 1d 20 00  ldd       [%l4], %d2
    0x10000828c:            a4 04 80 10  add       %l2, %l0, %l2
    0x100008290:            a9 a0 88 cc  fsubd     %d2, %d12, %d20
    0x100008294:            e9 3d 20 00  std       %d20, [%l4]
    0x100008298:            a8 05 20 08  add       %l4, 0x8, %l4
    0x10000829c:            04 6f ff cc  ble,pt    %xcc, -0xd0   <0x1000081cc>
    0x1000082a0:            80 a4 c0 17  cmp       %l3, %l7
    0x1000082a4:            98 23 20 08  sub       %o4, 0x8, %o4
    0x1000082a8:            b4 06 bf ff  add       %i2, -0x1, %i2
    0x1000082ac:            82 10 20 00  clr       %g1
    0x1000082b0:            83 7e a8 01  movrlez   %i2, 0x1, %g1
    0x1000082b4:            aa 20 00 01  neg       %g1, %l5
    0x1000082b8:            a2 0d 40 08  and       %l5, %o0, %l1
    0x1000082bc:            a8 10 3f ff  mov       -0x1, %l4
    0x1000082c0:            a4 25 00 11  sub       %l4, %l1, %l2
    0x1000082c4:            ba 10 20 00  clr       %i5
    0x1000082c8:            e2 5b a8 df  ldx       [%sp + 0x8df], %l1
    0x1000082cc:            a6 04 7f ff  add       %l1, -0x1, %l3
    0x1000082d0:            ac 1c c0 12  xor       %l3, %l2, %l6
    0x1000082d4:            bb 7d a4 01  movre     %l6, 0x1, %i5
    0x1000082d8:            84 20 00 1d  neg       %i5, %g2
    0x1000082dc:            8b 38 a0 00  sra       %g2, 0x0, %g5
    0x1000082e0:            88 09 40 0f  and       %g5, %o7, %g4
    0x1000082e4:            82 04 c0 04  add       %l3, %g4, %g1
    0x1000082e8:            86 09 40 0d  and       %g5, %o5, %g3
    0x1000082ec:            c2 73 a8 df  stx       %g1, [%sp + 0x8df]
    0x1000082f0:            0e fe bf 41  brgez,pt  %i2, -0x2fc   <0x100007ff4>
    0x1000082f4:            94 22 80 03  sub       %o2, %g3, %o2
    0x1000082f8:            d2 5b a8 c7  ldx       [%sp + 0x8c7], %o1
    0x1000082fc:            c5 1a 6a 50  ldd       [%o1 + 0xa50], %d2
    0x100008300:            04 c6 00 58  brlez,pn  %i0, +0x160   <0x100008460>
    0x100008304:            aa 10 20 00  clr       %l5
    0x100008308:            ee 5b a8 bf  ldx       [%sp + 0x8bf], %l7
    0x10000830c:            b2 07 20 01  add       %i4, 0x1, %i1
    0x100008310:            e5 1d ff f0  ldd       [%l7 - 0x10], %d18
    0x100008314:            e1 1d ff f8  ldd       [%l7 - 0x8], %d16
    0x100008318:            80 a6 60 09  cmp       %i1, 0x9
    0x10000831c:            b4 10 20 01  mov       0x1, %i2
    0x100008320:            d4 5b a8 af  ldx       [%sp + 0x8af], %o2
    0x100008324:            06 60 00 44  bl,pn     %xcc, +0x110  <0x100008434>
    0x100008328:            01 00 00 00  nop
    0x10000832c:            c1 1a a0 00  ldd       [%o2], %d0
    0x100008330:            ed 1a a0 20  ldd       [%o2 + 0x20], %d22
    0x100008334:            d1 1a a0 10  ldd       [%o2 + 0x10], %d8
    0x100008338:            89 a0 08 50  faddd     %d0, %d16, %d4
    0x10000833c:            cd 1a a0 08  ldd       [%o2 + 0x8], %d6
    0x100008340:            b1 a2 08 50  faddd     %d8, %d16, %d24
    0x100008344:            d5 1a a0 18  ldd       [%o2 + 0x18], %d10
    0x100008348:            81 a1 88 50  faddd     %d6, %d16, %d0
    0x10000834c:            b6 10 20 00  clr       %i3
    0x100008350:            9d a0 01 44  fabsd     %d4, %d14
    0x100008354:            a9 a2 88 50  faddd     %d10, %d16, %d20
    0x100008358:            b5 a0 01 58  fabsd     %d24, %d26
    0x10000835c:            94 02 a0 28  add       %o2, 0x28, %o2
    0x100008360:            99 a0 01 40  fabsd     %d0, %d12
    0x100008364:            aa 10 20 05  mov       0x5, %l5
    0x100008368:            85 ab 8a d2  fcmped    %fcc2, %d14, %d18
    0x10000836c:            89 ab 90 42  fmovdule  %fcc2, %d2, %d4
    0x100008370:            87 ae 8a d2  fcmped    %fcc3, %d26, %d18
    0x100008374:            8a 27 20 03  sub       %i4, 0x3, %g5
    0x100008378:            83 ab 0a d2  fcmped    %fcc1, %d12, %d18
    0x10000837c:            b7 61 90 1a  movg      %fcc2, %i2, %i3
    0x100008380:            81 ab 88 44  fmovdule  %fcc1, %d4, %d0
    0x100008384:            b1 ab 98 40  fmovdule  %fcc3, %d0, %d24
    0x100008388:            c1 6a a1 10  prefetch  [%o2 + 0x110], #n_reads
    0x10000838c:            b7 61 88 1a  movg      %fcc1, %i2, %i3
    0x100008390:            aa 05 60 04  add       %l5, 0x4, %l5
    0x100008394:            f9 1a a0 00  ldd       [%o2], %d28
    0x100008398:            94 02 a0 20  add       %o2, 0x20, %o2
    0x10000839c:            85 a0 01 54  fabsd     %d20, %d2
    0x1000083a0:            80 a5 40 05  cmp       %l5, %g5
    0x1000083a4:            b5 a5 88 50  faddd     %d22, %d16, %d26
    0x1000083a8:            81 a8 8a d2  fcmped    %fcc0, %d2, %d18
    0x1000083ac:            b1 a9 80 54  fmovdg    %fcc0, %d20, %d24
    0x1000083b0:            b7 61 98 1a  movg      %fcc3, %i2, %i3
    0x1000083b4:            a9 a0 01 5a  fabsd     %d26, %d20
    0x1000083b8:            ed 1a bf e8  ldd       [%o2 - 0x18], %d22
    0x1000083bc:            b9 a7 08 50  faddd     %d28, %d16, %d28
    0x1000083c0:            85 ad 0a d2  fcmped    %fcc2, %d20, %d18
    0x1000083c4:            b5 ab 90 58  fmovdule  %fcc2, %d24, %d26
    0x1000083c8:            b7 61 80 1a  movg      %fcc0, %i2, %i3
    0x1000083cc:            bd a0 01 5c  fabsd     %d28, %d30
    0x1000083d0:            c9 1a bf f0  ldd       [%o2 - 0x10], %d4
    0x1000083d4:            b1 a5 88 50  faddd     %d22, %d16, %d24
    0x1000083d8:            83 af 8a d2  fcmped    %fcc1, %d30, %d18
    0x1000083dc:            b9 ab 88 5a  fmovdule  %fcc1, %d26, %d28
    0x1000083e0:            b7 61 90 1a  movg      %fcc2, %i2, %i3
    0x1000083e4:            81 a0 01 58  fabsd     %d24, %d0
    0x1000083e8:            ed 1a bf f8  ldd       [%o2 - 0x8], %d22
    0x1000083ec:            a9 a1 08 50  faddd     %d4, %d16, %d20
    0x1000083f0:            87 a8 0a d2  fcmped    %fcc3, %d0, %d18
    0x1000083f4:            04 6f ff e5  ble,pt    %xcc, -0x6c   <0x100008388>
    0x1000083f8:            b1 ab 98 5c  fmovdule  %fcc3, %d28, %d24
    0x1000083fc:            85 a5 88 50  faddd     %d22, %d16, %d2
    0x100008400:            bd a0 01 54  fabsd     %d20, %d30
    0x100008404:            b7 61 88 1a  movg      %fcc1, %i2, %i3
    0x100008408:            b7 61 98 1a  movg      %fcc3, %i2, %i3
    0x10000840c:            80 a5 40 1c  cmp       %l5, %i4
    0x100008410:            89 a0 01 42  fabsd     %d2, %d4
    0x100008414:            81 af 8a d2  fcmped    %fcc0, %d30, %d18
    0x100008418:            a9 ab 80 58  fmovdule  %fcc0, %d24, %d20
    0x10000841c:            85 a9 0a d2  fcmped    %fcc2, %d4, %d18
    0x100008420:            b7 61 80 1a  movg      %fcc0, %i2, %i3
    0x100008424:            85 ab 90 54  fmovdule  %fcc2, %d20, %d2
    0x100008428:            b7 61 90 1a  movg      %fcc2, %i2, %i3
    0x10000842c:            14 60 00 0d  bg,pn     %xcc, +0x34   <0x100008460>
    0x100008430:            01 00 00 00  nop
    0x100008434:            e9 1a a0 00  ldd       [%o2], %d20
    0x100008438:            bd a5 08 50  faddd     %d20, %d16, %d30
    0x10000843c:            aa 05 60 01  add       %l5, 0x1, %l5
    0x100008440:            80 a5 40 1c  cmp       %l5, %i4
    0x100008444:            94 02 a0 08  add       %o2, 0x8, %o2
    0x100008448:            ad a0 01 5e  fabsd     %d30, %d22
    0x10000844c:            85 ad 8a d2  fcmped    %fcc2, %d22, %d18
    0x100008450:            85 a9 90 5e  fmovdg    %fcc2, %d30, %d2
    0x100008454:            b7 61 90 1a  movg      %fcc2, %i2, %i3
    0x100008458:            24 6f ff f8  ble,a,pt  %xcc, -0x20   <0x100008438>
    0x10000845c:            e9 1a a0 00  ldd       [%o2], %d20
    0x100008460:            02 c6 c0 0b  brz,pn    %i3, +0x2c    <0x10000848c>
    0x100008464:            19 00 04 00  sethi     %hi(0x100000), %o4
    0x100008468:            c5 3b a9 1f  std       %d2, [%sp + 0x91f]
    0x10000846c:            90 13 20 08  or        %o4, 0x8, %o0
    0x100008470:            8b 2a 30 0c  sllx      %o0, 0xc, %g5
    0x100008474:            90 01 6d 58  add       %g5, 0xd58, %o0
    0x100008478:            40 04 02 e2  call      +0x100b88     <0x100109000>
    0x10000847c:            d2 5b a9 1f  ldx       [%sp + 0x91f], %o1
    0x100008480:            f0 5b a8 af  ldx       [%sp + 0x8af], %i0
    0x100008484:            40 04 03 47  call      +0x100d1c     <0x1001091a0>
    0x100008488:            81 e8 20 00  restore   %g0, 0x0, %g0
    0x10000848c:            31 00 04 00  sethi     %hi(0x100000), %i0
    0x100008490:            ae 16 20 08  or        %i0, 0x8, %l7
    0x100008494:            b7 2d f0 0c  sllx      %l7, 0xc, %i3
    0x100008498:            40 04 02 da  call      +0x100b68     <0x100109000>
    0x10000849c:            90 06 ed 78  add       %i3, 0xd78, %o0
    0x1000084a0:            f0 5b a8 af  ldx       [%sp + 0x8af], %i0
    0x1000084a4:            40 04 03 3f  call      +0x100cfc     <0x1001091a0>
    0x1000084a8:            81 e8 20 00  restore   %g0, 0x0, %g0
    0x1000084ac:            15 00 04 00  sethi     %hi(0x100000), %o2
    0x1000084b0:            92 12 a1 09  or        %o2, 0x109, %o1
    0x1000084b4:            b9 2a 70 0c  sllx      %o1, 0xc, %i4
    0x1000084b8:            40 00 00 06  call      +0x18         <0x1000084d0>
    0x1000084bc:            90 07 26 68  add       %i4, 0x668, %o0
    0x1000084c0:            40 04 02 78  call      +0x1009e0     <0x100108ea0>
    0x1000084c4:            90 10 3f ff  mov       -0x1, %o0
    0x1000084c8:            10 bf fd 82  ba        -0x9f8        <0x100007ad0>
    0x1000084cc:            39 00 04 00  sethi     %hi(0x100000), %i4
printerr()
    0x1000084d0:            19 00 04 00  sethi     %hi(0x100000), %o4
    0x1000084d4:            1b 00 04 00  sethi     %hi(0x100000), %o5
    0x1000084d8:            96 13 21 09  or        %o4, 0x109, %o3
    0x1000084dc:            9a 13 60 08  or        %o5, 0x8, %o5
    0x1000084e0:            94 10 00 08  mov       %o0, %o2
    0x1000084e4:            93 2b 70 0c  sllx      %o5, 0xc, %o1
    0x1000084e8:            91 2a f0 0c  sllx      %o3, 0xc, %o0
    0x1000084ec:            82 10 00 0f  mov       %o7, %g1
    0x1000084f0:            92 02 6d 88  add       %o1, 0xd88, %o1
    0x1000084f4:            90 02 27 a0  add       %o0, 0x7a0, %o0
    0x1000084f8:            40 04 03 02  call      +0x100c08     <0x100109100>
    0x1000084fc:            9e 10 00 01  mov       %g1, %o7

section .init
_init()
    0x100008500:            9d e3 bf 50  save      %sp, -0xb0, %sp
    0x100008504:            01 00 00 00  nop
    0x100008508:            81 c7 e0 08  ret
    0x10000850c:            81 e8 00 00  restore

section .fini
_fini()
    0x100008510:            9d e3 bf 50  save      %sp, -0xb0, %sp
    0x100008514:            01 00 00 00  nop
    0x100008518:            81 c7 e0 08  ret
    0x10000851c:            81 e8 00 00  restore
