disassembly for streamcluster


section .text
_start()
    0x100001e00:            bc 10 20 00  clr       %fp
    0x100001e04:            e0 5b a8 7f  ldx       [%sp + 0x87f], %l0
    0x100001e08:            1b 00 00 00  sethi     %hi(0x0), %o5
    0x100001e0c:            9a 13 60 01  or        %o5, 0x1, %o5
    0x100001e10:            9b 2b 70 20  sllx      %o5, 0x20, %o5
    0x100001e14:            13 00 04 4b  sethi     %hi(0x112c00), %o1
    0x100001e18:            92 12 40 0d  or        %o1, %o5, %o1
    0x100001e1c:            e0 22 63 78  st        %l0, [%o1 + 0x378]
    0x100001e20:            a2 03 a8 87  add       %sp, 0x887, %l1
    0x100001e24:            1b 00 00 00  sethi     %hi(0x0), %o5
    0x100001e28:            9a 13 60 01  or        %o5, 0x1, %o5
    0x100001e2c:            9b 2b 70 20  sllx      %o5, 0x20, %o5
    0x100001e30:            13 00 04 4b  sethi     %hi(0x112c00), %o1
    0x100001e34:            92 12 40 0d  or        %o1, %o5, %o1
    0x100001e38:            e2 72 63 70  stx       %l1, [%o1 + 0x370]
    0x100001e3c:            1b 00 00 00  sethi     %hi(0x0), %o5
    0x100001e40:            9a 13 60 01  or        %o5, 0x1, %o5
    0x100001e44:            9b 2b 70 20  sllx      %o5, 0x20, %o5
    0x100001e48:            13 00 04 49  sethi     %hi(0x112400), %o1
    0x100001e4c:            92 12 40 0d  or        %o1, %o5, %o1
    0x100001e50:            e2 72 60 48  stx       %l1, [%o1 + 0x48]
    0x100001e54:            a5 2c 20 03  sll       %l0, 0x3, %l2
    0x100001e58:            a4 04 a0 08  add       %l2, 0x8, %l2
    0x100001e5c:            a4 04 40 12  add       %l1, %l2, %l2
    0x100001e60:            1b 00 00 00  sethi     %hi(0x0), %o5
    0x100001e64:            9a 13 60 01  or        %o5, 0x1, %o5
    0x100001e68:            9b 2b 70 20  sllx      %o5, 0x20, %o5
    0x100001e6c:            27 00 04 49  sethi     %hi(0x112400), %l3
    0x100001e70:            a6 14 c0 0d  or        %l3, %o5, %l3
    0x100001e74:            e8 5c e0 20  ldx       [%l3 + 0x20], %l4
    0x100001e78:            80 a5 20 00  cmp       %l4, 0x0
    0x100001e7c:            12 80 00 03  bne       +0xc          <0x100001e88>
    0x100001e80:            01 00 00 00  nop
    0x100001e84:            e4 74 e0 20  stx       %l2, [%l3 + 0x20]
    0x100001e88:            2b 00 00 00  sethi     %hi(0x0), %l5
    0x100001e8c:            aa 15 60 01  or        %l5, 0x1, %l5
    0x100001e90:            80 90 00 15  tst       %l5
    0x100001e94:            02 80 00 15  be        +0x54         <0x100001ee8>
    0x100001e98:            01 00 00 00  nop
    0x100001e9c:            1b 00 00 00  sethi     %hi(0x0), %o5
    0x100001ea0:            9a 13 60 01  or        %o5, 0x1, %o5
    0x100001ea4:            9b 2b 70 20  sllx      %o5, 0x20, %o5
    0x100001ea8:            29 00 04 49  sethi     %hi(0x112400), %l4
    0x100001eac:            a8 15 00 0d  or        %l4, %o5, %l4
    0x100001eb0:            ad 2d 60 02  sll       %l5, 0x2, %l6
    0x100001eb4:            c1 2d 20 40  stx       %fsr, [%l4 + 0x40]
    0x100001eb8:            ae 0d a3 00  and       %l6, 0x300, %l7
    0x100001ebc:            ac 0d 60 3f  and       %l5, 0x3f, %l6
    0x100001ec0:            ac 15 80 17  or        %l6, %l7, %l6
    0x100001ec4:            ab 2d a0 16  sll       %l6, 0x16, %l5
    0x100001ec8:            ec 05 20 40  ld        [%l4 + 0x40], %l6
    0x100001ecc:            ae 20 00 17  neg       %l7
    0x100001ed0:            af 3d e0 1f  sra       %l7, 0x1f, %l7
    0x100001ed4:            af 2d e0 1e  sll       %l7, 0x1e, %l7
    0x100001ed8:            ac 2d 80 17  andn      %l6, %l7, %l6
    0x100001edc:            ac 15 80 15  or        %l6, %l5, %l6
    0x100001ee0:            ec 25 20 40  st        %l6, [%l4 + 0x40]
    0x100001ee4:            c1 0d 20 40  ldx       [%l4 + 0x40], %fsr
    0x100001ee8:            9c 23 a0 30  sub       %sp, 0x30, %sp
    0x100001eec:            80 90 00 01  tst       %g1
    0x100001ef0:            02 80 00 04  be        +0x10         <0x100001f00>
    0x100001ef4:            01 00 00 00  nop
    0x100001ef8:            40 04 3f 62  call      +0x10fd88     <0x100111c80>
    0x100001efc:            90 10 00 01  mov       %g1, %o0
    0x100001f00:            1b 00 00 00  sethi     %hi(0x0), %o5
    0x100001f04:            9a 13 60 01  or        %o5, 0x1, %o5
    0x100001f08:            9b 2b 70 20  sllx      %o5, 0x20, %o5
    0x100001f0c:            11 00 00 31  sethi     %hi(0xc400), %o0
    0x100001f10:            90 12 00 0d  or        %o0, %o5, %o0
    0x100001f14:            40 04 3f 5b  call      +0x10fd6c     <0x100111c80>
    0x100001f18:            90 12 21 10  or        %o0, 0x110, %o0
    0x100001f1c:            13 00 00 00  sethi     %hi(0x0), %o1
    0x100001f20:            92 12 60 01  or        %o1, 0x1, %o1
    0x100001f24:            93 2a 70 20  sllx      %o1, 0x20, %o1
    0x100001f28:            11 00 04 49  sethi     %hi(0x112400), %o0
    0x100001f2c:            90 12 00 09  or        %o0, %o1, %o0
    0x100001f30:            d0 5a 20 50  ldx       [%o0 + 0x50], %o0
    0x100001f34:            80 90 00 08  tst       %o0
    0x100001f38:            12 80 00 0d  bne       +0x34         <0x100001f6c>
    0x100001f3c:            01 00 00 00  nop
    0x100001f40:            13 00 00 00  sethi     %hi(0x0), %o1
    0x100001f44:            92 12 60 01  or        %o1, 0x1, %o1
    0x100001f48:            93 2a 70 20  sllx      %o1, 0x20, %o1
    0x100001f4c:            11 00 04 49  sethi     %hi(0x112400), %o0
    0x100001f50:            90 12 00 09  or        %o0, %o1, %o0
    0x100001f54:            d0 5a 20 58  ldx       [%o0 + 0x58], %o0
    0x100001f58:            80 90 00 08  tst       %o0
    0x100001f5c:            02 80 00 04  be        +0x10         <0x100001f6c>
    0x100001f60:            01 00 00 00  nop
    0x100001f64:            40 04 3f 47  call      +0x10fd1c     <0x100111c80>
    0x100001f68:            01 00 00 00  nop
    0x100001f6c:            40 00 29 27  call      +0xa49c       <0x10000c408>
    0x100001f70:            01 00 00 00  nop
    0x100001f74:            90 10 00 10  mov       %l0, %o0
    0x100001f78:            92 10 00 11  mov       %l1, %o1
    0x100001f7c:            40 00 25 51  call      +0x9544       <0x10000b4c0>
    0x100001f80:            94 10 00 12  mov       %l2, %o2
    0x100001f84:            40 04 3f 47  call      +0x10fd1c     <0x100111ca0>
    0x100001f88:            01 00 00 00  nop
    0x100001f8c:            40 04 3f 4d  call      +0x10fd34     <0x100111cc0>
    0x100001f90:            01 00 00 00  nop
    0x100001f94:            00 00 00 00  illtrap   0x0
    0x100001f98:            00 00 00 00  illtrap   0x0
    0x100001f9c:            00 00 00 00  illtrap   0x0
    0x100001fa0:            00 00 00 00  illtrap   0x0
    0x100001fa4:            00 00 00 00  illtrap   0x0
    0x100001fa8:            00 00 00 00  illtrap   0x0
    0x100001fac:            00 00 00 00  illtrap   0x0
__1cLisIdentical6Fpf0i_i_()
    0x100001fb0:            94 90 00 0a  orcc      %g0, %o2, %o2
    0x100001fb4:            04 40 00 0d  ble,pn    %icc, +0x34   <0x100001fe8>
    0x100001fb8:            9a 10 20 00  clr       %o5
    0x100001fbc:            c1 02 60 00  ld        [%o1], %f0
    0x100001fc0:            c5 02 20 00  ld        [%o0], %f2
    0x100001fc4:            81 a8 8a 20  fcmps     %fcc0, %f2, %f0
    0x100001fc8:            23 40 00 09  fbne,a,pn %fcc0, +0x24   <0x100001fec>
    0x100001fcc:            90 10 20 00  clr       %o0
    0x100001fd0:            9a 03 60 01  add       %o5, 0x1, %o5
    0x100001fd4:            80 a3 40 0a  cmp       %o5, %o2
    0x100001fd8:            92 02 60 04  add       %o1, 0x4, %o1
    0x100001fdc:            90 02 20 04  add       %o0, 0x4, %o0
    0x100001fe0:            26 4f ff f8  bl,a,pt   %icc, -0x20   <0x100001fc0>
    0x100001fe4:            c1 02 60 00  ld        [%o1], %f0
    0x100001fe8:            90 10 20 01  mov       0x1, %o0
    0x100001fec:            81 c3 e0 08  retl
    0x100001ff0:            01 00 00 00  nop
    0x100001ff4:            00 00 00 00  illtrap   0x0
    0x100001ff8:            00 00 00 00  illtrap   0x0
    0x100001ffc:            00 00 00 00  illtrap   0x0
    0x100002000:            00 00 00 00  illtrap   0x0
    0x100002004:            00 00 00 00  illtrap   0x0
    0x100002008:            00 00 00 00  illtrap   0x0
    0x10000200c:            00 00 00 00  illtrap   0x0
__1cJfloatcomp6Fpkv1_i_()
    0x100002010:            c1 02 60 00  ld        [%o1], %f0
    0x100002014:            c5 02 20 00  ld        [%o0], %f2
    0x100002018:            83 a8 8a a0  fcmpes    %fcc1, %f2, %f0
    0x10000201c:            1d 50 00 04  fbule,pn  %fcc1, +0x10   <0x10000202c>
    0x100002020:            9a 10 20 01  mov       0x1, %o5
    0x100002024:            81 c3 e0 08  retl
    0x100002028:            90 10 00 0d  mov       %o5, %o0
    0x10000202c:            85 a8 8a a0  fcmpes    %fcc2, %f2, %f0
    0x100002030:            9a 10 3f ff  mov       -0x1, %o5
    0x100002034:            9b 63 10 00  movuge    %fcc2, %g0, %o5
    0x100002038:            81 c3 e0 08  retl
    0x10000203c:            90 10 00 0d  mov       %o5, %o0
    0x100002040:            00 00 00 00  illtrap   0x0
    0x100002044:            00 00 00 00  illtrap   0x0
    0x100002048:            00 00 00 00  illtrap   0x0
    0x10000204c:            00 00 00 00  illtrap   0x0
    0x100002050:            00 00 00 00  illtrap   0x0
    0x100002054:            00 00 00 00  illtrap   0x0
__1cHshuffle6FpnGPoints__v_()
    0x100002058:            9d e3 bf 50  save      %sp, -0xb0, %sp
    0x10000205c:            e2 5e 20 00  ldx       [%i0], %l1
    0x100002060:            88 04 7f ff  add       %l1, -0x1, %g4
    0x100002064:            80 a0 00 04  cmp       %g0, %g4
    0x100002068:            16 60 00 35  bge,pn    %xcc, +0xd4   <0x10000213c>
    0x10000206c:            ba 10 20 00  clr       %i5
    0x100002070:            b8 10 20 00  clr       %i4
    0x100002074:            40 04 3f 1b  call      +0x10fc6c     <0x100111ce0>
    0x100002078:            01 00 00 00  nop
    0x10000207c:            c6 5e 20 00  ldx       [%i0], %g3
    0x100002080:            f2 5e 20 10  ldx       [%i0 + 0x10], %i1
    0x100002084:            82 20 c0 1d  sub       %g3, %i5, %g1
    0x100002088:            e8 5e 40 1c  ldx       [%i1 + %i4], %l4
    0x10000208c:            aa 06 40 1c  add       %i1, %i4, %l5
    0x100002090:            e2 5d 60 18  ldx       [%l5 + 0x18], %l1
    0x100002094:            84 20 60 01  sub       %g1, 0x1, %g2
    0x100002098:            e6 5d 60 08  ldx       [%l5 + 0x8], %l3
    0x10000209c:            80 88 40 02  btst      %g2, %g1
    0x1000020a0:            e4 5d 60 10  ldx       [%l5 + 0x10], %l2
    0x1000020a4:            12 60 00 0c  bne,pn    %xcc, +0x30   <0x1000020d4>
    0x1000020a8:            80 a0 60 00  cmp       %g1, 0x0
    0x1000020ac:            02 60 00 0a  be,pn     %xcc, +0x28   <0x1000020d4>
    0x1000020b0:            93 3a 30 3f  srax      %o0, 0x3f, %o1
    0x1000020b4:            98 1a 00 09  xor       %o0, %o1, %o4
    0x1000020b8:            96 23 00 09  sub       %o4, %o1, %o3
    0x1000020bc:            8a 8a c0 02  andcc     %o3, %g2, %g5
    0x1000020c0:            94 19 40 09  xor       %g5, %o1, %o2
    0x1000020c4:            90 22 80 09  sub       %o2, %o1, %o0
    0x1000020c8:            8b 66 50 08  movne     %xcc, %o0, %g5
    0x1000020cc:            10 80 00 06  ba        +0x18         <0x1000020e4>
    0x1000020d0:            b6 01 40 1d  add       %g5, %i5, %i3
    0x1000020d4:            9f 6a 00 01  sdivx     %o0, %g1, %o7
    0x1000020d8:            9a 4b c0 01  mulx      %o7, %g1, %o5
    0x1000020dc:            8a 22 00 0d  sub       %o0, %o5, %g5
    0x1000020e0:            b6 01 40 1d  add       %g5, %i5, %i3
    0x1000020e4:            b7 2e f0 05  sllx      %i3, 0x5, %i3
    0x1000020e8:            f4 5e 40 1b  ldx       [%i1 + %i3], %i2
    0x1000020ec:            f4 76 40 1c  stx       %i2, [%i1 + %i4]
    0x1000020f0:            ac 06 40 1b  add       %i1, %i3, %l6
    0x1000020f4:            f2 5d a0 08  ldx       [%l6 + 0x8], %i1
    0x1000020f8:            f2 75 60 08  stx       %i1, [%l5 + 0x8]
    0x1000020fc:            ee 5d a0 10  ldx       [%l6 + 0x10], %l7
    0x100002100:            ee 75 60 10  stx       %l7, [%l5 + 0x10]
    0x100002104:            e0 5d a0 18  ldx       [%l6 + 0x18], %l0
    0x100002108:            e0 75 60 18  stx       %l0, [%l5 + 0x18]
    0x10000210c:            ea 5e 20 10  ldx       [%i0 + 0x10], %l5
    0x100002110:            ba 07 60 01  add       %i5, 0x1, %i5
    0x100002114:            e8 76 c0 15  stx       %l4, [%i3 + %l5]
    0x100002118:            a8 05 40 1b  add       %l5, %i3, %l4
    0x10000211c:            e6 75 20 08  stx       %l3, [%l4 + 0x8]
    0x100002120:            e4 75 20 10  stx       %l2, [%l4 + 0x10]
    0x100002124:            e2 75 20 18  stx       %l1, [%l4 + 0x18]
    0x100002128:            e6 5e 20 00  ldx       [%i0], %l3
    0x10000212c:            a4 04 ff ff  add       %l3, -0x1, %l2
    0x100002130:            80 a7 40 12  cmp       %i5, %l2
    0x100002134:            06 6f ff d0  bl,pt     %xcc, -0xc0   <0x100002074>
    0x100002138:            b8 07 20 20  add       %i4, 0x20, %i4
    0x10000213c:            81 c7 e0 08  ret
    0x100002140:            81 e8 20 00  restore   %g0, 0x0, %g0
    0x100002144:            00 00 00 00  illtrap   0x0
    0x100002148:            00 00 00 00  illtrap   0x0
    0x10000214c:            00 00 00 00  illtrap   0x0
    0x100002150:            00 00 00 00  illtrap   0x0
    0x100002154:            00 00 00 00  illtrap   0x0
    0x100002158:            00 00 00 00  illtrap   0x0
    0x10000215c:            00 00 00 00  illtrap   0x0
__1cKintshuffle6Fpii_v_()
    0x100002160:            9d e3 bf 50  save      %sp, -0xb0, %sp
    0x100002164:            b3 3e 60 00  sra       %i1, 0x0, %i1
    0x100002168:            80 a6 60 00  cmp       %i1, 0x0
    0x10000216c:            04 40 00 21  ble,pn    %icc, +0x84   <0x1000021f0>
    0x100002170:            b8 10 00 18  mov       %i0, %i4
    0x100002174:            a0 10 20 00  clr       %l0
    0x100002178:            ba 06 7f ff  add       %i1, -0x1, %i5
    0x10000217c:            40 04 3e d9  call      +0x10fb64     <0x100111ce0>
    0x100002180:            a6 26 60 01  sub       %i1, 0x1, %l3
    0x100002184:            80 8e 40 13  btst      %l3, %i1
    0x100002188:            e8 07 20 00  ld        [%i4], %l4
    0x10000218c:            12 60 00 0c  bne,pn    %xcc, +0x30   <0x1000021bc>
    0x100002190:            01 00 00 00  nop
    0x100002194:            02 c6 40 0a  brz,pn    %i1, +0x28    <0x1000021bc>
    0x100002198:            9f 3a 30 3f  srax      %o0, 0x3f, %o7
    0x10000219c:            aa 1a 00 0f  xor       %o0, %o7, %l5
    0x1000021a0:            a4 25 40 0f  sub       %l5, %o7, %l2
    0x1000021a4:            98 8c 80 13  andcc     %l2, %l3, %o4
    0x1000021a8:            a2 1b 00 0f  xor       %o4, %o7, %l1
    0x1000021ac:            9a 24 40 0f  sub       %l1, %o7, %o5
    0x1000021b0:            99 66 50 0d  movne     %xcc, %o5, %o4
    0x1000021b4:            10 80 00 06  ba        +0x18         <0x1000021cc>
    0x1000021b8:            b6 03 00 10  add       %o4, %l0, %i3
    0x1000021bc:            ad 6a 00 19  sdivx     %o0, %i1, %l6
    0x1000021c0:            b2 4d 80 19  mulx      %l6, %i1, %i1
    0x1000021c4:            98 22 00 19  sub       %o0, %i1, %o4
    0x1000021c8:            b6 03 00 10  add       %o4, %l0, %i3
    0x1000021cc:            af 2e f0 02  sllx      %i3, 0x2, %l7
    0x1000021d0:            f4 06 00 17  ld        [%i0 + %l7], %i2
    0x1000021d4:            a0 04 20 01  add       %l0, 0x1, %l0
    0x1000021d8:            f4 27 20 00  st        %i2, [%i4]
    0x1000021dc:            80 a4 00 1d  cmp       %l0, %i5
    0x1000021e0:            b2 10 00 13  mov       %l3, %i1
    0x1000021e4:            b8 07 20 04  add       %i4, 0x4, %i4
    0x1000021e8:            04 6f ff e5  ble,pt    %xcc, -0x6c   <0x10000217c>
    0x1000021ec:            e8 26 00 17  st        %l4, [%i0 + %l7]
    0x1000021f0:            81 c7 e0 08  ret
    0x1000021f4:            81 e8 20 00  restore   %g0, 0x0, %g0
    0x1000021f8:            00 00 00 00  illtrap   0x0
__1cEdist6FnFPoint_0i_f_()
    0x1000021fc:            05 00 04 00  sethi     %hi(0x100000), %g2
    0x100002200:            82 10 a0 02  or        %g2, 0x2, %g1
    0x100002204:            99 28 70 0c  sllx      %g1, 0xc, %o4
    0x100002208:            94 90 00 0a  orcc      %g0, %o2, %o2
    0x10000220c:            c1 03 21 f8  ld        [%o4 + 0x1f8], %f0
    0x100002210:            04 40 00 85  ble,pn    %icc, +0x214  <0x100002424>
    0x100002214:            96 10 20 00  clr       %o3
    0x100002218:            80 a2 a0 13  cmp       %o2, 0x13
    0x10000221c:            d0 5a 20 08  ldx       [%o0 + 0x8], %o0
    0x100002220:            98 02 bf ff  add       %o2, -0x1, %o4
    0x100002224:            86 10 00 0a  mov       %o2, %g3
    0x100002228:            da 5a 60 08  ldx       [%o1 + 0x8], %o5
    0x10000222c:            06 40 00 73  bl,pn     %icc, +0x1cc  <0x1000023f8>
    0x100002230:            01 00 00 00  nop
    0x100002234:            f1 02 20 00  ld        [%o0], %f24
    0x100002238:            d5 02 20 0c  ld        [%o0 + 0xc], %f10
    0x10000223c:            e9 02 20 10  ld        [%o0 + 0x10], %f20
    0x100002240:            fd 02 20 04  ld        [%o0 + 0x4], %f30
    0x100002244:            ed 03 60 00  ld        [%o5], %f22
    0x100002248:            f5 03 60 04  ld        [%o5 + 0x4], %f26
    0x10000224c:            db 02 20 14  ld        [%o0 + 0x14], %f13
    0x100002250:            dd 02 20 08  ld        [%o0 + 0x8], %f14
    0x100002254:            cd 03 60 08  ld        [%o5 + 0x8], %f6
    0x100002258:            cf 03 60 0c  ld        [%o5 + 0xc], %f7
    0x10000225c:            d7 03 60 10  ld        [%o5 + 0x10], %f11
    0x100002260:            c3 03 60 14  ld        [%o5 + 0x14], %f1
    0x100002264:            f9 03 60 18  ld        [%o5 + 0x18], %f28
    0x100002268:            c5 03 60 1c  ld        [%o5 + 0x1c], %f2
    0x10000226c:            a1 a6 08 b6  fsubs     %f24, %f22, %f16
    0x100002270:            d9 03 60 20  ld        [%o5 + 0x20], %f12
    0x100002274:            87 a7 88 ba  fsubs     %f30, %f26, %f3
    0x100002278:            d1 03 60 24  ld        [%o5 + 0x24], %f8
    0x10000227c:            8b a3 88 a6  fsubs     %f14, %f6, %f5
    0x100002280:            93 a2 88 a7  fsubs     %f10, %f7, %f9
    0x100002284:            a3 a4 09 30  fmuls     %f16, %f16, %f17
    0x100002288:            8b 28 70 0c  sllx      %g1, 0xc, %g5
    0x10000228c:            df 01 61 f8  ld        [%g5 + 0x1f8], %f15
    0x100002290:            a7 a0 c9 23  fmuls     %f3, %f3, %f19
    0x100002294:            9d a5 08 ab  fsubs     %f20, %f11, %f14
    0x100002298:            90 02 20 2c  add       %o0, 0x2c, %o0
    0x10000229c:            f1 02 3f f8  ld        [%o0 - 0x8], %f24
    0x1000022a0:            d5 02 3f ec  ld        [%o0 - 0x14], %f10
    0x1000022a4:            94 03 60 28  add       %o5, 0x28, %o2
    0x1000022a8:            bd a3 48 a1  fsubs     %f13, %f1, %f30
    0x1000022ac:            f5 02 3f f0  ld        [%o0 - 0x10], %f26
    0x1000022b0:            89 a1 49 25  fmuls     %f5, %f5, %f4
    0x1000022b4:            cd 02 3f fc  ld        [%o0 - 0x4], %f6
    0x1000022b8:            a5 a2 49 29  fmuls     %f9, %f9, %f18
    0x1000022bc:            ad a3 c8 31  fadds     %f15, %f17, %f22
    0x1000022c0:            9a 00 ff f8  add       %g3, -0x8, %o5
    0x1000022c4:            81 a0 08 33  fadds     %f0, %f19, %f0
    0x1000022c8:            e9 02 3f f4  ld        [%o0 - 0xc], %f20
    0x1000022cc:            96 10 20 0b  mov       0xb, %o3
    0x1000022d0:            c1 6a 20 90  prefetch  [%o0 + 0x90], #n_reads
    0x1000022d4:            c1 6a a0 90  prefetch  [%o2 + 0x90], #n_reads
    0x1000022d8:            96 02 e0 08  add       %o3, 0x8, %o3
    0x1000022dc:            ff 02 a0 00  ld        [%o2], %f31
    0x1000022e0:            94 02 a0 20  add       %o2, 0x20, %o2
    0x1000022e4:            af a2 88 bc  fsubs     %f10, %f28, %f23
    0x1000022e8:            b9 a5 88 24  fadds     %f22, %f4, %f28
    0x1000022ec:            80 a2 c0 0d  cmp       %o3, %o5
    0x1000022f0:            d7 02 20 00  ld        [%o0], %f11
    0x1000022f4:            ab a3 89 2e  fmuls     %f14, %f14, %f21
    0x1000022f8:            bb a6 88 a2  fsubs     %f26, %f2, %f29
    0x1000022fc:            90 02 20 20  add       %o0, 0x20, %o0
    0x100002300:            dd 02 bf e4  ld        [%o2 - 0x1c], %f14
    0x100002304:            b3 a0 08 32  fadds     %f0, %f18, %f25
    0x100002308:            b7 a7 89 3e  fmuls     %f30, %f30, %f27
    0x10000230c:            db 02 3f e4  ld        [%o0 - 0x1c], %f13
    0x100002310:            99 a5 08 ac  fsubs     %f20, %f12, %f12
    0x100002314:            c3 02 bf e8  ld        [%o2 - 0x18], %f1
    0x100002318:            85 a7 08 35  fadds     %f28, %f21, %f2
    0x10000231c:            ad a5 c9 37  fmuls     %f23, %f23, %f22
    0x100002320:            e5 02 3f e8  ld        [%o0 - 0x18], %f18
    0x100002324:            bd a6 08 a8  fsubs     %f24, %f8, %f30
    0x100002328:            d1 02 bf ec  ld        [%o2 - 0x14], %f8
    0x10000232c:            b1 a6 48 3b  fadds     %f25, %f27, %f24
    0x100002330:            89 a7 49 3d  fmuls     %f29, %f29, %f4
    0x100002334:            d5 02 3f ec  ld        [%o0 - 0x14], %f10
    0x100002338:            8f a1 88 bf  fsubs     %f6, %f31, %f7
    0x10000233c:            f9 02 bf f0  ld        [%o2 - 0x10], %f28
    0x100002340:            87 a0 88 36  fadds     %f2, %f22, %f3
    0x100002344:            8d a3 09 2c  fmuls     %f12, %f12, %f6
    0x100002348:            f5 02 3f f0  ld        [%o0 - 0x10], %f26
    0x10000234c:            a1 a2 c8 ae  fsubs     %f11, %f14, %f16
    0x100002350:            c5 02 bf f4  ld        [%o2 - 0xc], %f2
    0x100002354:            8b a6 08 24  fadds     %f24, %f4, %f5
    0x100002358:            93 a7 89 3e  fmuls     %f30, %f30, %f9
    0x10000235c:            e9 02 3f f4  ld        [%o0 - 0xc], %f20
    0x100002360:            9d a3 48 a1  fsubs     %f13, %f1, %f14
    0x100002364:            d9 02 bf f8  ld        [%o2 - 0x8], %f12
    0x100002368:            ad a0 c8 26  fadds     %f3, %f6, %f22
    0x10000236c:            89 a1 c9 27  fmuls     %f7, %f7, %f4
    0x100002370:            f1 02 3f f8  ld        [%o0 - 0x8], %f24
    0x100002374:            bd a4 88 a8  fsubs     %f18, %f8, %f30
    0x100002378:            d1 02 bf fc  ld        [%o2 - 0x4], %f8
    0x10000237c:            81 a1 48 29  fadds     %f5, %f9, %f0
    0x100002380:            cd 02 3f fc  ld        [%o0 - 0x4], %f6
    0x100002384:            04 4f ff d3  ble,pt    %icc, -0xb4   <0x1000022d0>
    0x100002388:            a5 a4 09 30  fmuls     %f16, %f16, %f18
    0x10000238c:            8f a5 88 24  fadds     %f22, %f4, %f7
    0x100002390:            a1 a2 88 bc  fsubs     %f10, %f28, %f16
    0x100002394:            97 a3 89 2e  fmuls     %f14, %f14, %f11
    0x100002398:            87 a0 08 32  fadds     %f0, %f18, %f3
    0x10000239c:            9b a6 88 a2  fsubs     %f26, %f2, %f13
    0x1000023a0:            a9 a5 08 ac  fsubs     %f20, %f12, %f20
    0x1000023a4:            8b a7 89 3e  fmuls     %f30, %f30, %f5
    0x1000023a8:            93 a4 09 30  fmuls     %f16, %f16, %f9
    0x1000023ac:            9f a1 c8 2b  fadds     %f7, %f11, %f15
    0x1000023b0:            c3 02 a0 00  ld        [%o2], %f1
    0x1000023b4:            a3 a6 08 a8  fsubs     %f24, %f8, %f17
    0x1000023b8:            b7 a5 09 34  fmuls     %f20, %f20, %f27
    0x1000023bc:            a7 a1 88 a1  fsubs     %f6, %f1, %f19
    0x1000023c0:            af a3 49 2d  fmuls     %f13, %f13, %f23
    0x1000023c4:            ab a0 c8 25  fadds     %f3, %f5, %f21
    0x1000023c8:            b3 a3 c8 29  fadds     %f15, %f9, %f25
    0x1000023cc:            bf a4 49 31  fmuls     %f17, %f17, %f31
    0x1000023d0:            80 a2 c0 0c  cmp       %o3, %o4
    0x1000023d4:            a5 a4 c9 33  fmuls     %f19, %f19, %f18
    0x1000023d8:            9a 02 a0 04  add       %o2, 0x4, %o5
    0x1000023dc:            bb a5 48 37  fadds     %f21, %f23, %f29
    0x1000023e0:            85 a6 48 3b  fadds     %f25, %f27, %f2
    0x1000023e4:            89 a7 48 3f  fadds     %f29, %f31, %f4
    0x1000023e8:            81 a0 88 32  fadds     %f2, %f18, %f0
    0x1000023ec:            81 a1 08 20  fadds     %f4, %f0, %f0
    0x1000023f0:            14 40 00 0d  bg,pn     %icc, +0x34   <0x100002424>
    0x1000023f4:            01 00 00 00  nop
    0x1000023f8:            f5 03 60 00  ld        [%o5], %f26
    0x1000023fc:            d5 02 20 00  ld        [%o0], %f10
    0x100002400:            96 02 e0 01  add       %o3, 0x1, %o3
    0x100002404:            80 a2 c0 0c  cmp       %o3, %o4
    0x100002408:            a9 a2 88 ba  fsubs     %f10, %f26, %f20
    0x10000240c:            9a 03 60 04  add       %o5, 0x4, %o5
    0x100002410:            90 02 20 04  add       %o0, 0x4, %o0
    0x100002414:            a3 a5 09 34  fmuls     %f20, %f20, %f17
    0x100002418:            81 a0 08 31  fadds     %f0, %f17, %f0
    0x10000241c:            24 4f ff f8  ble,a,pt  %icc, -0x20   <0x1000023fc>
    0x100002420:            f5 03 60 00  ld        [%o5], %f26
    0x100002424:            81 c3 e0 08  retl
    0x100002428:            01 00 00 00  nop
    0x10000242c:            00 00 00 00  illtrap   0x0
    0x100002430:            3f 80 00 00  fbo,a     +0x0          <0x100002430>
    0x100002434:            30 00 00 00  illtrap   0x0
    0x100002438:            00 00 00 00  illtrap   0x0
    0x10000243c:            00 00 00 00  illtrap   0x0
    0x100002440:            00 00 00 00  illtrap   0x0
    0x100002444:            00 00 00 00  illtrap   0x0
__1cHpspeedy6FpnGPoints_fplipnRpthread_barrier_t__f_()
    0x100002448:            9d e3 bf 30  save      %sp, -0xd0, %sp
    0x10000244c:            e8 5e 20 00  ldx       [%i0], %l4
    0x100002450:            3b 00 04 00  sethi     %hi(0x100000), %i5
    0x100002454:            a6 17 61 12  or        %i5, 0x112, %l3
    0x100002458:            a1 2c f0 0c  sllx      %l3, 0xc, %l0
    0x10000245c:            c4 04 25 18  ld        [%l0 + 0x518], %g2
    0x100002460:            a5 3e e0 00  sra       %i3, 0x0, %l2
    0x100002464:            ba 04 25 18  add       %l0, 0x518, %i5
    0x100002468:            9b 38 a0 00  sra       %g2, 0x0, %o5
    0x10000246c:            b3 6d 00 0d  sdivx     %l4, %o5, %i1
    0x100002470:            b8 4e 40 12  mulx      %i1, %l2, %i4
    0x100002474:            ac 00 bf ff  add       %g2, -0x1, %l6
    0x100002478:            b2 07 00 19  add       %i4, %i1, %i1
    0x10000247c:            80 a4 80 16  cmp       %l2, %l6
    0x100002480:            b3 64 40 14  move      %icc, %l4, %i1
    0x100002484:            b9 3f 20 00  sra       %i4, 0x0, %i4
    0x100002488:            80 a7 00 19  cmp       %i4, %i1
    0x10000248c:            16 60 00 8e  bge,pn    %xcc, +0x238  <0x1000026c4>
    0x100002490:            a2 06 7f ff  add       %i1, -0x1, %l1
    0x100002494:            9a 10 00 1c  mov       %i4, %o5
    0x100002498:            ee 5e 20 10  ldx       [%i0 + 0x10], %l7
    0x10000249c:            83 2f 30 05  sllx      %i4, 0x5, %g1
    0x1000024a0:            d0 06 20 08  ld        [%i0 + 0x8], %o0
    0x1000024a4:            09 00 04 00  sethi     %hi(0x100000), %g4
    0x1000024a8:            92 11 20 02  or        %g4, 0x2, %o1
    0x1000024ac:            8b 2a 70 0c  sllx      %o1, 0xc, %g5
    0x1000024b0:            cd 01 64 38  ld        [%g5 + 0x438], %f6
    0x1000024b4:            84 05 c0 01  add       %l7, %g1, %g2
    0x1000024b8:            f6 5d e0 08  ldx       [%l7 + 0x8], %i3
    0x1000024bc:            80 a2 20 00  cmp       %o0, 0x0
    0x1000024c0:            d4 58 a0 08  ldx       [%g2 + 0x8], %o2
    0x1000024c4:            04 40 00 75  ble,pn    %icc, +0x1d4  <0x100002698>
    0x1000024c8:            a6 02 3f ff  add       %o0, -0x1, %l3
    0x1000024cc:            80 a2 20 11  cmp       %o0, 0x11
    0x1000024d0:            a8 10 20 00  clr       %l4
    0x1000024d4:            06 40 00 66  bl,pn     %icc, +0x198  <0x10000266c>
    0x1000024d8:            01 00 00 00  nop
    0x1000024dc:            eb 02 a0 00  ld        [%o2], %f21
    0x1000024e0:            ef 02 a0 0c  ld        [%o2 + 0xc], %f23
    0x1000024e4:            fd 02 a0 28  ld        [%o2 + 0x28], %f30
    0x1000024e8:            fb 02 a0 14  ld        [%o2 + 0x14], %f29
    0x1000024ec:            e7 02 a0 08  ld        [%o2 + 0x8], %f19
    0x1000024f0:            c3 02 a0 04  ld        [%o2 + 0x4], %f1
    0x1000024f4:            d5 06 e0 04  ld        [%i3 + 0x4], %f10
    0x1000024f8:            cf 06 e0 00  ld        [%i3], %f7
    0x1000024fc:            df 06 e0 08  ld        [%i3 + 0x8], %f15
    0x100002500:            e5 06 e0 0c  ld        [%i3 + 0xc], %f18
    0x100002504:            f7 02 a0 10  ld        [%o2 + 0x10], %f27
    0x100002508:            f3 06 e0 10  ld        [%i3 + 0x10], %f25
    0x10000250c:            dd 06 e0 14  ld        [%i3 + 0x14], %f14
    0x100002510:            e3 01 64 38  ld        [%g5 + 0x438], %f17
    0x100002514:            bf a0 48 aa  fsubs     %f1, %f10, %f31
    0x100002518:            d9 06 e0 18  ld        [%i3 + 0x18], %f12
    0x10000251c:            a1 a5 48 a7  fsubs     %f21, %f7, %f16
    0x100002520:            ed 06 e0 1c  ld        [%i3 + 0x1c], %f22
    0x100002524:            a9 a4 c8 af  fsubs     %f19, %f15, %f20
    0x100002528:            db 06 e0 20  ld        [%i3 + 0x20], %f13
    0x10000252c:            8b a7 c9 3f  fmuls     %f31, %f31, %f5
    0x100002530:            97 a5 c8 b2  fsubs     %f23, %f18, %f11
    0x100002534:            d3 06 e0 24  ld        [%i3 + 0x24], %f9
    0x100002538:            91 a4 09 30  fmuls     %f16, %f16, %f8
    0x10000253c:            b5 a5 09 34  fmuls     %f20, %f20, %f26
    0x100002540:            94 02 a0 2c  add       %o2, 0x2c, %o2
    0x100002544:            b9 a1 88 25  fadds     %f6, %f5, %f28
    0x100002548:            d5 02 bf f0  ld        [%o2 - 0x10], %f10
    0x10000254c:            9f a6 c8 b9  fsubs     %f27, %f25, %f15
    0x100002550:            c3 02 bf ec  ld        [%o2 - 0x14], %f1
    0x100002554:            9d a7 48 ae  fsubs     %f29, %f14, %f14
    0x100002558:            e9 02 bf f4  ld        [%o2 - 0xc], %f20
    0x10000255c:            96 06 e0 28  add       %i3, 0x28, %o3
    0x100002560:            a8 10 20 0b  mov       0xb, %l4
    0x100002564:            b1 a2 c9 2b  fmuls     %f11, %f11, %f24
    0x100002568:            8d a4 48 28  fadds     %f17, %f8, %f6
    0x10000256c:            cf 02 bf f8  ld        [%o2 - 0x8], %f7
    0x100002570:            98 24 e0 05  sub       %l3, 0x5, %o4
    0x100002574:            a8 05 20 06  add       %l4, 0x6, %l4
    0x100002578:            94 02 a0 18  add       %o2, 0x18, %o2
    0x10000257c:            ef 02 e0 00  ld        [%o3], %f23
    0x100002580:            ab a0 48 ac  fsubs     %f1, %f12, %f21
    0x100002584:            b5 a1 88 3a  fadds     %f6, %f26, %f26
    0x100002588:            80 a5 00 0c  cmp       %l4, %o4
    0x10000258c:            e7 02 bf e8  ld        [%o2 - 0x18], %f19
    0x100002590:            81 a3 c9 2f  fmuls     %f15, %f15, %f0
    0x100002594:            9f a2 88 b6  fsubs     %f10, %f22, %f15
    0x100002598:            e5 02 e0 04  ld        [%o3 + 0x4], %f18
    0x10000259c:            96 02 e0 18  add       %o3, 0x18, %o3
    0x1000025a0:            b1 a7 08 38  fadds     %f28, %f24, %f24
    0x1000025a4:            b9 a3 89 2e  fmuls     %f14, %f14, %f28
    0x1000025a8:            c3 02 bf ec  ld        [%o2 - 0x14], %f1
    0x1000025ac:            b3 a5 08 ad  fsubs     %f20, %f13, %f25
    0x1000025b0:            d9 02 ff f0  ld        [%o3 - 0x10], %f12
    0x1000025b4:            89 a6 88 20  fadds     %f26, %f0, %f4
    0x1000025b8:            8d a5 49 35  fmuls     %f21, %f21, %f6
    0x1000025bc:            d5 02 bf f0  ld        [%o2 - 0x10], %f10
    0x1000025c0:            bb a1 c8 a9  fsubs     %f7, %f9, %f29
    0x1000025c4:            ed 02 ff f4  ld        [%o3 - 0xc], %f22
    0x1000025c8:            85 a6 08 3c  fadds     %f24, %f28, %f2
    0x1000025cc:            b7 a3 c9 2f  fmuls     %f15, %f15, %f27
    0x1000025d0:            e9 02 bf f4  ld        [%o2 - 0xc], %f20
    0x1000025d4:            9f a7 88 b7  fsubs     %f30, %f23, %f15
    0x1000025d8:            db 02 ff f8  ld        [%o3 - 0x8], %f13
    0x1000025dc:            8d a1 08 26  fadds     %f4, %f6, %f6
    0x1000025e0:            b5 a6 49 39  fmuls     %f25, %f25, %f26
    0x1000025e4:            cf 02 bf f8  ld        [%o2 - 0x8], %f7
    0x1000025e8:            9d a4 c8 b2  fsubs     %f19, %f18, %f14
    0x1000025ec:            d3 02 ff fc  ld        [%o3 - 0x4], %f9
    0x1000025f0:            b9 a0 88 3b  fadds     %f2, %f27, %f28
    0x1000025f4:            fd 02 bf fc  ld        [%o2 - 0x4], %f30
    0x1000025f8:            04 4f ff df  ble,pt    %icc, -0x84   <0x100002574>
    0x1000025fc:            b1 a7 49 3d  fmuls     %f29, %f29, %f24
    0x100002600:            a3 a1 88 3a  fadds     %f6, %f26, %f17
    0x100002604:            a1 a0 48 ac  fsubs     %f1, %f12, %f16
    0x100002608:            a7 a3 c9 2f  fmuls     %f15, %f15, %f19
    0x10000260c:            a5 a5 08 ad  fsubs     %f20, %f13, %f18
    0x100002610:            b7 a7 08 38  fadds     %f28, %f24, %f27
    0x100002614:            b3 a2 88 b6  fsubs     %f10, %f22, %f25
    0x100002618:            bb a3 89 2e  fmuls     %f14, %f14, %f29
    0x10000261c:            a9 a4 09 30  fmuls     %f16, %f16, %f20
    0x100002620:            bf a4 48 33  fadds     %f17, %f19, %f31
    0x100002624:            ef 02 e0 00  ld        [%o3], %f23
    0x100002628:            8b a1 c8 a9  fsubs     %f7, %f9, %f5
    0x10000262c:            91 a4 89 32  fmuls     %f18, %f18, %f8
    0x100002630:            97 a7 88 b7  fsubs     %f30, %f23, %f11
    0x100002634:            b1 a6 49 39  fmuls     %f25, %f25, %f24
    0x100002638:            ad a6 c8 3d  fadds     %f27, %f29, %f22
    0x10000263c:            b5 a7 c8 34  fadds     %f31, %f20, %f26
    0x100002640:            b9 a1 49 25  fmuls     %f5, %f5, %f28
    0x100002644:            80 a5 00 13  cmp       %l4, %l3
    0x100002648:            89 a2 c9 2b  fmuls     %f11, %f11, %f4
    0x10000264c:            b6 02 e0 04  add       %o3, 0x4, %i3
    0x100002650:            81 a5 88 38  fadds     %f22, %f24, %f0
    0x100002654:            85 a6 88 28  fadds     %f26, %f8, %f2
    0x100002658:            bd a0 08 3c  fadds     %f0, %f28, %f30
    0x10000265c:            8d a0 88 24  fadds     %f2, %f4, %f6
    0x100002660:            8d a7 88 26  fadds     %f30, %f6, %f6
    0x100002664:            14 40 00 0d  bg,pn     %icc, +0x34   <0x100002698>
    0x100002668:            01 00 00 00  nop
    0x10000266c:            fb 06 e0 00  ld        [%i3], %f29
    0x100002670:            c9 02 a0 00  ld        [%o2], %f4
    0x100002674:            a8 05 20 01  add       %l4, 0x1, %l4
    0x100002678:            80 a5 00 13  cmp       %l4, %l3
    0x10000267c:            a1 a1 08 bd  fsubs     %f4, %f29, %f16
    0x100002680:            b6 06 e0 04  add       %i3, 0x4, %i3
    0x100002684:            94 02 a0 04  add       %o2, 0x4, %o2
    0x100002688:            85 a4 09 30  fmuls     %f16, %f16, %f2
    0x10000268c:            8d a1 88 22  fadds     %f6, %f2, %f6
    0x100002690:            24 4f ff f8  ble,a,pt  %icc, -0x20   <0x100002670>
    0x100002694:            fb 06 e0 00  ld        [%i3], %f29
    0x100002698:            eb 05 c0 01  ld        [%l7 + %g1], %f21
    0x10000269c:            9a 03 60 01  add       %o5, 0x1, %o5
    0x1000026a0:            80 a3 40 11  cmp       %o5, %l1
    0x1000026a4:            b3 a1 89 35  fmuls     %f6, %f21, %f25
    0x1000026a8:            f3 20 a0 18  st        %f25, [%g2 + 0x18]
    0x1000026ac:            e8 5e 20 10  ldx       [%i0 + 0x10], %l4
    0x1000026b0:            86 00 40 14  add       %g1, %l4, %g3
    0x1000026b4:            c0 70 e0 10  clrx      [%g3 + 0x10]
    0x1000026b8:            82 00 60 20  add       %g1, 0x20, %g1
    0x1000026bc:            24 6f ff 79  ble,a,pt  %xcc, -0x21c  <0x1000024a0>
    0x1000026c0:            ee 5e 20 10  ldx       [%i0 + 0x10], %l7
    0x1000026c4:            29 00 04 00  sethi     %hi(0x100000), %l4
    0x1000026c8:            80 a4 a0 00  cmp       %l2, 0x0
    0x1000026cc:            82 15 21 12  or        %l4, 0x112, %g1
    0x1000026d0:            12 40 00 cf  bne,pn    %icc, +0x33c  <0x100002a0c>
    0x1000026d4:            a9 28 70 0c  sllx      %g1, 0xc, %l4
    0x1000026d8:            ae 10 20 01  mov       0x1, %l7
    0x1000026dc:            c7 23 a8 af  st        %f3, [%sp + 0x8af]
    0x1000026e0:            ee 76 a0 00  stx       %l7, [%i2]
    0x1000026e4:            d6 04 25 18  ld        [%l0 + 0x518], %o3
    0x1000026e8:            ab 3a e0 00  sra       %o3, 0x0, %l5
    0x1000026ec:            40 04 3d 85  call      +0x10f614     <0x100111d00>
    0x1000026f0:            91 2d 70 03  sllx      %l5, 0x3, %o0
    0x1000026f4:            d0 77 60 10  stx       %o0, [%i5 + 0x10]
    0x1000026f8:            ee 27 60 18  st        %l7, [%i5 + 0x18]
    0x1000026fc:            d2 5e 20 00  ldx       [%i0], %o1
    0x100002700:            c7 03 a8 af  ld        [%sp + 0x8af], %f3
    0x100002704:            80 a5 c0 09  cmp       %l7, %o1
    0x100002708:            16 60 00 b5  bge,pn    %xcc, +0x2d4  <0x1000029dc>
    0x10000270c:            1f 00 04 00  sethi     %hi(0x100000), %o7
    0x100002710:            98 13 e0 02  or        %o7, 0x2, %o4
    0x100002714:            87 2b 30 0c  sllx      %o4, 0xc, %g3
    0x100002718:            d9 00 e4 30  ld        [%g3 + 0x430], %f12
    0x10000271c:            aa 00 e4 30  add       %g3, 0x430, %l5
    0x100002720:            ad 2f 30 05  sllx      %i4, 0x5, %l6
    0x100002724:            b7 a3 09 a3  fdivs     %f12, %f3, %f27
    0x100002728:            f7 23 a8 c7  st        %f27, [%sp + 0x8c7]
    0x10000272c:            40 04 3d 6d  call      +0x10f5b4     <0x100111ce0>
    0x100002730:            c7 23 a8 af  st        %f3, [%sp + 0x8af]
    0x100002734:            d4 07 60 18  ld        [%i5 + 0x18], %o2
    0x100002738:            ca 5e 20 10  ldx       [%i0 + 0x10], %g5
    0x10000273c:            e7 05 60 04  ld        [%l5 + 0x4], %f19
    0x100002740:            97 3a a0 00  sra       %o2, 0x0, %o3
    0x100002744:            93 2a f0 05  sllx      %o3, 0x5, %o1
    0x100002748:            9a 02 40 05  add       %o1, %g5, %o5
    0x10000274c:            f5 03 60 18  ld        [%o5 + 0x18], %f26
    0x100002750:            d0 73 a8 bf  stx       %o0, [%sp + 0x8bf]
    0x100002754:            df 1b a8 bf  ldd       [%sp + 0x8bf], %d46
    0x100002758:            f7 03 a8 c7  ld        [%sp + 0x8c7], %f27
    0x10000275c:            c7 03 a8 af  ld        [%sp + 0x8af], %f3
    0x100002760:            a9 a0 10 8f  fxtos     %d46, %f20
    0x100002764:            b1 a6 89 3b  fmuls     %f26, %f27, %f24
    0x100002768:            af a5 09 33  fmuls     %f20, %f19, %f23
    0x10000276c:            81 ad ca b8  fcmpes    %fcc0, %f23, %f24
    0x100002770:            19 40 00 94  fbuge,pn  %fcc0, +0x250  <0x1000029c0>
    0x100002774:            80 a7 00 19  cmp       %i4, %i1
    0x100002778:            da 5e a0 00  ldx       [%i2], %o5
    0x10000277c:            84 03 60 01  add       %o5, 0x1, %g2
    0x100002780:            16 60 00 8f  bge,pn    %xcc, +0x23c  <0x1000029bc>
    0x100002784:            c4 76 a0 00  stx       %g2, [%i2]
    0x100002788:            8a 10 00 1c  mov       %i4, %g5
    0x10000278c:            d1 05 60 08  ld        [%l5 + 0x8], %f8
    0x100002790:            90 10 00 16  mov       %l6, %o0
    0x100002794:            c6 5e 20 10  ldx       [%i0 + 0x10], %g3
    0x100002798:            ee 06 20 08  ld        [%i0 + 0x8], %l7
    0x10000279c:            88 00 c0 08  add       %g3, %o0, %g4
    0x1000027a0:            98 00 c0 09  add       %g3, %o1, %o4
    0x1000027a4:            de 59 20 08  ldx       [%g4 + 0x8], %o7
    0x1000027a8:            80 a5 e0 00  cmp       %l7, 0x0
    0x1000027ac:            c4 5b 20 08  ldx       [%o4 + 0x8], %g2
    0x1000027b0:            04 40 00 75  ble,pn    %icc, +0x1d4  <0x100002984>
    0x1000027b4:            9a 05 ff ff  add       %l7, -0x1, %o5
    0x1000027b8:            80 a5 e0 11  cmp       %l7, 0x11
    0x1000027bc:            a6 10 20 00  clr       %l3
    0x1000027c0:            06 40 00 66  bl,pn     %icc, +0x198  <0x100002958>
    0x1000027c4:            01 00 00 00  nop
    0x1000027c8:            cf 00 a0 00  ld        [%g2], %f7
    0x1000027cc:            c1 00 a0 20  ld        [%g2 + 0x20], %f0
    0x1000027d0:            f5 00 a0 0c  ld        [%g2 + 0xc], %f26
    0x1000027d4:            ef 00 a0 14  ld        [%g2 + 0x14], %f23
    0x1000027d8:            c3 00 a0 04  ld        [%g2 + 0x4], %f1
    0x1000027dc:            e7 03 e0 04  ld        [%o7 + 0x4], %f19
    0x1000027e0:            fd 03 e0 00  ld        [%o7], %f30
    0x1000027e4:            f1 00 a0 10  ld        [%g2 + 0x10], %f24
    0x1000027e8:            e1 00 a0 08  ld        [%g2 + 0x8], %f16
    0x1000027ec:            d5 03 e0 08  ld        [%o7 + 0x8], %f10
    0x1000027f0:            ed 03 e0 0c  ld        [%o7 + 0xc], %f22
    0x1000027f4:            e9 03 e0 10  ld        [%o7 + 0x10], %f20
    0x1000027f8:            dd 03 e0 14  ld        [%o7 + 0x14], %f14
    0x1000027fc:            d9 03 e0 18  ld        [%o7 + 0x18], %f12
    0x100002800:            bf a0 48 b3  fsubs     %f1, %f19, %f31
    0x100002804:            f9 03 e0 1c  ld        [%o7 + 0x1c], %f28
    0x100002808:            a3 a1 c8 be  fsubs     %f7, %f30, %f17
    0x10000280c:            db 03 e0 20  ld        [%o7 + 0x20], %f13
    0x100002810:            97 a4 08 aa  fsubs     %f16, %f10, %f11
    0x100002814:            d3 03 e0 24  ld        [%o7 + 0x24], %f9
    0x100002818:            ab a7 c9 3f  fmuls     %f31, %f31, %f21
    0x10000281c:            b3 a6 88 b6  fsubs     %f26, %f22, %f25
    0x100002820:            8d a4 49 31  fmuls     %f17, %f17, %f6
    0x100002824:            84 00 a0 2c  add       %g2, 0x2c, %g2
    0x100002828:            d5 00 bf f0  ld        [%g2 - 0x10], %f10
    0x10000282c:            9f a6 08 b4  fsubs     %f24, %f20, %f15
    0x100002830:            c3 00 bf ec  ld        [%g2 - 0x14], %f1
    0x100002834:            bd a2 08 35  fadds     %f8, %f21, %f30
    0x100002838:            d1 05 60 08  ld        [%l5 + 0x8], %f8
    0x10000283c:            9d a5 c8 ae  fsubs     %f23, %f14, %f14
    0x100002840:            89 a2 c9 2b  fmuls     %f11, %f11, %f4
    0x100002844:            cf 00 bf fc  ld        [%g2 - 0x4], %f7
    0x100002848:            82 03 e0 28  add       %o7, 0x28, %g1
    0x10000284c:            a6 10 20 0b  mov       0xb, %l3
    0x100002850:            85 a6 49 39  fmuls     %f25, %f25, %f2
    0x100002854:            8d a2 08 26  fadds     %f8, %f6, %f6
    0x100002858:            eb 00 bf f8  ld        [%g2 - 0x8], %f21
    0x10000285c:            b6 23 60 05  sub       %o5, 0x5, %i3
    0x100002860:            a6 04 e0 06  add       %l3, 0x6, %l3
    0x100002864:            84 00 a0 18  add       %g2, 0x18, %g2
    0x100002868:            e5 00 60 00  ld        [%g1], %f18
    0x10000286c:            a1 a0 48 ac  fsubs     %f1, %f12, %f16
    0x100002870:            bb a1 88 24  fadds     %f6, %f4, %f29
    0x100002874:            80 a4 c0 1b  cmp       %l3, %i3
    0x100002878:            e9 00 bf e8  ld        [%g2 - 0x18], %f20
    0x10000287c:            89 a3 c9 2f  fmuls     %f15, %f15, %f4
    0x100002880:            9f a2 88 bc  fsubs     %f10, %f28, %f15
    0x100002884:            e7 00 60 04  ld        [%g1 + 0x4], %f19
    0x100002888:            82 00 60 18  add       %g1, 0x18, %g1
    0x10000288c:            85 a7 88 22  fadds     %f30, %f2, %f2
    0x100002890:            8b a3 89 2e  fmuls     %f14, %f14, %f5
    0x100002894:            c3 00 bf ec  ld        [%g2 - 0x14], %f1
    0x100002898:            b5 a0 08 ad  fsubs     %f0, %f13, %f26
    0x10000289c:            d9 00 7f f0  ld        [%g1 - 0x10], %f12
    0x1000028a0:            bd a7 48 24  fadds     %f29, %f4, %f30
    0x1000028a4:            ad a4 09 30  fmuls     %f16, %f16, %f22
    0x1000028a8:            d5 00 bf f0  ld        [%g2 - 0x10], %f10
    0x1000028ac:            bf a5 48 a9  fsubs     %f21, %f9, %f31
    0x1000028b0:            f9 00 7f f4  ld        [%g1 - 0xc], %f28
    0x1000028b4:            b1 a0 88 25  fadds     %f2, %f5, %f24
    0x1000028b8:            af a3 c9 2f  fmuls     %f15, %f15, %f23
    0x1000028bc:            c1 00 bf f4  ld        [%g2 - 0xc], %f0
    0x1000028c0:            9f a1 c8 b2  fsubs     %f7, %f18, %f15
    0x1000028c4:            db 00 7f f8  ld        [%g1 - 0x8], %f13
    0x1000028c8:            8d a7 88 36  fadds     %f30, %f22, %f6
    0x1000028cc:            89 a6 89 3a  fmuls     %f26, %f26, %f4
    0x1000028d0:            eb 00 bf f8  ld        [%g2 - 0x8], %f21
    0x1000028d4:            9d a5 08 b3  fsubs     %f20, %f19, %f14
    0x1000028d8:            d3 00 7f fc  ld        [%g1 - 0x4], %f9
    0x1000028dc:            bd a6 08 37  fadds     %f24, %f23, %f30
    0x1000028e0:            cf 00 bf fc  ld        [%g2 - 0x4], %f7
    0x1000028e4:            04 4f ff df  ble,pt    %icc, -0x84   <0x100002860>
    0x1000028e8:            85 a7 c9 3f  fmuls     %f31, %f31, %f2
    0x1000028ec:            b5 a1 88 24  fadds     %f6, %f4, %f26
    0x1000028f0:            ad a0 48 ac  fsubs     %f1, %f12, %f22
    0x1000028f4:            a9 a3 c9 2f  fmuls     %f15, %f15, %f20
    0x1000028f8:            99 a0 08 ad  fsubs     %f0, %f13, %f12
    0x1000028fc:            b1 a2 88 bc  fsubs     %f10, %f28, %f24
    0x100002900:            9f a7 88 22  fadds     %f30, %f2, %f15
    0x100002904:            af a3 89 2e  fmuls     %f14, %f14, %f23
    0x100002908:            97 a5 89 36  fmuls     %f22, %f22, %f11
    0x10000290c:            bf a6 88 34  fadds     %f26, %f20, %f31
    0x100002910:            f9 00 60 00  ld        [%g1], %f28
    0x100002914:            ab a5 48 a9  fsubs     %f21, %f9, %f21
    0x100002918:            91 a3 09 2c  fmuls     %f12, %f12, %f8
    0x10000291c:            81 a1 c8 bc  fsubs     %f7, %f28, %f0
    0x100002920:            8d a6 09 38  fmuls     %f24, %f24, %f6
    0x100002924:            b3 a3 c8 37  fadds     %f15, %f23, %f25
    0x100002928:            9b a7 c8 2b  fadds     %f31, %f11, %f13
    0x10000292c:            89 a5 49 35  fmuls     %f21, %f21, %f4
    0x100002930:            80 a4 c0 0d  cmp       %l3, %o5
    0x100002934:            8b a0 09 20  fmuls     %f0, %f0, %f5
    0x100002938:            9e 00 60 04  add       %g1, 0x4, %o7
    0x10000293c:            bb a6 48 26  fadds     %f25, %f6, %f29
    0x100002940:            93 a3 48 28  fadds     %f13, %f8, %f9
    0x100002944:            a5 a7 48 24  fadds     %f29, %f4, %f18
    0x100002948:            85 a2 48 25  fadds     %f9, %f5, %f2
    0x10000294c:            91 a4 88 22  fadds     %f18, %f2, %f8
    0x100002950:            14 40 00 0d  bg,pn     %icc, +0x34   <0x100002984>
    0x100002954:            01 00 00 00  nop
    0x100002958:            db 03 e0 00  ld        [%o7], %f13
    0x10000295c:            d3 00 a0 00  ld        [%g2], %f9
    0x100002960:            a6 04 e0 01  add       %l3, 0x1, %l3
    0x100002964:            80 a4 c0 0d  cmp       %l3, %o5
    0x100002968:            8f a2 48 ad  fsubs     %f9, %f13, %f7
    0x10000296c:            9e 03 e0 04  add       %o7, 0x4, %o7
    0x100002970:            84 00 a0 04  add       %g2, 0x4, %g2
    0x100002974:            83 a1 c9 27  fmuls     %f7, %f7, %f1
    0x100002978:            91 a2 08 21  fadds     %f8, %f1, %f8
    0x10000297c:            24 4f ff f8  ble,a,pt  %icc, -0x20   <0x10000295c>
    0x100002980:            db 03 e0 00  ld        [%o7], %f13
    0x100002984:            cb 00 c0 08  ld        [%g3 + %o0], %f5
    0x100002988:            df 01 20 18  ld        [%g4 + 0x18], %f15
    0x10000298c:            ad a2 09 25  fmuls     %f8, %f5, %f22
    0x100002990:            83 ad 8a af  fcmpes    %fcc1, %f22, %f15
    0x100002994:            19 50 00 06  fbuge,pn  %fcc1, +0x18   <0x1000029ac>
    0x100002998:            8a 01 60 01  add       %g5, 0x1, %g5
    0x10000299c:            ed 21 20 18  st        %f22, [%g4 + 0x18]
    0x1000029a0:            c6 5e 20 10  ldx       [%i0 + 0x10], %g3
    0x1000029a4:            88 02 00 03  add       %o0, %g3, %g4
    0x1000029a8:            d6 71 20 10  stx       %o3, [%g4 + 0x10]
    0x1000029ac:            80 a1 40 11  cmp       %g5, %l1
    0x1000029b0:            90 02 20 20  add       %o0, 0x20, %o0
    0x1000029b4:            24 6f ff 78  ble,a,pt  %xcc, -0x220  <0x100002794>
    0x1000029b8:            d1 05 60 08  ld        [%l5 + 0x8], %f8
    0x1000029bc:            c0 2d 24 60  clrb      [%l4 + 0x460]
    0x1000029c0:            b6 02 a0 01  add       %o2, 0x1, %i3
    0x1000029c4:            f6 27 60 18  st        %i3, [%i5 + 0x18]
    0x1000029c8:            d8 5e 20 00  ldx       [%i0], %o4
    0x1000029cc:            9f 3e e0 00  sra       %i3, 0x0, %o7
    0x1000029d0:            80 a3 c0 0c  cmp       %o7, %o4
    0x1000029d4:            26 6f ff 56  bl,a,pt   %xcc, -0x2a8  <0x10000272c>
    0x1000029d8:            f7 23 a8 c7  st        %f27, [%sp + 0x8c7]
    0x1000029dc:            03 00 04 00  sethi     %hi(0x100000), %g1
    0x1000029e0:            a6 10 60 02  or        %g1, 0x2, %l3
    0x1000029e4:            b7 2c f0 0c  sllx      %l3, 0xc, %i3
    0x1000029e8:            f7 1e e4 40  ldd       [%i3 + 0x440], %d58
    0x1000029ec:            80 a7 00 19  cmp       %i4, %i1
    0x1000029f0:            c0 2d 24 60  clrb      [%l4 + 0x460]
    0x1000029f4:            06 60 00 bc  bl,pn     %xcc, +0x2f0  <0x100002ce4>
    0x1000029f8:            a7 2c b0 03  sllx      %l2, 0x3, %l3
    0x1000029fc:            f0 5f 60 10  ldx       [%i5 + 0x10], %i0
    0x100002a00:            f7 3e 00 13  std       %d58, [%i0 + %l3]
    0x100002a04:            10 80 01 09  ba        +0x424        <0x100002e28>
    0x100002a08:            fb 1e a0 00  ldd       [%i2], %d60
    0x100002a0c:            c8 07 60 18  ld        [%i5 + 0x18], %g4
    0x100002a10:            d2 5e 20 00  ldx       [%i0], %o1
    0x100002a14:            8b 39 20 00  sra       %g4, 0x0, %g5
    0x100002a18:            80 a1 40 09  cmp       %g5, %o1
    0x100002a1c:            16 60 00 a9  bge,pn    %xcc, +0x2a4  <0x100002cc0>
    0x100002a20:            80 a7 00 19  cmp       %i4, %i1
    0x100002a24:            06 60 00 04  bl,pn     %xcc, +0x10   <0x100002a34>
    0x100002a28:            89 2f 30 05  sllx      %i4, 0x5, %g4
    0x100002a2c:            10 80 00 00  ba        +0x0          <0x100002a2c>
    0x100002a30:            01 00 00 00  nop
    0x100002a34:            87 29 70 05  sllx      %g5, 0x5, %g3
    0x100002a38:            90 10 00 1c  mov       %i4, %o0
    0x100002a3c:            c2 5e 20 10  ldx       [%i0 + 0x10], %g1
    0x100002a40:            92 10 00 04  mov       %g4, %o1
    0x100002a44:            ea 06 20 08  ld        [%i0 + 0x8], %l5
    0x100002a48:            2d 00 04 00  sethi     %hi(0x100000), %l6
    0x100002a4c:            9e 15 a0 02  or        %l6, 0x2, %o7
    0x100002a50:            95 2b f0 0c  sllx      %o7, 0xc, %o2
    0x100002a54:            84 00 40 09  add       %g1, %o1, %g2
    0x100002a58:            e3 02 a4 38  ld        [%o2 + 0x438], %f17
    0x100002a5c:            96 00 40 03  add       %g1, %g3, %o3
    0x100002a60:            da 58 a0 08  ldx       [%g2 + 0x8], %o5
    0x100002a64:            80 a5 60 00  cmp       %l5, 0x0
    0x100002a68:            ee 5a e0 08  ldx       [%o3 + 0x8], %l7
    0x100002a6c:            04 40 00 83  ble,pn    %icc, +0x20c  <0x100002c78>
    0x100002a70:            98 05 7f ff  add       %l5, -0x1, %o4
    0x100002a74:            ac 03 20 01  add       %o4, 0x1, %l6
    0x100002a78:            80 a5 a0 13  cmp       %l6, 0x13
    0x100002a7c:            aa 10 20 00  clr       %l5
    0x100002a80:            06 40 00 73  bl,pn     %icc, +0x1cc  <0x100002c4c>
    0x100002a84:            01 00 00 00  nop
    0x100002a88:            f3 05 e0 00  ld        [%l7], %f25
    0x100002a8c:            d3 05 e0 10  ld        [%l7 + 0x10], %f9
    0x100002a90:            e5 05 e0 04  ld        [%l7 + 0x4], %f18
    0x100002a94:            c9 03 60 04  ld        [%o5 + 0x4], %f4
    0x100002a98:            ef 03 60 00  ld        [%o5], %f23
    0x100002a9c:            c5 05 e0 08  ld        [%l7 + 0x8], %f2
    0x100002aa0:            d7 05 e0 18  ld        [%l7 + 0x18], %f11
    0x100002aa4:            d9 05 e0 14  ld        [%l7 + 0x14], %f12
    0x100002aa8:            f7 05 e0 0c  ld        [%l7 + 0xc], %f27
    0x100002aac:            e7 03 60 08  ld        [%o5 + 0x8], %f19
    0x100002ab0:            cd 03 60 0c  ld        [%o5 + 0xc], %f6
    0x100002ab4:            fb 03 60 10  ld        [%o5 + 0x10], %f29
    0x100002ab8:            db 03 60 14  ld        [%o5 + 0x14], %f13
    0x100002abc:            e9 05 e0 1c  ld        [%l7 + 0x1c], %f20
    0x100002ac0:            bd a4 88 a4  fsubs     %f18, %f4, %f30
    0x100002ac4:            ed 03 60 18  ld        [%o5 + 0x18], %f22
    0x100002ac8:            8f a6 48 b7  fsubs     %f25, %f23, %f7
    0x100002acc:            eb 03 60 1c  ld        [%o5 + 0x1c], %f21
    0x100002ad0:            83 a0 88 b3  fsubs     %f2, %f19, %f1
    0x100002ad4:            9d a6 c8 a6  fsubs     %f27, %f6, %f14
    0x100002ad8:            f1 03 60 20  ld        [%o5 + 0x20], %f24
    0x100002adc:            95 a7 89 3e  fmuls     %f30, %f30, %f10
    0x100002ae0:            ff 03 60 24  ld        [%o5 + 0x24], %f31
    0x100002ae4:            a1 a1 c9 27  fmuls     %f7, %f7, %f16
    0x100002ae8:            9f 2b f0 0c  sllx      %o7, 0xc, %o7
    0x100002aec:            b5 a2 48 bd  fsubs     %f9, %f29, %f26
    0x100002af0:            ae 05 e0 2c  add       %l7, 0x2c, %l7
    0x100002af4:            f7 05 ff fc  ld        [%l7 - 0x4], %f27
    0x100002af8:            8b a4 48 2a  fadds     %f17, %f10, %f5
    0x100002afc:            e3 03 e4 38  ld        [%o7 + 0x438], %f17
    0x100002b00:            91 a3 08 ad  fsubs     %f12, %f13, %f8
    0x100002b04:            af a0 49 21  fmuls     %f1, %f1, %f23
    0x100002b08:            e7 05 ff f4  ld        [%l7 - 0xc], %f19
    0x100002b0c:            ac 03 60 28  add       %o5, 0x28, %l6
    0x100002b10:            fb 05 ff f8  ld        [%l7 - 0x8], %f29
    0x100002b14:            aa 10 20 0b  mov       0xb, %l5
    0x100002b18:            a5 a3 89 2e  fmuls     %f14, %f14, %f18
    0x100002b1c:            b3 a4 48 30  fadds     %f17, %f16, %f25
    0x100002b20:            9e 23 20 07  sub       %o4, 0x7, %o7
    0x100002b24:            c1 6d e0 90  prefetch  [%l7 + 0x90], #n_reads
    0x100002b28:            c1 6d a0 90  prefetch  [%l6 + 0x90], #n_reads
    0x100002b2c:            aa 05 60 08  add       %l5, 0x8, %l5
    0x100002b30:            ae 05 e0 20  add       %l7, 0x20, %l7
    0x100002b34:            d9 05 a0 00  ld        [%l6], %f12
    0x100002b38:            97 a2 c8 b6  fsubs     %f11, %f22, %f11
    0x100002b3c:            ad a6 48 37  fadds     %f25, %f23, %f22
    0x100002b40:            80 a5 40 0f  cmp       %l5, %o7
    0x100002b44:            ef 05 ff e0  ld        [%l7 - 0x20], %f23
    0x100002b48:            b5 a6 89 3a  fmuls     %f26, %f26, %f26
    0x100002b4c:            b9 a5 08 b5  fsubs     %f20, %f21, %f28
    0x100002b50:            df 05 a0 04  ld        [%l6 + 0x4], %f15
    0x100002b54:            ac 05 a0 20  add       %l6, 0x20, %l6
    0x100002b58:            a9 a1 48 32  fadds     %f5, %f18, %f20
    0x100002b5c:            ab a2 09 28  fmuls     %f8, %f8, %f21
    0x100002b60:            db 05 ff e4  ld        [%l7 - 0x1c], %f13
    0x100002b64:            8b a4 c8 b8  fsubs     %f19, %f24, %f5
    0x100002b68:            cd 05 bf e8  ld        [%l6 - 0x18], %f6
    0x100002b6c:            81 a5 88 3a  fadds     %f22, %f26, %f0
    0x100002b70:            b1 a2 c9 2b  fmuls     %f11, %f11, %f24
    0x100002b74:            e5 05 ff e8  ld        [%l7 - 0x18], %f18
    0x100002b78:            91 a7 48 bf  fsubs     %f29, %f31, %f8
    0x100002b7c:            d3 05 bf ec  ld        [%l6 - 0x14], %f9
    0x100002b80:            bf a5 08 35  fadds     %f20, %f21, %f31
    0x100002b84:            b3 a7 09 3c  fmuls     %f28, %f28, %f25
    0x100002b88:            d7 05 ff ec  ld        [%l7 - 0x14], %f11
    0x100002b8c:            bb a6 c8 ac  fsubs     %f27, %f12, %f29
    0x100002b90:            ed 05 bf f0  ld        [%l6 - 0x10], %f22
    0x100002b94:            89 a0 08 38  fadds     %f0, %f24, %f4
    0x100002b98:            b7 a1 49 25  fmuls     %f5, %f5, %f27
    0x100002b9c:            e9 05 ff f0  ld        [%l7 - 0x10], %f20
    0x100002ba0:            8f a5 c8 af  fsubs     %f23, %f15, %f7
    0x100002ba4:            eb 05 bf f4  ld        [%l6 - 0xc], %f21
    0x100002ba8:            85 a7 c8 39  fadds     %f31, %f25, %f2
    0x100002bac:            bd a2 09 28  fmuls     %f8, %f8, %f30
    0x100002bb0:            e7 05 ff f4  ld        [%l7 - 0xc], %f19
    0x100002bb4:            b5 a3 48 a6  fsubs     %f13, %f6, %f26
    0x100002bb8:            f1 05 bf f8  ld        [%l6 - 0x8], %f24
    0x100002bbc:            b3 a1 08 3b  fadds     %f4, %f27, %f25
    0x100002bc0:            af a7 49 3d  fmuls     %f29, %f29, %f23
    0x100002bc4:            fb 05 ff f8  ld        [%l7 - 0x8], %f29
    0x100002bc8:            91 a4 88 a9  fsubs     %f18, %f9, %f8
    0x100002bcc:            ff 05 bf fc  ld        [%l6 - 0x4], %f31
    0x100002bd0:            8b a0 88 3e  fadds     %f2, %f30, %f5
    0x100002bd4:            f7 05 ff fc  ld        [%l7 - 0x4], %f27
    0x100002bd8:            04 4f ff d3  ble,pt    %icc, -0xb4   <0x100002b24>
    0x100002bdc:            a5 a1 c9 27  fmuls     %f7, %f7, %f18
    0x100002be0:            93 a2 c8 b6  fsubs     %f11, %f22, %f9
    0x100002be4:            99 a6 89 3a  fmuls     %f26, %f26, %f12
    0x100002be8:            9b a6 48 37  fadds     %f25, %f23, %f13
    0x100002bec:            8f a5 08 b5  fsubs     %f20, %f21, %f7
    0x100002bf0:            ad a4 c8 b8  fsubs     %f19, %f24, %f22
    0x100002bf4:            95 a2 09 28  fmuls     %f8, %f8, %f10
    0x100002bf8:            83 a1 48 32  fadds     %f5, %f18, %f1
    0x100002bfc:            a1 a2 49 29  fmuls     %f9, %f9, %f16
    0x100002c00:            9d a3 48 2c  fadds     %f13, %f12, %f14
    0x100002c04:            fd 05 a0 00  ld        [%l6], %f30
    0x100002c08:            a3 a1 c9 27  fmuls     %f7, %f7, %f17
    0x100002c0c:            bf a7 48 bf  fsubs     %f29, %f31, %f31
    0x100002c10:            91 a5 89 36  fmuls     %f22, %f22, %f8
    0x100002c14:            a9 a6 c8 be  fsubs     %f27, %f30, %f20
    0x100002c18:            97 a0 48 2a  fadds     %f1, %f10, %f11
    0x100002c1c:            b5 a3 88 30  fadds     %f14, %f16, %f26
    0x100002c20:            80 a5 40 0c  cmp       %l5, %o4
    0x100002c24:            ab a7 c9 3f  fmuls     %f31, %f31, %f21
    0x100002c28:            9a 05 a0 04  add       %l6, 0x4, %o5
    0x100002c2c:            8b a5 09 34  fmuls     %f20, %f20, %f5
    0x100002c30:            81 a2 c8 31  fadds     %f11, %f17, %f0
    0x100002c34:            b1 a6 88 28  fadds     %f26, %f8, %f24
    0x100002c38:            b9 a0 08 35  fadds     %f0, %f21, %f28
    0x100002c3c:            9f a6 08 25  fadds     %f24, %f5, %f15
    0x100002c40:            a3 a7 08 2f  fadds     %f28, %f15, %f17
    0x100002c44:            14 40 00 0d  bg,pn     %icc, +0x34   <0x100002c78>
    0x100002c48:            01 00 00 00  nop
    0x100002c4c:            f7 03 60 00  ld        [%o5], %f27
    0x100002c50:            d5 05 e0 00  ld        [%l7], %f10
    0x100002c54:            aa 05 60 01  add       %l5, 0x1, %l5
    0x100002c58:            80 a5 40 0c  cmp       %l5, %o4
    0x100002c5c:            9d a2 88 bb  fsubs     %f10, %f27, %f14
    0x100002c60:            9a 03 60 04  add       %o5, 0x4, %o5
    0x100002c64:            ae 05 e0 04  add       %l7, 0x4, %l7
    0x100002c68:            97 a3 89 2e  fmuls     %f14, %f14, %f11
    0x100002c6c:            a3 a4 48 2b  fadds     %f17, %f11, %f17
    0x100002c70:            24 4f ff f8  ble,a,pt  %icc, -0x20   <0x100002c50>
    0x100002c74:            f7 03 60 00  ld        [%o5], %f27
    0x100002c78:            e5 00 40 09  ld        [%g1 + %o1], %f18
    0x100002c7c:            fd 00 a0 18  ld        [%g2 + 0x18], %f30
    0x100002c80:            bf a4 49 32  fmuls     %f17, %f18, %f31
    0x100002c84:            87 af ca be  fcmpes    %fcc3, %f31, %f30
    0x100002c88:            19 70 00 06  fbuge,pn  %fcc3, +0x18   <0x100002ca0>
    0x100002c8c:            90 02 20 01  add       %o0, 0x1, %o0
    0x100002c90:            ff 20 a0 18  st        %f31, [%g2 + 0x18]
    0x100002c94:            ec 5e 20 10  ldx       [%i0 + 0x10], %l6
    0x100002c98:            94 02 40 16  add       %o1, %l6, %o2
    0x100002c9c:            ca 72 a0 10  stx       %g5, [%o2 + 0x10]
    0x100002ca0:            80 a2 00 11  cmp       %o0, %l1
    0x100002ca4:            92 02 60 20  add       %o1, 0x20, %o1
    0x100002ca8:            24 6f ff 67  ble,a,pt  %xcc, -0x264  <0x100002a44>
    0x100002cac:            c2 5e 20 10  ldx       [%i0 + 0x10], %g1
    0x100002cb0:            ea 5e 20 00  ldx       [%i0], %l5
    0x100002cb4:            80 a1 40 15  cmp       %g5, %l5
    0x100002cb8:            06 6f ff 61  bl,pt     %xcc, -0x27c  <0x100002a3c>
    0x100002cbc:            90 10 00 1c  mov       %i4, %o0
    0x100002cc0:            0b 00 04 00  sethi     %hi(0x100000), %g5
    0x100002cc4:            94 11 60 02  or        %g5, 0x2, %o2
    0x100002cc8:            97 2a b0 0c  sllx      %o2, 0xc, %o3
    0x100002ccc:            f7 1a e4 40  ldd       [%o3 + 0x440], %d58
    0x100002cd0:            80 a7 00 19  cmp       %i4, %i1
    0x100002cd4:            c0 2d 24 60  clrb      [%l4 + 0x460]
    0x100002cd8:            a7 2c b0 03  sllx      %l2, 0x3, %l3
    0x100002cdc:            36 68 00 b0  bge,a,pt  %xcc, +0x2c0  <0x100002f9c>
    0x100002ce0:            f4 5f 60 10  ldx       [%i5 + 0x10], %i2
    0x100002ce4:            94 24 40 1c  sub       %l1, %i4, %o2
    0x100002ce8:            b6 02 a0 01  add       %o2, 0x1, %i3
    0x100002cec:            80 a6 e0 0e  cmp       %i3, 0xe
    0x100002cf0:            af 2f 30 05  sllx      %i4, 0x5, %l7
    0x100002cf4:            ea 5e 20 10  ldx       [%i0 + 0x10], %l5
    0x100002cf8:            06 60 00 3e  bl,pn     %xcc, +0xf8   <0x100002df0>
    0x100002cfc:            01 00 00 00  nop
    0x100002d00:            b0 05 40 17  add       %l5, %l7, %i0
    0x100002d04:            e7 06 20 18  ld        [%i0 + 0x18], %f19
    0x100002d08:            c3 06 20 38  ld        [%i0 + 0x38], %f1
    0x100002d0c:            d5 06 20 58  ld        [%i0 + 0x58], %f10
    0x100002d10:            9b a0 19 33  fstod     %f19, %d44
    0x100002d14:            dd 06 20 78  ld        [%i0 + 0x78], %f14
    0x100002d18:            9f a0 19 21  fstod     %f1, %d46
    0x100002d1c:            19 00 04 00  sethi     %hi(0x100000), %o4
    0x100002d20:            c9 06 20 98  ld        [%i0 + 0x98], %f4
    0x100002d24:            a8 13 20 02  or        %o4, 0x2, %l4
    0x100002d28:            af 2d 30 0c  sllx      %l4, 0xc, %l7
    0x100002d2c:            d7 1d e4 40  ldd       [%l7 + 0x440], %d42
    0x100002d30:            c5 06 20 b8  ld        [%i0 + 0xb8], %f2
    0x100002d34:            d1 06 20 d8  ld        [%i0 + 0xd8], %f8
    0x100002d38:            87 a0 19 2a  fstod     %f10, %d34
    0x100002d3c:            b2 06 21 00  add       %i0, 0x100, %i1
    0x100002d40:            83 a0 19 2e  fstod     %f14, %d32
    0x100002d44:            c1 06 20 f8  ld        [%i0 + 0xf8], %f0
    0x100002d48:            8b a6 c8 4f  faddd     %d58, %d46, %d36
    0x100002d4c:            b8 07 20 08  add       %i4, 0x8, %i4
    0x100002d50:            8f a2 c8 4d  faddd     %d42, %d44, %d38
    0x100002d54:            b0 24 60 05  sub       %l1, 0x5, %i0
    0x100002d58:            c1 6e 61 78  prefetch  [%i1 + 0x178], #n_reads
    0x100002d5c:            b8 07 20 06  add       %i4, 0x6, %i4
    0x100002d60:            e1 06 60 18  ld        [%i1 + 0x18], %f16
    0x100002d64:            b2 06 60 c0  add       %i1, 0xc0, %i1
    0x100002d68:            bb a0 19 24  fstod     %f4, %d60
    0x100002d6c:            93 a1 c8 43  faddd     %d38, %d34, %d40
    0x100002d70:            80 a7 00 18  cmp       %i4, %i0
    0x100002d74:            8f a0 19 22  fstod     %f2, %d38
    0x100002d78:            e3 06 7f 78  ld        [%i1 - 0x88], %f17
    0x100002d7c:            8b a1 48 41  faddd     %d36, %d32, %d36
    0x100002d80:            83 a0 19 28  fstod     %f8, %d32
    0x100002d84:            c9 06 7f 98  ld        [%i1 - 0x68], %f4
    0x100002d88:            bf a2 48 5d  faddd     %d40, %d60, %d62
    0x100002d8c:            b3 a0 19 20  fstod     %f0, %d56
    0x100002d90:            c5 06 7f b8  ld        [%i1 - 0x48], %f2
    0x100002d94:            b7 a1 48 47  faddd     %d36, %d38, %d58
    0x100002d98:            87 a0 19 30  fstod     %f16, %d34
    0x100002d9c:            d1 06 7f d8  ld        [%i1 - 0x28], %f8
    0x100002da0:            8f a7 c8 41  faddd     %d62, %d32, %d38
    0x100002da4:            83 a0 19 31  fstod     %f17, %d32
    0x100002da8:            c1 06 7f f8  ld        [%i1 - 0x8], %f0
    0x100002dac:            04 6f ff eb  ble,pt    %xcc, -0x54   <0x100002d58>
    0x100002db0:            8b a6 c8 59  faddd     %d58, %d56, %d36
    0x100002db4:            bf a1 48 41  faddd     %d36, %d32, %d62
    0x100002db8:            83 a0 19 22  fstod     %f2, %d32
    0x100002dbc:            87 a1 c8 43  faddd     %d38, %d34, %d34
    0x100002dc0:            bb a0 19 24  fstod     %f4, %d60
    0x100002dc4:            b3 a0 19 20  fstod     %f0, %d56
    0x100002dc8:            ab a0 19 28  fstod     %f8, %d52
    0x100002dcc:            80 a7 00 11  cmp       %i4, %l1
    0x100002dd0:            b7 a7 c8 41  faddd     %d62, %d32, %d58
    0x100002dd4:            ae 26 40 15  sub       %i1, %l5, %l7
    0x100002dd8:            af a0 c8 5d  faddd     %d34, %d60, %d54
    0x100002ddc:            a3 a6 c8 59  faddd     %d58, %d56, %d48
    0x100002de0:            a7 a5 c8 55  faddd     %d54, %d52, %d50
    0x100002de4:            b7 a4 c8 51  faddd     %d50, %d48, %d58
    0x100002de8:            14 60 00 0b  bg,pn     %xcc, +0x2c   <0x100002e14>
    0x100002dec:            01 00 00 00  nop
    0x100002df0:            90 05 c0 15  add       %l7, %l5, %o0
    0x100002df4:            c1 02 20 18  ld        [%o0 + 0x18], %f0
    0x100002df8:            b8 07 20 01  add       %i4, 0x1, %i4
    0x100002dfc:            80 a7 00 11  cmp       %i4, %l1
    0x100002e00:            83 a0 19 20  fstod     %f0, %d32
    0x100002e04:            ae 05 e0 20  add       %l7, 0x20, %l7
    0x100002e08:            b7 a6 c8 41  faddd     %d58, %d32, %d58
    0x100002e0c:            04 6f ff fa  ble,pt    %xcc, -0x18   <0x100002df4>
    0x100002e10:            90 05 c0 15  add       %l7, %l5, %o0
    0x100002e14:            e2 5f 60 10  ldx       [%i5 + 0x10], %l1
    0x100002e18:            80 a4 a0 00  cmp       %l2, 0x0
    0x100002e1c:            12 40 00 61  bne,pn    %icc, +0x184  <0x100002fa0>
    0x100002e20:            f7 3c 40 13  std       %d58, [%l1 + %l3]
    0x100002e24:            fb 1e a0 00  ldd       [%i2], %d60
    0x100002e28:            b9 a0 10 9d  fxtos     %d60, %f28
    0x100002e2c:            e0 04 25 18  ld        [%l0 + 0x518], %l0
    0x100002e30:            80 a4 20 00  cmp       %l0, 0x0
    0x100002e34:            87 a0 c9 3c  fmuls     %f3, %f28, %f3
    0x100002e38:            14 40 00 04  bg,pn     %icc, +0x10   <0x100002e48>
    0x100002e3c:            8b a0 19 23  fstod     %f3, %d36
    0x100002e40:            10 80 00 53  ba        +0x14c        <0x100002f8c>
    0x100002e44:            cb 3f 60 08  std       %d36, [%i5 + 0x8]
    0x100002e48:            80 a4 20 18  cmp       %l0, 0x18
    0x100002e4c:            b4 10 20 00  clr       %i2
    0x100002e50:            ae 04 3f ff  add       %l0, -0x1, %l7
    0x100002e54:            aa 10 00 10  mov       %l0, %l5
    0x100002e58:            ec 5f 60 10  ldx       [%i5 + 0x10], %l6
    0x100002e5c:            06 40 00 44  bl,pn     %icc, +0x110  <0x100002f6c>
    0x100002e60:            01 00 00 00  nop
    0x100002e64:            c3 1d a0 08  ldd       [%l6 + 0x8], %d32
    0x100002e68:            ff 1d a0 00  ldd       [%l6], %d62
    0x100002e6c:            db 1d a0 20  ldd       [%l6 + 0x20], %d44
    0x100002e70:            cf 1d a0 18  ldd       [%l6 + 0x18], %d38
    0x100002e74:            ef 1d a0 48  ldd       [%l6 + 0x48], %d54
    0x100002e78:            f3 1d a0 10  ldd       [%l6 + 0x10], %d56
    0x100002e7c:            eb 1d a0 40  ldd       [%l6 + 0x40], %d52
    0x100002e80:            e7 1d a0 38  ldd       [%l6 + 0x38], %d50
    0x100002e84:            39 00 04 00  sethi     %hi(0x100000), %i4
    0x100002e88:            e3 1d a0 30  ldd       [%l6 + 0x30], %d48
    0x100002e8c:            a0 17 20 02  or        %i4, 0x2, %l0
    0x100002e90:            a3 2c 30 0c  sllx      %l0, 0xc, %l1
    0x100002e94:            c7 1c 64 40  ldd       [%l1 + 0x440], %d34
    0x100002e98:            df 1d a0 28  ldd       [%l6 + 0x28], %d46
    0x100002e9c:            ac 05 a0 60  add       %l6, 0x60, %l6
    0x100002ea0:            bb a0 c8 41  faddd     %d34, %d32, %d60
    0x100002ea4:            93 a0 c8 59  faddd     %d34, %d56, %d40
    0x100002ea8:            b7 a0 c8 5f  faddd     %d34, %d62, %d58
    0x100002eac:            f3 1d bf f0  ldd       [%l6 - 0x10], %d56
    0x100002eb0:            b8 05 7f f4  add       %l5, -0xc, %i4
    0x100002eb4:            97 a1 48 47  faddd     %d36, %d38, %d42
    0x100002eb8:            c3 1d bf f8  ldd       [%l6 - 0x8], %d32
    0x100002ebc:            b4 10 20 0c  mov       0xc, %i2
    0x100002ec0:            c1 6d a1 30  prefetch  [%l6 + 0x130], #n_reads
    0x100002ec4:            b4 06 a0 0c  add       %i2, 0xc, %i2
    0x100002ec8:            c7 1d a0 00  ldd       [%l6], %d34
    0x100002ecc:            ac 05 a0 60  add       %l6, 0x60, %l6
    0x100002ed0:            b7 a6 c8 4d  faddd     %d58, %d44, %d58
    0x100002ed4:            9f a7 48 4f  faddd     %d60, %d46, %d46
    0x100002ed8:            80 a6 80 1c  cmp       %i2, %i4
    0x100002edc:            cb 1d bf a8  ldd       [%l6 - 0x58], %d36
    0x100002ee0:            a3 a2 48 51  faddd     %d40, %d48, %d48
    0x100002ee4:            d3 1d bf b0  ldd       [%l6 - 0x50], %d40
    0x100002ee8:            a7 a2 c8 53  faddd     %d42, %d50, %d50
    0x100002eec:            d7 1d bf b8  ldd       [%l6 - 0x48], %d42
    0x100002ef0:            ab a6 c8 55  faddd     %d58, %d52, %d52
    0x100002ef4:            db 1d bf c0  ldd       [%l6 - 0x40], %d44
    0x100002ef8:            af a3 c8 57  faddd     %d46, %d54, %d54
    0x100002efc:            df 1d bf c8  ldd       [%l6 - 0x38], %d46
    0x100002f00:            b3 a4 48 59  faddd     %d48, %d56, %d56
    0x100002f04:            e3 1d bf d0  ldd       [%l6 - 0x30], %d48
    0x100002f08:            bf a4 c8 41  faddd     %d50, %d32, %d62
    0x100002f0c:            e7 1d bf d8  ldd       [%l6 - 0x28], %d50
    0x100002f10:            b7 a5 48 43  faddd     %d52, %d34, %d58
    0x100002f14:            eb 1d bf e0  ldd       [%l6 - 0x20], %d52
    0x100002f18:            bb a5 c8 45  faddd     %d54, %d36, %d60
    0x100002f1c:            ef 1d bf e8  ldd       [%l6 - 0x18], %d54
    0x100002f20:            93 a6 48 49  faddd     %d56, %d40, %d40
    0x100002f24:            f3 1d bf f0  ldd       [%l6 - 0x10], %d56
    0x100002f28:            97 a7 c8 4b  faddd     %d62, %d42, %d42
    0x100002f2c:            04 4f ff e5  ble,pt    %icc, -0x6c   <0x100002ec0>
    0x100002f30:            c3 1d bf f8  ldd       [%l6 - 0x8], %d32
    0x100002f34:            87 a7 48 4f  faddd     %d60, %d46, %d34
    0x100002f38:            9f a6 c8 4d  faddd     %d58, %d44, %d46
    0x100002f3c:            a3 a2 48 51  faddd     %d40, %d48, %d48
    0x100002f40:            a7 a2 c8 53  faddd     %d42, %d50, %d50
    0x100002f44:            80 a6 80 17  cmp       %i2, %l7
    0x100002f48:            af a0 c8 57  faddd     %d34, %d54, %d54
    0x100002f4c:            ab a3 c8 55  faddd     %d46, %d52, %d52
    0x100002f50:            97 a4 48 59  faddd     %d48, %d56, %d42
    0x100002f54:            bb a4 c8 41  faddd     %d50, %d32, %d60
    0x100002f58:            9b a5 48 57  faddd     %d52, %d54, %d44
    0x100002f5c:            93 a3 48 4b  faddd     %d44, %d42, %d40
    0x100002f60:            8b a2 48 5d  faddd     %d40, %d60, %d36
    0x100002f64:            14 40 00 09  bg,pn     %icc, +0x24   <0x100002f88>
    0x100002f68:            01 00 00 00  nop
    0x100002f6c:            b4 06 a0 01  add       %i2, 0x1, %i2
    0x100002f70:            80 a6 80 17  cmp       %i2, %l7
    0x100002f74:            db 1d a0 00  ldd       [%l6], %d44
    0x100002f78:            ac 05 a0 08  add       %l6, 0x8, %l6
    0x100002f7c:            8b a1 48 4d  faddd     %d36, %d44, %d36
    0x100002f80:            04 4f ff fc  ble,pt    %icc, -0x10   <0x100002f70>
    0x100002f84:            b4 06 a0 01  add       %i2, 0x1, %i2
    0x100002f88:            cb 3f 60 08  std       %d36, [%i5 + 0x8]
    0x100002f8c:            40 04 3b 65  call      +0x10ed94     <0x100111d20>
    0x100002f90:            d0 5f 60 10  ldx       [%i5 + 0x10], %o0
    0x100002f94:            10 80 00 04  ba        +0x10         <0x100002fa4>
    0x100002f98:            cf 1f 60 08  ldd       [%i5 + 0x8], %d38
    0x100002f9c:            f7 3e 80 13  std       %d58, [%i2 + %l3]
    0x100002fa0:            cf 1f 60 08  ldd       [%i5 + 0x8], %d38
    0x100002fa4:            81 a0 18 c7  fdtos     %d38, %f0
    0x100002fa8:            81 c7 e0 08  ret
    0x100002fac:            81 e8 20 00  restore   %g0, 0x0, %g0
    0x100002fb0:            00 00 00 00  illtrap   0x0
    0x100002fb4:            00 00 00 00  illtrap   0x0
    0x100002fb8:            00 00 00 00  illtrap   0x0
__1cFpgain6FlpnGPoints_dplipnRpthread_barrier_t__d_()
    0x100002fbc:            9d e3 bf 20  save      %sp, -0xe0, %sp
    0x100002fc0:            35 00 04 00  sethi     %hi(0x100000), %i2
    0x100002fc4:            ba 16 a1 12  or        %i2, 0x112, %i5
    0x100002fc8:            f6 73 a8 af  stx       %i3, [%sp + 0x8af]
    0x100002fcc:            a5 2f 70 0c  sllx      %i5, 0xc, %l2
    0x100002fd0:            f0 73 a8 b7  stx       %i0, [%sp + 0x8b7]
    0x100002fd4:            d6 5e 60 00  ldx       [%i1], %o3
    0x100002fd8:            a0 04 a5 38  add       %l2, 0x538, %l0
    0x100002fdc:            e6 04 3f e0  ld        [%l0 - 0x20], %l3
    0x100002fe0:            b7 3f 20 00  sra       %i4, 0x0, %i3
    0x100002fe4:            19 00 04 00  sethi     %hi(0x100000), %o4
    0x100002fe8:            a3 3c e0 00  sra       %l3, 0x0, %l1
    0x100002fec:            93 6a c0 11  sdivx     %o3, %l1, %o1
    0x100002ff0:            a2 4a 40 1b  mulx      %o1, %i3, %l1
    0x100002ff4:            ac 04 ff ff  add       %l3, -0x1, %l6
    0x100002ff8:            b4 04 40 09  add       %l1, %o1, %i2
    0x100002ffc:            80 a7 00 16  cmp       %i4, %l6
    0x100003000:            b5 64 40 0b  move      %icc, %o3, %i2
    0x100003004:            aa 13 20 02  or        %o4, 0x2, %l5
    0x100003008:            bb 2d 70 0c  sllx      %l5, 0xc, %i5
    0x10000300c:            f6 5b a8 af  ldx       [%sp + 0x8af], %i3
    0x100003010:            df 1f 6f b0  ldd       [%i5 + 0xfb0], %d46
    0x100003014:            c4 06 e0 04  ld        [%i3 + 0x4], %g2
    0x100003018:            a8 00 a0 02  add       %g2, 0x2, %l4
    0x10000301c:            87 3d 20 1f  sra       %l4, 0x1f, %g3
    0x100003020:            b0 08 e0 03  and       %g3, 0x3, %i0
    0x100003024:            9e 05 00 18  add       %l4, %i0, %o7
    0x100003028:            83 3b e0 02  sra       %o7, 0x2, %g1
    0x10000302c:            9a 2b e0 03  andn      %o7, 0x3, %o5
    0x100003030:            94 00 60 01  add       %g1, 0x1, %o2
    0x100003034:            88 25 00 0d  sub       %l4, %o5, %g4
    0x100003038:            ad 2a a0 02  sll       %o2, 0x2, %l6
    0x10000303c:            80 a1 20 00  cmp       %g4, 0x0
    0x100003040:            ad 64 40 14  move      %icc, %l4, %l6
    0x100003044:            80 a7 20 00  cmp       %i4, 0x0
    0x100003048:            b6 05 bf fe  add       %l6, -0x2, %i3
    0x10000304c:            12 40 00 11  bne,pn    %icc, +0x44   <0x100003090>
    0x100003050:            f6 23 a8 bf  st        %i3, [%sp + 0x8bf]
    0x100003054:            c9 3b a8 cf  std       %d4, [%sp + 0x8cf]
    0x100003058:            df 3b a8 c7  std       %d46, [%sp + 0x8c7]
    0x10000305c:            a6 04 e0 01  add       %l3, 0x1, %l3
    0x100003060:            b6 5d 80 13  smul      %l6, %l3, %i3
    0x100003064:            91 3e e0 00  sra       %i3, 0x0, %o0
    0x100003068:            40 04 3b 26  call      +0x10ec98     <0x100111d00>
    0x10000306c:            91 2a 30 03  sllx      %o0, 0x3, %o0
    0x100003070:            fd 1f 6f b0  ldd       [%i5 + 0xfb0], %d30
    0x100003074:            c0 74 20 08  clrx      [%l0 + 0x8]
    0x100003078:            ff 24 20 10  st        %f31, [%l0 + 0x10]
    0x10000307c:            df 1b a8 c7  ldd       [%sp + 0x8c7], %d46
    0x100003080:            d0 74 a5 38  stx       %o0, [%l2 + 0x538]
    0x100003084:            e7 1b a8 cf  ldd       [%sp + 0x8cf], %d50
    0x100003088:            10 80 00 05  ba        +0x14         <0x10000309c>
    0x10000308c:            b7 3c 60 00  sra       %l1, 0x0, %i3
    0x100003090:            a7 a0 00 44  fmovd     %d4, %d50
    0x100003094:            d0 5c a5 38  ldx       [%l2 + 0x538], %o0
    0x100003098:            b7 3c 60 00  sra       %l1, 0x0, %i3
    0x10000309c:            80 a6 c0 1a  cmp       %i3, %i2
    0x1000030a0:            a6 06 bf ff  add       %i2, -0x1, %l3
    0x1000030a4:            16 60 00 51  bge,pn    %xcc, +0x144  <0x1000031e8>
    0x1000030a8:            9e 10 20 00  clr       %o7
    0x1000030ac:            ae 24 c0 1b  sub       %l3, %i3, %l7
    0x1000030b0:            80 a5 e0 05  cmp       %l7, 0x5
    0x1000030b4:            06 60 00 2b  bl,pn     %xcc, +0xac   <0x100003160>
    0x1000030b8:            ae 05 e0 01  add       %l7, 0x1, %l7
    0x1000030bc:            87 2e f0 02  sllx      %i3, 0x2, %g3
    0x1000030c0:            8b 2d f0 02  sllx      %l7, 0x2, %g5
    0x1000030c4:            98 04 3f d8  add       %l0, -0x28, %o4
    0x1000030c8:            84 10 20 00  clr       %g2
    0x1000030cc:            88 04 3f d0  add       %l0, -0x30, %g4
    0x1000030d0:            f0 5c 3f d0  ldx       [%l0 - 0x30], %i0
    0x1000030d4:            ea 5c 3f d8  ldx       [%l0 - 0x28], %l5
    0x1000030d8:            96 06 00 1b  add       %i0, %i3, %o3
    0x1000030dc:            92 05 40 03  add       %l5, %g3, %o1
    0x1000030e0:            94 22 40 0b  sub       %o1, %o3, %o2
    0x1000030e4:            b0 10 20 00  clr       %i0
    0x1000030e8:            80 a2 80 17  cmp       %o2, %l7
    0x1000030ec:            a8 22 c0 09  sub       %o3, %o1, %l4
    0x1000030f0:            b1 66 f0 01  movge     %xcc, 0x1, %i0
    0x1000030f4:            80 a5 00 05  cmp       %l4, %g5
    0x1000030f8:            9a 22 40 0c  sub       %o1, %o4, %o5
    0x1000030fc:            85 66 f0 01  movge     %xcc, 0x1, %g2
    0x100003100:            ae 10 20 00  clr       %l7
    0x100003104:            80 a3 60 08  cmp       %o5, 0x8
    0x100003108:            82 23 00 09  sub       %o4, %o1, %g1
    0x10000310c:            af 66 f0 01  movge     %xcc, 0x1, %l7
    0x100003110:            aa 10 20 00  clr       %l5
    0x100003114:            80 a0 40 05  cmp       %g1, %g5
    0x100003118:            a8 16 00 02  or        %i0, %g2, %l4
    0x10000311c:            ab 66 f0 01  movge     %xcc, 0x1, %l5
    0x100003120:            94 22 40 04  sub       %o1, %g4, %o2
    0x100003124:            84 10 20 00  clr       %g2
    0x100003128:            80 a2 a0 08  cmp       %o2, 0x8
    0x10000312c:            85 66 f0 01  movge     %xcc, 0x1, %g2
    0x100003130:            98 21 00 09  sub       %g4, %o1, %o4
    0x100003134:            9a 10 20 00  clr       %o5
    0x100003138:            80 a3 00 05  cmp       %o4, %g5
    0x10000313c:            9b 66 f0 01  movge     %xcc, 0x1, %o5
    0x100003140:            96 15 c0 15  or        %l7, %l5, %o3
    0x100003144:            82 0d 00 0b  and       %l4, %o3, %g1
    0x100003148:            b0 10 80 0d  or        %g2, %o5, %i0
    0x10000314c:            80 88 40 18  btst      %i0, %g1
    0x100003150:            02 40 00 04  be,pn     %icc, +0x10   <0x100003160>
    0x100003154:            80 a4 c0 1b  cmp       %l3, %i3
    0x100003158:            14 68 00 13  bg,pt     %xcc, +0x4c   <0x1000031a4>
    0x10000315c:            80 a6 c0 13  cmp       %i3, %l3
    0x100003160:            aa 10 00 1b  mov       %i3, %l5
    0x100003164:            ca 5c 3f d0  ldx       [%l0 - 0x30], %g5
    0x100003168:            95 2e f0 02  sllx      %i3, 0x2, %o2
    0x10000316c:            d2 0d 40 05  ldub      [%l5 + %g5], %o1
    0x100003170:            80 a2 60 00  cmp       %o1, 0x0
    0x100003174:            02 40 00 06  be,pn     %icc, +0x18   <0x10000318c>
    0x100003178:            aa 05 60 01  add       %l5, 0x1, %l5
    0x10000317c:            c6 5c 3f d8  ldx       [%l0 - 0x28], %g3
    0x100003180:            88 10 00 0f  mov       %o7, %g4
    0x100003184:            9e 03 e0 01  add       %o7, 0x1, %o7
    0x100003188:            c8 20 c0 0a  st        %g4, [%g3 + %o2]
    0x10000318c:            80 a5 40 13  cmp       %l5, %l3
    0x100003190:            94 02 a0 04  add       %o2, 0x4, %o2
    0x100003194:            24 6f ff f6  ble,a,pt  %xcc, -0x28   <0x10000316c>
    0x100003198:            ca 5c 3f d0  ldx       [%l0 - 0x30], %g5
    0x10000319c:            10 80 00 14  ba        +0x50         <0x1000031ec>
    0x1000031a0:            de 23 a8 d7  st        %o7, [%sp + 0x8d7]
    0x1000031a4:            14 60 00 11  bg,pn     %xcc, +0x44   <0x1000031e8>
    0x1000031a8:            ee 5c 3f d0  ldx       [%l0 - 0x30], %l7
    0x1000031ac:            ca 5c 3f d8  ldx       [%l0 - 0x28], %g5
    0x1000031b0:            88 10 00 1b  mov       %i3, %g4
    0x1000031b4:            ae 06 c0 17  add       %i3, %l7, %l7
    0x1000031b8:            d6 0d e0 00  ldub      [%l7], %o3
    0x1000031bc:            aa 00 c0 05  add       %g3, %g5, %l5
    0x1000031c0:            80 a2 e0 00  cmp       %o3, 0x0
    0x1000031c4:            02 40 00 04  be,pn     %icc, +0x10   <0x1000031d4>
    0x1000031c8:            88 01 20 01  add       %g4, 0x1, %g4
    0x1000031cc:            de 25 60 00  st        %o7, [%l5]
    0x1000031d0:            9e 03 e0 01  add       %o7, 0x1, %o7
    0x1000031d4:            80 a1 00 13  cmp       %g4, %l3
    0x1000031d8:            ae 05 e0 01  add       %l7, 0x1, %l7
    0x1000031dc:            aa 05 60 04  add       %l5, 0x4, %l5
    0x1000031e0:            24 6f ff f8  ble,a,pt  %xcc, -0x20   <0x1000031c0>
    0x1000031e4:            d6 0d e0 00  ldub      [%l7], %o3
    0x1000031e8:            de 23 a8 d7  st        %o7, [%sp + 0x8d7]
    0x1000031ec:            af 3d a0 00  sra       %l6, 0x0, %l7
    0x1000031f0:            aa 4f 00 17  mulx      %i4, %l7, %l5
    0x1000031f4:            b1 3d 60 00  sra       %l5, 0x0, %i0
    0x1000031f8:            f3 03 a8 d7  ld        [%sp + 0x8d7], %f25
    0x1000031fc:            b1 2e 30 03  sllx      %i0, 0x3, %i0
    0x100003200:            80 a7 20 00  cmp       %i4, 0x0
    0x100003204:            af a0 19 19  fitod     %f25, %d54
    0x100003208:            96 02 00 18  add       %o0, %i0, %o3
    0x10000320c:            12 40 00 18  bne,pn    %icc, +0x60   <0x10000326c>
    0x100003210:            ef 3e 00 08  std       %d54, [%i0 + %o0]
    0x100003214:            d2 04 3f e0  ld        [%l0 - 0x20], %o1
    0x100003218:            80 a2 60 00  cmp       %o1, 0x0
    0x10000321c:            04 40 00 14  ble,pn    %icc, +0x50   <0x10000326c>
    0x100003220:            a8 10 20 00  clr       %l4
    0x100003224:            82 10 20 00  clr       %g1
    0x100003228:            94 10 00 08  mov       %o0, %o2
    0x10000322c:            d3 1a 20 00  ldd       [%o0], %d40
    0x100003230:            85 2d f0 03  sllx      %l7, 0x3, %g2
    0x100003234:            c2 23 a8 d7  st        %g1, [%sp + 0x8d7]
    0x100003238:            b9 a0 1a 49  fdtoi     %d40, %f28
    0x10000323c:            f9 23 a8 db  st        %f28, [%sp + 0x8db]
    0x100003240:            ef 03 a8 d7  ld        [%sp + 0x8d7], %f23
    0x100003244:            d8 03 a8 db  ld        [%sp + 0x8db], %o4
    0x100003248:            a8 05 20 01  add       %l4, 0x1, %l4
    0x10000324c:            ab a0 19 17  fitod     %f23, %d52
    0x100003250:            eb 3a a0 00  std       %d52, [%o2]
    0x100003254:            da 04 3f e0  ld        [%l0 - 0x20], %o5
    0x100003258:            94 02 80 02  add       %o2, %g2, %o2
    0x10000325c:            82 00 40 0c  add       %g1, %o4, %g1
    0x100003260:            80 a5 00 0d  cmp       %l4, %o5
    0x100003264:            26 4f ff f4  bl,a,pt   %icc, -0x30   <0x100003234>
    0x100003268:            d3 1a a0 00  ldd       [%o2], %d40
    0x10000326c:            80 a6 c0 1a  cmp       %i3, %i2
    0x100003270:            16 60 00 63  bge,pn    %xcc, +0x18c  <0x1000033fc>
    0x100003274:            9e 24 c0 1b  sub       %l3, %i3, %o7
    0x100003278:            80 a3 e0 06  cmp       %o7, 0x6
    0x10000327c:            06 60 00 4d  bl,pn     %xcc, +0x134  <0x1000033b0>
    0x100003280:            d4 5c 3f d8  ldx       [%l0 - 0x28], %o2
    0x100003284:            93 2e f0 02  sllx      %i3, 0x2, %o1
    0x100003288:            82 04 3f d0  add       %l0, -0x30, %g1
    0x10000328c:            88 02 80 09  add       %o2, %o1, %g4
    0x100003290:            9a 21 00 01  sub       %g4, %g1, %o5
    0x100003294:            80 a3 60 08  cmp       %o5, 0x8
    0x100003298:            86 03 e0 01  add       %o7, 0x1, %g3
    0x10000329c:            9a 10 20 00  clr       %o5
    0x1000032a0:            8b 28 f0 02  sllx      %g3, 0x2, %g5
    0x1000032a4:            9e 20 40 04  sub       %g1, %g4, %o7
    0x1000032a8:            9b 66 f0 01  movge     %xcc, 0x1, %o5
    0x1000032ac:            80 a3 c0 05  cmp       %o7, %g5
    0x1000032b0:            84 04 3f d8  add       %l0, -0x28, %g2
    0x1000032b4:            9e 21 00 02  sub       %g4, %g2, %o7
    0x1000032b8:            e8 5c 3f d0  ldx       [%l0 - 0x30], %l4
    0x1000032bc:            98 05 00 1b  add       %l4, %i3, %o4
    0x1000032c0:            a8 10 20 00  clr       %l4
    0x1000032c4:            a9 66 f0 01  movge     %xcc, 0x1, %l4
    0x1000032c8:            82 13 40 14  or        %o5, %l4, %g1
    0x1000032cc:            a8 20 80 04  sub       %g2, %g4, %l4
    0x1000032d0:            84 10 20 00  clr       %g2
    0x1000032d4:            80 a3 e0 08  cmp       %o7, 0x8
    0x1000032d8:            85 66 f0 01  movge     %xcc, 0x1, %g2
    0x1000032dc:            9a 10 20 00  clr       %o5
    0x1000032e0:            80 a5 00 05  cmp       %l4, %g5
    0x1000032e4:            9b 66 f0 01  movge     %xcc, 0x1, %o5
    0x1000032e8:            9e 10 80 0d  or        %g2, %o5, %o7
    0x1000032ec:            a8 21 00 0c  sub       %g4, %o4, %l4
    0x1000032f0:            9a 10 20 00  clr       %o5
    0x1000032f4:            80 a5 00 03  cmp       %l4, %g3
    0x1000032f8:            86 23 00 04  sub       %o4, %g4, %g3
    0x1000032fc:            84 08 40 0f  and       %g1, %o7, %g2
    0x100003300:            9b 66 f0 01  movge     %xcc, 0x1, %o5
    0x100003304:            82 21 00 0b  sub       %g4, %o3, %g1
    0x100003308:            98 10 20 00  clr       %o4
    0x10000330c:            80 a0 c0 05  cmp       %g3, %g5
    0x100003310:            99 66 f0 01  movge     %xcc, 0x1, %o4
    0x100003314:            88 22 c0 04  sub       %o3, %g4, %g4
    0x100003318:            96 10 20 00  clr       %o3
    0x10000331c:            80 a0 60 08  cmp       %g1, 0x8
    0x100003320:            97 66 f0 01  movge     %xcc, 0x1, %o3
    0x100003324:            80 a1 00 05  cmp       %g4, %g5
    0x100003328:            8a 10 20 00  clr       %g5
    0x10000332c:            8b 66 f0 01  movge     %xcc, 0x1, %g5
    0x100003330:            9e 13 40 0c  or        %o5, %o4, %o7
    0x100003334:            a8 12 c0 05  or        %o3, %g5, %l4
    0x100003338:            86 0d 00 0f  and       %l4, %o7, %g3
    0x10000333c:            80 88 c0 02  btst      %g2, %g3
    0x100003340:            02 40 00 1c  be,pn     %icc, +0x70   <0x1000033b0>
    0x100003344:            80 a4 c0 1b  cmp       %l3, %i3
    0x100003348:            04 60 00 1a  ble,pn    %xcc, +0x68   <0x1000033b0>
    0x10000334c:            80 a6 c0 13  cmp       %i3, %l3
    0x100003350:            14 60 00 16  bg,pn     %xcc, +0x58   <0x1000033a8>
    0x100003354:            d6 5c 3f d0  ldx       [%l0 - 0x30], %o3
    0x100003358:            d8 5c 3f d8  ldx       [%l0 - 0x28], %o4
    0x10000335c:            88 10 00 1b  mov       %i3, %g4
    0x100003360:            9e 06 c0 0b  add       %i3, %o3, %o7
    0x100003364:            ca 0e c0 0b  ldub      [%i3 + %o3], %g5
    0x100003368:            86 02 40 0c  add       %o1, %o4, %g3
    0x10000336c:            80 a1 60 00  cmp       %g5, 0x0
    0x100003370:            02 40 00 09  be,pn     %icc, +0x24   <0x100003394>
    0x100003374:            88 01 20 01  add       %g4, 0x1, %g4
    0x100003378:            db 1e 00 08  ldd       [%i0 + %o0], %d44
    0x10000337c:            e8 00 e0 00  ld        [%g3], %l4
    0x100003380:            ad a0 1a 4d  fdtoi     %d44, %f22
    0x100003384:            ed 23 a8 d7  st        %f22, [%sp + 0x8d7]
    0x100003388:            d4 03 a8 d7  ld        [%sp + 0x8d7], %o2
    0x10000338c:            92 05 00 0a  add       %l4, %o2, %o1
    0x100003390:            d2 20 e0 00  st        %o1, [%g3]
    0x100003394:            80 a1 00 13  cmp       %g4, %l3
    0x100003398:            9e 03 e0 01  add       %o7, 0x1, %o7
    0x10000339c:            86 00 e0 04  add       %g3, 0x4, %g3
    0x1000033a0:            24 6f ff f3  ble,a,pt  %xcc, -0x34   <0x10000336c>
    0x1000033a4:            ca 0b e0 00  ldub      [%o7], %g5
    0x1000033a8:            10 80 00 16  ba        +0x58         <0x100003400>
    0x1000033ac:            94 26 80 11  sub       %i2, %l1, %o2
    0x1000033b0:            8a 10 00 1b  mov       %i3, %g5
    0x1000033b4:            c2 5c 3f d0  ldx       [%l0 - 0x30], %g1
    0x1000033b8:            85 2e f0 02  sllx      %i3, 0x2, %g2
    0x1000033bc:            c8 09 40 01  ldub      [%g5 + %g1], %g4
    0x1000033c0:            80 a1 20 00  cmp       %g4, 0x0
    0x1000033c4:            02 40 00 0a  be,pn     %icc, +0x28   <0x1000033ec>
    0x1000033c8:            8a 01 60 01  add       %g5, 0x1, %g5
    0x1000033cc:            d7 1e 00 08  ldd       [%i0 + %o0], %d42
    0x1000033d0:            9b a0 1a 4b  fdtoi     %d42, %f13
    0x1000033d4:            db 23 a8 d7  st        %f13, [%sp + 0x8d7]
    0x1000033d8:            d8 02 80 02  ld        [%o2 + %g2], %o4
    0x1000033dc:            d2 03 a8 d7  ld        [%sp + 0x8d7], %o1
    0x1000033e0:            9a 03 00 09  add       %o4, %o1, %o5
    0x1000033e4:            da 22 80 02  st        %o5, [%o2 + %g2]
    0x1000033e8:            d4 5c 3f d8  ldx       [%l0 - 0x28], %o2
    0x1000033ec:            80 a1 40 13  cmp       %g5, %l3
    0x1000033f0:            84 00 a0 04  add       %g2, 0x4, %g2
    0x1000033f4:            24 6f ff f2  ble,a,pt  %xcc, -0x38   <0x1000033bc>
    0x1000033f8:            c2 5c 3f d0  ldx       [%l0 - 0x30], %g1
    0x1000033fc:            94 26 80 11  sub       %i2, %l1, %o2
    0x100003400:            c2 5c 3f c8  ldx       [%l0 - 0x38], %g1
    0x100003404:            80 a2 a0 20  cmp       %o2, 0x20
    0x100003408:            04 60 00 0a  ble,pn    %xcc, +0x28   <0x100003430>
    0x10000340c:            90 00 40 11  add       %g1, %l1, %o0
    0x100003410:            df 3b a8 c7  std       %d46, [%sp + 0x8c7]
    0x100003414:            e7 3b a8 cf  std       %d50, [%sp + 0x8cf]
    0x100003418:            40 04 3a 4a  call      +0x10e928     <0x100111d40>
    0x10000341c:            92 10 20 00  clr       %o1
    0x100003420:            df 1b a8 c7  ldd       [%sp + 0x8c7], %d46
    0x100003424:            e7 1b a8 cf  ldd       [%sp + 0x8cf], %d50
    0x100003428:            10 80 00 2c  ba        +0xb0         <0x1000034d8>
    0x10000342c:            a9 2d f0 03  sllx      %l7, 0x3, %l4
    0x100003430:            80 8a 20 03  btst      0x3, %o0
    0x100003434:            12 60 00 0a  bne,pn    %xcc, +0x28   <0x10000345c>
    0x100003438:            84 10 00 08  mov       %o0, %g2
    0x10000343c:            80 a2 a0 03  cmp       %o2, 0x3
    0x100003440:            08 60 00 0a  bleu,pn   %xcc, +0x28   <0x100003468>
    0x100003444:            80 8a a0 03  btst      0x3, %o2
    0x100003448:            94 22 a0 04  sub       %o2, 0x4, %o2
    0x10000344c:            c0 20 a0 00  clr       [%g2]
    0x100003450:            84 00 a0 04  add       %g2, 0x4, %g2
    0x100003454:            10 bf ff fb  ba        -0x14         <0x100003440>
    0x100003458:            80 a2 a0 03  cmp       %o2, 0x3
    0x10000345c:            80 a2 a0 00  cmp       %o2, 0x0
    0x100003460:            02 60 00 1e  be,pn     %xcc, +0x78   <0x1000034d8>
    0x100003464:            a9 2d f0 03  sllx      %l7, 0x3, %l4
    0x100003468:            02 80 00 1c  be        +0x70         <0x1000034d8>
    0x10000346c:            a9 2d f0 03  sllx      %l7, 0x3, %l4
    0x100003470:            26 ca 80 11  brlz,a,pt %o2, +0x44    <0x1000034b4>
    0x100003474:            94 a2 a0 01  subcc     %o2, 0x1, %o2
    0x100003478:            80 a2 a0 02  cmp       %o2, 0x2
    0x10000347c:            06 60 00 0b  bl,pn     %xcc, +0x2c   <0x1000034a8>
    0x100003480:            01 00 00 00  nop
    0x100003484:            88 10 00 0a  mov       %o2, %g4
    0x100003488:            c0 28 a0 00  clrb      [%g2]
    0x10000348c:            88 21 20 02  sub       %g4, 0x2, %g4
    0x100003490:            84 00 a0 02  add       %g2, 0x2, %g2
    0x100003494:            80 a1 20 01  cmp       %g4, 0x1
    0x100003498:            14 6f ff fc  bg,pt     %xcc, -0x10   <0x100003488>
    0x10000349c:            c0 28 bf ff  clrb      [%g2 - 0x1]
    0x1000034a0:            04 c1 00 03  brlez,pn  %g4, +0xc     <0x1000034ac>
    0x1000034a4:            01 00 00 00  nop
    0x1000034a8:            c0 28 a0 00  clrb      [%g2]
    0x1000034ac:            10 80 00 0b  ba        +0x2c         <0x1000034d8>
    0x1000034b0:            a9 2d f0 03  sllx      %l7, 0x3, %l4
    0x1000034b4:            02 60 00 08  be,pn     %xcc, +0x20   <0x1000034d4>
    0x1000034b8:            c0 28 a0 00  clrb      [%g2]
    0x1000034bc:            94 a2 a0 01  subcc     %o2, 0x1, %o2
    0x1000034c0:            c0 28 a0 01  clrb      [%g2 + 0x1]
    0x1000034c4:            84 00 a0 01  add       %g2, 0x1, %g2
    0x1000034c8:            84 00 a0 01  add       %g2, 0x1, %g2
    0x1000034cc:            12 6f ff fa  bne,pt    %xcc, -0x18   <0x1000034b4>
    0x1000034d0:            94 a2 a0 01  subcc     %o2, 0x1, %o2
    0x1000034d4:            a9 2d f0 03  sllx      %l7, 0x3, %l4
    0x1000034d8:            80 a5 20 20  cmp       %l4, 0x20
    0x1000034dc:            c8 5c a5 38  ldx       [%l2 + 0x538], %g4
    0x1000034e0:            94 10 00 14  mov       %l4, %o2
    0x1000034e4:            04 60 00 0a  ble,pn    %xcc, +0x28   <0x10000350c>
    0x1000034e8:            90 01 00 18  add       %g4, %i0, %o0
    0x1000034ec:            df 3b a8 c7  std       %d46, [%sp + 0x8c7]
    0x1000034f0:            e7 3b a8 cf  std       %d50, [%sp + 0x8cf]
    0x1000034f4:            40 04 3a 13  call      +0x10e84c     <0x100111d40>
    0x1000034f8:            92 10 20 00  clr       %o1
    0x1000034fc:            df 1b a8 c7  ldd       [%sp + 0x8c7], %d46
    0x100003500:            e7 1b a8 cf  ldd       [%sp + 0x8cf], %d50
    0x100003504:            10 80 00 2c  ba        +0xb0         <0x1000035b4>
    0x100003508:            80 a7 20 00  cmp       %i4, 0x0
    0x10000350c:            80 8a 20 03  btst      0x3, %o0
    0x100003510:            12 60 00 0a  bne,pn    %xcc, +0x28   <0x100003538>
    0x100003514:            96 10 00 08  mov       %o0, %o3
    0x100003518:            80 a2 a0 03  cmp       %o2, 0x3
    0x10000351c:            08 60 00 0a  bleu,pn   %xcc, +0x28   <0x100003544>
    0x100003520:            80 8a a0 03  btst      0x3, %o2
    0x100003524:            94 22 a0 04  sub       %o2, 0x4, %o2
    0x100003528:            c0 22 e0 00  clr       [%o3]
    0x10000352c:            96 02 e0 04  add       %o3, 0x4, %o3
    0x100003530:            10 bf ff fb  ba        -0x14         <0x10000351c>
    0x100003534:            80 a2 a0 03  cmp       %o2, 0x3
    0x100003538:            80 a5 20 00  cmp       %l4, 0x0
    0x10000353c:            22 60 00 1e  be,a,pn   %xcc, +0x78   <0x1000035b4>
    0x100003540:            80 a7 20 00  cmp       %i4, 0x0
    0x100003544:            02 80 00 1c  be        +0x70         <0x1000035b4>
    0x100003548:            80 a7 20 00  cmp       %i4, 0x0
    0x10000354c:            26 ca 80 11  brlz,a,pt %o2, +0x44    <0x100003590>
    0x100003550:            94 a2 a0 01  subcc     %o2, 0x1, %o2
    0x100003554:            80 a2 a0 02  cmp       %o2, 0x2
    0x100003558:            06 60 00 0b  bl,pn     %xcc, +0x2c   <0x100003584>
    0x10000355c:            01 00 00 00  nop
    0x100003560:            8a 10 00 0a  mov       %o2, %g5
    0x100003564:            c0 2a e0 00  clrb      [%o3]
    0x100003568:            8a 21 60 02  sub       %g5, 0x2, %g5
    0x10000356c:            96 02 e0 02  add       %o3, 0x2, %o3
    0x100003570:            80 a1 60 01  cmp       %g5, 0x1
    0x100003574:            14 6f ff fc  bg,pt     %xcc, -0x10   <0x100003564>
    0x100003578:            c0 2a ff ff  clrb      [%o3 - 0x1]
    0x10000357c:            04 c1 40 03  brlez,pn  %g5, +0xc     <0x100003588>
    0x100003580:            01 00 00 00  nop
    0x100003584:            c0 2a e0 00  clrb      [%o3]
    0x100003588:            10 80 00 0b  ba        +0x2c         <0x1000035b4>
    0x10000358c:            80 a7 20 00  cmp       %i4, 0x0
    0x100003590:            02 60 00 08  be,pn     %xcc, +0x20   <0x1000035b0>
    0x100003594:            c0 2a e0 00  clrb      [%o3]
    0x100003598:            94 a2 a0 01  subcc     %o2, 0x1, %o2
    0x10000359c:            c0 2a e0 01  clrb      [%o3 + 0x1]
    0x1000035a0:            96 02 e0 01  add       %o3, 0x1, %o3
    0x1000035a4:            96 02 e0 01  add       %o3, 0x1, %o3
    0x1000035a8:            12 6f ff fa  bne,pt    %xcc, -0x18   <0x100003590>
    0x1000035ac:            94 a2 a0 01  subcc     %o2, 0x1, %o2
    0x1000035b0:            80 a7 20 00  cmp       %i4, 0x0
    0x1000035b4:            c2 5c a5 38  ldx       [%l2 + 0x538], %g1
    0x1000035b8:            12 40 00 4e  bne,pn    %icc, +0x138  <0x1000036f0>
    0x1000035bc:            80 a5 20 20  cmp       %l4, 0x20
    0x1000035c0:            d0 04 3f e0  ld        [%l0 - 0x20], %o0
    0x1000035c4:            94 10 00 14  mov       %l4, %o2
    0x1000035c8:            96 4a 00 17  mulx      %o0, %l7, %o3
    0x1000035cc:            99 3a e0 00  sra       %o3, 0x0, %o4
    0x1000035d0:            9b 2b 30 03  sllx      %o4, 0x3, %o5
    0x1000035d4:            04 60 00 0a  ble,pn    %xcc, +0x28   <0x1000035fc>
    0x1000035d8:            90 00 40 0d  add       %g1, %o5, %o0
    0x1000035dc:            df 3b a8 c7  std       %d46, [%sp + 0x8c7]
    0x1000035e0:            e7 3b a8 cf  std       %d50, [%sp + 0x8cf]
    0x1000035e4:            40 04 39 d7  call      +0x10e75c     <0x100111d40>
    0x1000035e8:            92 10 20 00  clr       %o1
    0x1000035ec:            df 1b a8 c7  ldd       [%sp + 0x8c7], %d46
    0x1000035f0:            e7 1b a8 cf  ldd       [%sp + 0x8cf], %d50
    0x1000035f4:            10 80 00 2c  ba        +0xb0         <0x1000036a4>
    0x1000035f8:            c2 5c a5 38  ldx       [%l2 + 0x538], %g1
    0x1000035fc:            80 8a 20 03  btst      0x3, %o0
    0x100003600:            12 60 00 0a  bne,pn    %xcc, +0x28   <0x100003628>
    0x100003604:            98 10 00 08  mov       %o0, %o4
    0x100003608:            80 a2 a0 03  cmp       %o2, 0x3
    0x10000360c:            08 60 00 0a  bleu,pn   %xcc, +0x28   <0x100003634>
    0x100003610:            80 8a a0 03  btst      0x3, %o2
    0x100003614:            94 22 a0 04  sub       %o2, 0x4, %o2
    0x100003618:            c0 23 20 00  clr       [%o4]
    0x10000361c:            98 03 20 04  add       %o4, 0x4, %o4
    0x100003620:            10 bf ff fb  ba        -0x14         <0x10000360c>
    0x100003624:            80 a2 a0 03  cmp       %o2, 0x3
    0x100003628:            80 a5 20 00  cmp       %l4, 0x0
    0x10000362c:            22 60 00 1e  be,a,pn   %xcc, +0x78   <0x1000036a4>
    0x100003630:            c2 5c a5 38  ldx       [%l2 + 0x538], %g1
    0x100003634:            22 80 00 1c  be,a      +0x70         <0x1000036a4>
    0x100003638:            c2 5c a5 38  ldx       [%l2 + 0x538], %g1
    0x10000363c:            26 ca 80 11  brlz,a,pt %o2, +0x44    <0x100003680>
    0x100003640:            94 a2 a0 01  subcc     %o2, 0x1, %o2
    0x100003644:            80 a2 a0 02  cmp       %o2, 0x2
    0x100003648:            06 60 00 0b  bl,pn     %xcc, +0x2c   <0x100003674>
    0x10000364c:            01 00 00 00  nop
    0x100003650:            86 10 00 0a  mov       %o2, %g3
    0x100003654:            c0 2b 20 00  clrb      [%o4]
    0x100003658:            86 20 e0 02  sub       %g3, 0x2, %g3
    0x10000365c:            98 03 20 02  add       %o4, 0x2, %o4
    0x100003660:            80 a0 e0 01  cmp       %g3, 0x1
    0x100003664:            14 6f ff fc  bg,pt     %xcc, -0x10   <0x100003654>
    0x100003668:            c0 2b 3f ff  clrb      [%o4 - 0x1]
    0x10000366c:            04 c0 c0 03  brlez,pn  %g3, +0xc     <0x100003678>
    0x100003670:            01 00 00 00  nop
    0x100003674:            c0 2b 20 00  clrb      [%o4]
    0x100003678:            10 80 00 0b  ba        +0x2c         <0x1000036a4>
    0x10000367c:            c2 5c a5 38  ldx       [%l2 + 0x538], %g1
    0x100003680:            02 60 00 08  be,pn     %xcc, +0x20   <0x1000036a0>
    0x100003684:            c0 2b 20 00  clrb      [%o4]
    0x100003688:            94 a2 a0 01  subcc     %o2, 0x1, %o2
    0x10000368c:            c0 2b 20 01  clrb      [%o4 + 0x1]
    0x100003690:            98 03 20 01  add       %o4, 0x1, %o4
    0x100003694:            98 03 20 01  add       %o4, 0x1, %o4
    0x100003698:            12 6f ff fa  bne,pt    %xcc, -0x18   <0x100003680>
    0x10000369c:            94 a2 a0 01  subcc     %o2, 0x1, %o2
    0x1000036a0:            c2 5c a5 38  ldx       [%l2 + 0x538], %g1
    0x1000036a4:            d4 04 3f e0  ld        [%l0 - 0x20], %o2
    0x1000036a8:            80 a6 c0 1a  cmp       %i3, %i2
    0x1000036ac:            ae 4a 80 17  mulx      %o2, %l7, %l7
    0x1000036b0:            8b 3d e0 00  sra       %l7, 0x0, %g5
    0x1000036b4:            91 29 70 03  sllx      %g5, 0x3, %o0
    0x1000036b8:            16 60 00 05  bge,pn    %xcc, +0x14   <0x1000036cc>
    0x1000036bc:            ae 00 40 08  add       %g1, %o0, %l7
    0x1000036c0:            90 10 20 00  clr       %o0
    0x1000036c4:            10 80 00 15  ba        +0x54         <0x100003718>
    0x1000036c8:            94 00 40 18  add       %g1, %i0, %o2
    0x1000036cc:            de 03 a8 bf  ld        [%sp + 0x8bf], %o7
    0x1000036d0:            b0 05 40 0f  add       %l5, %o7, %i0
    0x1000036d4:            9b 3e 20 00  sra       %i0, 0x0, %o5
    0x1000036d8:            89 2b 70 03  sllx      %o5, 0x3, %g4
    0x1000036dc:            c0 71 00 01  clrx      [%g4 + %g1]
    0x1000036e0:            94 00 40 04  add       %g1, %g4, %o2
    0x1000036e4:            df 3a a0 08  std       %d46, [%o2 + 0x8]
    0x1000036e8:            10 80 01 31  ba        +0x4c4        <0x100003bac>
    0x1000036ec:            c6 04 3f e0  ld        [%l0 - 0x20], %g3
    0x1000036f0:            e4 04 3f e0  ld        [%l0 - 0x20], %l2
    0x1000036f4:            80 a6 c0 1a  cmp       %i3, %i2
    0x1000036f8:            84 4c 80 17  mulx      %l2, %l7, %g2
    0x1000036fc:            87 38 a0 00  sra       %g2, 0x0, %g3
    0x100003700:            9f 28 f0 03  sllx      %g3, 0x3, %o7
    0x100003704:            ae 00 40 0f  add       %g1, %o7, %l7
    0x100003708:            36 68 00 b1  bge,a,pt  %xcc, +0x2c4  <0x1000039cc>
    0x10000370c:            e8 03 a8 bf  ld        [%sp + 0x8bf], %l4
    0x100003710:            90 10 20 00  clr       %o0
    0x100003714:            94 00 40 18  add       %g1, %i0, %o2
    0x100003718:            98 10 00 1b  mov       %i3, %o4
    0x10000371c:            e4 5b a8 b7  ldx       [%sp + 0x8b7], %l2
    0x100003720:            97 2e f0 05  sllx      %i3, 0x5, %o3
    0x100003724:            9a 10 20 01  mov       0x1, %o5
    0x100003728:            c8 5e 60 10  ldx       [%i1 + 0x10], %g4
    0x10000372c:            93 2c b0 05  sllx      %l2, 0x5, %o1
    0x100003730:            e4 06 60 08  ld        [%i1 + 0x8], %l2
    0x100003734:            05 00 04 00  sethi     %hi(0x100000), %g2
    0x100003738:            86 10 a0 02  or        %g2, 0x2, %g3
    0x10000373c:            9f 28 f0 0c  sllx      %g3, 0xc, %o7
    0x100003740:            b0 01 00 09  add       %g4, %o1, %i0
    0x100003744:            e1 03 ef b8  ld        [%o7 + 0xfb8], %f16
    0x100003748:            8a 01 00 0b  add       %g4, %o3, %g5
    0x10000374c:            f0 5e 20 08  ldx       [%i0 + 0x8], %i0
    0x100003750:            80 a4 a0 00  cmp       %l2, 0x0
    0x100003754:            c6 59 60 08  ldx       [%g5 + 0x8], %g3
    0x100003758:            04 40 00 7a  ble,pn    %icc, +0x1e8  <0x100003940>
    0x10000375c:            a4 04 bf ff  add       %l2, -0x1, %l2
    0x100003760:            9e 04 a0 01  add       %l2, 0x1, %o7
    0x100003764:            80 a3 e0 11  cmp       %o7, 0x11
    0x100003768:            84 10 20 00  clr       %g2
    0x10000376c:            06 40 00 6a  bl,pn     %icc, +0x1a8  <0x100003914>
    0x100003770:            01 00 00 00  nop
    0x100003774:            e3 00 e0 00  ld        [%g3], %f17
    0x100003778:            d3 00 e0 1c  ld        [%g3 + 0x1c], %f9
    0x10000377c:            d5 00 e0 10  ld        [%g3 + 0x10], %f10
    0x100003780:            cd 00 e0 0c  ld        [%g3 + 0xc], %f6
    0x100003784:            fd 00 e0 04  ld        [%g3 + 0x4], %f30
    0x100003788:            e5 06 20 00  ld        [%i0], %f18
    0x10000378c:            f9 06 20 04  ld        [%i0 + 0x4], %f28
    0x100003790:            e7 00 e0 20  ld        [%g3 + 0x20], %f19
    0x100003794:            ff 00 e0 18  ld        [%g3 + 0x18], %f31
    0x100003798:            d9 00 e0 08  ld        [%g3 + 0x8], %f12
    0x10000379c:            cb 06 20 0c  ld        [%i0 + 0xc], %f5
    0x1000037a0:            d1 06 20 08  ld        [%i0 + 0x8], %f8
    0x1000037a4:            cf 06 20 10  ld        [%i0 + 0x10], %f7
    0x1000037a8:            9f a4 48 b2  fsubs     %f17, %f18, %f15
    0x1000037ac:            db 06 20 14  ld        [%i0 + 0x14], %f13
    0x1000037b0:            b1 a7 88 bc  fsubs     %f30, %f28, %f24
    0x1000037b4:            d7 06 20 18  ld        [%i0 + 0x18], %f11
    0x1000037b8:            eb 06 20 1c  ld        [%i0 + 0x1c], %f21
    0x1000037bc:            e9 06 20 20  ld        [%i0 + 0x20], %f20
    0x1000037c0:            fb 06 20 24  ld        [%i0 + 0x24], %f29
    0x1000037c4:            9e 06 20 28  add       %i0, 0x28, %o7
    0x1000037c8:            31 00 04 00  sethi     %hi(0x100000), %i0
    0x1000037cc:            89 a1 88 a5  fsubs     %f6, %f5, %f4
    0x1000037d0:            85 a3 08 a8  fsubs     %f12, %f8, %f2
    0x1000037d4:            b5 a6 09 38  fmuls     %f24, %f24, %f26
    0x1000037d8:            83 a3 c9 2f  fmuls     %f15, %f15, %f1
    0x1000037dc:            b0 16 20 02  or        %i0, 0x2, %i0
    0x1000037e0:            b1 2e 30 0c  sllx      %i0, 0xc, %i0
    0x1000037e4:            f7 00 e0 28  ld        [%g3 + 0x28], %f27
    0x1000037e8:            b0 06 2f b8  add       %i0, 0xfb8, %i0
    0x1000037ec:            c1 00 e0 14  ld        [%g3 + 0x14], %f0
    0x1000037f0:            dd 06 20 00  ld        [%i0], %f14
    0x1000037f4:            ad a2 88 a7  fsubs     %f10, %f7, %f22
    0x1000037f8:            86 00 e0 2c  add       %g3, 0x2c, %g3
    0x1000037fc:            9b a0 08 ad  fsubs     %f0, %f13, %f13
    0x100003800:            87 a0 89 22  fmuls     %f2, %f2, %f3
    0x100003804:            b3 a4 08 3a  fadds     %f16, %f26, %f25
    0x100003808:            84 10 20 0b  mov       0xb, %g2
    0x10000380c:            af a1 09 24  fmuls     %f4, %f4, %f23
    0x100003810:            8b a3 88 21  fadds     %f14, %f1, %f5
    0x100003814:            cf 00 ff f8  ld        [%g3 - 0x8], %f7
    0x100003818:            b0 24 a0 05  sub       %l2, 0x5, %i0
    0x10000381c:            84 00 a0 06  add       %g2, 0x6, %g2
    0x100003820:            86 00 e0 18  add       %g3, 0x18, %g3
    0x100003824:            d1 03 e0 00  ld        [%o7], %f8
    0x100003828:            b9 a7 c8 ab  fsubs     %f31, %f11, %f28
    0x10000382c:            87 a1 48 23  fadds     %f5, %f3, %f3
    0x100003830:            80 a0 80 18  cmp       %g2, %i0
    0x100003834:            e5 00 ff e8  ld        [%g3 - 0x18], %f18
    0x100003838:            ad a5 89 36  fmuls     %f22, %f22, %f22
    0x10000383c:            bd a2 48 b5  fsubs     %f9, %f21, %f30
    0x100003840:            e3 03 e0 04  ld        [%o7 + 0x4], %f17
    0x100003844:            9e 03 e0 18  add       %o7, 0x18, %o7
    0x100003848:            af a6 48 37  fadds     %f25, %f23, %f23
    0x10000384c:            b3 a3 49 2d  fmuls     %f13, %f13, %f25
    0x100003850:            ff 00 ff ec  ld        [%g3 - 0x14], %f31
    0x100003854:            8d a4 c8 b4  fsubs     %f19, %f20, %f6
    0x100003858:            d7 03 ff f0  ld        [%o7 - 0x10], %f11
    0x10000385c:            99 a0 c8 36  fadds     %f3, %f22, %f12
    0x100003860:            8b a7 09 3c  fmuls     %f28, %f28, %f5
    0x100003864:            d3 00 ff f0  ld        [%g3 - 0x10], %f9
    0x100003868:            b1 a1 c8 bd  fsubs     %f7, %f29, %f24
    0x10000386c:            eb 03 ff f4  ld        [%o7 - 0xc], %f21
    0x100003870:            95 a5 c8 39  fadds     %f23, %f25, %f10
    0x100003874:            81 a7 89 3e  fmuls     %f30, %f30, %f0
    0x100003878:            e7 00 ff f4  ld        [%g3 - 0xc], %f19
    0x10000387c:            ad a6 c8 a8  fsubs     %f27, %f8, %f22
    0x100003880:            e9 03 ff f8  ld        [%o7 - 0x8], %f20
    0x100003884:            8b a3 08 25  fadds     %f12, %f5, %f5
    0x100003888:            87 a1 89 26  fmuls     %f6, %f6, %f3
    0x10000388c:            cf 00 ff f8  ld        [%g3 - 0x8], %f7
    0x100003890:            9b a4 88 b1  fsubs     %f18, %f17, %f13
    0x100003894:            fb 03 ff fc  ld        [%o7 - 0x4], %f29
    0x100003898:            b3 a2 88 20  fadds     %f10, %f0, %f25
    0x10000389c:            f7 00 ff fc  ld        [%g3 - 0x4], %f27
    0x1000038a0:            04 4f ff df  ble,pt    %icc, -0x84   <0x10000381c>
    0x1000038a4:            af a6 09 38  fmuls     %f24, %f24, %f23
    0x1000038a8:            91 a7 c8 ab  fsubs     %f31, %f11, %f8
    0x1000038ac:            99 a1 48 23  fadds     %f5, %f3, %f12
    0x1000038b0:            ad a5 89 36  fmuls     %f22, %f22, %f22
    0x1000038b4:            81 a4 c8 b4  fsubs     %f19, %f20, %f0
    0x1000038b8:            9f a2 48 b5  fsubs     %f9, %f21, %f15
    0x1000038bc:            85 a6 48 37  fadds     %f25, %f23, %f2
    0x1000038c0:            a1 a3 49 2d  fmuls     %f13, %f13, %f16
    0x1000038c4:            a7 a2 09 28  fmuls     %f8, %f8, %f19
    0x1000038c8:            b5 a3 08 36  fadds     %f12, %f22, %f26
    0x1000038cc:            f1 03 e0 00  ld        [%o7], %f24
    0x1000038d0:            89 a1 c8 bd  fsubs     %f7, %f29, %f4
    0x1000038d4:            83 a0 09 20  fmuls     %f0, %f0, %f1
    0x1000038d8:            ab a6 c8 b8  fsubs     %f27, %f24, %f21
    0x1000038dc:            af a0 88 30  fadds     %f2, %f16, %f23
    0x1000038e0:            b3 a3 c9 2f  fmuls     %f15, %f15, %f25
    0x1000038e4:            b7 a6 88 33  fadds     %f26, %f19, %f27
    0x1000038e8:            87 a1 09 24  fmuls     %f4, %f4, %f3
    0x1000038ec:            80 a0 80 12  cmp       %g2, %l2
    0x1000038f0:            93 a5 49 35  fmuls     %f21, %f21, %f9
    0x1000038f4:            b0 03 e0 04  add       %o7, 0x4, %i0
    0x1000038f8:            9d a5 c8 39  fadds     %f23, %f25, %f14
    0x1000038fc:            bb a6 c8 21  fadds     %f27, %f1, %f29
    0x100003900:            bf a3 88 23  fadds     %f14, %f3, %f31
    0x100003904:            97 a7 48 29  fadds     %f29, %f9, %f11
    0x100003908:            a1 a7 c8 2b  fadds     %f31, %f11, %f16
    0x10000390c:            14 40 00 0d  bg,pn     %icc, +0x34   <0x100003940>
    0x100003910:            01 00 00 00  nop
    0x100003914:            d3 06 20 00  ld        [%i0], %f9
    0x100003918:            ff 00 e0 00  ld        [%g3], %f31
    0x10000391c:            84 00 a0 01  add       %g2, 0x1, %g2
    0x100003920:            80 a0 80 12  cmp       %g2, %l2
    0x100003924:            97 a7 c8 a9  fsubs     %f31, %f9, %f11
    0x100003928:            b0 06 20 04  add       %i0, 0x4, %i0
    0x10000392c:            86 00 e0 04  add       %g3, 0x4, %g3
    0x100003930:            8f a2 c9 2b  fmuls     %f11, %f11, %f7
    0x100003934:            a1 a4 08 27  fadds     %f16, %f7, %f16
    0x100003938:            24 4f ff f8  ble,a,pt  %icc, -0x20   <0x100003918>
    0x10000393c:            d3 06 20 00  ld        [%i0], %f9
    0x100003940:            f5 01 00 0b  ld        [%g4 + %o3], %f26
    0x100003944:            c3 01 60 18  ld        [%g5 + 0x18], %f1
    0x100003948:            9d a4 09 3a  fmuls     %f16, %f26, %f14
    0x10000394c:            85 ab 8a a1  fcmpes    %fcc2, %f14, %f1
    0x100003950:            19 60 00 08  fbuge,pn  %fcc2, +0x20   <0x100003970>
    0x100003954:            f0 5c 3f c8  ldx       [%l0 - 0x38], %i0
    0x100003958:            87 a3 88 a1  fsubs     %f14, %f1, %f3
    0x10000395c:            da 2e 00 0c  stb       %o5, [%i0 + %o4]
    0x100003960:            83 a0 19 23  fstod     %f3, %d32
    0x100003964:            9f a3 c8 41  faddd     %d46, %d32, %d46
    0x100003968:            10 80 00 0f  ba        +0x3c         <0x1000039a4>
    0x10000396c:            98 03 20 01  add       %o4, 0x1, %o4
    0x100003970:            f0 01 60 14  ld        [%g5 + 0x14], %i0
    0x100003974:            89 a0 48 ae  fsubs     %f1, %f14, %f4
    0x100003978:            e4 5c 3f d8  ldx       [%l0 - 0x28], %l2
    0x10000397c:            87 3e 20 00  sra       %i0, 0x0, %g3
    0x100003980:            89 28 f0 02  sllx      %g3, 0x2, %g4
    0x100003984:            ca 01 00 12  ld        [%g4 + %l2], %g5
    0x100003988:            98 03 20 01  add       %o4, 0x1, %o4
    0x10000398c:            87 a0 19 24  fstod     %f4, %d34
    0x100003990:            9f 39 60 00  sra       %g5, 0x0, %o7
    0x100003994:            85 2b f0 03  sllx      %o7, 0x3, %g2
    0x100003998:            cf 1a 80 02  ldd       [%o2 + %g2], %d38
    0x10000399c:            a3 a1 c8 43  faddd     %d38, %d34, %d48
    0x1000039a0:            e3 3a 80 02  std       %d48, [%o2 + %g2]
    0x1000039a4:            80 a3 00 13  cmp       %o4, %l3
    0x1000039a8:            96 02 e0 20  add       %o3, 0x20, %o3
    0x1000039ac:            24 6f ff 61  ble,a,pt  %xcc, -0x27c  <0x100003730>
    0x1000039b0:            c8 5e 60 10  ldx       [%i1 + 0x10], %g4
    0x1000039b4:            da 03 a8 bf  ld        [%sp + 0x8bf], %o5
    0x1000039b8:            92 05 40 0d  add       %l5, %o5, %o1
    0x1000039bc:            9f 3a 60 00  sra       %o1, 0x0, %o7
    0x1000039c0:            95 2b f0 03  sllx      %o7, 0x3, %o2
    0x1000039c4:            10 80 00 07  ba        +0x1c         <0x1000039e0>
    0x1000039c8:            98 10 00 1b  mov       %i3, %o4
    0x1000039cc:            ac 05 40 14  add       %l5, %l4, %l6
    0x1000039d0:            ab 3d a0 00  sra       %l6, 0x0, %l5
    0x1000039d4:            a9 2d 70 03  sllx      %l5, 0x3, %l4
    0x1000039d8:            10 80 00 cc  ba        +0x330        <0x100003d08>
    0x1000039dc:            e7 1c 20 08  ldd       [%l0 + 0x8], %d50
    0x1000039e0:            d7 1f 6f b0  ldd       [%i5 + 0xfb0], %d42
    0x1000039e4:            de 5c 3f d0  ldx       [%l0 - 0x30], %o7
    0x1000039e8:            97 2e f0 02  sllx      %i3, 0x2, %o3
    0x1000039ec:            c4 0b c0 0c  ldub      [%o7 + %o4], %g2
    0x1000039f0:            80 a0 a0 00  cmp       %g2, 0x0
    0x1000039f4:            02 40 00 5d  be,pn     %icc, +0x174  <0x100003b68>
    0x1000039f8:            ea 5c 3f d8  ldx       [%l0 - 0x28], %l5
    0x1000039fc:            c8 04 3f e0  ld        [%l0 - 0x20], %g4
    0x100003a00:            c6 05 40 0b  ld        [%l5 + %o3], %g3
    0x100003a04:            80 a1 20 00  cmp       %g4, 0x0
    0x100003a08:            04 40 00 51  ble,pn    %icc, +0x144  <0x100003b4c>
    0x100003a0c:            8b a0 00 53  fmovd     %d50, %d36
    0x100003a10:            a4 01 20 00  add       %g4, 0x0, %l2
    0x100003a14:            80 a4 a0 0c  cmp       %l2, 0xc
    0x100003a18:            88 01 3f ff  add       %g4, -0x1, %g4
    0x100003a1c:            92 10 20 00  clr       %o1
    0x100003a20:            aa 10 20 00  clr       %l5
    0x100003a24:            06 40 00 40  bl,pn     %icc, +0x100  <0x100003b24>
    0x100003a28:            01 00 00 00  nop
    0x100003a2c:            a4 4d 20 07  mulx      %l4, 0x7, %l2
    0x100003a30:            9b 38 e0 00  sra       %g3, 0x0, %o5
    0x100003a34:            9f 2b 70 03  sllx      %o5, 0x3, %o7
    0x100003a38:            b0 00 40 0f  add       %g1, %o7, %i0
    0x100003a3c:            fb 18 40 0f  ldd       [%g1 + %o7], %d60
    0x100003a40:            9a 06 00 14  add       %i0, %l4, %o5
    0x100003a44:            9e 03 40 14  add       %o5, %l4, %o7
    0x100003a48:            f7 1d 00 18  ldd       [%l4 + %i0], %d58
    0x100003a4c:            ff 1f 6f b0  ldd       [%i5 + 0xfb0], %d62
    0x100003a50:            aa 03 c0 14  add       %o7, %l4, %l5
    0x100003a54:            c7 1d 00 0d  ldd       [%l4 + %o5], %d34
    0x100003a58:            b0 05 40 14  add       %l5, %l4, %i0
    0x100003a5c:            eb 1d 00 0f  ldd       [%l4 + %o7], %d52
    0x100003a60:            9a 06 00 14  add       %i0, %l4, %o5
    0x100003a64:            92 10 20 06  mov       0x6, %o1
    0x100003a68:            d3 1d 00 15  ldd       [%l4 + %l5], %d40
    0x100003a6c:            8a 05 80 16  add       %l6, %l6, %g5
    0x100003a70:            8b a4 c8 5b  faddd     %d50, %d58, %d36
    0x100003a74:            aa 03 40 14  add       %o5, %l4, %l5
    0x100003a78:            8f a7 c8 5d  faddd     %d62, %d60, %d38
    0x100003a7c:            c3 1d 00 18  ldd       [%l4 + %i0], %d32
    0x100003a80:            9e 21 20 05  sub       %g4, 0x5, %o7
    0x100003a84:            c1 6d 40 12  prefetch  [%l5 + %l2], #n_reads
    0x100003a88:            8a 01 40 16  add       %g5, %l6, %g5
    0x100003a8c:            92 02 60 06  add       %o1, 0x6, %o1
    0x100003a90:            e3 1d 60 00  ldd       [%l5], %d48
    0x100003a94:            87 a1 c8 43  faddd     %d38, %d34, %d34
    0x100003a98:            aa 05 40 14  add       %l5, %l4, %l5
    0x100003a9c:            80 a2 40 0f  cmp       %o1, %o7
    0x100003aa0:            8b a1 48 55  faddd     %d36, %d52, %d36
    0x100003aa4:            b0 01 40 16  add       %g5, %l6, %i0
    0x100003aa8:            db 1d 60 00  ldd       [%l5], %d44
    0x100003aac:            9a 05 40 14  add       %l5, %l4, %o5
    0x100003ab0:            8f a0 c8 49  faddd     %d34, %d40, %d38
    0x100003ab4:            8a 06 00 16  add       %i0, %l6, %g5
    0x100003ab8:            c7 1d 00 15  ldd       [%l4 + %l5], %d34
    0x100003abc:            aa 03 40 14  add       %o5, %l4, %l5
    0x100003ac0:            83 a1 48 41  faddd     %d36, %d32, %d32
    0x100003ac4:            b0 01 40 16  add       %g5, %l6, %i0
    0x100003ac8:            eb 1d 00 0d  ldd       [%l4 + %o5], %d52
    0x100003acc:            9a 05 40 14  add       %l5, %l4, %o5
    0x100003ad0:            8f a1 c8 51  faddd     %d38, %d48, %d38
    0x100003ad4:            8a 06 00 16  add       %i0, %l6, %g5
    0x100003ad8:            d3 1d 00 15  ldd       [%l4 + %l5], %d40
    0x100003adc:            aa 03 40 14  add       %o5, %l4, %l5
    0x100003ae0:            8b a0 48 4d  faddd     %d32, %d44, %d36
    0x100003ae4:            8a 01 40 16  add       %g5, %l6, %g5
    0x100003ae8:            c3 1d 00 0d  ldd       [%l4 + %o5], %d32
    0x100003aec:            04 4f ff e6  ble,pt    %icc, -0x68   <0x100003a84>
    0x100003af0:            aa 05 40 14  add       %l5, %l4, %l5
    0x100003af4:            9b a1 48 55  faddd     %d36, %d52, %d44
    0x100003af8:            a3 a1 c8 43  faddd     %d38, %d34, %d48
    0x100003afc:            aa 01 40 16  add       %g5, %l6, %l5
    0x100003b00:            b0 05 40 16  add       %l5, %l6, %i0
    0x100003b04:            a4 06 00 16  add       %i0, %l6, %l2
    0x100003b08:            80 a2 40 04  cmp       %o1, %g4
    0x100003b0c:            b3 a3 48 41  faddd     %d44, %d32, %d56
    0x100003b10:            af a4 48 49  faddd     %d48, %d40, %d54
    0x100003b14:            aa 04 80 16  add       %l2, %l6, %l5
    0x100003b18:            8b a5 c8 59  faddd     %d54, %d56, %d36
    0x100003b1c:            14 40 00 0c  bg,pn     %icc, +0x30   <0x100003b4c>
    0x100003b20:            01 00 00 00  nop
    0x100003b24:            92 02 60 01  add       %o1, 0x1, %o1
    0x100003b28:            b0 05 40 03  add       %l5, %g3, %i0
    0x100003b2c:            9b 3e 20 00  sra       %i0, 0x0, %o5
    0x100003b30:            8b 2b 70 03  sllx      %o5, 0x3, %g5
    0x100003b34:            80 a2 40 04  cmp       %o1, %g4
    0x100003b38:            d3 19 40 01  ldd       [%g5 + %g1], %d40
    0x100003b3c:            aa 05 40 16  add       %l5, %l6, %l5
    0x100003b40:            8b a1 48 49  faddd     %d36, %d40, %d36
    0x100003b44:            04 4f ff f9  ble,pt    %icc, -0x1c   <0x100003b28>
    0x100003b48:            92 02 60 01  add       %o1, 0x1, %o1
    0x100003b4c:            87 a9 4a cb  fcmped    %fcc3, %d36, %d42
    0x100003b50:            8b 38 e0 00  sra       %g3, 0x0, %g5
    0x100003b54:            93 29 70 03  sllx      %g5, 0x3, %o1
    0x100003b58:            1d 70 00 04  fbule,pn  %fcc3, +0x10   <0x100003b68>
    0x100003b5c:            cb 3a 40 17  std       %d36, [%o1 + %l7]
    0x100003b60:            9f a3 c8 c5  fsubd     %d46, %d36, %d46
    0x100003b64:            90 02 20 01  add       %o0, 0x1, %o0
    0x100003b68:            98 03 20 01  add       %o4, 0x1, %o4
    0x100003b6c:            80 a3 00 13  cmp       %o4, %l3
    0x100003b70:            96 02 e0 04  add       %o3, 0x4, %o3
    0x100003b74:            24 6f ff 9e  ble,a,pt  %xcc, -0x188  <0x1000039ec>
    0x100003b78:            de 5c 3f d0  ldx       [%l0 - 0x30], %o7
    0x100003b7c:            d0 23 a8 d7  st        %o0, [%sp + 0x8d7]
    0x100003b80:            e1 03 a8 d7  ld        [%sp + 0x8d7], %f16
    0x100003b84:            80 a7 20 00  cmp       %i4, 0x0
    0x100003b88:            88 00 40 0a  add       %g1, %o2, %g4
    0x100003b8c:            bf a0 19 10  fitod     %f16, %d62
    0x100003b90:            ff 3a 80 01  std       %d62, [%o2 + %g1]
    0x100003b94:            02 40 00 05  be,pn     %icc, +0x14   <0x100003ba8>
    0x100003b98:            df 39 20 08  std       %d46, [%g4 + 0x8]
    0x100003b9c:            e7 1c 20 08  ldd       [%l0 + 0x8], %d50
    0x100003ba0:            10 80 00 5e  ba        +0x178        <0x100003d18>
    0x100003ba4:            e3 1f 6f b0  ldd       [%i5 + 0xfb0], %d48
    0x100003ba8:            c6 04 3f e0  ld        [%l0 - 0x20], %g3
    0x100003bac:            80 a0 e0 00  cmp       %g3, 0x0
    0x100003bb0:            14 40 00 04  bg,pn     %icc, +0x10   <0x100003bc0>
    0x100003bb4:            de 04 20 10  ld        [%l0 + 0x10], %o7
    0x100003bb8:            10 80 00 4c  ba        +0x130        <0x100003ce8>
    0x100003bbc:            f7 1f 6f b0  ldd       [%i5 + 0xfb0], %d58
    0x100003bc0:            80 a0 e0 05  cmp       %g3, 0x5
    0x100003bc4:            94 00 ff ff  add       %g3, -0x1, %o2
    0x100003bc8:            ec 03 a8 bf  ld        [%sp + 0x8bf], %l6
    0x100003bcc:            9a 10 20 00  clr       %o5
    0x100003bd0:            91 3d a0 00  sra       %l6, 0x0, %o0
    0x100003bd4:            93 2a 30 03  sllx      %o0, 0x3, %o1
    0x100003bd8:            ac 02 40 01  add       %o1, %g1, %l6
    0x100003bdc:            06 40 00 35  bl,pn     %icc, +0xd4   <0x100003cb0>
    0x100003be0:            01 00 00 00  nop
    0x100003be4:            aa 4d 20 05  mulx      %l4, 0x5, %l5
    0x100003be8:            eb 1a 40 01  ldd       [%o1 + %g1], %d52
    0x100003bec:            a4 05 80 14  add       %l6, %l4, %l2
    0x100003bf0:            90 05 60 08  add       %l5, 0x8, %o0
    0x100003bf4:            a9 a0 1a 55  fdtoi     %d52, %f20
    0x100003bf8:            e9 23 a8 c3  st        %f20, [%sp + 0x8c3]
    0x100003bfc:            ef 1d a0 08  ldd       [%l6 + 0x8], %d54
    0x100003c00:            f3 1d 00 16  ldd       [%l4 + %l6], %d56
    0x100003c04:            c4 03 a8 c3  ld        [%sp + 0x8c3], %g2
    0x100003c08:            a7 a4 c8 57  faddd     %d50, %d54, %d50
    0x100003c0c:            b9 a0 1a 59  fdtoi     %d56, %f28
    0x100003c10:            f9 23 a8 c3  st        %f28, [%sp + 0x8c3]
    0x100003c14:            f7 1d 00 12  ldd       [%l4 + %l2], %d58
    0x100003c18:            aa 04 80 14  add       %l2, %l4, %l5
    0x100003c1c:            fb 1c a0 08  ldd       [%l2 + 0x8], %d60
    0x100003c20:            9a 10 20 03  mov       0x3, %o5
    0x100003c24:            bd a0 1a 5b  fdtoi     %d58, %f30
    0x100003c28:            d2 03 a8 c3  ld        [%sp + 0x8c3], %o1
    0x100003c2c:            9e 03 c0 02  add       %o7, %g2, %o7
    0x100003c30:            ac 05 40 14  add       %l5, %l4, %l6
    0x100003c34:            83 a4 c8 5d  faddd     %d50, %d60, %d32
    0x100003c38:            fd 23 a8 c3  st        %f30, [%sp + 0x8c3]
    0x100003c3c:            a4 00 ff fe  add       %g3, -0x2, %l2
    0x100003c40:            c1 6d 80 08  prefetch  [%l6 + %o0], #n_reads
    0x100003c44:            9a 03 60 02  add       %o5, 0x2, %o5
    0x100003c48:            ff 1d a0 00  ldd       [%l6], %d62
    0x100003c4c:            80 a3 40 12  cmp       %o5, %l2
    0x100003c50:            c7 1d 60 08  ldd       [%l5 + 0x8], %d34
    0x100003c54:            9e 03 c0 09  add       %o7, %o1, %o7
    0x100003c58:            95 a0 1a 5f  fdtoi     %d62, %f10
    0x100003c5c:            c6 03 a8 c3  ld        [%sp + 0x8c3], %g3
    0x100003c60:            d5 23 a8 c3  st        %f10, [%sp + 0x8c3]
    0x100003c64:            8b a0 48 43  faddd     %d32, %d34, %d36
    0x100003c68:            aa 05 80 14  add       %l6, %l4, %l5
    0x100003c6c:            df 1d 00 16  ldd       [%l4 + %l6], %d46
    0x100003c70:            cf 1d a0 08  ldd       [%l6 + 0x8], %d38
    0x100003c74:            9e 03 c0 03  add       %o7, %g3, %o7
    0x100003c78:            8d a0 1a 4f  fdtoi     %d46, %f6
    0x100003c7c:            d2 03 a8 c3  ld        [%sp + 0x8c3], %o1
    0x100003c80:            cd 23 a8 c3  st        %f6, [%sp + 0x8c3]
    0x100003c84:            ac 05 40 14  add       %l5, %l4, %l6
    0x100003c88:            04 4f ff ee  ble,pt    %icc, -0x48   <0x100003c40>
    0x100003c8c:            83 a1 48 47  faddd     %d36, %d38, %d32
    0x100003c90:            96 03 c0 09  add       %o7, %o1, %o3
    0x100003c94:            d3 1d 60 08  ldd       [%l5 + 0x8], %d40
    0x100003c98:            80 a3 40 0a  cmp       %o5, %o2
    0x100003c9c:            d8 03 a8 c3  ld        [%sp + 0x8c3], %o4
    0x100003ca0:            a7 a0 48 49  faddd     %d32, %d40, %d50
    0x100003ca4:            9e 02 c0 0c  add       %o3, %o4, %o7
    0x100003ca8:            14 40 00 0e  bg,pn     %icc, +0x38   <0x100003ce0>
    0x100003cac:            01 00 00 00  nop
    0x100003cb0:            c3 1d a0 00  ldd       [%l6], %d32
    0x100003cb4:            bb a0 1a 41  fdtoi     %d32, %f29
    0x100003cb8:            fb 23 a8 c3  st        %f29, [%sp + 0x8c3]
    0x100003cbc:            db 1d a0 08  ldd       [%l6 + 0x8], %d44
    0x100003cc0:            9a 03 60 01  add       %o5, 0x1, %o5
    0x100003cc4:            d0 03 a8 c3  ld        [%sp + 0x8c3], %o0
    0x100003cc8:            80 a3 40 0a  cmp       %o5, %o2
    0x100003ccc:            ac 05 80 14  add       %l6, %l4, %l6
    0x100003cd0:            a7 a4 c8 4d  faddd     %d50, %d44, %d50
    0x100003cd4:            9e 03 c0 08  add       %o7, %o0, %o7
    0x100003cd8:            24 4f ff f7  ble,a,pt  %icc, -0x24   <0x100003cb4>
    0x100003cdc:            c3 1d a0 00  ldd       [%l6], %d32
    0x100003ce0:            f7 1f 6f b0  ldd       [%i5 + 0xfb0], %d58
    0x100003ce4:            de 24 20 10  st        %o7, [%l0 + 0x10]
    0x100003ce8:            81 ac ca db  fcmped    %fcc0, %d50, %d58
    0x100003cec:            39 40 00 05  fbuge,a,pn %fcc0, +0x14   <0x100003d00>
    0x100003cf0:            eb 1f 6f b0  ldd       [%i5 + 0xfb0], %d52
    0x100003cf4:            e7 3c 20 08  std       %d50, [%l0 + 0x8]
    0x100003cf8:            10 80 00 0c  ba        +0x30         <0x100003d28>
    0x100003cfc:            80 a6 c0 1a  cmp       %i3, %i2
    0x100003d00:            10 80 00 d5  ba        +0x354        <0x100004054>
    0x100003d04:            eb 3c 20 08  std       %d52, [%l0 + 0x8]
    0x100003d08:            c0 70 40 14  clrx      [%g1 + %l4]
    0x100003d0c:            e3 1f 6f b0  ldd       [%i5 + 0xfb0], %d48
    0x100003d10:            8a 00 40 14  add       %g1, %l4, %g5
    0x100003d14:            df 39 60 08  std       %d46, [%g5 + 0x8]
    0x100003d18:            85 ac ca d1  fcmped    %fcc2, %d50, %d48
    0x100003d1c:            19 60 00 d1  fbuge,pn  %fcc2, +0x344  <0x100004060>
    0x100003d20:            de 04 20 10  ld        [%l0 + 0x10], %o7
    0x100003d24:            80 a6 c0 1a  cmp       %i3, %i2
    0x100003d28:            16 60 00 a6  bge,pn    %xcc, +0x298  <0x100003fc0>
    0x100003d2c:            8a 10 00 1b  mov       %i3, %g5
    0x100003d30:            f0 5b a8 b7  ldx       [%sp + 0x8b7], %i0
    0x100003d34:            d7 1f 6f b0  ldd       [%i5 + 0xfb0], %d42
    0x100003d38:            89 2e f0 05  sllx      %i3, 0x5, %g4
    0x100003d3c:            c6 5c 3f c8  ldx       [%l0 - 0x38], %g3
    0x100003d40:            91 2e 30 05  sllx      %i0, 0x5, %o0
    0x100003d44:            da 09 40 03  ldub      [%g5 + %g3], %o5
    0x100003d48:            d2 5e 60 10  ldx       [%i1 + 0x10], %o1
    0x100003d4c:            80 a3 60 00  cmp       %o5, 0x0
    0x100003d50:            12 40 00 0f  bne,pn    %icc, +0x3c   <0x100003d8c>
    0x100003d54:            86 02 40 04  add       %o1, %g4, %g3
    0x100003d58:            d4 58 e0 10  ldx       [%g3 + 0x10], %o2
    0x100003d5c:            ea 5c 3f d8  ldx       [%l0 - 0x28], %l5
    0x100003d60:            98 10 20 00  clr       %o4
    0x100003d64:            ad 2a b0 02  sllx      %o2, 0x2, %l6
    0x100003d68:            e4 05 80 15  ld        [%l6 + %l5], %l2
    0x100003d6c:            97 3c a0 00  sra       %l2, 0x0, %o3
    0x100003d70:            a9 2a f0 03  sllx      %o3, 0x3, %l4
    0x100003d74:            fb 1d 00 17  ldd       [%l4 + %l7], %d60
    0x100003d78:            81 af 4a cb  fcmped    %fcc0, %d60, %d42
    0x100003d7c:            99 61 a0 01  movg      %fcc0, 0x1, %o4
    0x100003d80:            80 a3 20 00  cmp       %o4, 0x0
    0x100003d84:            22 48 00 8b  be,a,pt   %icc, +0x22c  <0x100003fb0>
    0x100003d88:            8a 01 60 01  add       %g5, 0x1, %g5
    0x100003d8c:            e4 06 60 08  ld        [%i1 + 0x8], %l2
    0x100003d90:            17 00 04 00  sethi     %hi(0x100000), %o3
    0x100003d94:            98 12 e0 02  or        %o3, 0x2, %o4
    0x100003d98:            85 2b 30 0c  sllx      %o4, 0xc, %g2
    0x100003d9c:            e1 00 af b8  ld        [%g2 + 0xfb8], %f16
    0x100003da0:            ac 02 40 08  add       %o1, %o0, %l6
    0x100003da4:            d6 58 e0 08  ldx       [%g3 + 0x8], %o3
    0x100003da8:            80 a4 a0 00  cmp       %l2, 0x0
    0x100003dac:            da 5d a0 08  ldx       [%l6 + 0x8], %o5
    0x100003db0:            04 40 00 78  ble,pn    %icc, +0x1e0  <0x100003f90>
    0x100003db4:            98 04 bf ff  add       %l2, -0x1, %o4
    0x100003db8:            80 a4 a0 11  cmp       %l2, 0x11
    0x100003dbc:            a8 10 20 00  clr       %l4
    0x100003dc0:            06 40 00 69  bl,pn     %icc, +0x1a4  <0x100003f64>
    0x100003dc4:            01 00 00 00  nop
    0x100003dc8:            fb 02 e0 00  ld        [%o3], %f29
    0x100003dcc:            ed 02 e0 08  ld        [%o3 + 0x8], %f22
    0x100003dd0:            e5 02 e0 0c  ld        [%o3 + 0xc], %f18
    0x100003dd4:            ff 02 e0 04  ld        [%o3 + 0x4], %f31
    0x100003dd8:            f7 03 60 00  ld        [%o5], %f27
    0x100003ddc:            d3 03 60 04  ld        [%o5 + 0x4], %f9
    0x100003de0:            d7 03 60 08  ld        [%o5 + 0x8], %f11
    0x100003de4:            cb 03 60 0c  ld        [%o5 + 0xc], %f5
    0x100003de8:            c1 02 e0 14  ld        [%o3 + 0x14], %f0
    0x100003dec:            d5 02 e0 18  ld        [%o3 + 0x18], %f10
    0x100003df0:            cd 02 e0 28  ld        [%o3 + 0x28], %f6
    0x100003df4:            db 03 60 14  ld        [%o5 + 0x14], %f13
    0x100003df8:            e3 02 e0 10  ld        [%o3 + 0x10], %f17
    0x100003dfc:            cf 03 60 10  ld        [%o5 + 0x10], %f7
    0x100003e00:            b1 a7 c8 a9  fsubs     %f31, %f9, %f24
    0x100003e04:            9f a7 48 bb  fsubs     %f29, %f27, %f15
    0x100003e08:            f9 02 e0 1c  ld        [%o3 + 0x1c], %f28
    0x100003e0c:            85 a5 88 ab  fsubs     %f22, %f11, %f2
    0x100003e10:            fd 03 60 18  ld        [%o5 + 0x18], %f30
    0x100003e14:            b5 a4 88 a5  fsubs     %f18, %f5, %f26
    0x100003e18:            e9 03 60 1c  ld        [%o5 + 0x1c], %f20
    0x100003e1c:            89 a6 09 38  fmuls     %f24, %f24, %f4
    0x100003e20:            a7 a3 c9 2f  fmuls     %f15, %f15, %f19
    0x100003e24:            15 00 04 00  sethi     %hi(0x100000), %o2
    0x100003e28:            84 12 a0 02  or        %o2, 0x2, %g2
    0x100003e2c:            a5 28 b0 0c  sllx      %g2, 0xc, %l2
    0x100003e30:            eb 04 af b8  ld        [%l2 + 0xfb8], %f21
    0x100003e34:            d9 03 60 20  ld        [%o5 + 0x20], %f12
    0x100003e38:            ad a0 89 22  fmuls     %f2, %f2, %f22
    0x100003e3c:            83 a0 08 ad  fsubs     %f0, %f13, %f1
    0x100003e40:            96 02 e0 2c  add       %o3, 0x2c, %o3
    0x100003e44:            d1 03 60 24  ld        [%o5 + 0x24], %f8
    0x100003e48:            85 a6 89 3a  fmuls     %f26, %f26, %f2
    0x100003e4c:            9d a4 48 a7  fsubs     %f17, %f7, %f14
    0x100003e50:            89 a4 08 24  fadds     %f16, %f4, %f4
    0x100003e54:            c1 02 ff f4  ld        [%o3 - 0xc], %f0
    0x100003e58:            ac 03 60 28  add       %o5, 0x28, %l6
    0x100003e5c:            a8 10 20 0b  mov       0xb, %l4
    0x100003e60:            b1 a5 48 33  fadds     %f21, %f19, %f24
    0x100003e64:            f5 02 ff f8  ld        [%o3 - 0x8], %f26
    0x100003e68:            b0 23 20 05  sub       %o4, 0x5, %i0
    0x100003e6c:            a8 05 20 06  add       %l4, 0x6, %l4
    0x100003e70:            96 02 e0 18  add       %o3, 0x18, %o3
    0x100003e74:            fb 05 a0 00  ld        [%l6], %f29
    0x100003e78:            b3 a2 88 be  fsubs     %f10, %f30, %f25
    0x100003e7c:            af a6 08 36  fadds     %f24, %f22, %f23
    0x100003e80:            80 a5 00 18  cmp       %l4, %i0
    0x100003e84:            e5 02 ff e8  ld        [%o3 - 0x18], %f18
    0x100003e88:            87 a3 89 2e  fmuls     %f14, %f14, %f3
    0x100003e8c:            9d a7 08 b4  fsubs     %f28, %f20, %f14
    0x100003e90:            cb 05 a0 04  ld        [%l6 + 0x4], %f5
    0x100003e94:            ac 05 a0 18  add       %l6, 0x18, %l6
    0x100003e98:            b7 a1 08 22  fadds     %f4, %f2, %f27
    0x100003e9c:            83 a0 49 21  fmuls     %f1, %f1, %f1
    0x100003ea0:            d5 02 ff ec  ld        [%o3 - 0x14], %f10
    0x100003ea4:            97 a0 08 ac  fsubs     %f0, %f12, %f11
    0x100003ea8:            fd 05 bf f0  ld        [%l6 - 0x10], %f30
    0x100003eac:            93 a5 c8 23  fadds     %f23, %f3, %f9
    0x100003eb0:            bf a6 49 39  fmuls     %f25, %f25, %f31
    0x100003eb4:            f9 02 ff f0  ld        [%o3 - 0x10], %f28
    0x100003eb8:            9b a6 88 a8  fsubs     %f26, %f8, %f13
    0x100003ebc:            e9 05 bf f4  ld        [%l6 - 0xc], %f20
    0x100003ec0:            8f a6 c8 21  fadds     %f27, %f1, %f7
    0x100003ec4:            a3 a3 89 2e  fmuls     %f14, %f14, %f17
    0x100003ec8:            c1 02 ff f4  ld        [%o3 - 0xc], %f0
    0x100003ecc:            9d a1 88 bd  fsubs     %f6, %f29, %f14
    0x100003ed0:            d9 05 bf f8  ld        [%l6 - 0x8], %f12
    0x100003ed4:            b1 a2 48 3f  fadds     %f9, %f31, %f24
    0x100003ed8:            ad a2 c9 2b  fmuls     %f11, %f11, %f22
    0x100003edc:            f5 02 ff f8  ld        [%o3 - 0x8], %f26
    0x100003ee0:            83 a4 88 a5  fsubs     %f18, %f5, %f1
    0x100003ee4:            d1 05 bf fc  ld        [%l6 - 0x4], %f8
    0x100003ee8:            89 a1 c8 31  fadds     %f7, %f17, %f4
    0x100003eec:            cd 02 ff fc  ld        [%o3 - 0x4], %f6
    0x100003ef0:            04 4f ff df  ble,pt    %icc, -0x84   <0x100003e6c>
    0x100003ef4:            85 a3 49 2d  fmuls     %f13, %f13, %f2
    0x100003ef8:            a1 a2 88 be  fsubs     %f10, %f30, %f16
    0x100003efc:            9f a3 89 2e  fmuls     %f14, %f14, %f15
    0x100003f00:            a5 a6 08 36  fadds     %f24, %f22, %f18
    0x100003f04:            b1 a7 08 b4  fsubs     %f28, %f20, %f24
    0x100003f08:            a3 a0 08 ac  fsubs     %f0, %f12, %f17
    0x100003f0c:            b9 a0 49 21  fmuls     %f1, %f1, %f28
    0x100003f10:            95 a4 09 30  fmuls     %f16, %f16, %f10
    0x100003f14:            85 a1 08 22  fadds     %f4, %f2, %f2
    0x100003f18:            bd a4 88 2f  fadds     %f18, %f15, %f30
    0x100003f1c:            c1 05 a0 00  ld        [%l6], %f0
    0x100003f20:            89 a6 88 a8  fsubs     %f26, %f8, %f4
    0x100003f24:            83 a4 49 31  fmuls     %f17, %f17, %f1
    0x100003f28:            8d a1 88 a0  fsubs     %f6, %f0, %f6
    0x100003f2c:            91 a6 09 38  fmuls     %f24, %f24, %f8
    0x100003f30:            b5 a0 88 3c  fadds     %f2, %f28, %f26
    0x100003f34:            99 a7 88 2a  fadds     %f30, %f10, %f12
    0x100003f38:            a7 a1 09 24  fmuls     %f4, %f4, %f19
    0x100003f3c:            80 a5 00 0c  cmp       %l4, %o4
    0x100003f40:            af a1 89 26  fmuls     %f6, %f6, %f23
    0x100003f44:            9a 05 a0 04  add       %l6, 0x4, %o5
    0x100003f48:            9d a6 88 28  fadds     %f26, %f8, %f14
    0x100003f4c:            ab a3 08 21  fadds     %f12, %f1, %f21
    0x100003f50:            87 a3 88 33  fadds     %f14, %f19, %f3
    0x100003f54:            b3 a5 48 37  fadds     %f21, %f23, %f25
    0x100003f58:            a1 a0 c8 39  fadds     %f3, %f25, %f16
    0x100003f5c:            14 40 00 0d  bg,pn     %icc, +0x34   <0x100003f90>
    0x100003f60:            01 00 00 00  nop
    0x100003f64:            e9 03 60 00  ld        [%o5], %f20
    0x100003f68:            e7 02 e0 00  ld        [%o3], %f19
    0x100003f6c:            a8 05 20 01  add       %l4, 0x1, %l4
    0x100003f70:            80 a5 00 0c  cmp       %l4, %o4
    0x100003f74:            ab a4 c8 b4  fsubs     %f19, %f20, %f21
    0x100003f78:            9a 03 60 04  add       %o5, 0x4, %o5
    0x100003f7c:            96 02 e0 04  add       %o3, 0x4, %o3
    0x100003f80:            b7 a5 49 35  fmuls     %f21, %f21, %f27
    0x100003f84:            a1 a4 08 3b  fadds     %f16, %f27, %f16
    0x100003f88:            24 4f ff f8  ble,a,pt  %icc, -0x20   <0x100003f68>
    0x100003f8c:            e9 03 60 00  ld        [%o5], %f20
    0x100003f90:            df 02 40 04  ld        [%o1 + %g4], %f15
    0x100003f94:            8a 01 60 01  add       %g5, 0x1, %g5
    0x100003f98:            85 a3 c9 30  fmuls     %f15, %f16, %f2
    0x100003f9c:            c5 20 e0 18  st        %f2, [%g3 + 0x18]
    0x100003fa0:            ec 5e 60 10  ldx       [%i1 + 0x10], %l6
    0x100003fa4:            d8 5b a8 b7  ldx       [%sp + 0x8b7], %o4
    0x100003fa8:            a4 01 00 16  add       %g4, %l6, %l2
    0x100003fac:            d8 74 a0 10  stx       %o4, [%l2 + 0x10]
    0x100003fb0:            80 a1 40 13  cmp       %g5, %l3
    0x100003fb4:            88 01 20 20  add       %g4, 0x20, %g4
    0x100003fb8:            24 6f ff 63  ble,a,pt  %xcc, -0x274  <0x100003d44>
    0x100003fbc:            c6 5c 3f c8  ldx       [%l0 - 0x38], %g3
    0x100003fc0:            80 a6 c0 1a  cmp       %i3, %i2
    0x100003fc4:            16 60 00 14  bge,pn    %xcc, +0x50   <0x100004014>
    0x100003fc8:            f3 1f 6f b0  ldd       [%i5 + 0xfb0], %d56
    0x100003fcc:            c4 5c 3f d0  ldx       [%l0 - 0x30], %g2
    0x100003fd0:            b1 2e f0 02  sllx      %i3, 0x2, %i0
    0x100003fd4:            da 0e c0 02  ldub      [%i3 + %g2], %o5
    0x100003fd8:            80 a3 60 00  cmp       %o5, 0x0
    0x100003fdc:            02 40 00 09  be,pn     %icc, +0x24   <0x100004000>
    0x100003fe0:            d0 5c 3f d8  ldx       [%l0 - 0x28], %o0
    0x100003fe4:            d6 02 00 18  ld        [%o0 + %i0], %o3
    0x100003fe8:            a9 3a e0 00  sra       %o3, 0x0, %l4
    0x100003fec:            99 2d 30 03  sllx      %l4, 0x3, %o4
    0x100003ff0:            ef 1b 00 17  ldd       [%o4 + %l7], %d54
    0x100003ff4:            83 ad ca d9  fcmped    %fcc1, %d54, %d56
    0x100003ff8:            2d 58 00 02  fbg,a,pt  %fcc1, +0x8    <0x100004000>
    0x100003ffc:            c0 2e c0 02  clrb      [%i3 + %g2]
    0x100004000:            b6 06 e0 01  add       %i3, 0x1, %i3
    0x100004004:            80 a6 c0 13  cmp       %i3, %l3
    0x100004008:            b0 06 20 04  add       %i0, 0x4, %i0
    0x10000400c:            24 6f ff f2  ble,a,pt  %xcc, -0x38   <0x100003fd4>
    0x100004010:            c4 5c 3f d0  ldx       [%l0 - 0x30], %g2
    0x100004014:            d2 5b a8 b7  ldx       [%sp + 0x8b7], %o1
    0x100004018:            80 a2 40 11  cmp       %o1, %l1
    0x10000401c:            06 60 00 06  bl,pn     %xcc, +0x18   <0x100004034>
    0x100004020:            80 a2 40 1a  cmp       %o1, %i2
    0x100004024:            16 60 00 04  bge,pn    %xcc, +0x10   <0x100004034>
    0x100004028:            f6 5c 3f d0  ldx       [%l0 - 0x30], %i3
    0x10000402c:            a2 10 20 01  mov       0x1, %l1
    0x100004030:            e2 2e c0 09  stb       %l1, [%i3 + %o1]
    0x100004034:            80 a7 20 00  cmp       %i4, 0x0
    0x100004038:            12 40 00 0a  bne,pn    %icc, +0x28   <0x100004060>
    0x10000403c:            ee 5b a8 af  ldx       [%sp + 0x8af], %l7
    0x100004040:            b3 3b e0 00  sra       %o7, 0x0, %i1
    0x100004044:            f8 5d e0 00  ldx       [%l7], %i4
    0x100004048:            b4 27 00 19  sub       %i4, %i1, %i2
    0x10000404c:            ba 06 a0 01  add       %i2, 0x1, %i5
    0x100004050:            fa 75 e0 00  stx       %i5, [%l7]
    0x100004054:            40 04 37 33  call      +0x10dccc     <0x100111d20>
    0x100004058:            90 10 00 01  mov       %g1, %o0
    0x10000405c:            e7 1c 20 08  ldd       [%l0 + 0x8], %d50
    0x100004060:            81 a0 00 d3  fnegd     %d50, %d0
    0x100004064:            81 c7 e0 08  ret
    0x100004068:            81 e8 20 00  restore   %g0, 0x0, %g0
    0x10000406c:            00 00 00 00  illtrap   0x0
    0x100004070:            00 00 00 00  illtrap   0x0
    0x100004074:            00 00 00 00  illtrap   0x0
__1cDpFL6FpnGPoints_piifpldlfipnRpthread_barrier_t__f_()
    0x100004078:            9d e3 bf 20  save      %sp, -0xe0, %sp
    0x10000407c:            85 a2 89 ca  fdivd     %d10, %d10, %d2
    0x100004080:            91 a0 19 2f  fstod     %f15, %d8
    0x100004084:            e0 5f a8 af  ldx       [%fp + 0x8af], %l0
    0x100004088:            fa 5f a8 bf  ldx       [%fp + 0x8bf], %i5
    0x10000408c:            f6 5f a8 c7  ldx       [%fp + 0x8c7], %i3
    0x100004090:            87 a8 8a c8  fcmped    %fcc3, %d2, %d8
    0x100004094:            1d 70 00 74  fbule,pn  %fcc3, +0x1d0  <0x100004264>
    0x100004098:            a5 3e a0 00  sra       %i2, 0x0, %l2
    0x10000409c:            23 00 04 00  sethi     %hi(0x100000), %l1
    0x1000040a0:            a6 14 60 04  or        %l1, 0x4, %l3
    0x1000040a4:            9a 10 20 00  clr       %o5
    0x1000040a8:            b5 2c f0 0c  sllx      %l3, 0xc, %i2
    0x1000040ac:            9b 7c a4 01  movre     %l2, 0x1, %o5
    0x1000040b0:            a2 04 80 0d  add       %l2, %o5, %l1
    0x1000040b4:            a6 04 bf ff  add       %l2, -0x1, %l3
    0x1000040b8:            a8 04 3f ff  add       %l0, -0x1, %l4
    0x1000040bc:            f4 73 a8 af  stx       %i2, [%sp + 0x8af]
    0x1000040c0:            80 a7 60 00  cmp       %i5, 0x0
    0x1000040c4:            f4 5b a8 af  ldx       [%sp + 0x8af], %i2
    0x1000040c8:            d9 1e a0 70  ldd       [%i2 + 0x70], %d12
    0x1000040cc:            12 40 00 2c  bne,pn    %icc, +0xb0   <0x10000417c>
    0x1000040d0:            80 a4 a0 00  cmp       %l2, 0x0
    0x1000040d4:            04 40 00 2a  ble,pn    %icc, +0xa8   <0x10000417c>
    0x1000040d8:            ac 10 20 00  clr       %l6
    0x1000040dc:            aa 10 00 19  mov       %i1, %l5
    0x1000040e0:            cf 23 a8 c7  st        %f7, [%sp + 0x8c7]
    0x1000040e4:            ae 10 00 12  mov       %l2, %l7
    0x1000040e8:            d5 3b a8 b7  std       %d10, [%sp + 0x8b7]
    0x1000040ec:            d1 3b a8 bf  std       %d8, [%sp + 0x8bf]
    0x1000040f0:            40 04 36 fc  call      +0x10dbf0     <0x100111ce0>
    0x1000040f4:            d9 3b a8 cf  std       %d12, [%sp + 0x8cf]
    0x1000040f8:            ca 05 60 00  ld        [%l5], %g5
    0x1000040fc:            cf 03 a8 c7  ld        [%sp + 0x8c7], %f7
    0x100004100:            d5 1b a8 b7  ldd       [%sp + 0x8b7], %d10
    0x100004104:            88 25 e0 01  sub       %l7, 0x1, %g4
    0x100004108:            d1 1b a8 bf  ldd       [%sp + 0x8bf], %d8
    0x10000410c:            80 8d c0 04  btst      %g4, %l7
    0x100004110:            d9 1b a8 cf  ldd       [%sp + 0x8cf], %d12
    0x100004114:            12 60 00 0c  bne,pn    %xcc, +0x30   <0x100004144>
    0x100004118:            01 00 00 00  nop
    0x10000411c:            02 c5 c0 0a  brz,pn    %l7, +0x28    <0x100004144>
    0x100004120:            85 3a 30 3f  srax      %o0, 0x3f, %g2
    0x100004124:            94 1a 00 02  xor       %o0, %g2, %o2
    0x100004128:            92 22 80 02  sub       %o2, %g2, %o1
    0x10000412c:            86 8a 40 04  andcc     %o1, %g4, %g3
    0x100004130:            90 18 c0 02  xor       %g3, %g2, %o0
    0x100004134:            82 22 00 02  sub       %o0, %g2, %g1
    0x100004138:            87 66 50 01  movne     %xcc, %g1, %g3
    0x10000413c:            10 80 00 06  ba        +0x18         <0x100004154>
    0x100004140:            ae 00 c0 16  add       %g3, %l6, %l7
    0x100004144:            99 6a 00 17  sdivx     %o0, %l7, %o4
    0x100004148:            96 4b 00 17  mulx      %o4, %l7, %o3
    0x10000414c:            86 22 00 0b  sub       %o0, %o3, %g3
    0x100004150:            ae 00 c0 16  add       %g3, %l6, %l7
    0x100004154:            9b 2d f0 02  sllx      %l7, 0x2, %o5
    0x100004158:            de 06 40 0d  ld        [%i1 + %o5], %o7
    0x10000415c:            ac 05 a0 01  add       %l6, 0x1, %l6
    0x100004160:            de 25 60 00  st        %o7, [%l5]
    0x100004164:            ca 26 40 0d  st        %g5, [%i1 + %o5]
    0x100004168:            80 a5 80 13  cmp       %l6, %l3
    0x10000416c:            ae 10 00 04  mov       %g4, %l7
    0x100004170:            aa 05 60 04  add       %l5, 0x4, %l5
    0x100004174:            24 6f ff dd  ble,a,pt  %xcc, -0x8c   <0x1000040e8>
    0x100004178:            cf 23 a8 c7  st        %f7, [%sp + 0x8c7]
    0x10000417c:            04 c4 00 35  brlez,pn  %l0, +0xd4    <0x100004250>
    0x100004180:            af 3c b0 3f  srax      %l2, 0x3f, %l7
    0x100004184:            b4 24 60 01  sub       %l1, 0x1, %i2
    0x100004188:            9e 1c 80 17  xor       %l2, %l7, %o7
    0x10000418c:            80 8c 40 1a  btst      %i2, %l1
    0x100004190:            ac 23 c0 17  sub       %o7, %l7, %l6
    0x100004194:            12 60 00 06  bne,pn    %xcc, +0x18   <0x1000041ac>
    0x100004198:            aa 10 20 00  clr       %l5
    0x10000419c:            02 c4 40 04  brz,pn    %l1, +0x10    <0x1000041ac>
    0x1000041a0:            b4 10 20 00  clr       %i2
    0x1000041a4:            10 80 00 06  ba        +0x18         <0x1000041bc>
    0x1000041a8:            89 a0 19 27  fstod     %f7, %d4
    0x1000041ac:            8b 68 00 11  sdivx     %g0, %l1, %g5
    0x1000041b0:            88 49 40 11  mulx      %g5, %l1, %g4
    0x1000041b4:            89 a0 19 27  fstod     %f7, %d4
    0x1000041b8:            b4 20 00 04  neg       %g4, %i2
    0x1000041bc:            ae 05 bf ff  add       %l6, -0x1, %l7
    0x1000041c0:            95 2e b0 02  sllx      %i2, 0x2, %o2
    0x1000041c4:            9a 10 00 1b  mov       %i3, %o5
    0x1000041c8:            96 10 00 1c  mov       %i4, %o3
    0x1000041cc:            92 10 00 18  mov       %i0, %o1
    0x1000041d0:            99 3f 60 00  sra       %i5, 0x0, %o4
    0x1000041d4:            aa 05 60 01  add       %l5, 0x1, %l5
    0x1000041d8:            c4 02 80 19  ld        [%o2 + %i1], %g2
    0x1000041dc:            c9 3b a8 d7  std       %d4, [%sp + 0x8d7]
    0x1000041e0:            d5 3b a8 b7  std       %d10, [%sp + 0x8b7]
    0x1000041e4:            91 38 a0 00  sra       %g2, 0x0, %o0
    0x1000041e8:            d1 3b a8 bf  std       %d8, [%sp + 0x8bf]
    0x1000041ec:            cf 23 a8 c7  st        %f7, [%sp + 0x8c7]
    0x1000041f0:            7f ff fb 73  call      -0x1234       <0x100002fbc>
    0x1000041f4:            d9 3b a8 cf  std       %d12, [%sp + 0x8cf]
    0x1000041f8:            99 35 70 3f  srlx      %l5, 0x3f, %o4
    0x1000041fc:            96 1b 20 01  xor       %o4, 0x1, %o3
    0x100004200:            92 20 00 0b  neg       %o3, %o1
    0x100004204:            82 0a 40 17  and       %o1, %l7, %g1
    0x100004208:            94 06 a0 01  add       %i2, 0x1, %o2
    0x10000420c:            86 00 60 01  add       %g1, 0x1, %g3
    0x100004210:            9e 1a 80 03  xor       %o2, %g3, %o7
    0x100004214:            b4 10 20 00  clr       %i2
    0x100004218:            b5 7b e4 01  movre     %o7, 0x1, %i2
    0x10000421c:            d9 1b a8 cf  ldd       [%sp + 0x8cf], %d12
    0x100004220:            88 20 00 1a  neg       %i2, %g4
    0x100004224:            8b 39 20 00  sra       %g4, 0x0, %g5
    0x100004228:            d5 1b a8 b7  ldd       [%sp + 0x8b7], %d10
    0x10000422c:            90 09 40 16  and       %g5, %l6, %o0
    0x100004230:            d1 1b a8 bf  ldd       [%sp + 0x8bf], %d8
    0x100004234:            80 a5 40 14  cmp       %l5, %l4
    0x100004238:            cf 03 a8 c7  ld        [%sp + 0x8c7], %f7
    0x10000423c:            c9 1b a8 d7  ldd       [%sp + 0x8d7], %d4
    0x100004240:            b4 22 80 08  sub       %o2, %o0, %i2
    0x100004244:            99 a3 08 40  faddd     %d12, %d0, %d12
    0x100004248:            04 6f ff df  ble,pt    %xcc, -0x84   <0x1000041c4>
    0x10000424c:            95 2e b0 02  sllx      %i2, 0x2, %o2
    0x100004250:            95 a2 88 cc  fsubd     %d10, %d12, %d10
    0x100004254:            85 a3 09 ca  fdivd     %d12, %d10, %d2
    0x100004258:            81 a8 8a c8  fcmped    %fcc0, %d2, %d8
    0x10000425c:            0d 4f ff 9a  fbg,pt    %fcc0, -0x198  <0x1000040c4>
    0x100004260:            80 a7 60 00  cmp       %i5, 0x0
    0x100004264:            81 a0 18 ca  fdtos     %d10, %f0
    0x100004268:            81 c7 e0 08  ret
    0x10000426c:            81 e8 20 00  restore   %g0, 0x0, %g0
    0x100004270:            30 00 00 00  illtrap   0x0
__1cTselectfeasible_fast6FpnGPoints_ppiiipnRpthread_barrier_t__i_()
    0x100004274:            9d e3 bf 20  save      %sp, -0xe0, %sp
    0x100004278:            a4 10 00 18  mov       %i0, %l2
    0x10000427c:            f0 06 20 04  ld        [%i0 + 0x4], %i0
    0x100004280:            f4 23 a8 cb  st        %i2, [%sp + 0x8cb]
    0x100004284:            dd 03 a8 cb  ld        [%sp + 0x8cb], %f14
    0x100004288:            81 a0 19 0e  fitod     %f14, %d0
    0x10000428c:            40 00 1f 4d  call      +0x7d34       <0x10000bfc0>
    0x100004290:            a2 10 00 19  mov       %i1, %l1
    0x100004294:            03 00 04 00  sethi     %hi(0x100000), %g1
    0x100004298:            b2 10 61 12  or        %g1, 0x112, %i1
    0x10000429c:            b9 2e 70 0c  sllx      %i1, 0xc, %i4
    0x1000042a0:            fa 07 25 1c  ld        [%i4 + 0x51c], %i5
    0x1000042a4:            f0 23 a8 c7  st        %i0, [%sp + 0x8c7]
    0x1000042a8:            c9 03 a8 c7  ld        [%sp + 0x8c7], %f4
    0x1000042ac:            ae 4f 40 1a  mulx      %i5, %i2, %l7
    0x1000042b0:            ee 23 a8 cf  st        %l7, [%sp + 0x8cf]
    0x1000042b4:            e1 03 a8 cf  ld        [%sp + 0x8cf], %f16
    0x1000042b8:            87 a0 19 04  fitod     %f4, %d34
    0x1000042bc:            83 a0 19 10  fitod     %f16, %d32
    0x1000042c0:            8f a0 49 40  fmuld     %d32, %d0, %d38
    0x1000042c4:            83 a8 ca c7  fcmped    %fcc1, %d34, %d38
    0x1000042c8:            1d 50 00 06  fbule,pn  %fcc1, +0x18   <0x1000042e0>
    0x1000042cc:            b1 3e 20 00  sra       %i0, 0x0, %i0
    0x1000042d0:            9b a0 1a 47  fdtoi     %d38, %f13
    0x1000042d4:            db 23 a8 c7  st        %f13, [%sp + 0x8c7]
    0x1000042d8:            f0 03 a8 c7  ld        [%sp + 0x8c7], %i0
    0x1000042dc:            b1 3e 20 00  sra       %i0, 0x0, %i0
    0x1000042e0:            40 04 36 88  call      +0x10da20     <0x100111d00>
    0x1000042e4:            91 2e 30 02  sllx      %i0, 0x2, %o0
    0x1000042e8:            d0 74 60 00  stx       %o0, [%l1]
    0x1000042ec:            e6 5c a0 00  ldx       [%l2], %l3
    0x1000042f0:            80 a6 00 13  cmp       %i0, %l3
    0x1000042f4:            12 60 00 2a  bne,pn    %xcc, +0xa8   <0x10000439c>
    0x1000042f8:            01 00 00 00  nop
    0x1000042fc:            04 c6 00 cd  brlez,pn  %i0, +0x334   <0x100004630>
    0x100004300:            a4 10 20 00  clr       %l2
    0x100004304:            80 a6 20 03  cmp       %i0, 0x3
    0x100004308:            ac 06 3f ff  add       %i0, -0x1, %l6
    0x10000430c:            9e 10 20 00  clr       %o7
    0x100004310:            98 10 20 00  clr       %o4
    0x100004314:            06 60 00 18  bl,pn     %xcc, +0x60   <0x100004374>
    0x100004318:            01 00 00 00  nop
    0x10000431c:            9e 10 20 01  mov       0x1, %o7
    0x100004320:            b2 06 3f fe  add       %i0, -0x2, %i1
    0x100004324:            d2 5c 60 00  ldx       [%l1], %o1
    0x100004328:            aa 10 20 04  mov       0x4, %l5
    0x10000432c:            a8 10 20 01  mov       0x1, %l4
    0x100004330:            c0 22 60 00  clr       [%o1]
    0x100004334:            9e 03 e0 02  add       %o7, 0x2, %o7
    0x100004338:            ca 5c 60 00  ldx       [%l1], %g5
    0x10000433c:            88 05 60 04  add       %l5, 0x4, %g4
    0x100004340:            80 a3 c0 19  cmp       %o7, %i1
    0x100004344:            e8 21 40 15  st        %l4, [%g5 + %l5]
    0x100004348:            84 05 20 01  add       %l4, 0x1, %g2
    0x10000434c:            c6 5c 60 00  ldx       [%l1], %g3
    0x100004350:            aa 05 60 08  add       %l5, 0x8, %l5
    0x100004354:            c4 20 c0 04  st        %g2, [%g3 + %g4]
    0x100004358:            04 6f ff f7  ble,pt    %xcc, -0x24   <0x100004334>
    0x10000435c:            a8 05 20 02  add       %l4, 0x2, %l4
    0x100004360:            80 a3 c0 16  cmp       %o7, %l6
    0x100004364:            a4 10 00 14  mov       %l4, %l2
    0x100004368:            98 10 00 15  mov       %l5, %o4
    0x10000436c:            14 60 00 0a  bg,pn     %xcc, +0x28   <0x100004394>
    0x100004370:            01 00 00 00  nop
    0x100004374:            9e 03 e0 01  add       %o7, 0x1, %o7
    0x100004378:            80 a3 c0 16  cmp       %o7, %l6
    0x10000437c:            da 5c 60 00  ldx       [%l1], %o5
    0x100004380:            e4 23 40 0c  st        %l2, [%o5 + %o4]
    0x100004384:            a4 04 a0 01  add       %l2, 0x1, %l2
    0x100004388:            98 03 20 04  add       %o4, 0x4, %o4
    0x10000438c:            04 6f ff fb  ble,pt    %xcc, -0x14   <0x100004378>
    0x100004390:            9e 03 e0 01  add       %o7, 0x1, %o7
    0x100004394:            81 c7 e0 08  ret
    0x100004398:            81 e8 20 00  restore   %g0, 0x0, %g0
    0x10000439c:            40 04 36 59  call      +0x10d964     <0x100111d00>
    0x1000043a0:            91 2c f0 02  sllx      %l3, 0x2, %o0
    0x1000043a4:            f4 5c a0 10  ldx       [%l2 + 0x10], %i2
    0x1000043a8:            a0 10 20 01  mov       0x1, %l0
    0x1000043ac:            f5 06 a0 00  ld        [%i2], %f26
    0x1000043b0:            f5 22 20 00  st        %f26, [%o0]
    0x1000043b4:            d2 5c a0 00  ldx       [%l2], %o1
    0x1000043b8:            80 a4 00 09  cmp       %l0, %o1
    0x1000043bc:            16 60 00 66  bge,pn    %xcc, +0x198  <0x100004554>
    0x1000043c0:            a6 10 00 08  mov       %o0, %l3
    0x1000043c4:            b6 02 7f ff  add       %o1, -0x1, %i3
    0x1000043c8:            80 a6 e0 11  cmp       %i3, 0x11
    0x1000043cc:            b8 10 20 01  mov       0x1, %i4
    0x1000043d0:            90 02 20 04  add       %o0, 0x4, %o0
    0x1000043d4:            96 10 20 20  mov       0x20, %o3
    0x1000043d8:            f9 04 e0 00  ld        [%l3], %f28
    0x1000043dc:            06 60 00 55  bl,pn     %xcc, +0x154  <0x100004530>
    0x1000043e0:            01 00 00 00  nop
    0x1000043e4:            c1 06 a0 20  ld        [%i2 + 0x20], %f0
    0x1000043e8:            ae 06 a1 40  add       %i2, 0x140, %l7
    0x1000043ec:            ba 04 e0 0c  add       %l3, 0xc, %i5
    0x1000043f0:            8f a7 08 20  fadds     %f28, %f0, %f7
    0x1000043f4:            cf 24 e0 04  st        %f7, [%l3 + 0x4]
    0x1000043f8:            cb 06 a0 40  ld        [%i2 + 0x40], %f5
    0x1000043fc:            d3 06 a0 60  ld        [%i2 + 0x60], %f9
    0x100004400:            df 06 a0 80  ld        [%i2 + 0x80], %f15
    0x100004404:            e1 06 a0 a0  ld        [%i2 + 0xa0], %f16
    0x100004408:            97 a1 48 20  fadds     %f5, %f0, %f11
    0x10000440c:            9b a2 48 25  fadds     %f9, %f5, %f13
    0x100004410:            c5 06 a1 20  ld        [%i2 + 0x120], %f2
    0x100004414:            cd 06 a1 00  ld        [%i2 + 0x100], %f6
    0x100004418:            dd 06 a0 e0  ld        [%i2 + 0xe0], %f14
    0x10000441c:            99 a3 c8 29  fadds     %f15, %f9, %f12
    0x100004420:            91 a7 08 2b  fadds     %f28, %f11, %f8
    0x100004424:            c9 06 a0 c0  ld        [%i2 + 0xc0], %f4
    0x100004428:            a5 a1 c8 2d  fadds     %f7, %f13, %f18
    0x10000442c:            b8 10 20 0a  mov       0xa, %i4
    0x100004430:            81 a4 08 2f  fadds     %f16, %f15, %f0
    0x100004434:            d1 24 e0 08  st        %f8, [%l3 + 0x8]
    0x100004438:            b2 02 7f f8  add       %o1, -0x8, %i1
    0x10000443c:            c1 6d e1 80  prefetch  [%l7 + 0x180], #n_reads
    0x100004440:            ed 6f 60 30  prefetch  [%i5 + 0x30], #n_writes_strong
    0x100004444:            b8 07 20 08  add       %i4, 0x8, %i4
    0x100004448:            fb 05 e0 00  ld        [%l7], %f29
    0x10000444c:            ae 05 e1 00  add       %l7, 0x100, %l7
    0x100004450:            a7 a1 08 30  fadds     %f4, %f16, %f19
    0x100004454:            e5 27 60 00  st        %f18, [%i5]
    0x100004458:            80 a7 00 19  cmp       %i4, %i1
    0x10000445c:            ba 07 60 20  add       %i5, 0x20, %i5
    0x100004460:            a3 a2 08 2c  fadds     %f8, %f12, %f17
    0x100004464:            af a3 88 24  fadds     %f14, %f4, %f23
    0x100004468:            d9 05 ff 20  ld        [%l7 - 0xe0], %f12
    0x10000446c:            e3 27 7f e4  st        %f17, [%i5 - 0x1c]
    0x100004470:            ab a4 88 20  fadds     %f18, %f0, %f21
    0x100004474:            b7 a1 88 2e  fadds     %f6, %f14, %f27
    0x100004478:            d5 05 ff 40  ld        [%l7 - 0xc0], %f10
    0x10000447c:            eb 27 7f e8  st        %f21, [%i5 - 0x18]
    0x100004480:            b3 a4 48 33  fadds     %f17, %f19, %f25
    0x100004484:            81 a0 88 26  fadds     %f2, %f6, %f0
    0x100004488:            e1 05 ff 60  ld        [%l7 - 0xa0], %f16
    0x10000448c:            f3 27 7f ec  st        %f25, [%i5 - 0x14]
    0x100004490:            bf a5 48 37  fadds     %f21, %f23, %f31
    0x100004494:            a5 a7 48 22  fadds     %f29, %f2, %f18
    0x100004498:            c9 05 ff 80  ld        [%l7 - 0x80], %f4
    0x10000449c:            ff 27 7f f0  st        %f31, [%i5 - 0x10]
    0x1000044a0:            85 a6 48 3b  fadds     %f25, %f27, %f2
    0x1000044a4:            ad a3 08 3d  fadds     %f12, %f29, %f22
    0x1000044a8:            dd 05 ff a0  ld        [%l7 - 0x60], %f14
    0x1000044ac:            c5 27 7f f4  st        %f2, [%i5 - 0xc]
    0x1000044b0:            a9 a7 c8 20  fadds     %f31, %f0, %f20
    0x1000044b4:            99 a2 88 2c  fadds     %f10, %f12, %f12
    0x1000044b8:            cd 05 ff c0  ld        [%l7 - 0x40], %f6
    0x1000044bc:            e9 27 7f f8  st        %f20, [%i5 - 0x8]
    0x1000044c0:            91 a0 88 32  fadds     %f2, %f18, %f8
    0x1000044c4:            81 a4 08 2a  fadds     %f16, %f10, %f0
    0x1000044c8:            c5 05 ff e0  ld        [%l7 - 0x20], %f2
    0x1000044cc:            d1 27 7f fc  st        %f8, [%i5 - 0x4]
    0x1000044d0:            04 6f ff db  ble,pt    %xcc, -0x94   <0x10000443c>
    0x1000044d4:            a5 a5 08 36  fadds     %f20, %f22, %f18
    0x1000044d8:            b1 a4 88 20  fadds     %f18, %f0, %f24
    0x1000044dc:            ad a2 08 2c  fadds     %f8, %f12, %f22
    0x1000044e0:            95 a3 88 24  fadds     %f14, %f4, %f10
    0x1000044e4:            e5 27 60 00  st        %f18, [%i5]
    0x1000044e8:            a9 a1 08 30  fadds     %f4, %f16, %f20
    0x1000044ec:            ed 27 60 04  st        %f22, [%i5 + 0x4]
    0x1000044f0:            b9 a0 88 26  fadds     %f2, %f6, %f28
    0x1000044f4:            83 a1 88 2e  fadds     %f6, %f14, %f1
    0x1000044f8:            f1 27 60 08  st        %f24, [%i5 + 0x8]
    0x1000044fc:            b5 a6 08 2a  fadds     %f24, %f10, %f26
    0x100004500:            80 a7 00 1b  cmp       %i4, %i3
    0x100004504:            f5 27 60 10  st        %f26, [%i5 + 0x10]
    0x100004508:            bd a5 88 34  fadds     %f22, %f20, %f30
    0x10000450c:            fd 27 60 0c  st        %f30, [%i5 + 0xc]
    0x100004510:            90 07 60 1c  add       %i5, 0x1c, %o0
    0x100004514:            b9 a6 88 3c  fadds     %f26, %f28, %f28
    0x100004518:            f9 27 60 18  st        %f28, [%i5 + 0x18]
    0x10000451c:            96 25 c0 1a  sub       %l7, %i2, %o3
    0x100004520:            87 a7 88 21  fadds     %f30, %f1, %f3
    0x100004524:            c7 27 60 14  st        %f3, [%i5 + 0x14]
    0x100004528:            14 60 00 0b  bg,pn     %xcc, +0x2c   <0x100004554>
    0x10000452c:            01 00 00 00  nop
    0x100004530:            b8 07 20 01  add       %i4, 0x1, %i4
    0x100004534:            80 a7 00 1b  cmp       %i4, %i3
    0x100004538:            f1 02 c0 1a  ld        [%o3 + %i2], %f24
    0x10000453c:            96 02 e0 20  add       %o3, 0x20, %o3
    0x100004540:            b9 a7 08 38  fadds     %f28, %f24, %f28
    0x100004544:            f9 22 20 00  st        %f28, [%o0]
    0x100004548:            90 02 20 04  add       %o0, 0x4, %o0
    0x10000454c:            04 6f ff fa  ble,pt    %xcc, -0x18   <0x100004534>
    0x100004550:            b8 07 20 01  add       %i4, 0x1, %i4
    0x100004554:            04 c6 00 35  brlez,pn  %i0, +0xd4    <0x100004628>
    0x100004558:            b7 2a 70 02  sllx      %o1, 0x2, %i3
    0x10000455c:            2b 00 04 00  sethi     %hi(0x100000), %l5
    0x100004560:            a8 15 60 04  or        %l5, 0x4, %l4
    0x100004564:            ac 04 c0 1b  add       %l3, %i3, %l6
    0x100004568:            9f 2d 30 0c  sllx      %l4, 0xc, %o7
    0x10000456c:            d1 05 bf fc  ld        [%l6 - 0x4], %f8
    0x100004570:            cd 03 e2 70  ld        [%o7 + 0x270], %f6
    0x100004574:            c3 04 e0 00  ld        [%l3], %f1
    0x100004578:            b8 06 3f ff  add       %i0, -0x1, %i4
    0x10000457c:            ba 10 20 00  clr       %i5
    0x100004580:            8b a2 09 26  fmuls     %f8, %f6, %f5
    0x100004584:            c3 23 a8 c7  st        %f1, [%sp + 0x8c7]
    0x100004588:            b4 10 20 00  clr       %i2
    0x10000458c:            40 04 35 d5  call      +0x10d754     <0x100111ce0>
    0x100004590:            cb 23 a8 cb  st        %f5, [%sp + 0x8cb]
    0x100004594:            d0 73 a8 bf  stx       %o0, [%sp + 0x8bf]
    0x100004598:            cb 1b a8 bf  ldd       [%sp + 0x8bf], %d36
    0x10000459c:            cb 03 a8 cb  ld        [%sp + 0x8cb], %f5
    0x1000045a0:            c3 03 a8 c7  ld        [%sp + 0x8c7], %f1
    0x1000045a4:            87 a0 10 85  fxtos     %d36, %f3
    0x1000045a8:            97 a0 c9 25  fmuls     %f3, %f5, %f11
    0x1000045ac:            85 a8 4a ab  fcmpes    %fcc2, %f1, %f11
    0x1000045b0:            2d 60 00 18  fbg,a,pn  %fcc2, +0x60   <0x100004610>
    0x1000045b4:            ea 5c 60 00  ldx       [%l1], %l5
    0x1000045b8:            f6 04 a0 04  ld        [%l2 + 0x4], %i3
    0x1000045bc:            ac 06 ff ff  add       %i3, -0x1, %l6
    0x1000045c0:            80 a5 a0 01  cmp       %l6, 0x1
    0x1000045c4:            04 40 00 0f  ble,pn    %icc, +0x3c   <0x100004600>
    0x1000045c8:            ae 10 20 00  clr       %l7
    0x1000045cc:            88 05 c0 16  add       %l7, %l6, %g4
    0x1000045d0:            8b 31 20 1f  srl       %g4, 0x1f, %g5
    0x1000045d4:            86 01 00 05  add       %g4, %g5, %g3
    0x1000045d8:            83 38 e0 01  sra       %g3, 0x1, %g1
    0x1000045dc:            85 28 70 02  sllx      %g1, 0x2, %g2
    0x1000045e0:            fd 00 80 13  ld        [%g2 + %l3], %f30
    0x1000045e4:            87 af 8a ab  fcmpes    %fcc3, %f30, %f11
    0x1000045e8:            af 63 98 01  movule    %fcc3, %g1, %l7
    0x1000045ec:            ad 61 98 01  movg      %fcc3, %g1, %l6
    0x1000045f0:            b2 05 e0 01  add       %l7, 0x1, %i1
    0x1000045f4:            80 a6 40 16  cmp       %i1, %l6
    0x1000045f8:            06 4f ff f6  bl,pt     %icc, -0x28   <0x1000045d0>
    0x1000045fc:            88 05 c0 16  add       %l7, %l6, %g4
    0x100004600:            d4 5c 60 00  ldx       [%l1], %o2
    0x100004604:            ec 22 80 1a  st        %l6, [%o2 + %i2]
    0x100004608:            10 80 00 04  ba        +0x10         <0x100004618>
    0x10000460c:            ba 07 60 01  add       %i5, 0x1, %i5
    0x100004610:            c0 25 40 1a  clr       [%l5 + %i2]
    0x100004614:            ba 07 60 01  add       %i5, 0x1, %i5
    0x100004618:            80 a7 40 1c  cmp       %i5, %i4
    0x10000461c:            b4 06 a0 04  add       %i2, 0x4, %i2
    0x100004620:            24 6f ff db  ble,a,pt  %xcc, -0x94   <0x10000458c>
    0x100004624:            c3 23 a8 c7  st        %f1, [%sp + 0x8c7]
    0x100004628:            40 04 35 be  call      +0x10d6f8     <0x100111d20>
    0x10000462c:            90 10 00 13  mov       %l3, %o0
    0x100004630:            81 c7 e0 08  ret
    0x100004634:            81 e8 20 00  restore   %g0, 0x0, %g0
    0x100004638:            00 00 00 00  illtrap   0x0
    0x10000463c:            3f 80 00 00  fbo,a     +0x0          <0x10000463c>
    0x100004640:            00 00 00 00  illtrap   0x0
    0x100004644:            00 00 00 00  illtrap   0x0
    0x100004648:            3f e0 00 00  0x3fe00000
    0x10000464c:            00 00 00 00  illtrap   0x0
    0x100004650:            30 00 00 00  illtrap   0x0
    0x100004654:            00 00 00 00  illtrap   0x0
    0x100004658:            3f f1 99 99  0x3ff19999
    0x10000465c:            99 99 99 9a  0x9999999a
    0x100004660:            3f b9 99 99  fbo,a     -0x19999c     <0xffe6acc4>
    0x100004664:            a0 00 00 00  add       %g0, %g0, %l0
    0x100004668:            3f ec cc cc  0x3feccccc
    0x10000466c:            cc cc cc cd  ldsba     [%l3 + %o5] 0x66, %g6
    0x100004670:            3f 50 62 4d  fbo,a,pn  %fcc1, +0x18934 <0x10001cfa4>
    0x100004674:            e0 00 00 00  ld        [%g0], %l0
    0x100004678:            3f ef f7 ce  0x3feff7ce
    0x10000467c:            d9 16 87 2b  ldq       [%i2 + %o3], %f12
__1cIpkmedian6FpnGPoints_llplipnRpthread_barrier_t__f_()
    0x100004680:            9d e3 be 00  save      %sp, -0x200, %sp
    0x100004684:            b9 3f 20 00  sra       %i4, 0x0, %i4
    0x100004688:            80 a7 20 00  cmp       %i4, 0x0
    0x10000468c:            f6 73 a8 af  stx       %i3, [%sp + 0x8af]
    0x100004690:            37 00 04 00  sethi     %hi(0x100000), %i3
    0x100004694:            f4 73 a8 bf  stx       %i2, [%sp + 0x8bf]
    0x100004698:            b4 16 e1 12  or        %i3, 0x112, %i2
    0x10000469c:            a1 2e b0 0c  sllx      %i2, 0xc, %l0
    0x1000046a0:            b6 04 25 30  add       %l0, 0x530, %i3
    0x1000046a4:            f2 73 a8 b7  stx       %i1, [%sp + 0x8b7]
    0x1000046a8:            b2 10 00 18  mov       %i0, %i1
    0x1000046ac:            d8 06 ff e8  ld        [%i3 - 0x18], %o4
    0x1000046b0:            12 40 00 07  bne,pn    %icc, +0x1c   <0x1000046cc>
    0x1000046b4:            b5 2f 30 03  sllx      %i4, 0x3, %i2
    0x1000046b8:            92 10 20 08  mov       0x8, %o1
    0x1000046bc:            40 04 35 a9  call      +0x10d6a4     <0x100111d60>
    0x1000046c0:            91 3b 20 00  sra       %o4, 0x0, %o0
    0x1000046c4:            d8 06 ff e8  ld        [%i3 - 0x18], %o4
    0x1000046c8:            d0 76 e0 38  stx       %o0, [%i3 + 0x38]
    0x1000046cc:            e2 5e 20 00  ldx       [%i0], %l1
    0x1000046d0:            f4 73 a8 cf  stx       %i2, [%sp + 0x8cf]
    0x1000046d4:            9b 3b 20 00  sra       %o4, 0x0, %o5
    0x1000046d8:            83 6c 40 0d  sdivx     %l1, %o5, %g1
    0x1000046dc:            a4 48 40 1c  mulx      %g1, %i4, %l2
    0x1000046e0:            88 03 3f ff  add       %o4, -0x1, %g4
    0x1000046e4:            07 00 04 00  sethi     %hi(0x100000), %g3
    0x1000046e8:            94 04 80 01  add       %l2, %g1, %o2
    0x1000046ec:            84 10 e0 04  or        %g3, 0x4, %g2
    0x1000046f0:            80 a7 00 04  cmp       %i4, %g4
    0x1000046f4:            97 28 b0 0c  sllx      %g2, 0xc, %o3
    0x1000046f8:            95 64 40 11  move      %icc, %l1, %o2
    0x1000046fc:            ff 1a e6 40  ldd       [%o3 + 0x640], %d62
    0x100004700:            80 a4 80 0a  cmp       %l2, %o2
    0x100004704:            d6 73 a8 c7  stx       %o3, [%sp + 0x8c7]
    0x100004708:            16 60 00 a4  bge,pn    %xcc, +0x290  <0x100004998>
    0x10000470c:            b4 02 e6 40  add       %o3, 0x640, %i2
    0x100004710:            ab 2c b0 05  sllx      %l2, 0x5, %l5
    0x100004714:            ee 06 20 08  ld        [%i0 + 0x8], %l7
    0x100004718:            84 10 00 12  mov       %l2, %g2
    0x10000471c:            ac 02 bf ff  add       %o2, -0x1, %l6
    0x100004720:            d8 5e 20 10  ldx       [%i0 + 0x10], %o4
    0x100004724:            a2 05 ff ff  add       %l7, -0x1, %l1
    0x100004728:            80 a5 e0 00  cmp       %l7, 0x0
    0x10000472c:            c6 5b 20 08  ldx       [%o4 + 0x8], %g3
    0x100004730:            8a 05 40 0c  add       %l5, %o4, %g5
    0x100004734:            03 00 04 00  sethi     %hi(0x100000), %g1
    0x100004738:            98 10 60 04  or        %g1, 0x4, %o4
    0x10000473c:            d0 59 60 08  ldx       [%g5 + 0x8], %o0
    0x100004740:            97 2b 30 0c  sllx      %o4, 0xc, %o3
    0x100004744:            e1 02 e6 38  ld        [%o3 + 0x638], %f16
    0x100004748:            04 40 00 76  ble,pn    %icc, +0x1d8  <0x100004920>
    0x10000474c:            92 10 20 00  clr       %o1
    0x100004750:            80 a5 e0 11  cmp       %l7, 0x11
    0x100004754:            a6 10 00 03  mov       %g3, %l3
    0x100004758:            06 40 00 67  bl,pn     %icc, +0x19c  <0x1000048f4>
    0x10000475c:            01 00 00 00  nop
    0x100004760:            f1 02 20 00  ld        [%o0], %f24
    0x100004764:            e7 02 20 0c  ld        [%o0 + 0xc], %f19
    0x100004768:            d7 02 20 04  ld        [%o0 + 0x4], %f11
    0x10000476c:            d3 00 e0 04  ld        [%g3 + 0x4], %f9
    0x100004770:            cd 00 e0 00  ld        [%g3], %f6
    0x100004774:            c1 02 20 20  ld        [%o0 + 0x20], %f0
    0x100004778:            d5 02 20 10  ld        [%o0 + 0x10], %f10
    0x10000477c:            e5 02 20 08  ld        [%o0 + 0x8], %f18
    0x100004780:            dd 00 e0 08  ld        [%g3 + 0x8], %f14
    0x100004784:            e3 00 e0 0c  ld        [%g3 + 0xc], %f17
    0x100004788:            cf 00 e0 10  ld        [%g3 + 0x10], %f7
    0x10000478c:            db 02 20 14  ld        [%o0 + 0x14], %f13
    0x100004790:            f7 00 e0 14  ld        [%g3 + 0x14], %f27
    0x100004794:            f9 02 20 1c  ld        [%o0 + 0x1c], %f28
    0x100004798:            87 a2 c8 a9  fsubs     %f11, %f9, %f3
    0x10000479c:            fd 00 e0 18  ld        [%g3 + 0x18], %f30
    0x1000047a0:            9f a6 08 a6  fsubs     %f24, %f6, %f15
    0x1000047a4:            e9 00 e0 1c  ld        [%g3 + 0x1c], %f20
    0x1000047a8:            af a4 88 ae  fsubs     %f18, %f14, %f23
    0x1000047ac:            8b a4 c8 b1  fsubs     %f19, %f17, %f5
    0x1000047b0:            d9 00 e0 20  ld        [%g3 + 0x20], %f12
    0x1000047b4:            b5 a0 c9 23  fmuls     %f3, %f3, %f26
    0x1000047b8:            d1 00 e0 24  ld        [%g3 + 0x24], %f8
    0x1000047bc:            b3 a3 c9 2f  fmuls     %f15, %f15, %f25
    0x1000047c0:            ab 2b 30 0c  sllx      %o4, 0xc, %l5
    0x1000047c4:            9d a2 88 a7  fsubs     %f10, %f7, %f14
    0x1000047c8:            90 02 20 2c  add       %o0, 0x2c, %o0
    0x1000047cc:            cd 02 3f fc  ld        [%o0 - 0x4], %f6
    0x1000047d0:            89 a4 08 3a  fadds     %f16, %f26, %f4
    0x1000047d4:            e1 05 66 38  ld        [%l5 + 0x638], %f16
    0x1000047d8:            83 a3 48 bb  fsubs     %f13, %f27, %f1
    0x1000047dc:            ad a5 c9 37  fmuls     %f23, %f23, %f22
    0x1000047e0:            d5 02 3f ec  ld        [%o0 - 0x14], %f10
    0x1000047e4:            a6 00 e0 28  add       %g3, 0x28, %l3
    0x1000047e8:            92 10 20 0b  mov       0xb, %o1
    0x1000047ec:            85 a1 49 25  fmuls     %f5, %f5, %f2
    0x1000047f0:            b1 a4 08 39  fadds     %f16, %f25, %f24
    0x1000047f4:            f5 02 3f f8  ld        [%o0 - 0x8], %f26
    0x1000047f8:            82 05 ff fa  add       %l7, -0x6, %g1
    0x1000047fc:            92 02 60 06  add       %o1, 0x6, %o1
    0x100004800:            90 02 20 18  add       %o0, 0x18, %o0
    0x100004804:            d3 04 e0 00  ld        [%l3], %f9
    0x100004808:            bf a2 88 be  fsubs     %f10, %f30, %f31
    0x10000480c:            ab a6 08 36  fadds     %f24, %f22, %f21
    0x100004810:            80 a2 40 01  cmp       %o1, %g1
    0x100004814:            e5 02 3f e8  ld        [%o0 - 0x18], %f18
    0x100004818:            bb a3 89 2e  fmuls     %f14, %f14, %f29
    0x10000481c:            ad a7 08 b4  fsubs     %f28, %f20, %f22
    0x100004820:            e3 04 e0 04  ld        [%l3 + 0x4], %f17
    0x100004824:            a6 04 e0 18  add       %l3, 0x18, %l3
    0x100004828:            85 a1 08 22  fadds     %f4, %f2, %f2
    0x10000482c:            83 a0 49 21  fmuls     %f1, %f1, %f1
    0x100004830:            d5 02 3f ec  ld        [%o0 - 0x14], %f10
    0x100004834:            a7 a0 08 ac  fsubs     %f0, %f12, %f19
    0x100004838:            fd 04 ff f0  ld        [%l3 - 0x10], %f30
    0x10000483c:            b1 a5 48 3d  fadds     %f21, %f29, %f24
    0x100004840:            97 a7 c9 3f  fmuls     %f31, %f31, %f11
    0x100004844:            f9 02 3f f0  ld        [%o0 - 0x10], %f28
    0x100004848:            b7 a6 88 a8  fsubs     %f26, %f8, %f27
    0x10000484c:            e9 04 ff f4  ld        [%l3 - 0xc], %f20
    0x100004850:            8f a0 88 21  fadds     %f2, %f1, %f7
    0x100004854:            89 a5 89 36  fmuls     %f22, %f22, %f4
    0x100004858:            c1 02 3f f4  ld        [%o0 - 0xc], %f0
    0x10000485c:            9d a1 88 a9  fsubs     %f6, %f9, %f14
    0x100004860:            d9 04 ff f8  ld        [%l3 - 0x8], %f12
    0x100004864:            b1 a6 08 2b  fadds     %f24, %f11, %f24
    0x100004868:            ad a4 c9 33  fmuls     %f19, %f19, %f22
    0x10000486c:            f5 02 3f f8  ld        [%o0 - 0x8], %f26
    0x100004870:            83 a4 88 b1  fsubs     %f18, %f17, %f1
    0x100004874:            d1 04 ff fc  ld        [%l3 - 0x4], %f8
    0x100004878:            89 a1 c8 24  fadds     %f7, %f4, %f4
    0x10000487c:            cd 02 3f fc  ld        [%o0 - 0x4], %f6
    0x100004880:            04 4f ff df  ble,pt    %icc, -0x84   <0x1000047fc>
    0x100004884:            85 a6 c9 3b  fmuls     %f27, %f27, %f2
    0x100004888:            a5 a2 88 be  fsubs     %f10, %f30, %f18
    0x10000488c:            87 a6 08 36  fadds     %f24, %f22, %f3
    0x100004890:            a3 a3 89 2e  fmuls     %f14, %f14, %f17
    0x100004894:            8b a7 08 b4  fsubs     %f28, %f20, %f5
    0x100004898:            9b a1 08 22  fadds     %f4, %f2, %f13
    0x10000489c:            a7 a0 08 ac  fsubs     %f0, %f12, %f19
    0x1000048a0:            b9 a0 49 21  fmuls     %f1, %f1, %f28
    0x1000048a4:            af a4 89 32  fmuls     %f18, %f18, %f23
    0x1000048a8:            bd a0 c8 31  fadds     %f3, %f17, %f30
    0x1000048ac:            f7 04 e0 00  ld        [%l3], %f27
    0x1000048b0:            b5 a6 88 a8  fsubs     %f26, %f8, %f26
    0x1000048b4:            91 a4 c9 33  fmuls     %f19, %f19, %f8
    0x1000048b8:            81 a1 88 bb  fsubs     %f6, %f27, %f0
    0x1000048bc:            b3 a1 49 25  fmuls     %f5, %f5, %f25
    0x1000048c0:            83 a3 48 3c  fadds     %f13, %f28, %f1
    0x1000048c4:            ab a7 88 37  fadds     %f30, %f23, %f21
    0x1000048c8:            bb a6 89 3a  fmuls     %f26, %f26, %f29
    0x1000048cc:            80 a2 40 11  cmp       %o1, %l1
    0x1000048d0:            85 a0 09 20  fmuls     %f0, %f0, %f2
    0x1000048d4:            a6 04 e0 04  add       %l3, 0x4, %l3
    0x1000048d8:            a9 a0 48 39  fadds     %f1, %f25, %f20
    0x1000048dc:            bf a5 48 28  fadds     %f21, %f8, %f31
    0x1000048e0:            89 a5 08 3d  fadds     %f20, %f29, %f4
    0x1000048e4:            ad a7 c8 22  fadds     %f31, %f2, %f22
    0x1000048e8:            a1 a1 08 36  fadds     %f4, %f22, %f16
    0x1000048ec:            14 40 00 0d  bg,pn     %icc, +0x34   <0x100004920>
    0x1000048f0:            01 00 00 00  nop
    0x1000048f4:            cf 04 e0 00  ld        [%l3], %f7
    0x1000048f8:            f1 02 20 00  ld        [%o0], %f24
    0x1000048fc:            92 02 60 01  add       %o1, 0x1, %o1
    0x100004900:            80 a2 40 11  cmp       %o1, %l1
    0x100004904:            b9 a6 08 a7  fsubs     %f24, %f7, %f28
    0x100004908:            a6 04 e0 04  add       %l3, 0x4, %l3
    0x10000490c:            90 02 20 04  add       %o0, 0x4, %o0
    0x100004910:            9b a7 09 3c  fmuls     %f28, %f28, %f13
    0x100004914:            a1 a4 08 2d  fadds     %f16, %f13, %f16
    0x100004918:            24 4f ff f8  ble,a,pt  %icc, -0x20   <0x1000048f8>
    0x10000491c:            cf 04 e0 00  ld        [%l3], %f7
    0x100004920:            c7 01 60 00  ld        [%g5], %f3
    0x100004924:            84 00 a0 01  add       %g2, 0x1, %g2
    0x100004928:            80 a0 80 16  cmp       %g2, %l6
    0x10000492c:            99 a4 09 23  fmuls     %f16, %f3, %f12
    0x100004930:            8a 01 60 20  add       %g5, 0x20, %g5
    0x100004934:            97 a0 19 2c  fstod     %f12, %d42
    0x100004938:            bf a7 c8 4b  faddd     %d62, %d42, %d62
    0x10000493c:            04 6f ff 7e  ble,pt    %xcc, -0x208  <0x100004734>
    0x100004940:            80 a5 e0 00  cmp       %l7, 0x0
    0x100004944:            e8 5e e0 38  ldx       [%i3 + 0x38], %l4
    0x100004948:            e6 5b a8 cf  ldx       [%sp + 0x8cf], %l3
    0x10000494c:            ff 3d 00 13  std       %d62, [%l4 + %l3]
    0x100004950:            d0 06 ff e8  ld        [%i3 - 0x18], %o0
    0x100004954:            80 a2 20 00  cmp       %o0, 0x0
    0x100004958:            04 40 00 07  ble,pn    %icc, +0x1c   <0x100004974>
    0x10000495c:            88 02 3f ff  add       %o0, -0x1, %g4
    0x100004960:            e2 5b a8 c7  ldx       [%sp + 0x8c7], %l1
    0x100004964:            84 10 20 00  clr       %g2
    0x100004968:            d7 1c 66 40  ldd       [%l1 + 0x640], %d42
    0x10000496c:            10 80 00 17  ba        +0x5c         <0x1000049c8>
    0x100004970:            ca 5e e0 38  ldx       [%i3 + 0x38], %g5
    0x100004974:            e2 5e 60 00  ldx       [%i1], %l1
    0x100004978:            ea 5b a8 bf  ldx       [%sp + 0x8bf], %l5
    0x10000497c:            80 a4 40 15  cmp       %l1, %l5
    0x100004980:            04 60 00 6a  ble,pn    %xcc, +0x1a8  <0x100004b28>
    0x100004984:            ee 5b a8 c7  ldx       [%sp + 0x8c7], %l7
    0x100004988:            cb 1d e6 40  ldd       [%l7 + 0x640], %d36
    0x10000498c:            d7 1d e6 40  ldd       [%l7 + 0x640], %d42
    0x100004990:            10 80 00 9f  ba        +0x27c        <0x100004c0c>
    0x100004994:            80 a7 20 00  cmp       %i4, 0x0
    0x100004998:            d0 5e e0 38  ldx       [%i3 + 0x38], %o0
    0x10000499c:            c2 5b a8 cf  ldx       [%sp + 0x8cf], %g1
    0x1000049a0:            ff 3a 00 01  std       %d62, [%o0 + %g1]
    0x1000049a4:            de 06 ff e8  ld        [%i3 - 0x18], %o7
    0x1000049a8:            80 a3 e0 00  cmp       %o7, 0x0
    0x1000049ac:            24 48 00 91  ble,a,pt  %icc, +0x244  <0x100004bf0>
    0x1000049b0:            d6 5e 20 00  ldx       [%i0], %o3
    0x1000049b4:            ca 5e e0 38  ldx       [%i3 + 0x38], %g5
    0x1000049b8:            88 03 ff ff  add       %o7, -0x1, %g4
    0x1000049bc:            84 10 20 00  clr       %g2
    0x1000049c0:            d7 1a e6 40  ldd       [%o3 + 0x640], %d42
    0x1000049c4:            ac 02 bf ff  add       %o2, -0x1, %l6
    0x1000049c8:            96 01 20 01  add       %g4, 0x1, %o3
    0x1000049cc:            80 a2 e0 18  cmp       %o3, 0x18
    0x1000049d0:            06 40 00 44  bl,pn     %icc, +0x110  <0x100004ae0>
    0x1000049d4:            01 00 00 00  nop
    0x1000049d8:            fb 19 60 00  ldd       [%g5], %d60
    0x1000049dc:            ff 19 60 08  ldd       [%g5 + 0x8], %d62
    0x1000049e0:            db 19 60 20  ldd       [%g5 + 0x20], %d44
    0x1000049e4:            cf 19 60 10  ldd       [%g5 + 0x10], %d38
    0x1000049e8:            c3 19 60 58  ldd       [%g5 + 0x58], %d32
    0x1000049ec:            f3 19 60 50  ldd       [%g5 + 0x50], %d56
    0x1000049f0:            eb 19 60 40  ldd       [%g5 + 0x40], %d52
    0x1000049f4:            ef 19 60 18  ldd       [%g5 + 0x18], %d54
    0x1000049f8:            23 00 04 00  sethi     %hi(0x100000), %l1
    0x1000049fc:            e7 19 60 38  ldd       [%g5 + 0x38], %d50
    0x100004a00:            a8 14 60 04  or        %l1, 0x4, %l4
    0x100004a04:            ab 2d 30 0c  sllx      %l4, 0xc, %l5
    0x100004a08:            d3 1d 66 40  ldd       [%l5 + 0x640], %d40
    0x100004a0c:            e3 19 60 30  ldd       [%g5 + 0x30], %d48
    0x100004a10:            df 19 60 28  ldd       [%g5 + 0x28], %d46
    0x100004a14:            b7 a2 48 5d  faddd     %d40, %d60, %d58
    0x100004a18:            87 a2 48 5f  faddd     %d40, %d62, %d34
    0x100004a1c:            8a 01 60 60  add       %g5, 0x60, %g5
    0x100004a20:            97 a2 c8 57  faddd     %d42, %d54, %d42
    0x100004a24:            84 10 20 0c  mov       0xc, %g2
    0x100004a28:            93 a2 48 47  faddd     %d40, %d38, %d40
    0x100004a2c:            ef 19 7f e8  ldd       [%g5 - 0x18], %d54
    0x100004a30:            92 21 20 0b  sub       %g4, 0xb, %o1
    0x100004a34:            c1 69 61 30  prefetch  [%g5 + 0x130], #n_reads
    0x100004a38:            84 00 a0 0c  add       %g2, 0xc, %g2
    0x100004a3c:            cf 19 60 00  ldd       [%g5], %d38
    0x100004a40:            8a 01 60 60  add       %g5, 0x60, %g5
    0x100004a44:            b7 a6 c8 4d  faddd     %d58, %d44, %d58
    0x100004a48:            87 a0 c8 4f  faddd     %d34, %d46, %d34
    0x100004a4c:            80 a0 80 09  cmp       %g2, %o1
    0x100004a50:            cb 19 7f a8  ldd       [%g5 - 0x58], %d36
    0x100004a54:            a3 a2 48 51  faddd     %d40, %d48, %d48
    0x100004a58:            fb 19 7f b0  ldd       [%g5 - 0x50], %d60
    0x100004a5c:            a7 a2 c8 53  faddd     %d42, %d50, %d50
    0x100004a60:            d7 19 7f b8  ldd       [%g5 - 0x48], %d42
    0x100004a64:            ab a6 c8 55  faddd     %d58, %d52, %d52
    0x100004a68:            db 19 7f c0  ldd       [%g5 - 0x40], %d44
    0x100004a6c:            af a0 c8 57  faddd     %d34, %d54, %d54
    0x100004a70:            df 19 7f c8  ldd       [%g5 - 0x38], %d46
    0x100004a74:            b3 a4 48 59  faddd     %d48, %d56, %d56
    0x100004a78:            e3 19 7f d0  ldd       [%g5 - 0x30], %d48
    0x100004a7c:            83 a4 c8 41  faddd     %d50, %d32, %d32
    0x100004a80:            e7 19 7f d8  ldd       [%g5 - 0x28], %d50
    0x100004a84:            b7 a5 48 47  faddd     %d52, %d38, %d58
    0x100004a88:            eb 19 7f e0  ldd       [%g5 - 0x20], %d52
    0x100004a8c:            87 a5 c8 45  faddd     %d54, %d36, %d34
    0x100004a90:            ef 19 7f e8  ldd       [%g5 - 0x18], %d54
    0x100004a94:            93 a6 48 5d  faddd     %d56, %d60, %d40
    0x100004a98:            f3 19 7f f0  ldd       [%g5 - 0x10], %d56
    0x100004a9c:            97 a0 48 4b  faddd     %d32, %d42, %d42
    0x100004aa0:            04 4f ff e5  ble,pt    %icc, -0x6c   <0x100004a34>
    0x100004aa4:            c3 19 7f f8  ldd       [%g5 - 0x8], %d32
    0x100004aa8:            8b a0 c8 4f  faddd     %d34, %d46, %d36
    0x100004aac:            87 a6 c8 4d  faddd     %d58, %d44, %d34
    0x100004ab0:            97 a2 c8 53  faddd     %d42, %d50, %d42
    0x100004ab4:            b7 a2 48 51  faddd     %d40, %d48, %d58
    0x100004ab8:            80 a0 80 04  cmp       %g2, %g4
    0x100004abc:            9f a1 48 57  faddd     %d36, %d54, %d46
    0x100004ac0:            9b a0 c8 55  faddd     %d34, %d52, %d44
    0x100004ac4:            83 a2 c8 41  faddd     %d42, %d32, %d32
    0x100004ac8:            a7 a6 c8 59  faddd     %d58, %d56, %d50
    0x100004acc:            a3 a3 48 4f  faddd     %d44, %d46, %d48
    0x100004ad0:            ab a4 48 53  faddd     %d48, %d50, %d52
    0x100004ad4:            97 a5 48 41  faddd     %d52, %d32, %d42
    0x100004ad8:            14 40 00 09  bg,pn     %icc, +0x24   <0x100004afc>
    0x100004adc:            01 00 00 00  nop
    0x100004ae0:            84 00 a0 01  add       %g2, 0x1, %g2
    0x100004ae4:            80 a0 80 04  cmp       %g2, %g4
    0x100004ae8:            cb 19 60 00  ldd       [%g5], %d36
    0x100004aec:            8a 01 60 08  add       %g5, 0x8, %g5
    0x100004af0:            97 a2 c8 45  faddd     %d42, %d36, %d42
    0x100004af4:            04 4f ff fc  ble,pt    %icc, -0x10   <0x100004ae4>
    0x100004af8:            84 00 a0 01  add       %g2, 0x1, %g2
    0x100004afc:            e6 5e 60 00  ldx       [%i1], %l3
    0x100004b00:            ee 5b a8 bf  ldx       [%sp + 0x8bf], %l7
    0x100004b04:            80 a4 c0 17  cmp       %l3, %l7
    0x100004b08:            04 60 00 05  ble,pn    %xcc, +0x14   <0x100004b1c>
    0x100004b0c:            f7 1e a0 08  ldd       [%i2 + 0x8], %d58
    0x100004b10:            8b a2 c9 5b  fmuld     %d42, %d58, %d36
    0x100004b14:            10 80 00 3e  ba        +0xf8         <0x100004c0c>
    0x100004b18:            80 a7 20 00  cmp       %i4, 0x0
    0x100004b1c:            80 a4 80 0a  cmp       %l2, %o2
    0x100004b20:            16 60 08 88  bge,pn    %xcc, +0x2220 <0x100006d40>
    0x100004b24:            80 a7 20 00  cmp       %i4, 0x0
    0x100004b28:            92 25 80 12  sub       %l6, %l2, %o1
    0x100004b2c:            90 02 60 01  add       %o1, 0x1, %o0
    0x100004b30:            80 a2 20 03  cmp       %o0, 0x3
    0x100004b34:            a1 2c b0 05  sllx      %l2, 0x5, %l0
    0x100004b38:            06 60 00 21  bl,pn     %xcc, +0x84   <0x100004bbc>
    0x100004b3c:            01 00 00 00  nop
    0x100004b40:            fa 5e 60 10  ldx       [%i1 + 0x10], %i5
    0x100004b44:            86 04 20 20  add       %l0, 0x20, %g3
    0x100004b48:            90 02 bf fe  add       %o2, -0x2, %o0
    0x100004b4c:            b4 04 00 1d  add       %l0, %i5, %i2
    0x100004b50:            e4 76 a0 10  stx       %l2, [%i2 + 0x10]
    0x100004b54:            e2 5e 60 10  ldx       [%i1 + 0x10], %l1
    0x100004b58:            a4 04 a0 01  add       %l2, 0x1, %l2
    0x100004b5c:            a0 04 00 11  add       %l0, %l1, %l0
    0x100004b60:            c0 24 20 18  clr       [%l0 + 0x18]
    0x100004b64:            ca 5e 60 10  ldx       [%i1 + 0x10], %g5
    0x100004b68:            94 00 c0 05  add       %g3, %g5, %o2
    0x100004b6c:            e4 72 a0 10  stx       %l2, [%o2 + 0x10]
    0x100004b70:            e6 5e 60 10  ldx       [%i1 + 0x10], %l3
    0x100004b74:            9a 00 e0 20  add       %g3, 0x20, %o5
    0x100004b78:            ae 00 c0 13  add       %g3, %l3, %l7
    0x100004b7c:            84 04 a0 01  add       %l2, 0x1, %g2
    0x100004b80:            c0 25 e0 18  clr       [%l7 + 0x18]
    0x100004b84:            e4 5e 60 10  ldx       [%i1 + 0x10], %l2
    0x100004b88:            98 03 40 12  add       %o5, %l2, %o4
    0x100004b8c:            c4 73 20 10  stx       %g2, [%o4 + 0x10]
    0x100004b90:            c2 5e 60 10  ldx       [%i1 + 0x10], %g1
    0x100004b94:            86 00 e0 40  add       %g3, 0x40, %g3
    0x100004b98:            88 03 40 01  add       %o5, %g1, %g4
    0x100004b9c:            a4 00 a0 01  add       %g2, 0x1, %l2
    0x100004ba0:            80 a4 80 08  cmp       %l2, %o0
    0x100004ba4:            04 6f ff f0  ble,pt    %xcc, -0x40   <0x100004b64>
    0x100004ba8:            c0 21 20 18  clr       [%g4 + 0x18]
    0x100004bac:            80 a4 80 16  cmp       %l2, %l6
    0x100004bb0:            a0 10 00 03  mov       %g3, %l0
    0x100004bb4:            14 60 00 0d  bg,pn     %xcc, +0x34   <0x100004be8>
    0x100004bb8:            01 00 00 00  nop
    0x100004bbc:            fa 5e 60 10  ldx       [%i1 + 0x10], %i5
    0x100004bc0:            b4 04 00 1d  add       %l0, %i5, %i2
    0x100004bc4:            e4 76 a0 10  stx       %l2, [%i2 + 0x10]
    0x100004bc8:            e2 5e 60 10  ldx       [%i1 + 0x10], %l1
    0x100004bcc:            a4 04 a0 01  add       %l2, 0x1, %l2
    0x100004bd0:            80 a4 80 16  cmp       %l2, %l6
    0x100004bd4:            b0 04 00 11  add       %l0, %l1, %i0
    0x100004bd8:            c0 26 20 18  clr       [%i0 + 0x18]
    0x100004bdc:            a0 04 20 20  add       %l0, 0x20, %l0
    0x100004be0:            24 6f ff f8  ble,a,pt  %xcc, -0x20   <0x100004bc0>
    0x100004be4:            fa 5e 60 10  ldx       [%i1 + 0x10], %i5
    0x100004be8:            10 80 08 56  ba        +0x2158       <0x100006d40>
    0x100004bec:            80 a7 20 00  cmp       %i4, 0x0
    0x100004bf0:            f0 5b a8 bf  ldx       [%sp + 0x8bf], %i0
    0x100004bf4:            80 a2 c0 18  cmp       %o3, %i0
    0x100004bf8:            04 60 08 51  ble,pn    %xcc, +0x2144 <0x100006d3c>
    0x100004bfc:            e8 5b a8 c7  ldx       [%sp + 0x8c7], %l4
    0x100004c00:            80 a7 20 00  cmp       %i4, 0x0
    0x100004c04:            cb 1d 26 40  ldd       [%l4 + 0x640], %d36
    0x100004c08:            d7 1d 26 40  ldd       [%l4 + 0x640], %d42
    0x100004c0c:            12 40 00 1a  bne,pn    %icc, +0x68   <0x100004c74>
    0x100004c10:            d7 3b a9 27  std       %d42, [%sp + 0x927]
    0x100004c14:            cb 3b a9 2f  std       %d36, [%sp + 0x92f]
    0x100004c18:            7f ff f5 10  call      -0x2bc0       <0x100002058>
    0x100004c1c:            90 10 00 19  mov       %i1, %o0
    0x100004c20:            cb 1b a9 2f  ldd       [%sp + 0x92f], %d36
    0x100004c24:            98 10 00 1d  mov       %i5, %o4
    0x100004c28:            90 10 00 19  mov       %i1, %o0
    0x100004c2c:            87 a0 18 c5  fdtos     %d36, %f3
    0x100004c30:            c7 23 a9 7f  st        %f3, [%sp + 0x97f]
    0x100004c34:            96 10 00 1c  mov       %i4, %o3
    0x100004c38:            7f ff f6 04  call      -0x27f0       <0x100002448>
    0x100004c3c:            94 06 e0 20  add       %i3, 0x20, %o2
    0x100004c40:            e4 5e e0 20  ldx       [%i3 + 0x20], %l2
    0x100004c44:            d8 5b a8 b7  ldx       [%sp + 0x8b7], %o4
    0x100004c48:            e6 04 25 30  ld        [%l0 + 0x530], %l3
    0x100004c4c:            c7 03 a9 7f  ld        [%sp + 0x97f], %f3
    0x100004c50:            d7 1b a9 27  ldd       [%sp + 0x927], %d42
    0x100004c54:            cb 1b a9 2f  ldd       [%sp + 0x92f], %d36
    0x100004c58:            80 a4 80 0c  cmp       %l2, %o4
    0x100004c5c:            06 60 00 1b  bl,pn     %xcc, +0x6c   <0x100004cc8>
    0x100004c60:            ec 5b a8 c7  ldx       [%sp + 0x8c7], %l6
    0x100004c64:            83 a0 19 20  fstod     %f0, %d32
    0x100004c68:            c7 1d a6 40  ldd       [%l6 + 0x640], %d34
    0x100004c6c:            10 80 06 60  ba        +0x1980       <0x1000065ec>
    0x100004c70:            c3 3b a9 c7  std       %d32, [%sp + 0x9c7]
    0x100004c74:            cb 3b a9 2f  std       %d36, [%sp + 0x92f]
    0x100004c78:            87 a0 18 c5  fdtos     %d36, %f3
    0x100004c7c:            c7 23 a9 7f  st        %f3, [%sp + 0x97f]
    0x100004c80:            98 10 00 1d  mov       %i5, %o4
    0x100004c84:            90 10 00 19  mov       %i1, %o0
    0x100004c88:            96 10 00 1c  mov       %i4, %o3
    0x100004c8c:            7f ff f5 ef  call      -0x2844       <0x100002448>
    0x100004c90:            94 06 e0 20  add       %i3, 0x20, %o2
    0x100004c94:            f0 5e e0 20  ldx       [%i3 + 0x20], %i0
    0x100004c98:            c4 5b a8 b7  ldx       [%sp + 0x8b7], %g2
    0x100004c9c:            e6 04 25 30  ld        [%l0 + 0x530], %l3
    0x100004ca0:            c7 03 a9 7f  ld        [%sp + 0x97f], %f3
    0x100004ca4:            d7 1b a9 27  ldd       [%sp + 0x927], %d42
    0x100004ca8:            cb 1b a9 2f  ldd       [%sp + 0x92f], %d36
    0x100004cac:            80 a6 00 02  cmp       %i0, %g2
    0x100004cb0:            06 60 00 06  bl,pn     %xcc, +0x18   <0x100004cc8>
    0x100004cb4:            ea 5b a8 c7  ldx       [%sp + 0x8c7], %l5
    0x100004cb8:            83 a0 19 20  fstod     %f0, %d32
    0x100004cbc:            c7 1d 66 40  ldd       [%l5 + 0x640], %d34
    0x100004cc0:            10 80 06 7f  ba        +0x19fc       <0x1000066bc>
    0x100004cc4:            ee 5b a8 bf  ldx       [%sp + 0x8bf], %l7
    0x100004cc8:            23 00 04 00  sethi     %hi(0x100000), %l1
    0x100004ccc:            a4 14 61 12  or        %l1, 0x112, %l2
    0x100004cd0:            a3 2c b0 0c  sllx      %l2, 0xc, %l1
    0x100004cd4:            d6 06 ff e8  ld        [%i3 - 0x18], %o3
    0x100004cd8:            a4 10 20 00  clr       %l2
    0x100004cdc:            d4 5e 60 00  ldx       [%i1], %o2
    0x100004ce0:            8b 3a e0 00  sra       %o3, 0x0, %g5
    0x100004ce4:            aa 02 ff ff  add       %o3, -0x1, %l5
    0x100004ce8:            93 6a 80 05  sdivx     %o2, %g5, %o1
    0x100004cec:            90 4a 40 1c  mulx      %o1, %i4, %o0
    0x100004cf0:            b0 27 00 15  sub       %i4, %l5, %i0
    0x100004cf4:            a9 3e 20 00  sra       %i0, 0x0, %l4
    0x100004cf8:            b0 02 00 09  add       %o0, %o1, %i0
    0x100004cfc:            b1 7d 04 0a  movre     %l4, %o2, %i0
    0x100004d00:            a9 3a 20 00  sra       %o0, 0x0, %l4
    0x100004d04:            80 a5 00 18  cmp       %l4, %i0
    0x100004d08:            16 60 00 90  bge,pn    %xcc, +0x240  <0x100004f48>
    0x100004d0c:            aa 06 3f ff  add       %i0, -0x1, %l5
    0x100004d10:            8a 10 00 14  mov       %l4, %g5
    0x100004d14:            d2 5e 60 10  ldx       [%i1 + 0x10], %o1
    0x100004d18:            91 2d 30 05  sllx      %l4, 0x5, %o0
    0x100004d1c:            c8 06 60 08  ld        [%i1 + 0x8], %g4
    0x100004d20:            15 00 04 00  sethi     %hi(0x100000), %o2
    0x100004d24:            9e 12 a0 04  or        %o2, 0x4, %o7
    0x100004d28:            9b 2b f0 0c  sllx      %o7, 0xc, %o5
    0x100004d2c:            e3 03 66 38  ld        [%o5 + 0x638], %f17
    0x100004d30:            98 02 40 08  add       %o1, %o0, %o4
    0x100004d34:            de 5a 60 08  ldx       [%o1 + 0x8], %o7
    0x100004d38:            80 a1 20 00  cmp       %g4, 0x0
    0x100004d3c:            c6 5b 20 08  ldx       [%o4 + 0x8], %g3
    0x100004d40:            04 40 00 77  ble,pn    %icc, +0x1dc  <0x100004f1c>
    0x100004d44:            ae 01 3f ff  add       %g4, -0x1, %l7
    0x100004d48:            80 a1 20 11  cmp       %g4, 0x11
    0x100004d4c:            82 10 20 00  clr       %g1
    0x100004d50:            06 40 00 68  bl,pn     %icc, +0x1a0  <0x100004ef0>
    0x100004d54:            01 00 00 00  nop
    0x100004d58:            f1 00 e0 00  ld        [%g3], %f24
    0x100004d5c:            e5 00 e0 04  ld        [%g3 + 0x4], %f18
    0x100004d60:            e7 03 e0 04  ld        [%o7 + 0x4], %f19
    0x100004d64:            d3 03 e0 00  ld        [%o7], %f9
    0x100004d68:            eb 00 e0 20  ld        [%g3 + 0x20], %f21
    0x100004d6c:            fd 00 e0 08  ld        [%g3 + 0x8], %f30
    0x100004d70:            c1 00 e0 14  ld        [%g3 + 0x14], %f0
    0x100004d74:            ff 00 e0 28  ld        [%g3 + 0x28], %f31
    0x100004d78:            cf 00 e0 0c  ld        [%g3 + 0xc], %f7
    0x100004d7c:            f7 03 e0 08  ld        [%o7 + 0x8], %f27
    0x100004d80:            f9 03 e0 0c  ld        [%o7 + 0xc], %f28
    0x100004d84:            d9 03 e0 10  ld        [%o7 + 0x10], %f12
    0x100004d88:            dd 03 e0 14  ld        [%o7 + 0x14], %f14
    0x100004d8c:            f5 03 e0 18  ld        [%o7 + 0x18], %f26
    0x100004d90:            89 a4 88 b3  fsubs     %f18, %f19, %f4
    0x100004d94:            ef 03 e0 1c  ld        [%o7 + 0x1c], %f23
    0x100004d98:            95 a6 08 a9  fsubs     %f24, %f9, %f10
    0x100004d9c:            9f a7 88 bb  fsubs     %f30, %f27, %f15
    0x100004da0:            db 03 e0 20  ld        [%o7 + 0x20], %f13
    0x100004da4:            8d a1 c8 bc  fsubs     %f7, %f28, %f6
    0x100004da8:            ed 03 e0 24  ld        [%o7 + 0x24], %f22
    0x100004dac:            a9 a1 09 24  fmuls     %f4, %f4, %f20
    0x100004db0:            d7 00 e0 10  ld        [%g3 + 0x10], %f11
    0x100004db4:            a1 a2 89 2a  fmuls     %f10, %f10, %f16
    0x100004db8:            84 03 e0 28  add       %o7, 0x28, %g2
    0x100004dbc:            9e 12 a0 04  or        %o2, 0x4, %o7
    0x100004dc0:            97 2b f0 0c  sllx      %o7, 0xc, %o3
    0x100004dc4:            fb 02 e6 38  ld        [%o3 + 0x638], %f29
    0x100004dc8:            91 a0 08 ae  fsubs     %f0, %f14, %f8
    0x100004dcc:            8b a4 48 34  fadds     %f17, %f20, %f5
    0x100004dd0:            86 00 e0 2c  add       %g3, 0x2c, %g3
    0x100004dd4:            f1 00 ff f0  ld        [%g3 - 0x10], %f24
    0x100004dd8:            b9 a2 c8 ac  fsubs     %f11, %f12, %f28
    0x100004ddc:            b7 a3 c9 2f  fmuls     %f15, %f15, %f27
    0x100004de0:            c1 00 ff ec  ld        [%g3 - 0x14], %f0
    0x100004de4:            82 10 20 0b  mov       0xb, %g1
    0x100004de8:            b3 a1 89 26  fmuls     %f6, %f6, %f25
    0x100004dec:            bb a7 48 30  fadds     %f29, %f16, %f29
    0x100004df0:            e9 00 ff f8  ld        [%g3 - 0x8], %f20
    0x100004df4:            96 01 3f fa  add       %g4, -0x6, %o3
    0x100004df8:            82 00 60 06  add       %g1, 0x6, %g1
    0x100004dfc:            86 00 e0 18  add       %g3, 0x18, %g3
    0x100004e00:            cf 00 a0 00  ld        [%g2], %f7
    0x100004e04:            bd a0 08 ba  fsubs     %f0, %f26, %f30
    0x100004e08:            83 a7 48 3b  fadds     %f29, %f27, %f1
    0x100004e0c:            80 a0 40 0b  cmp       %g1, %o3
    0x100004e10:            e7 00 ff e8  ld        [%g3 - 0x18], %f19
    0x100004e14:            93 a7 09 3c  fmuls     %f28, %f28, %f9
    0x100004e18:            b7 a6 08 b7  fsubs     %f24, %f23, %f27
    0x100004e1c:            e5 00 a0 04  ld        [%g2 + 0x4], %f18
    0x100004e20:            84 00 a0 18  add       %g2, 0x18, %g2
    0x100004e24:            b3 a1 48 39  fadds     %f5, %f25, %f25
    0x100004e28:            91 a2 09 28  fmuls     %f8, %f8, %f8
    0x100004e2c:            c1 00 ff ec  ld        [%g3 - 0x14], %f0
    0x100004e30:            9d a5 48 ad  fsubs     %f21, %f13, %f14
    0x100004e34:            f5 00 bf f0  ld        [%g2 - 0x10], %f26
    0x100004e38:            99 a0 48 29  fadds     %f1, %f9, %f12
    0x100004e3c:            97 a7 89 3e  fmuls     %f30, %f30, %f11
    0x100004e40:            f1 00 ff f0  ld        [%g3 - 0x10], %f24
    0x100004e44:            89 a5 08 b6  fsubs     %f20, %f22, %f4
    0x100004e48:            ef 00 bf f4  ld        [%g2 - 0xc], %f23
    0x100004e4c:            85 a6 48 28  fadds     %f25, %f8, %f2
    0x100004e50:            8b a6 c9 3b  fmuls     %f27, %f27, %f5
    0x100004e54:            eb 00 ff f4  ld        [%g3 - 0xc], %f21
    0x100004e58:            b9 a7 c8 a7  fsubs     %f31, %f7, %f28
    0x100004e5c:            db 00 bf f8  ld        [%g2 - 0x8], %f13
    0x100004e60:            bb a3 08 2b  fadds     %f12, %f11, %f29
    0x100004e64:            b7 a3 89 2e  fmuls     %f14, %f14, %f27
    0x100004e68:            e9 00 ff f8  ld        [%g3 - 0x8], %f20
    0x100004e6c:            91 a4 c8 b2  fsubs     %f19, %f18, %f8
    0x100004e70:            ed 00 bf fc  ld        [%g2 - 0x4], %f22
    0x100004e74:            8b a0 88 25  fadds     %f2, %f5, %f5
    0x100004e78:            ff 00 ff fc  ld        [%g3 - 0x4], %f31
    0x100004e7c:            04 4f ff df  ble,pt    %icc, -0x84   <0x100004df8>
    0x100004e80:            b3 a1 09 24  fmuls     %f4, %f4, %f25
    0x100004e84:            99 a7 09 3c  fmuls     %f28, %f28, %f12
    0x100004e88:            bd a0 08 ba  fsubs     %f0, %f26, %f30
    0x100004e8c:            b9 a7 48 3b  fadds     %f29, %f27, %f28
    0x100004e90:            81 a5 48 ad  fsubs     %f21, %f13, %f0
    0x100004e94:            8d a6 08 b7  fsubs     %f24, %f23, %f6
    0x100004e98:            9b a1 48 39  fadds     %f5, %f25, %f13
    0x100004e9c:            95 a2 09 28  fmuls     %f8, %f8, %f10
    0x100004ea0:            af a7 89 3e  fmuls     %f30, %f30, %f23
    0x100004ea4:            9f a7 08 2c  fadds     %f28, %f12, %f15
    0x100004ea8:            dd 00 a0 00  ld        [%g2], %f14
    0x100004eac:            a9 a5 08 b6  fsubs     %f20, %f22, %f20
    0x100004eb0:            91 a0 09 20  fmuls     %f0, %f0, %f8
    0x100004eb4:            b5 a7 c8 ae  fsubs     %f31, %f14, %f26
    0x100004eb8:            a1 a1 89 26  fmuls     %f6, %f6, %f16
    0x100004ebc:            b3 a3 48 2a  fadds     %f13, %f10, %f25
    0x100004ec0:            ab a3 c8 37  fadds     %f15, %f23, %f21
    0x100004ec4:            bf a5 09 34  fmuls     %f20, %f20, %f31
    0x100004ec8:            80 a0 40 17  cmp       %g1, %l7
    0x100004ecc:            8b a6 89 3a  fmuls     %f26, %f26, %f5
    0x100004ed0:            9e 00 a0 04  add       %g2, 0x4, %o7
    0x100004ed4:            bb a6 48 30  fadds     %f25, %f16, %f29
    0x100004ed8:            85 a5 48 28  fadds     %f21, %f8, %f2
    0x100004edc:            ad a7 48 3f  fadds     %f29, %f31, %f22
    0x100004ee0:            83 a0 88 25  fadds     %f2, %f5, %f1
    0x100004ee4:            a3 a5 88 21  fadds     %f22, %f1, %f17
    0x100004ee8:            14 40 00 0d  bg,pn     %icc, +0x34   <0x100004f1c>
    0x100004eec:            01 00 00 00  nop
    0x100004ef0:            c9 03 e0 00  ld        [%o7], %f4
    0x100004ef4:            c3 00 e0 00  ld        [%g3], %f1
    0x100004ef8:            82 00 60 01  add       %g1, 0x1, %g1
    0x100004efc:            80 a0 40 17  cmp       %g1, %l7
    0x100004f00:            8b a0 48 a4  fsubs     %f1, %f4, %f5
    0x100004f04:            9e 03 e0 04  add       %o7, 0x4, %o7
    0x100004f08:            86 00 e0 04  add       %g3, 0x4, %g3
    0x100004f0c:            af a1 49 25  fmuls     %f5, %f5, %f23
    0x100004f10:            a3 a4 48 37  fadds     %f17, %f23, %f17
    0x100004f14:            24 4f ff f8  ble,a,pt  %icc, -0x20   <0x100004ef4>
    0x100004f18:            c9 03 e0 00  ld        [%o7], %f4
    0x100004f1c:            f3 02 40 08  ld        [%o1 + %o0], %f25
    0x100004f20:            8a 01 60 01  add       %g5, 0x1, %g5
    0x100004f24:            80 a1 40 15  cmp       %g5, %l5
    0x100004f28:            81 a4 49 39  fmuls     %f17, %f25, %f0
    0x100004f2c:            c1 23 20 18  st        %f0, [%o4 + 0x18]
    0x100004f30:            d6 5e 60 10  ldx       [%i1 + 0x10], %o3
    0x100004f34:            92 02 00 0b  add       %o0, %o3, %o1
    0x100004f38:            c0 72 60 10  clrx      [%o1 + 0x10]
    0x100004f3c:            90 02 20 20  add       %o0, 0x20, %o0
    0x100004f40:            24 6f ff 77  ble,a,pt  %xcc, -0x224  <0x100004d1c>
    0x100004f44:            d2 5e 60 10  ldx       [%i1 + 0x10], %o1
    0x100004f48:            80 a7 20 00  cmp       %i4, 0x0
    0x100004f4c:            12 40 00 da  bne,pn    %icc, +0x368  <0x1000052b4>
    0x100004f50:            ac 10 20 01  mov       0x1, %l6
    0x100004f54:            d8 06 ff e8  ld        [%i3 - 0x18], %o4
    0x100004f58:            c7 23 a9 7f  st        %f3, [%sp + 0x97f]
    0x100004f5c:            d7 3b a9 27  std       %d42, [%sp + 0x927]
    0x100004f60:            cb 3b a9 2f  std       %d36, [%sp + 0x92f]
    0x100004f64:            ec 76 e0 20  stx       %l6, [%i3 + 0x20]
    0x100004f68:            8b 3b 20 00  sra       %o4, 0x0, %g5
    0x100004f6c:            40 04 33 65  call      +0x10cd94     <0x100111d00>
    0x100004f70:            91 29 70 03  sllx      %g5, 0x3, %o0
    0x100004f74:            d7 1b a9 27  ldd       [%sp + 0x927], %d42
    0x100004f78:            d0 76 ff f8  stx       %o0, [%i3 - 0x8]
    0x100004f7c:            c7 03 a9 7f  ld        [%sp + 0x97f], %f3
    0x100004f80:            ec 24 25 30  st        %l6, [%l0 + 0x530]
    0x100004f84:            d6 5e 60 00  ldx       [%i1], %o3
    0x100004f88:            cb 1b a9 2f  ldd       [%sp + 0x92f], %d36
    0x100004f8c:            80 a5 80 0b  cmp       %l6, %o3
    0x100004f90:            16 60 00 bf  bge,pn    %xcc, +0x2fc  <0x10000528c>
    0x100004f94:            a6 10 20 01  mov       0x1, %l3
    0x100004f98:            13 00 04 00  sethi     %hi(0x100000), %o1
    0x100004f9c:            94 12 60 04  or        %o1, 0x4, %o2
    0x100004fa0:            8b 2a b0 0c  sllx      %o2, 0xc, %g5
    0x100004fa4:            c9 01 66 3c  ld        [%g5 + 0x63c], %f4
    0x100004fa8:            ac 01 66 3c  add       %g5, 0x63c, %l6
    0x100004fac:            af 2d 30 05  sllx      %l4, 0x5, %l7
    0x100004fb0:            a3 a1 09 a3  fdivs     %f4, %f3, %f17
    0x100004fb4:            e3 23 a9 f7  st        %f17, [%sp + 0x9f7]
    0x100004fb8:            d7 3b a9 27  std       %d42, [%sp + 0x927]
    0x100004fbc:            c7 23 a9 7f  st        %f3, [%sp + 0x97f]
    0x100004fc0:            40 04 33 48  call      +0x10cd20     <0x100111ce0>
    0x100004fc4:            cb 3b a9 2f  std       %d36, [%sp + 0x92f]
    0x100004fc8:            de 04 25 30  ld        [%l0 + 0x530], %o7
    0x100004fcc:            c2 5e 60 10  ldx       [%i1 + 0x10], %g1
    0x100004fd0:            c3 05 a0 14  ld        [%l6 + 0x14], %f1
    0x100004fd4:            97 3b e0 00  sra       %o7, 0x0, %o3
    0x100004fd8:            95 2a f0 05  sllx      %o3, 0x5, %o2
    0x100004fdc:            86 02 80 01  add       %o2, %g1, %g3
    0x100004fe0:            c9 00 e0 18  ld        [%g3 + 0x18], %f4
    0x100004fe4:            d0 73 a9 9f  stx       %o0, [%sp + 0x99f]
    0x100004fe8:            c7 1b a9 9f  ldd       [%sp + 0x99f], %d34
    0x100004fec:            e3 03 a9 f7  ld        [%sp + 0x9f7], %f17
    0x100004ff0:            c7 03 a9 7f  ld        [%sp + 0x97f], %f3
    0x100004ff4:            8b a0 10 83  fxtos     %d34, %f5
    0x100004ff8:            af a1 09 31  fmuls     %f4, %f17, %f23
    0x100004ffc:            d7 1b a9 27  ldd       [%sp + 0x927], %d42
    0x100005000:            cb 1b a9 2f  ldd       [%sp + 0x92f], %d36
    0x100005004:            85 a1 49 21  fmuls     %f5, %f1, %f2
    0x100005008:            83 a8 8a b7  fcmpes    %fcc1, %f2, %f23
    0x10000500c:            19 50 00 99  fbuge,pn  %fcc1, +0x264  <0x100005270>
    0x100005010:            d0 5e e0 20  ldx       [%i3 + 0x20], %o0
    0x100005014:            80 a5 00 18  cmp       %l4, %i0
    0x100005018:            a6 02 20 01  add       %o0, 0x1, %l3
    0x10000501c:            16 60 00 94  bge,pn    %xcc, +0x250  <0x10000526c>
    0x100005020:            e6 76 e0 20  stx       %l3, [%i3 + 0x20]
    0x100005024:            92 10 00 14  mov       %l4, %o1
    0x100005028:            ca 5e 60 10  ldx       [%i1 + 0x10], %g5
    0x10000502c:            98 10 00 17  mov       %l7, %o4
    0x100005030:            c6 06 60 08  ld        [%i1 + 0x8], %g3
    0x100005034:            1b 00 04 00  sethi     %hi(0x100000), %o5
    0x100005038:            88 13 60 04  or        %o5, 0x4, %g4
    0x10000503c:            82 01 40 0a  add       %g5, %o2, %g1
    0x100005040:            85 29 30 0c  sllx      %g4, 0xc, %g2
    0x100005044:            c8 58 60 08  ldx       [%g1 + 0x8], %g4
    0x100005048:            90 01 40 0c  add       %g5, %o4, %o0
    0x10000504c:            e7 00 a6 38  ld        [%g2 + 0x638], %f19
    0x100005050:            80 a0 e0 00  cmp       %g3, 0x0
    0x100005054:            e6 5a 20 08  ldx       [%o0 + 0x8], %l3
    0x100005058:            04 40 00 77  ble,pn    %icc, +0x1dc  <0x100005234>
    0x10000505c:            82 00 ff ff  add       %g3, -0x1, %g1
    0x100005060:            80 a0 e0 11  cmp       %g3, 0x11
    0x100005064:            84 10 20 00  clr       %g2
    0x100005068:            06 40 00 68  bl,pn     %icc, +0x1a0  <0x100005208>
    0x10000506c:            01 00 00 00  nop
    0x100005070:            d7 01 20 00  ld        [%g4], %f11
    0x100005074:            fd 01 20 1c  ld        [%g4 + 0x1c], %f30
    0x100005078:            ed 01 20 10  ld        [%g4 + 0x10], %f22
    0x10000507c:            c9 01 20 04  ld        [%g4 + 0x4], %f4
    0x100005080:            dd 04 e0 04  ld        [%l3 + 0x4], %f14
    0x100005084:            d9 04 e0 00  ld        [%l3], %f12
    0x100005088:            f1 01 20 0c  ld        [%g4 + 0xc], %f24
    0x10000508c:            c5 01 20 08  ld        [%g4 + 0x8], %f2
    0x100005090:            cb 04 e0 08  ld        [%l3 + 0x8], %f5
    0x100005094:            eb 04 e0 0c  ld        [%l3 + 0xc], %f21
    0x100005098:            d1 01 20 18  ld        [%g4 + 0x18], %f8
    0x10000509c:            e9 04 e0 10  ld        [%l3 + 0x10], %f20
    0x1000050a0:            df 04 e0 14  ld        [%l3 + 0x14], %f15
    0x1000050a4:            c3 04 e0 18  ld        [%l3 + 0x18], %f1
    0x1000050a8:            a1 a1 08 ae  fsubs     %f4, %f14, %f16
    0x1000050ac:            ff 04 e0 1c  ld        [%l3 + 0x1c], %f31
    0x1000050b0:            a5 a2 c8 ac  fsubs     %f11, %f12, %f18
    0x1000050b4:            bb a0 88 a5  fsubs     %f2, %f5, %f29
    0x1000050b8:            ef 04 e0 20  ld        [%l3 + 0x20], %f23
    0x1000050bc:            81 a6 08 b5  fsubs     %f24, %f21, %f0
    0x1000050c0:            f9 04 e0 24  ld        [%l3 + 0x24], %f28
    0x1000050c4:            9b a4 09 30  fmuls     %f16, %f16, %f13
    0x1000050c8:            f5 01 20 28  ld        [%g4 + 0x28], %f26
    0x1000050cc:            8d a4 89 32  fmuls     %f18, %f18, %f6
    0x1000050d0:            86 04 e0 28  add       %l3, 0x28, %g3
    0x1000050d4:            9a 13 60 04  or        %o5, 0x4, %o5
    0x1000050d8:            a7 2b 70 0c  sllx      %o5, 0xc, %l3
    0x1000050dc:            d5 01 20 14  ld        [%g4 + 0x14], %f10
    0x1000050e0:            d3 04 e6 38  ld        [%l3 + 0x638], %f9
    0x1000050e4:            b3 a5 88 b4  fsubs     %f22, %f20, %f25
    0x1000050e8:            b1 a7 49 3d  fmuls     %f29, %f29, %f24
    0x1000050ec:            8b a4 c8 2d  fadds     %f19, %f13, %f5
    0x1000050f0:            88 01 20 2c  add       %g4, 0x2c, %g4
    0x1000050f4:            8f a2 88 af  fsubs     %f10, %f15, %f7
    0x1000050f8:            fb 01 3f f4  ld        [%g4 - 0xc], %f29
    0x1000050fc:            84 10 20 0b  mov       0xb, %g2
    0x100005100:            ad a0 09 20  fmuls     %f0, %f0, %f22
    0x100005104:            81 a2 48 26  fadds     %f9, %f6, %f0
    0x100005108:            db 01 3f f8  ld        [%g4 - 0x8], %f13
    0x10000510c:            a6 20 60 05  sub       %g1, 0x5, %l3
    0x100005110:            84 00 a0 06  add       %g2, 0x6, %g2
    0x100005114:            88 01 20 18  add       %g4, 0x18, %g4
    0x100005118:            d5 00 e0 00  ld        [%g3], %f10
    0x10000511c:            99 a2 08 a1  fsubs     %f8, %f1, %f12
    0x100005120:            b7 a0 08 38  fadds     %f0, %f24, %f27
    0x100005124:            80 a0 80 13  cmp       %g2, %l3
    0x100005128:            eb 01 3f e8  ld        [%g4 - 0x18], %f21
    0x10000512c:            b3 a6 49 39  fmuls     %f25, %f25, %f25
    0x100005130:            9d a7 88 bf  fsubs     %f30, %f31, %f14
    0x100005134:            e9 00 e0 04  ld        [%g3 + 0x4], %f20
    0x100005138:            86 00 e0 18  add       %g3, 0x18, %g3
    0x10000513c:            97 a1 48 36  fadds     %f5, %f22, %f11
    0x100005140:            8f a1 c9 27  fmuls     %f7, %f7, %f7
    0x100005144:            d1 01 3f ec  ld        [%g4 - 0x14], %f8
    0x100005148:            ad a7 48 b7  fsubs     %f29, %f23, %f22
    0x10000514c:            c3 00 ff f0  ld        [%g3 - 0x10], %f1
    0x100005150:            89 a6 c8 39  fadds     %f27, %f25, %f4
    0x100005154:            b1 a3 09 2c  fmuls     %f12, %f12, %f24
    0x100005158:            fd 01 3f f0  ld        [%g4 - 0x10], %f30
    0x10000515c:            9f a3 48 bc  fsubs     %f13, %f28, %f15
    0x100005160:            ff 00 ff f4  ld        [%g3 - 0xc], %f31
    0x100005164:            85 a2 c8 27  fadds     %f11, %f7, %f2
    0x100005168:            8b a3 89 2e  fmuls     %f14, %f14, %f5
    0x10000516c:            fb 01 3f f4  ld        [%g4 - 0xc], %f29
    0x100005170:            b3 a6 88 aa  fsubs     %f26, %f10, %f25
    0x100005174:            ef 00 ff f8  ld        [%g3 - 0x8], %f23
    0x100005178:            81 a1 08 38  fadds     %f4, %f24, %f0
    0x10000517c:            b1 a5 89 36  fmuls     %f22, %f22, %f24
    0x100005180:            db 01 3f f8  ld        [%g4 - 0x8], %f13
    0x100005184:            8f a5 48 b4  fsubs     %f21, %f20, %f7
    0x100005188:            f9 00 ff fc  ld        [%g3 - 0x4], %f28
    0x10000518c:            8b a0 88 25  fadds     %f2, %f5, %f5
    0x100005190:            f5 01 3f fc  ld        [%g4 - 0x4], %f26
    0x100005194:            04 4f ff df  ble,pt    %icc, -0x84   <0x100005110>
    0x100005198:            ad a3 c9 2f  fmuls     %f15, %f15, %f22
    0x10000519c:            ab a2 08 a1  fsubs     %f8, %f1, %f21
    0x1000051a0:            9f a6 49 39  fmuls     %f25, %f25, %f15
    0x1000051a4:            b1 a0 08 38  fadds     %f0, %f24, %f24
    0x1000051a8:            af a7 48 b7  fsubs     %f29, %f23, %f23
    0x1000051ac:            a9 a7 88 bf  fsubs     %f30, %f31, %f20
    0x1000051b0:            95 a1 c9 27  fmuls     %f7, %f7, %f10
    0x1000051b4:            bb a5 49 35  fmuls     %f21, %f21, %f29
    0x1000051b8:            ad a1 48 36  fadds     %f5, %f22, %f22
    0x1000051bc:            a1 a6 08 2f  fadds     %f24, %f15, %f16
    0x1000051c0:            ff 00 e0 00  ld        [%g3], %f31
    0x1000051c4:            9b a3 48 bc  fsubs     %f13, %f28, %f13
    0x1000051c8:            83 a5 c9 37  fmuls     %f23, %f23, %f1
    0x1000051cc:            b5 a6 88 bf  fsubs     %f26, %f31, %f26
    0x1000051d0:            81 a5 09 34  fmuls     %f20, %f20, %f0
    0x1000051d4:            b9 a5 88 2a  fadds     %f22, %f10, %f28
    0x1000051d8:            8d a4 08 3d  fadds     %f16, %f29, %f6
    0x1000051dc:            bd a3 49 2d  fmuls     %f13, %f13, %f30
    0x1000051e0:            80 a0 80 01  cmp       %g2, %g1
    0x1000051e4:            91 a6 89 3a  fmuls     %f26, %f26, %f8
    0x1000051e8:            a6 00 e0 04  add       %g3, 0x4, %l3
    0x1000051ec:            93 a7 08 20  fadds     %f28, %f0, %f9
    0x1000051f0:            b3 a1 88 21  fadds     %f6, %f1, %f25
    0x1000051f4:            b7 a2 48 3e  fadds     %f9, %f30, %f27
    0x1000051f8:            8f a6 48 28  fadds     %f25, %f8, %f7
    0x1000051fc:            a7 a6 c8 27  fadds     %f27, %f7, %f19
    0x100005200:            14 40 00 0d  bg,pn     %icc, +0x34   <0x100005234>
    0x100005204:            01 00 00 00  nop
    0x100005208:            fb 04 e0 00  ld        [%l3], %f29
    0x10000520c:            eb 01 20 00  ld        [%g4], %f21
    0x100005210:            84 00 a0 01  add       %g2, 0x1, %g2
    0x100005214:            80 a0 80 01  cmp       %g2, %g1
    0x100005218:            bd a5 48 bd  fsubs     %f21, %f29, %f30
    0x10000521c:            a6 04 e0 04  add       %l3, 0x4, %l3
    0x100005220:            88 01 20 04  add       %g4, 0x4, %g4
    0x100005224:            9f a7 89 3e  fmuls     %f30, %f30, %f15
    0x100005228:            a7 a4 c8 2f  fadds     %f19, %f15, %f19
    0x10000522c:            24 4f ff f8  ble,a,pt  %icc, -0x20   <0x10000520c>
    0x100005230:            fb 04 e0 00  ld        [%l3], %f29
    0x100005234:            f7 01 40 0c  ld        [%g5 + %o4], %f27
    0x100005238:            dd 02 20 18  ld        [%o0 + 0x18], %f14
    0x10000523c:            81 a4 c9 3b  fmuls     %f19, %f27, %f0
    0x100005240:            85 a8 0a ae  fcmpes    %fcc2, %f0, %f14
    0x100005244:            19 60 00 06  fbuge,pn  %fcc2, +0x18   <0x10000525c>
    0x100005248:            92 02 60 01  add       %o1, 0x1, %o1
    0x10000524c:            c1 22 20 18  st        %f0, [%o0 + 0x18]
    0x100005250:            c8 5e 60 10  ldx       [%i1 + 0x10], %g4
    0x100005254:            a6 03 00 04  add       %o4, %g4, %l3
    0x100005258:            d6 74 e0 10  stx       %o3, [%l3 + 0x10]
    0x10000525c:            80 a2 40 15  cmp       %o1, %l5
    0x100005260:            98 03 20 20  add       %o4, 0x20, %o4
    0x100005264:            24 6f ff 73  ble,a,pt  %xcc, -0x234  <0x100005030>
    0x100005268:            ca 5e 60 10  ldx       [%i1 + 0x10], %g5
    0x10000526c:            c0 2c 64 60  clrb      [%l1 + 0x460]
    0x100005270:            a6 03 e0 01  add       %o7, 0x1, %l3
    0x100005274:            e6 24 25 30  st        %l3, [%l0 + 0x530]
    0x100005278:            de 5e 60 00  ldx       [%i1], %o7
    0x10000527c:            9b 3c e0 00  sra       %l3, 0x0, %o5
    0x100005280:            80 a3 40 0f  cmp       %o5, %o7
    0x100005284:            26 6f ff 4d  bl,a,pt   %xcc, -0x2cc  <0x100004fb8>
    0x100005288:            e3 23 a9 f7  st        %f17, [%sp + 0x9f7]
    0x10000528c:            d4 5b a8 c7  ldx       [%sp + 0x8c7], %o2
    0x100005290:            c0 2c 64 60  clrb      [%l1 + 0x460]
    0x100005294:            80 a5 00 18  cmp       %l4, %i0
    0x100005298:            ff 1a a6 40  ldd       [%o2 + 0x640], %d62
    0x10000529c:            06 60 00 b6  bl,pn     %xcc, +0x2d8  <0x100005574>
    0x1000052a0:            ee 5b a8 cf  ldx       [%sp + 0x8cf], %l7
    0x1000052a4:            e6 5e ff f8  ldx       [%i3 - 0x8], %l3
    0x1000052a8:            ff 3c c0 17  std       %d62, [%l3 + %l7]
    0x1000052ac:            10 80 01 03  ba        +0x40c        <0x1000056b8>
    0x1000052b0:            db 1e e0 20  ldd       [%i3 + 0x20], %d44
    0x1000052b4:            d2 5e 60 00  ldx       [%i1], %o1
    0x1000052b8:            95 3c e0 00  sra       %l3, 0x0, %o2
    0x1000052bc:            80 a2 80 09  cmp       %o2, %o1
    0x1000052c0:            16 60 00 a7  bge,pn    %xcc, +0x29c  <0x10000555c>
    0x1000052c4:            80 a5 00 18  cmp       %l4, %i0
    0x1000052c8:            16 60 06 9b  bge,pn    %xcc, +0x1a6c <0x100006d34>
    0x1000052cc:            93 2d 30 05  sllx      %l4, 0x5, %o1
    0x1000052d0:            91 2a b0 05  sllx      %o2, 0x5, %o0
    0x1000052d4:            9e 10 00 14  mov       %l4, %o7
    0x1000052d8:            c8 5e 60 10  ldx       [%i1 + 0x10], %g4
    0x1000052dc:            96 10 00 09  mov       %o1, %o3
    0x1000052e0:            2d 00 04 00  sethi     %hi(0x100000), %l6
    0x1000052e4:            ae 15 a0 04  or        %l6, 0x4, %l7
    0x1000052e8:            c4 06 60 08  ld        [%i1 + 0x8], %g2
    0x1000052ec:            8b 2d f0 0c  sllx      %l7, 0xc, %g5
    0x1000052f0:            e5 01 66 38  ld        [%g5 + 0x638], %f18
    0x1000052f4:            8a 01 00 0b  add       %g4, %o3, %g5
    0x1000052f8:            98 01 00 08  add       %g4, %o0, %o4
    0x1000052fc:            da 59 60 08  ldx       [%g5 + 0x8], %o5
    0x100005300:            80 a0 a0 00  cmp       %g2, 0x0
    0x100005304:            c6 5b 20 08  ldx       [%o4 + 0x8], %g3
    0x100005308:            04 40 00 83  ble,pn    %icc, +0x20c  <0x100005514>
    0x10000530c:            ae 00 bf ff  add       %g2, -0x1, %l7
    0x100005310:            80 a0 a0 13  cmp       %g2, 0x13
    0x100005314:            82 10 20 00  clr       %g1
    0x100005318:            06 40 00 74  bl,pn     %icc, +0x1d0  <0x1000054e8>
    0x10000531c:            01 00 00 00  nop
    0x100005320:            f5 03 60 00  ld        [%o5], %f26
    0x100005324:            f7 00 e0 00  ld        [%g3], %f27
    0x100005328:            d9 03 60 18  ld        [%o5 + 0x18], %f12
    0x10000532c:            e7 00 e0 14  ld        [%g3 + 0x14], %f19
    0x100005330:            df 03 60 14  ld        [%o5 + 0x14], %f15
    0x100005334:            ef 03 60 04  ld        [%o5 + 0x4], %f23
    0x100005338:            ff 00 e0 04  ld        [%g3 + 0x4], %f31
    0x10000533c:            eb 00 e0 20  ld        [%g3 + 0x20], %f21
    0x100005340:            d7 00 e0 18  ld        [%g3 + 0x18], %f11
    0x100005344:            c3 00 e0 08  ld        [%g3 + 0x8], %f1
    0x100005348:            f9 03 60 08  ld        [%o5 + 0x8], %f28
    0x10000534c:            db 00 e0 10  ld        [%g3 + 0x10], %f13
    0x100005350:            fd 03 60 0c  ld        [%o5 + 0xc], %f30
    0x100005354:            e1 00 e0 0c  ld        [%g3 + 0xc], %f16
    0x100005358:            b3 a7 c8 b7  fsubs     %f31, %f23, %f25
    0x10000535c:            d1 03 60 10  ld        [%o5 + 0x10], %f8
    0x100005360:            a3 a6 c8 ba  fsubs     %f27, %f26, %f17
    0x100005364:            8d a4 08 be  fsubs     %f16, %f30, %f6
    0x100005368:            d3 03 60 24  ld        [%o5 + 0x24], %f9
    0x10000536c:            8f a0 48 bc  fsubs     %f1, %f28, %f7
    0x100005370:            dd 03 60 20  ld        [%o5 + 0x20], %f14
    0x100005374:            bb a6 49 39  fmuls     %f25, %f25, %f29
    0x100005378:            9f a4 c8 af  fsubs     %f19, %f15, %f15
    0x10000537c:            d5 00 e0 1c  ld        [%g3 + 0x1c], %f10
    0x100005380:            81 a4 49 31  fmuls     %f17, %f17, %f0
    0x100005384:            84 15 a0 04  or        %l6, 0x4, %g2
    0x100005388:            ad 28 b0 0c  sllx      %g2, 0xc, %l6
    0x10000538c:            f1 05 a6 38  ld        [%l6 + 0x638], %f24
    0x100005390:            85 a4 88 3d  fadds     %f18, %f29, %f2
    0x100005394:            a7 a1 89 26  fmuls     %f6, %f6, %f19
    0x100005398:            e9 03 60 1c  ld        [%o5 + 0x1c], %f20
    0x10000539c:            86 00 e0 2c  add       %g3, 0x2c, %g3
    0x1000053a0:            a1 a3 48 a8  fsubs     %f13, %f8, %f16
    0x1000053a4:            f7 00 ff fc  ld        [%g3 - 0x4], %f27
    0x1000053a8:            9a 03 60 28  add       %o5, 0x28, %o5
    0x1000053ac:            82 10 20 0b  mov       0xb, %g1
    0x1000053b0:            89 a1 c9 27  fmuls     %f7, %f7, %f4
    0x1000053b4:            8d a6 08 20  fadds     %f24, %f0, %f6
    0x1000053b8:            fb 00 ff f8  ld        [%g3 - 0x8], %f29
    0x1000053bc:            98 25 e0 07  sub       %l7, 0x7, %o4
    0x1000053c0:            c1 68 e0 90  prefetch  [%g3 + 0x90], #n_reads
    0x1000053c4:            c1 6b 60 90  prefetch  [%o5 + 0x90], #n_reads
    0x1000053c8:            82 00 60 08  add       %g1, 0x8, %g1
    0x1000053cc:            86 00 e0 20  add       %g3, 0x20, %g3
    0x1000053d0:            f5 03 60 00  ld        [%o5], %f26
    0x1000053d4:            97 a2 c8 ac  fsubs     %f11, %f12, %f11
    0x1000053d8:            99 a1 88 24  fadds     %f6, %f4, %f12
    0x1000053dc:            80 a0 40 0c  cmp       %g1, %o4
    0x1000053e0:            f9 00 ff e0  ld        [%g3 - 0x20], %f28
    0x1000053e4:            89 a4 09 30  fmuls     %f16, %f16, %f4
    0x1000053e8:            95 a2 88 b4  fsubs     %f10, %f20, %f10
    0x1000053ec:            ff 03 60 04  ld        [%o5 + 0x4], %f31
    0x1000053f0:            9a 03 60 20  add       %o5, 0x20, %o5
    0x1000053f4:            a9 a0 88 33  fadds     %f2, %f19, %f20
    0x1000053f8:            ad a3 c9 2f  fmuls     %f15, %f15, %f22
    0x1000053fc:            e1 00 ff e4  ld        [%g3 - 0x1c], %f16
    0x100005400:            8b a5 48 ae  fsubs     %f21, %f14, %f5
    0x100005404:            dd 03 7f e8  ld        [%o5 - 0x18], %f14
    0x100005408:            ab a3 08 24  fadds     %f12, %f4, %f21
    0x10000540c:            af a2 c9 2b  fmuls     %f11, %f11, %f23
    0x100005410:            d1 00 ff e8  ld        [%g3 - 0x18], %f8
    0x100005414:            bd a7 48 a9  fsubs     %f29, %f9, %f30
    0x100005418:            d3 03 7f ec  ld        [%o5 - 0x14], %f9
    0x10000541c:            85 a5 08 36  fadds     %f20, %f22, %f2
    0x100005420:            83 a2 89 2a  fmuls     %f10, %f10, %f1
    0x100005424:            d7 00 ff ec  ld        [%g3 - 0x14], %f11
    0x100005428:            9f a6 c8 ba  fsubs     %f27, %f26, %f15
    0x10000542c:            d9 03 7f f0  ld        [%o5 - 0x10], %f12
    0x100005430:            b7 a5 48 37  fadds     %f21, %f23, %f27
    0x100005434:            9b a1 49 25  fmuls     %f5, %f5, %f13
    0x100005438:            d5 00 ff f0  ld        [%g3 - 0x10], %f10
    0x10000543c:            a3 a7 08 bf  fsubs     %f28, %f31, %f17
    0x100005440:            e9 03 7f f4  ld        [%o5 - 0xc], %f20
    0x100005444:            a7 a0 88 21  fadds     %f2, %f1, %f19
    0x100005448:            b3 a7 89 3e  fmuls     %f30, %f30, %f25
    0x10000544c:            eb 00 ff f4  ld        [%g3 - 0xc], %f21
    0x100005450:            a1 a4 08 ae  fsubs     %f16, %f14, %f16
    0x100005454:            dd 03 7f f8  ld        [%o5 - 0x8], %f14
    0x100005458:            8d a6 c8 2d  fadds     %f27, %f13, %f6
    0x10000545c:            89 a3 c9 2f  fmuls     %f15, %f15, %f4
    0x100005460:            fb 00 ff f8  ld        [%g3 - 0x8], %f29
    0x100005464:            9f a2 08 a9  fsubs     %f8, %f9, %f15
    0x100005468:            d3 03 7f fc  ld        [%o5 - 0x4], %f9
    0x10000546c:            85 a4 c8 39  fadds     %f19, %f25, %f2
    0x100005470:            f7 00 ff fc  ld        [%g3 - 0x4], %f27
    0x100005474:            04 4f ff d3  ble,pt    %icc, -0xb4   <0x1000053c0>
    0x100005478:            a7 a4 49 31  fmuls     %f17, %f17, %f19
    0x10000547c:            a5 a4 09 30  fmuls     %f16, %f16, %f18
    0x100005480:            91 a2 c8 ac  fsubs     %f11, %f12, %f8
    0x100005484:            a1 a1 88 24  fadds     %f6, %f4, %f16
    0x100005488:            9b a5 48 ae  fsubs     %f21, %f14, %f13
    0x10000548c:            8d a2 88 b4  fsubs     %f10, %f20, %f6
    0x100005490:            b3 a0 88 33  fadds     %f2, %f19, %f25
    0x100005494:            99 a3 c9 2f  fmuls     %f15, %f15, %f12
    0x100005498:            97 a2 09 28  fmuls     %f8, %f8, %f11
    0x10000549c:            8f a4 08 32  fadds     %f16, %f18, %f7
    0x1000054a0:            e7 03 60 00  ld        [%o5], %f19
    0x1000054a4:            bb a7 48 a9  fsubs     %f29, %f9, %f29
    0x1000054a8:            b1 a3 49 2d  fmuls     %f13, %f13, %f24
    0x1000054ac:            81 a6 c8 b3  fsubs     %f27, %f19, %f0
    0x1000054b0:            9d a1 89 26  fmuls     %f6, %f6, %f14
    0x1000054b4:            93 a6 48 2c  fadds     %f25, %f12, %f9
    0x1000054b8:            95 a1 c8 2b  fadds     %f7, %f11, %f10
    0x1000054bc:            89 a7 49 3d  fmuls     %f29, %f29, %f4
    0x1000054c0:            80 a0 40 17  cmp       %g1, %l7
    0x1000054c4:            ad a0 09 20  fmuls     %f0, %f0, %f22
    0x1000054c8:            9a 03 60 04  add       %o5, 0x4, %o5
    0x1000054cc:            a9 a2 48 2e  fadds     %f9, %f14, %f20
    0x1000054d0:            ab a2 88 38  fadds     %f10, %f24, %f21
    0x1000054d4:            85 a5 08 24  fadds     %f20, %f4, %f2
    0x1000054d8:            8b a5 48 36  fadds     %f21, %f22, %f5
    0x1000054dc:            a5 a0 88 25  fadds     %f2, %f5, %f18
    0x1000054e0:            14 40 00 0d  bg,pn     %icc, +0x34   <0x100005514>
    0x1000054e4:            01 00 00 00  nop
    0x1000054e8:            e7 03 60 00  ld        [%o5], %f19
    0x1000054ec:            f7 00 e0 00  ld        [%g3], %f27
    0x1000054f0:            82 00 60 01  add       %g1, 0x1, %g1
    0x1000054f4:            80 a0 40 17  cmp       %g1, %l7
    0x1000054f8:            9d a6 c8 b3  fsubs     %f27, %f19, %f14
    0x1000054fc:            9a 03 60 04  add       %o5, 0x4, %o5
    0x100005500:            86 00 e0 04  add       %g3, 0x4, %g3
    0x100005504:            93 a3 89 2e  fmuls     %f14, %f14, %f9
    0x100005508:            a5 a4 88 29  fadds     %f18, %f9, %f18
    0x10000550c:            24 4f ff f8  ble,a,pt  %icc, -0x20   <0x1000054ec>
    0x100005510:            e7 03 60 00  ld        [%o5], %f19
    0x100005514:            d3 01 00 0b  ld        [%g4 + %o3], %f9
    0x100005518:            f3 01 60 18  ld        [%g5 + 0x18], %f25
    0x10000551c:            8d a4 89 29  fmuls     %f18, %f9, %f6
    0x100005520:            81 a9 8a b9  fcmpes    %fcc0, %f6, %f25
    0x100005524:            19 40 00 06  fbuge,pn  %fcc0, +0x18   <0x10000553c>
    0x100005528:            9e 03 e0 01  add       %o7, 0x1, %o7
    0x10000552c:            cd 21 60 18  st        %f6, [%g5 + 0x18]
    0x100005530:            ee 5e 60 10  ldx       [%i1 + 0x10], %l7
    0x100005534:            84 02 c0 17  add       %o3, %l7, %g2
    0x100005538:            d4 70 a0 10  stx       %o2, [%g2 + 0x10]
    0x10000553c:            80 a3 c0 15  cmp       %o7, %l5
    0x100005540:            96 02 e0 20  add       %o3, 0x20, %o3
    0x100005544:            24 6f ff 67  ble,a,pt  %xcc, -0x264  <0x1000052e0>
    0x100005548:            c8 5e 60 10  ldx       [%i1 + 0x10], %g4
    0x10000554c:            ec 5e 60 00  ldx       [%i1], %l6
    0x100005550:            80 a2 80 16  cmp       %o2, %l6
    0x100005554:            06 6f ff 61  bl,pt     %xcc, -0x27c  <0x1000052d8>
    0x100005558:            9e 10 00 14  mov       %l4, %o7
    0x10000555c:            da 5b a8 c7  ldx       [%sp + 0x8c7], %o5
    0x100005560:            c0 2c 64 60  clrb      [%l1 + 0x460]
    0x100005564:            80 a5 00 18  cmp       %l4, %i0
    0x100005568:            ff 1b 66 40  ldd       [%o5 + 0x640], %d62
    0x10000556c:            36 68 00 c3  bge,a,pt  %xcc, +0x30c  <0x100005878>
    0x100005570:            d2 5e ff f8  ldx       [%i3 - 0x8], %o1
    0x100005574:            92 25 40 14  sub       %l5, %l4, %o1
    0x100005578:            94 02 60 01  add       %o1, 0x1, %o2
    0x10000557c:            87 2d 30 05  sllx      %l4, 0x5, %g3
    0x100005580:            c4 5e 60 10  ldx       [%i1 + 0x10], %g2
    0x100005584:            80 a2 a0 0e  cmp       %o2, 0xe
    0x100005588:            88 00 a0 18  add       %g2, 0x18, %g4
    0x10000558c:            88 01 00 03  add       %g4, %g3, %g4
    0x100005590:            06 60 00 3c  bl,pn     %xcc, +0xf0   <0x100005680>
    0x100005594:            01 00 00 00  nop
    0x100005598:            ef 01 20 00  ld        [%g4], %f23
    0x10000559c:            d3 01 20 80  ld        [%g4 + 0x80], %f9
    0x1000055a0:            e1 01 20 e0  ld        [%g4 + 0xe0], %f16
    0x1000055a4:            e5 01 20 c0  ld        [%g4 + 0xc0], %f18
    0x1000055a8:            ff 01 20 20  ld        [%g4 + 0x20], %f31
    0x1000055ac:            83 a0 19 37  fstod     %f23, %d32
    0x1000055b0:            05 00 04 00  sethi     %hi(0x100000), %g2
    0x1000055b4:            9f a0 19 3f  fstod     %f31, %d46
    0x1000055b8:            f9 01 20 60  ld        [%g4 + 0x60], %f28
    0x1000055bc:            ac 10 a0 04  or        %g2, 0x4, %l6
    0x1000055c0:            cf 01 20 a0  ld        [%g4 + 0xa0], %f7
    0x1000055c4:            8b 2d b0 0c  sllx      %l6, 0xc, %g5
    0x1000055c8:            e3 01 20 40  ld        [%g4 + 0x40], %f17
    0x1000055cc:            b7 a0 19 3c  fstod     %f28, %d58
    0x1000055d0:            8f a7 c8 4f  faddd     %d62, %d46, %d38
    0x1000055d4:            88 01 21 00  add       %g4, 0x100, %g4
    0x1000055d8:            f3 19 66 40  ldd       [%g5 + 0x640], %d56
    0x1000055dc:            a7 a0 19 31  fstod     %f17, %d50
    0x1000055e0:            a8 05 20 08  add       %l4, 0x8, %l4
    0x1000055e4:            83 a6 48 41  faddd     %d56, %d32, %d32
    0x1000055e8:            ae 06 3f fa  add       %i0, -0x6, %l7
    0x1000055ec:            c1 69 21 60  prefetch  [%g4 + 0x160], #n_reads
    0x1000055f0:            a8 05 20 06  add       %l4, 0x6, %l4
    0x1000055f4:            c3 01 20 00  ld        [%g4], %f1
    0x1000055f8:            88 01 20 c0  add       %g4, 0xc0, %g4
    0x1000055fc:            93 a0 19 29  fstod     %f9, %d40
    0x100005600:            a7 a0 48 53  faddd     %d32, %d50, %d50
    0x100005604:            80 a5 00 17  cmp       %l4, %l7
    0x100005608:            bf a0 19 27  fstod     %f7, %d62
    0x10000560c:            fd 01 3f 60  ld        [%g4 - 0xa0], %f30
    0x100005610:            87 a1 c8 5b  faddd     %d38, %d58, %d34
    0x100005614:            8f a0 19 32  fstod     %f18, %d38
    0x100005618:            d3 01 3f 80  ld        [%g4 - 0x80], %f9
    0x10000561c:            bb a4 c8 49  faddd     %d50, %d40, %d60
    0x100005620:            af a0 19 30  fstod     %f16, %d54
    0x100005624:            cf 01 3f a0  ld        [%g4 - 0x60], %f7
    0x100005628:            a3 a0 c8 5f  faddd     %d34, %d62, %d48
    0x10000562c:            a7 a0 19 21  fstod     %f1, %d50
    0x100005630:            e5 01 3f c0  ld        [%g4 - 0x40], %f18
    0x100005634:            83 a7 48 47  faddd     %d60, %d38, %d32
    0x100005638:            b7 a0 19 3e  fstod     %f30, %d58
    0x10000563c:            e1 01 3f e0  ld        [%g4 - 0x20], %f16
    0x100005640:            04 6f ff eb  ble,pt    %xcc, -0x54   <0x1000055ec>
    0x100005644:            8f a4 48 57  faddd     %d48, %d54, %d38
    0x100005648:            93 a1 c8 5b  faddd     %d38, %d58, %d40
    0x10000564c:            87 a0 19 27  fstod     %f7, %d34
    0x100005650:            bb a0 48 53  faddd     %d32, %d50, %d60
    0x100005654:            8f a0 19 29  fstod     %f9, %d38
    0x100005658:            af a0 19 30  fstod     %f16, %d54
    0x10000565c:            ab a0 19 32  fstod     %f18, %d52
    0x100005660:            80 a5 00 15  cmp       %l4, %l5
    0x100005664:            bf a2 48 43  faddd     %d40, %d34, %d62
    0x100005668:            a3 a7 48 47  faddd     %d60, %d38, %d48
    0x10000566c:            b7 a7 c8 57  faddd     %d62, %d54, %d58
    0x100005670:            9b a4 48 55  faddd     %d48, %d52, %d44
    0x100005674:            bf a3 48 5b  faddd     %d44, %d58, %d62
    0x100005678:            14 60 00 0a  bg,pn     %xcc, +0x28   <0x1000056a0>
    0x10000567c:            01 00 00 00  nop
    0x100005680:            ff 01 20 00  ld        [%g4], %f31
    0x100005684:            87 a0 19 3f  fstod     %f31, %d34
    0x100005688:            a8 05 20 01  add       %l4, 0x1, %l4
    0x10000568c:            80 a5 00 15  cmp       %l4, %l5
    0x100005690:            88 01 20 20  add       %g4, 0x20, %g4
    0x100005694:            bf a7 c8 43  faddd     %d62, %d34, %d62
    0x100005698:            24 6f ff fb  ble,a,pt  %xcc, -0x14   <0x100005684>
    0x10000569c:            ff 01 20 00  ld        [%g4], %f31
    0x1000056a0:            d4 5e ff f8  ldx       [%i3 - 0x8], %o2
    0x1000056a4:            ec 5b a8 cf  ldx       [%sp + 0x8cf], %l6
    0x1000056a8:            80 a7 20 00  cmp       %i4, 0x0
    0x1000056ac:            12 40 00 75  bne,pn    %icc, +0x1d4  <0x100005880>
    0x1000056b0:            ff 3a 80 16  std       %d62, [%o2 + %l6]
    0x1000056b4:            db 1e e0 20  ldd       [%i3 + 0x20], %d44
    0x1000056b8:            85 a0 10 8d  fxtos     %d44, %f2
    0x1000056bc:            ea 06 ff e8  ld        [%i3 - 0x18], %l5
    0x1000056c0:            80 a5 60 00  cmp       %l5, 0x0
    0x1000056c4:            8d a0 c9 22  fmuls     %f3, %f2, %f6
    0x1000056c8:            14 40 00 05  bg,pn     %icc, +0x14   <0x1000056dc>
    0x1000056cc:            9f a0 19 26  fstod     %f6, %d46
    0x1000056d0:            df 3e ff f0  std       %d46, [%i3 - 0x10]
    0x1000056d4:            10 80 00 54  ba        +0x150        <0x100005824>
    0x1000056d8:            d0 5e ff f8  ldx       [%i3 - 0x8], %o0
    0x1000056dc:            80 a5 60 18  cmp       %l5, 0x18
    0x1000056e0:            9e 05 7f ff  add       %l5, -0x1, %o7
    0x1000056e4:            94 10 20 00  clr       %o2
    0x1000056e8:            82 10 00 15  mov       %l5, %g1
    0x1000056ec:            ca 5e ff f8  ldx       [%i3 - 0x8], %g5
    0x1000056f0:            06 40 00 44  bl,pn     %icc, +0x110  <0x100005800>
    0x1000056f4:            01 00 00 00  nop
    0x1000056f8:            f7 19 60 00  ldd       [%g5], %d58
    0x1000056fc:            e7 19 60 08  ldd       [%g5 + 0x8], %d50
    0x100005700:            c7 19 60 20  ldd       [%g5 + 0x20], %d34
    0x100005704:            c3 19 60 10  ldd       [%g5 + 0x10], %d32
    0x100005708:            db 19 60 48  ldd       [%g5 + 0x48], %d44
    0x10000570c:            d3 19 60 18  ldd       [%g5 + 0x18], %d40
    0x100005710:            eb 19 60 58  ldd       [%g5 + 0x58], %d52
    0x100005714:            cf 19 60 38  ldd       [%g5 + 0x38], %d38
    0x100005718:            31 00 04 00  sethi     %hi(0x100000), %i0
    0x10000571c:            ff 19 60 30  ldd       [%g5 + 0x30], %d62
    0x100005720:            a8 16 20 04  or        %i0, 0x4, %l4
    0x100005724:            ab 2d 30 0c  sllx      %l4, 0xc, %l5
    0x100005728:            ef 1d 66 40  ldd       [%l5 + 0x640], %d54
    0x10000572c:            fb 19 60 28  ldd       [%g5 + 0x28], %d60
    0x100005730:            b3 a3 c8 49  faddd     %d46, %d40, %d56
    0x100005734:            a3 a5 c8 5b  faddd     %d54, %d58, %d48
    0x100005738:            a7 a5 c8 53  faddd     %d54, %d50, %d50
    0x10000573c:            8a 01 60 60  add       %g5, 0x60, %g5
    0x100005740:            d3 19 7f e0  ldd       [%g5 - 0x20], %d40
    0x100005744:            94 10 20 0c  mov       0xc, %o2
    0x100005748:            af a5 c8 41  faddd     %d54, %d32, %d54
    0x10000574c:            df 19 7f f0  ldd       [%g5 - 0x10], %d46
    0x100005750:            98 00 7f f4  add       %g1, -0xc, %o4
    0x100005754:            c1 69 61 30  prefetch  [%g5 + 0x130], #n_reads
    0x100005758:            94 02 a0 0c  add       %o2, 0xc, %o2
    0x10000575c:            f7 19 60 00  ldd       [%g5], %d58
    0x100005760:            8a 01 60 60  add       %g5, 0x60, %g5
    0x100005764:            87 a4 48 43  faddd     %d48, %d34, %d34
    0x100005768:            bb a4 c8 5d  faddd     %d50, %d60, %d60
    0x10000576c:            80 a2 80 0c  cmp       %o2, %o4
    0x100005770:            e7 19 7f a8  ldd       [%g5 - 0x58], %d50
    0x100005774:            bf a5 c8 5f  faddd     %d54, %d62, %d62
    0x100005778:            c3 19 7f b0  ldd       [%g5 - 0x50], %d32
    0x10000577c:            8f a6 48 47  faddd     %d56, %d38, %d38
    0x100005780:            f5 19 7f b8  ldd       [%g5 - 0x48], %d26
    0x100005784:            a3 a0 c8 49  faddd     %d34, %d40, %d48
    0x100005788:            c7 19 7f c0  ldd       [%g5 - 0x40], %d34
    0x10000578c:            9b a7 48 4d  faddd     %d60, %d44, %d44
    0x100005790:            fb 19 7f c8  ldd       [%g5 - 0x38], %d60
    0x100005794:            9f a7 c8 4f  faddd     %d62, %d46, %d46
    0x100005798:            ff 19 7f d0  ldd       [%g5 - 0x30], %d62
    0x10000579c:            b3 a1 c8 55  faddd     %d38, %d52, %d56
    0x1000057a0:            cf 19 7f d8  ldd       [%g5 - 0x28], %d38
    0x1000057a4:            a3 a4 48 5b  faddd     %d48, %d58, %d48
    0x1000057a8:            d3 19 7f e0  ldd       [%g5 - 0x20], %d40
    0x1000057ac:            a7 a3 48 53  faddd     %d44, %d50, %d50
    0x1000057b0:            db 19 7f e8  ldd       [%g5 - 0x18], %d44
    0x1000057b4:            af a3 c8 41  faddd     %d46, %d32, %d54
    0x1000057b8:            df 19 7f f0  ldd       [%g5 - 0x10], %d46
    0x1000057bc:            b3 a6 48 5a  faddd     %d56, %d26, %d56
    0x1000057c0:            04 4f ff e5  ble,pt    %icc, -0x6c   <0x100005754>
    0x1000057c4:            eb 19 7f f8  ldd       [%g5 - 0x8], %d52
    0x1000057c8:            83 a4 c8 5d  faddd     %d50, %d60, %d32
    0x1000057cc:            b7 a5 c8 5f  faddd     %d54, %d62, %d58
    0x1000057d0:            bb a4 48 43  faddd     %d48, %d34, %d60
    0x1000057d4:            b3 a6 48 47  faddd     %d56, %d38, %d56
    0x1000057d8:            80 a2 80 0f  cmp       %o2, %o7
    0x1000057dc:            af a0 48 4d  faddd     %d32, %d44, %d54
    0x1000057e0:            a3 a6 c8 4f  faddd     %d58, %d46, %d48
    0x1000057e4:            a7 a7 48 49  faddd     %d60, %d40, %d50
    0x1000057e8:            9b a6 48 55  faddd     %d56, %d52, %d44
    0x1000057ec:            ab a4 c8 57  faddd     %d50, %d54, %d52
    0x1000057f0:            9f a5 48 51  faddd     %d52, %d48, %d46
    0x1000057f4:            9f a3 c8 4d  faddd     %d46, %d44, %d46
    0x1000057f8:            14 40 00 09  bg,pn     %icc, +0x24   <0x10000581c>
    0x1000057fc:            01 00 00 00  nop
    0x100005800:            94 02 a0 01  add       %o2, 0x1, %o2
    0x100005804:            80 a2 80 0f  cmp       %o2, %o7
    0x100005808:            f3 19 60 00  ldd       [%g5], %d56
    0x10000580c:            8a 01 60 08  add       %g5, 0x8, %g5
    0x100005810:            9f a3 c8 59  faddd     %d46, %d56, %d46
    0x100005814:            04 4f ff fc  ble,pt    %icc, -0x10   <0x100005804>
    0x100005818:            94 02 a0 01  add       %o2, 0x1, %o2
    0x10000581c:            d0 5e ff f8  ldx       [%i3 - 0x8], %o0
    0x100005820:            df 3e ff f0  std       %d46, [%i3 - 0x10]
    0x100005824:            d7 3b a9 27  std       %d42, [%sp + 0x927]
    0x100005828:            c7 23 a9 7f  st        %f3, [%sp + 0x97f]
    0x10000582c:            40 04 31 3d  call      +0x10c4f4     <0x100111d20>
    0x100005830:            cb 3b a9 2f  std       %d36, [%sp + 0x92f]
    0x100005834:            e8 5e e0 20  ldx       [%i3 + 0x20], %l4
    0x100005838:            ea 5b a8 b7  ldx       [%sp + 0x8b7], %l5
    0x10000583c:            e6 04 25 30  ld        [%l0 + 0x530], %l3
    0x100005840:            c7 03 a9 7f  ld        [%sp + 0x97f], %f3
    0x100005844:            80 a5 00 15  cmp       %l4, %l5
    0x100005848:            d7 1b a9 27  ldd       [%sp + 0x927], %d42
    0x10000584c:            a4 04 a0 01  add       %l2, 0x1, %l2
    0x100005850:            cb 1b a9 2f  ldd       [%sp + 0x92f], %d36
    0x100005854:            06 68 00 11  bl,pt     %xcc, +0x44   <0x100005898>
    0x100005858:            80 a4 a0 01  cmp       %l2, 0x1
    0x10000585c:            ff 1e ff f0  ldd       [%i3 - 0x10], %d62
    0x100005860:            f0 5b a8 c7  ldx       [%sp + 0x8c7], %i0
    0x100005864:            9d a0 18 df  fdtos     %d62, %f14
    0x100005868:            c7 1e 26 40  ldd       [%i0 + 0x640], %d34
    0x10000586c:            83 a0 19 2e  fstod     %f14, %d32
    0x100005870:            10 80 03 5f  ba        +0xd7c        <0x1000065ec>
    0x100005874:            c3 3b a9 c7  std       %d32, [%sp + 0x9c7]
    0x100005878:            d8 5b a8 cf  ldx       [%sp + 0x8cf], %o4
    0x10000587c:            ff 3a 40 0c  std       %d62, [%o1 + %o4]
    0x100005880:            ea 5e e0 20  ldx       [%i3 + 0x20], %l5
    0x100005884:            c6 5b a8 b7  ldx       [%sp + 0x8b7], %g3
    0x100005888:            80 a5 40 03  cmp       %l5, %g3
    0x10000588c:            16 60 03 86  bge,pn    %xcc, +0xe18  <0x1000066a4>
    0x100005890:            a4 04 a0 01  add       %l2, 0x1, %l2
    0x100005894:            80 a4 a0 01  cmp       %l2, 0x1
    0x100005898:            26 4f fd 11  bl,a,pt   %icc, -0xbbc  <0x100004cdc>
    0x10000589c:            d6 06 ff e8  ld        [%i3 - 0x18], %o3
    0x1000058a0:            ca 5b a8 c7  ldx       [%sp + 0x8c7], %g5
    0x1000058a4:            80 a4 a0 01  cmp       %l2, 0x1
    0x1000058a8:            c7 19 66 40  ldd       [%g5 + 0x640], %d34
    0x1000058ac:            06 40 00 08  bl,pn     %icc, +0x20   <0x1000058cc>
    0x1000058b0:            80 a7 20 00  cmp       %i4, 0x0
    0x1000058b4:            b3 a1 48 43  faddd     %d36, %d34, %d56
    0x1000058b8:            ef 1e a0 08  ldd       [%i2 + 0x8], %d54
    0x1000058bc:            97 a0 00 45  fmovd     %d36, %d42
    0x1000058c0:            a4 10 20 00  clr       %l2
    0x1000058c4:            8b a6 49 57  fmuld     %d56, %d54, %d36
    0x1000058c8:            87 a0 18 c5  fdtos     %d36, %f3
    0x1000058cc:            f0 5e 60 00  ldx       [%i1], %i0
    0x1000058d0:            12 40 00 4f  bne,pn    %icc, +0x13c  <0x100005a0c>
    0x1000058d4:            ac 06 3f ff  add       %i0, -0x1, %l6
    0x1000058d8:            04 c5 80 3e  brlez,pn  %l6, +0xf8    <0x1000059d0>
    0x1000058dc:            a8 10 20 00  clr       %l4
    0x1000058e0:            c7 3b a9 37  std       %d34, [%sp + 0x937]
    0x1000058e4:            a6 10 20 00  clr       %l3
    0x1000058e8:            d7 3b a9 27  std       %d42, [%sp + 0x927]
    0x1000058ec:            c7 23 a9 7f  st        %f3, [%sp + 0x97f]
    0x1000058f0:            40 04 30 fc  call      +0x10c3f0     <0x100111ce0>
    0x1000058f4:            cb 3b a9 2f  std       %d36, [%sp + 0x92f]
    0x1000058f8:            ea 5e 60 00  ldx       [%i1], %l5
    0x1000058fc:            ca 5e 60 10  ldx       [%i1 + 0x10], %g5
    0x100005900:            c7 1b a9 37  ldd       [%sp + 0x937], %d34
    0x100005904:            d7 1b a9 27  ldd       [%sp + 0x927], %d42
    0x100005908:            c6 59 40 13  ldx       [%g5 + %l3], %g3
    0x10000590c:            c7 03 a9 7f  ld        [%sp + 0x97f], %f3
    0x100005910:            92 25 40 14  sub       %l5, %l4, %o1
    0x100005914:            cb 1b a9 2f  ldd       [%sp + 0x92f], %d36
    0x100005918:            88 01 40 13  add       %g5, %l3, %g4
    0x10000591c:            ee 59 20 18  ldx       [%g4 + 0x18], %l7
    0x100005920:            b0 22 60 01  sub       %o1, 0x1, %i0
    0x100005924:            c4 59 20 08  ldx       [%g4 + 0x8], %g2
    0x100005928:            80 8a 40 18  btst      %i0, %o1
    0x10000592c:            c2 59 20 10  ldx       [%g4 + 0x10], %g1
    0x100005930:            12 60 00 0c  bne,pn    %xcc, +0x30   <0x100005960>
    0x100005934:            80 a2 60 00  cmp       %o1, 0x0
    0x100005938:            02 60 00 0a  be,pn     %xcc, +0x28   <0x100005960>
    0x10000593c:            95 3a 30 3f  srax      %o0, 0x3f, %o2
    0x100005940:            98 1a 00 0a  xor       %o0, %o2, %o4
    0x100005944:            9a 23 00 0a  sub       %o4, %o2, %o5
    0x100005948:            90 8b 40 18  andcc     %o5, %i0, %o0
    0x10000594c:            92 1a 00 0a  xor       %o0, %o2, %o1
    0x100005950:            b0 22 40 0a  sub       %o1, %o2, %i0
    0x100005954:            91 66 50 18  movne     %xcc, %i0, %o0
    0x100005958:            10 80 00 06  ba        +0x18         <0x100005970>
    0x10000595c:            98 02 00 14  add       %o0, %l4, %o4
    0x100005960:            ad 6a 00 09  sdivx     %o0, %o1, %l6
    0x100005964:            aa 4d 80 09  mulx      %l6, %o1, %l5
    0x100005968:            90 22 00 15  sub       %o0, %l5, %o0
    0x10000596c:            98 02 00 14  add       %o0, %l4, %o4
    0x100005970:            97 2b 30 05  sllx      %o4, 0x5, %o3
    0x100005974:            da 59 40 0b  ldx       [%g5 + %o3], %o5
    0x100005978:            da 71 40 13  stx       %o5, [%g5 + %l3]
    0x10000597c:            94 01 40 0b  add       %g5, %o3, %o2
    0x100005980:            d0 5a a0 08  ldx       [%o2 + 0x8], %o0
    0x100005984:            d0 71 20 08  stx       %o0, [%g4 + 0x8]
    0x100005988:            d2 5a a0 10  ldx       [%o2 + 0x10], %o1
    0x10000598c:            d2 71 20 10  stx       %o1, [%g4 + 0x10]
    0x100005990:            f0 5a a0 18  ldx       [%o2 + 0x18], %i0
    0x100005994:            f0 71 20 18  stx       %i0, [%g4 + 0x18]
    0x100005998:            de 5e 60 10  ldx       [%i1 + 0x10], %o7
    0x10000599c:            a8 05 20 01  add       %l4, 0x1, %l4
    0x1000059a0:            a6 04 e0 20  add       %l3, 0x20, %l3
    0x1000059a4:            c6 72 c0 0f  stx       %g3, [%o3 + %o7]
    0x1000059a8:            86 03 c0 0b  add       %o7, %o3, %g3
    0x1000059ac:            ee 70 e0 18  stx       %l7, [%g3 + 0x18]
    0x1000059b0:            c4 70 e0 08  stx       %g2, [%g3 + 0x8]
    0x1000059b4:            c2 70 e0 10  stx       %g1, [%g3 + 0x10]
    0x1000059b8:            f0 5e 60 00  ldx       [%i1], %i0
    0x1000059bc:            ae 06 3f ff  add       %i0, -0x1, %l7
    0x1000059c0:            80 a5 00 17  cmp       %l4, %l7
    0x1000059c4:            26 6f ff c9  bl,a,pt   %xcc, -0xdc   <0x1000058e8>
    0x1000059c8:            c7 3b a9 37  std       %d34, [%sp + 0x937]
    0x1000059cc:            e6 04 25 30  ld        [%l0 + 0x530], %l3
    0x1000059d0:            c2 06 ff e8  ld        [%i3 - 0x18], %g1
    0x1000059d4:            b7 a0 00 23  fmovs     %f3, %f27
    0x1000059d8:            89 38 60 00  sra       %g1, 0x0, %g4
    0x1000059dc:            85 6e 00 04  sdivx     %i0, %g4, %g2
    0x1000059e0:            ae 48 80 1c  mulx      %g2, %i4, %l7
    0x1000059e4:            86 00 7f ff  add       %g1, -0x1, %g3
    0x1000059e8:            98 05 c0 02  add       %l7, %g2, %o4
    0x1000059ec:            80 a7 00 03  cmp       %i4, %g3
    0x1000059f0:            b1 66 40 0c  movne     %icc, %o4, %i0
    0x1000059f4:            ab 3d e0 00  sra       %l7, 0x0, %l5
    0x1000059f8:            80 a5 40 18  cmp       %l5, %i0
    0x1000059fc:            06 60 00 11  bl,pn     %xcc, +0x44   <0x100005a40>
    0x100005a00:            a8 06 3f ff  add       %i0, -0x1, %l4
    0x100005a04:            10 80 00 a3  ba        +0x28c        <0x100005c90>
    0x100005a08:            f7 23 a9 83  st        %f27, [%sp + 0x983]
    0x100005a0c:            c2 06 ff e8  ld        [%i3 - 0x18], %g1
    0x100005a10:            b7 a0 00 23  fmovs     %f3, %f27
    0x100005a14:            9b 38 60 00  sra       %g1, 0x0, %o5
    0x100005a18:            87 6e 00 0d  sdivx     %i0, %o5, %g3
    0x100005a1c:            ae 48 c0 1c  mulx      %g3, %i4, %l7
    0x100005a20:            84 00 7f ff  add       %g1, -0x1, %g2
    0x100005a24:            88 05 c0 03  add       %l7, %g3, %g4
    0x100005a28:            80 a7 00 02  cmp       %i4, %g2
    0x100005a2c:            b1 66 40 04  movne     %icc, %g4, %i0
    0x100005a30:            ab 3d e0 00  sra       %l7, 0x0, %l5
    0x100005a34:            80 a5 40 18  cmp       %l5, %i0
    0x100005a38:            16 60 01 7a  bge,pn    %xcc, +0x5e8  <0x100006020>
    0x100005a3c:            a8 06 3f ff  add       %i0, -0x1, %l4
    0x100005a40:            8a 10 00 15  mov       %l5, %g5
    0x100005a44:            d2 5e 60 10  ldx       [%i1 + 0x10], %o1
    0x100005a48:            91 2d 70 05  sllx      %l5, 0x5, %o0
    0x100005a4c:            c2 06 60 08  ld        [%i1 + 0x8], %g1
    0x100005a50:            15 00 04 00  sethi     %hi(0x100000), %o2
    0x100005a54:            9e 12 a0 04  or        %o2, 0x4, %o7
    0x100005a58:            99 2b f0 0c  sllx      %o7, 0xc, %o4
    0x100005a5c:            df 03 26 38  ld        [%o4 + 0x638], %f15
    0x100005a60:            88 02 40 08  add       %o1, %o0, %g4
    0x100005a64:            ec 5a 60 08  ldx       [%o1 + 0x8], %l6
    0x100005a68:            80 a0 60 00  cmp       %g1, 0x0
    0x100005a6c:            da 59 20 08  ldx       [%g4 + 0x8], %o5
    0x100005a70:            04 40 00 79  ble,pn    %icc, +0x1e4  <0x100005c54>
    0x100005a74:            96 00 7f ff  add       %g1, -0x1, %o3
    0x100005a78:            80 a0 60 11  cmp       %g1, 0x11
    0x100005a7c:            9e 10 20 00  clr       %o7
    0x100005a80:            94 10 00 01  mov       %g1, %o2
    0x100005a84:            06 40 00 69  bl,pn     %icc, +0x1a4  <0x100005c28>
    0x100005a88:            01 00 00 00  nop
    0x100005a8c:            e1 03 60 00  ld        [%o5], %f16
    0x100005a90:            c9 03 60 24  ld        [%o5 + 0x24], %f4
    0x100005a94:            ff 03 60 0c  ld        [%o5 + 0xc], %f31
    0x100005a98:            fd 03 60 14  ld        [%o5 + 0x14], %f30
    0x100005a9c:            cb 03 60 08  ld        [%o5 + 0x8], %f5
    0x100005aa0:            e5 03 60 04  ld        [%o5 + 0x4], %f18
    0x100005aa4:            ed 05 a0 04  ld        [%l6 + 0x4], %f22
    0x100005aa8:            eb 05 a0 00  ld        [%l6], %f21
    0x100005aac:            cd 05 a0 0c  ld        [%l6 + 0xc], %f6
    0x100005ab0:            c1 05 a0 08  ld        [%l6 + 0x8], %f0
    0x100005ab4:            d9 05 a0 14  ld        [%l6 + 0x14], %f12
    0x100005ab8:            fb 05 a0 10  ld        [%l6 + 0x10], %f29
    0x100005abc:            f3 05 a0 18  ld        [%l6 + 0x18], %f25
    0x100005ac0:            dd 05 a0 1c  ld        [%l6 + 0x1c], %f14
    0x100005ac4:            8f a4 88 b6  fsubs     %f18, %f22, %f7
    0x100005ac8:            b1 a4 08 b5  fsubs     %f16, %f21, %f24
    0x100005acc:            d3 05 a0 20  ld        [%l6 + 0x20], %f9
    0x100005ad0:            b5 a7 c8 a6  fsubs     %f31, %f6, %f26
    0x100005ad4:            ef 05 a0 24  ld        [%l6 + 0x24], %f23
    0x100005ad8:            b9 a1 48 a0  fsubs     %f5, %f0, %f28
    0x100005adc:            c5 03 60 28  ld        [%o5 + 0x28], %f2
    0x100005ae0:            9b a1 c9 27  fmuls     %f7, %f7, %f13
    0x100005ae4:            a3 a6 09 38  fmuls     %f24, %f24, %f17
    0x100005ae8:            98 05 a0 28  add       %l6, 0x28, %o4
    0x100005aec:            05 00 04 00  sethi     %hi(0x100000), %g2
    0x100005af0:            ac 10 a0 04  or        %g2, 0x4, %l6
    0x100005af4:            e7 03 60 10  ld        [%o5 + 0x10], %f19
    0x100005af8:            af 2d b0 0c  sllx      %l6, 0xc, %l7
    0x100005afc:            d1 05 e6 38  ld        [%l7 + 0x638], %f8
    0x100005b00:            95 a7 88 ac  fsubs     %f30, %f12, %f10
    0x100005b04:            bd a3 c8 2d  fadds     %f15, %f13, %f30
    0x100005b08:            9a 03 60 2c  add       %o5, 0x2c, %o5
    0x100005b0c:            cd 03 7f f0  ld        [%o5 - 0x10], %f6
    0x100005b10:            97 a4 c8 bd  fsubs     %f19, %f29, %f11
    0x100005b14:            a1 a7 09 3c  fmuls     %f28, %f28, %f16
    0x100005b18:            cf 03 7f ec  ld        [%o5 - 0x14], %f7
    0x100005b1c:            9e 10 20 0b  mov       0xb, %o7
    0x100005b20:            9f a6 89 3a  fmuls     %f26, %f26, %f15
    0x100005b24:            83 a2 08 31  fadds     %f8, %f17, %f1
    0x100005b28:            d9 03 7f f4  ld        [%o5 - 0xc], %f12
    0x100005b2c:            94 02 bf fa  add       %o2, -0x6, %o2
    0x100005b30:            9e 03 e0 06  add       %o7, 0x6, %o7
    0x100005b34:            9a 03 60 18  add       %o5, 0x18, %o5
    0x100005b38:            e5 03 20 00  ld        [%o4], %f18
    0x100005b3c:            ad a1 c8 b9  fsubs     %f7, %f25, %f22
    0x100005b40:            83 a0 48 30  fadds     %f1, %f16, %f1
    0x100005b44:            80 a3 c0 0a  cmp       %o7, %o2
    0x100005b48:            e9 03 7f e8  ld        [%o5 - 0x18], %f20
    0x100005b4c:            97 a2 c9 2b  fmuls     %f11, %f11, %f11
    0x100005b50:            a1 a1 88 ae  fsubs     %f6, %f14, %f16
    0x100005b54:            cb 03 20 04  ld        [%o4 + 0x4], %f5
    0x100005b58:            98 03 20 18  add       %o4, 0x18, %o4
    0x100005b5c:            81 a7 88 2f  fadds     %f30, %f15, %f0
    0x100005b60:            95 a2 89 2a  fmuls     %f10, %f10, %f10
    0x100005b64:            cf 03 7f ec  ld        [%o5 - 0x14], %f7
    0x100005b68:            ab a3 08 a9  fsubs     %f12, %f9, %f21
    0x100005b6c:            f3 03 3f f0  ld        [%o4 - 0x10], %f25
    0x100005b70:            bf a0 48 2b  fadds     %f1, %f11, %f31
    0x100005b74:            bb a5 89 36  fmuls     %f22, %f22, %f29
    0x100005b78:            cd 03 7f f0  ld        [%o5 - 0x10], %f6
    0x100005b7c:            a7 a1 08 b7  fsubs     %f4, %f23, %f19
    0x100005b80:            dd 03 3f f4  ld        [%o4 - 0xc], %f14
    0x100005b84:            bd a0 08 2a  fadds     %f0, %f10, %f30
    0x100005b88:            9f a4 09 30  fmuls     %f16, %f16, %f15
    0x100005b8c:            d9 03 7f f4  ld        [%o5 - 0xc], %f12
    0x100005b90:            97 a0 88 b2  fsubs     %f2, %f18, %f11
    0x100005b94:            d3 03 3f f8  ld        [%o4 - 0x8], %f9
    0x100005b98:            83 a7 c8 3d  fadds     %f31, %f29, %f1
    0x100005b9c:            a1 a5 49 35  fmuls     %f21, %f21, %f16
    0x100005ba0:            c9 03 7f f8  ld        [%o5 - 0x8], %f4
    0x100005ba4:            95 a5 08 a5  fsubs     %f20, %f5, %f10
    0x100005ba8:            ef 03 3f fc  ld        [%o4 - 0x4], %f23
    0x100005bac:            bd a7 88 2f  fadds     %f30, %f15, %f30
    0x100005bb0:            c5 03 7f fc  ld        [%o5 - 0x4], %f2
    0x100005bb4:            04 4f ff df  ble,pt    %icc, -0x84   <0x100005b30>
    0x100005bb8:            9f a4 c9 33  fmuls     %f19, %f19, %f15
    0x100005bbc:            bf a1 c8 b9  fsubs     %f7, %f25, %f31
    0x100005bc0:            a7 a2 c9 2b  fmuls     %f11, %f11, %f19
    0x100005bc4:            bb a0 48 30  fadds     %f1, %f16, %f29
    0x100005bc8:            99 a3 08 a9  fsubs     %f12, %f9, %f12
    0x100005bcc:            8f a2 89 2a  fmuls     %f10, %f10, %f7
    0x100005bd0:            93 a1 88 ae  fsubs     %f6, %f14, %f9
    0x100005bd4:            bd a7 88 2f  fadds     %f30, %f15, %f30
    0x100005bd8:            97 a7 c9 3f  fmuls     %f31, %f31, %f11
    0x100005bdc:            95 a7 48 33  fadds     %f29, %f19, %f10
    0x100005be0:            dd 03 20 00  ld        [%o4], %f14
    0x100005be4:            b1 a1 08 b7  fsubs     %f4, %f23, %f24
    0x100005be8:            91 a3 09 2c  fmuls     %f12, %f12, %f8
    0x100005bec:            b9 a0 88 ae  fsubs     %f2, %f14, %f28
    0x100005bf0:            a3 a2 49 29  fmuls     %f9, %f9, %f17
    0x100005bf4:            9b a7 88 27  fadds     %f30, %f7, %f13
    0x100005bf8:            b5 a2 88 2b  fadds     %f10, %f11, %f26
    0x100005bfc:            89 a6 09 38  fmuls     %f24, %f24, %f4
    0x100005c00:            80 a3 c0 0b  cmp       %o7, %o3
    0x100005c04:            85 a7 09 3c  fmuls     %f28, %f28, %f2
    0x100005c08:            ac 03 20 04  add       %o4, 0x4, %l6
    0x100005c0c:            b3 a3 48 31  fadds     %f13, %f17, %f25
    0x100005c10:            af a6 88 28  fadds     %f26, %f8, %f23
    0x100005c14:            a9 a6 48 24  fadds     %f25, %f4, %f20
    0x100005c18:            83 a5 c8 22  fadds     %f23, %f2, %f1
    0x100005c1c:            9f a5 08 21  fadds     %f20, %f1, %f15
    0x100005c20:            14 40 00 0d  bg,pn     %icc, +0x34   <0x100005c54>
    0x100005c24:            01 00 00 00  nop
    0x100005c28:            d7 05 a0 00  ld        [%l6], %f11
    0x100005c2c:            ed 03 60 00  ld        [%o5], %f22
    0x100005c30:            9e 03 e0 01  add       %o7, 0x1, %o7
    0x100005c34:            80 a3 c0 0b  cmp       %o7, %o3
    0x100005c38:            95 a5 88 ab  fsubs     %f22, %f11, %f10
    0x100005c3c:            ac 05 a0 04  add       %l6, 0x4, %l6
    0x100005c40:            9a 03 60 04  add       %o5, 0x4, %o5
    0x100005c44:            a1 a2 89 2a  fmuls     %f10, %f10, %f16
    0x100005c48:            9f a3 c8 30  fadds     %f15, %f16, %f15
    0x100005c4c:            24 4f ff f8  ble,a,pt  %icc, -0x20   <0x100005c2c>
    0x100005c50:            d7 05 a0 00  ld        [%l6], %f11
    0x100005c54:            e3 02 40 08  ld        [%o1 + %o0], %f17
    0x100005c58:            8a 01 60 01  add       %g5, 0x1, %g5
    0x100005c5c:            80 a1 40 14  cmp       %g5, %l4
    0x100005c60:            91 a3 c9 31  fmuls     %f15, %f17, %f8
    0x100005c64:            d1 21 20 18  st        %f8, [%g4 + 0x18]
    0x100005c68:            d6 5e 60 10  ldx       [%i1 + 0x10], %o3
    0x100005c6c:            92 02 00 0b  add       %o0, %o3, %o1
    0x100005c70:            c0 72 60 10  clrx      [%o1 + 0x10]
    0x100005c74:            90 02 20 20  add       %o0, 0x20, %o0
    0x100005c78:            24 6f ff 75  ble,a,pt  %xcc, -0x22c  <0x100005a4c>
    0x100005c7c:            d2 5e 60 10  ldx       [%i1 + 0x10], %o1
    0x100005c80:            80 a7 20 00  cmp       %i4, 0x0
    0x100005c84:            32 40 00 e8  bne,a,pn  %icc, +0x3a0  <0x100006024>
    0x100005c88:            ec 5e 60 00  ldx       [%i1], %l6
    0x100005c8c:            f7 23 a9 83  st        %f27, [%sp + 0x983]
    0x100005c90:            d8 06 ff e8  ld        [%i3 - 0x18], %o4
    0x100005c94:            c7 3b a9 37  std       %d34, [%sp + 0x937]
    0x100005c98:            d7 3b a9 27  std       %d42, [%sp + 0x927]
    0x100005c9c:            cb 3b a9 2f  std       %d36, [%sp + 0x92f]
    0x100005ca0:            c7 23 a9 7f  st        %f3, [%sp + 0x97f]
    0x100005ca4:            ac 10 20 01  mov       0x1, %l6
    0x100005ca8:            ec 76 e0 20  stx       %l6, [%i3 + 0x20]
    0x100005cac:            8b 3b 20 00  sra       %o4, 0x0, %g5
    0x100005cb0:            40 04 30 14  call      +0x10c050     <0x100111d00>
    0x100005cb4:            91 29 70 03  sllx      %g5, 0x3, %o0
    0x100005cb8:            d7 1b a9 27  ldd       [%sp + 0x927], %d42
    0x100005cbc:            cb 1b a9 2f  ldd       [%sp + 0x92f], %d36
    0x100005cc0:            c7 1b a9 37  ldd       [%sp + 0x937], %d34
    0x100005cc4:            d0 76 ff f8  stx       %o0, [%i3 - 0x8]
    0x100005cc8:            f7 03 a9 83  ld        [%sp + 0x983], %f27
    0x100005ccc:            ec 24 25 30  st        %l6, [%l0 + 0x530]
    0x100005cd0:            d6 5e 60 00  ldx       [%i1], %o3
    0x100005cd4:            c7 03 a9 7f  ld        [%sp + 0x97f], %f3
    0x100005cd8:            80 a5 80 0b  cmp       %l6, %o3
    0x100005cdc:            16 60 00 c5  bge,pn    %xcc, +0x314  <0x100005ff0>
    0x100005ce0:            a6 10 20 01  mov       0x1, %l3
    0x100005ce4:            27 00 04 00  sethi     %hi(0x100000), %l3
    0x100005ce8:            82 14 e0 04  or        %l3, 0x4, %g1
    0x100005cec:            af 28 70 0c  sllx      %g1, 0xc, %l7
    0x100005cf0:            f3 05 e6 3c  ld        [%l7 + 0x63c], %f25
    0x100005cf4:            ac 05 e6 3c  add       %l7, 0x63c, %l6
    0x100005cf8:            af 2d 70 05  sllx      %l5, 0x5, %l7
    0x100005cfc:            bd a6 49 bb  fdivs     %f25, %f27, %f30
    0x100005d00:            fd 23 a9 f7  st        %f30, [%sp + 0x9f7]
    0x100005d04:            d7 3b a9 27  std       %d42, [%sp + 0x927]
    0x100005d08:            c7 3b a9 37  std       %d34, [%sp + 0x937]
    0x100005d0c:            f7 23 a9 83  st        %f27, [%sp + 0x983]
    0x100005d10:            c7 23 a9 7f  st        %f3, [%sp + 0x97f]
    0x100005d14:            40 04 2f f3  call      +0x10bfcc     <0x100111ce0>
    0x100005d18:            cb 3b a9 2f  std       %d36, [%sp + 0x92f]
    0x100005d1c:            de 04 25 30  ld        [%l0 + 0x530], %o7
    0x100005d20:            c2 5e 60 10  ldx       [%i1 + 0x10], %g1
    0x100005d24:            fb 05 a0 14  ld        [%l6 + 0x14], %f29
    0x100005d28:            97 3b e0 00  sra       %o7, 0x0, %o3
    0x100005d2c:            95 2a f0 05  sllx      %o3, 0x5, %o2
    0x100005d30:            86 02 80 01  add       %o2, %g1, %g3
    0x100005d34:            ff 00 e0 18  ld        [%g3 + 0x18], %f31
    0x100005d38:            d0 73 a9 bf  stx       %o0, [%sp + 0x9bf]
    0x100005d3c:            c3 1b a9 bf  ldd       [%sp + 0x9bf], %d32
    0x100005d40:            fd 03 a9 f7  ld        [%sp + 0x9f7], %f30
    0x100005d44:            c7 1b a9 37  ldd       [%sp + 0x937], %d34
    0x100005d48:            ab a0 10 81  fxtos     %d32, %f21
    0x100005d4c:            9f a7 c9 3e  fmuls     %f31, %f30, %f15
    0x100005d50:            d7 1b a9 27  ldd       [%sp + 0x927], %d42
    0x100005d54:            cb 1b a9 2f  ldd       [%sp + 0x92f], %d36
    0x100005d58:            f7 03 a9 83  ld        [%sp + 0x983], %f27
    0x100005d5c:            c7 03 a9 7f  ld        [%sp + 0x97f], %f3
    0x100005d60:            a7 a5 49 3d  fmuls     %f21, %f29, %f19
    0x100005d64:            81 ac ca af  fcmpes    %fcc0, %f19, %f15
    0x100005d68:            19 40 00 9b  fbuge,pn  %fcc0, +0x26c  <0x100005fd4>
    0x100005d6c:            e6 5e e0 20  ldx       [%i3 + 0x20], %l3
    0x100005d70:            80 a5 40 18  cmp       %l5, %i0
    0x100005d74:            98 04 e0 01  add       %l3, 0x1, %o4
    0x100005d78:            16 60 00 96  bge,pn    %xcc, +0x258  <0x100005fd0>
    0x100005d7c:            d8 76 e0 20  stx       %o4, [%i3 + 0x20]
    0x100005d80:            92 10 00 15  mov       %l5, %o1
    0x100005d84:            ca 5e 60 10  ldx       [%i1 + 0x10], %g5
    0x100005d88:            98 10 00 17  mov       %l7, %o4
    0x100005d8c:            05 00 04 00  sethi     %hi(0x100000), %g2
    0x100005d90:            c2 06 60 08  ld        [%i1 + 0x8], %g1
    0x100005d94:            86 10 a0 04  or        %g2, 0x4, %g3
    0x100005d98:            9b 28 f0 0c  sllx      %g3, 0xc, %o5
    0x100005d9c:            e5 03 66 38  ld        [%o5 + 0x638], %f18
    0x100005da0:            90 01 40 0c  add       %g5, %o4, %o0
    0x100005da4:            88 01 40 0a  add       %g5, %o2, %g4
    0x100005da8:            da 5a 20 08  ldx       [%o0 + 0x8], %o5
    0x100005dac:            80 a0 60 00  cmp       %g1, 0x0
    0x100005db0:            c8 59 20 08  ldx       [%g4 + 0x8], %g4
    0x100005db4:            04 40 00 79  ble,pn    %icc, +0x1e4  <0x100005f98>
    0x100005db8:            82 00 7f ff  add       %g1, -0x1, %g1
    0x100005dbc:            86 00 60 01  add       %g1, 0x1, %g3
    0x100005dc0:            80 a0 e0 11  cmp       %g3, 0x11
    0x100005dc4:            84 10 20 00  clr       %g2
    0x100005dc8:            06 40 00 69  bl,pn     %icc, +0x1a4  <0x100005f6c>
    0x100005dcc:            01 00 00 00  nop
    0x100005dd0:            f5 01 20 00  ld        [%g4], %f26
    0x100005dd4:            c3 01 20 0c  ld        [%g4 + 0xc], %f1
    0x100005dd8:            c5 01 20 08  ld        [%g4 + 0x8], %f2
    0x100005ddc:            e9 01 20 04  ld        [%g4 + 0x4], %f20
    0x100005de0:            d5 03 60 00  ld        [%o5], %f10
    0x100005de4:            f3 03 60 04  ld        [%o5 + 0x4], %f25
    0x100005de8:            ef 03 60 08  ld        [%o5 + 0x8], %f23
    0x100005dec:            cd 03 60 0c  ld        [%o5 + 0xc], %f6
    0x100005df0:            fb 03 60 10  ld        [%o5 + 0x10], %f29
    0x100005df4:            eb 03 60 14  ld        [%o5 + 0x14], %f21
    0x100005df8:            d9 03 60 18  ld        [%o5 + 0x18], %f12
    0x100005dfc:            ff 03 60 1c  ld        [%o5 + 0x1c], %f31
    0x100005e00:            dd 03 60 20  ld        [%o5 + 0x20], %f14
    0x100005e04:            d3 03 60 24  ld        [%o5 + 0x24], %f9
    0x100005e08:            a7 a6 88 aa  fsubs     %f26, %f10, %f19
    0x100005e0c:            81 a5 08 b9  fsubs     %f20, %f25, %f0
    0x100005e10:            ed 01 20 10  ld        [%g4 + 0x10], %f22
    0x100005e14:            b1 a0 88 b7  fsubs     %f2, %f23, %f24
    0x100005e18:            86 03 60 28  add       %o5, 0x28, %g3
    0x100005e1c:            d7 01 20 18  ld        [%g4 + 0x18], %f11
    0x100005e20:            91 a0 48 a6  fsubs     %f1, %f6, %f8
    0x100005e24:            cf 01 20 28  ld        [%g4 + 0x28], %f7
    0x100005e28:            b9 a0 09 20  fmuls     %f0, %f0, %f28
    0x100005e2c:            cb 01 20 14  ld        [%g4 + 0x14], %f5
    0x100005e30:            9b a4 c9 33  fmuls     %f19, %f19, %f13
    0x100005e34:            1b 00 04 00  sethi     %hi(0x100000), %o5
    0x100005e38:            a6 13 60 04  or        %o5, 0x4, %l3
    0x100005e3c:            9b 2c f0 0c  sllx      %l3, 0xc, %o5
    0x100005e40:            e3 03 66 38  ld        [%o5 + 0x638], %f17
    0x100005e44:            a1 a5 88 bd  fsubs     %f22, %f29, %f16
    0x100005e48:            89 a6 09 38  fmuls     %f24, %f24, %f4
    0x100005e4c:            88 01 20 2c  add       %g4, 0x2c, %g4
    0x100005e50:            9f a1 48 b5  fsubs     %f5, %f21, %f15
    0x100005e54:            d5 01 3f f0  ld        [%g4 - 0x10], %f10
    0x100005e58:            ad a4 88 3c  fadds     %f18, %f28, %f22
    0x100005e5c:            fb 01 3f f4  ld        [%g4 - 0xc], %f29
    0x100005e60:            84 10 20 0b  mov       0xb, %g2
    0x100005e64:            85 a2 09 28  fmuls     %f8, %f8, %f2
    0x100005e68:            8d a4 48 2d  fadds     %f17, %f13, %f6
    0x100005e6c:            f1 01 3f f8  ld        [%g4 - 0x8], %f24
    0x100005e70:            9a 20 60 05  sub       %g1, 0x5, %o5
    0x100005e74:            84 00 a0 06  add       %g2, 0x6, %g2
    0x100005e78:            88 01 20 18  add       %g4, 0x18, %g4
    0x100005e7c:            c3 00 e0 00  ld        [%g3], %f1
    0x100005e80:            b3 a2 c8 ac  fsubs     %f11, %f12, %f25
    0x100005e84:            89 a1 88 24  fadds     %f6, %f4, %f4
    0x100005e88:            80 a0 80 0d  cmp       %g2, %o5
    0x100005e8c:            eb 01 3f e8  ld        [%g4 - 0x18], %f21
    0x100005e90:            b5 a4 09 30  fmuls     %f16, %f16, %f26
    0x100005e94:            a1 a2 88 bf  fsubs     %f10, %f31, %f16
    0x100005e98:            e9 00 e0 04  ld        [%g3 + 0x4], %f20
    0x100005e9c:            86 00 e0 18  add       %g3, 0x18, %g3
    0x100005ea0:            af a5 88 22  fadds     %f22, %f2, %f23
    0x100005ea4:            85 a3 c9 2f  fmuls     %f15, %f15, %f2
    0x100005ea8:            d7 01 3f ec  ld        [%g4 - 0x14], %f11
    0x100005eac:            9f a7 48 ae  fsubs     %f29, %f14, %f15
    0x100005eb0:            d9 00 ff f0  ld        [%g3 - 0x10], %f12
    0x100005eb4:            ad a1 08 3a  fadds     %f4, %f26, %f22
    0x100005eb8:            8d a6 49 39  fmuls     %f25, %f25, %f6
    0x100005ebc:            d5 01 3f f0  ld        [%g4 - 0x10], %f10
    0x100005ec0:            a5 a6 08 a9  fsubs     %f24, %f9, %f18
    0x100005ec4:            ff 00 ff f4  ld        [%g3 - 0xc], %f31
    0x100005ec8:            81 a5 c8 22  fadds     %f23, %f2, %f0
    0x100005ecc:            8b a4 09 30  fmuls     %f16, %f16, %f5
    0x100005ed0:            fb 01 3f f4  ld        [%g4 - 0xc], %f29
    0x100005ed4:            a1 a1 c8 a1  fsubs     %f7, %f1, %f16
    0x100005ed8:            dd 00 ff f8  ld        [%g3 - 0x8], %f14
    0x100005edc:            8d a5 88 26  fadds     %f22, %f6, %f6
    0x100005ee0:            89 a3 c9 2f  fmuls     %f15, %f15, %f4
    0x100005ee4:            f1 01 3f f8  ld        [%g4 - 0x8], %f24
    0x100005ee8:            9f a5 48 b4  fsubs     %f21, %f20, %f15
    0x100005eec:            d3 00 ff fc  ld        [%g3 - 0x4], %f9
    0x100005ef0:            ad a0 08 25  fadds     %f0, %f5, %f22
    0x100005ef4:            cf 01 3f fc  ld        [%g4 - 0x4], %f7
    0x100005ef8:            04 4f ff df  ble,pt    %icc, -0x84   <0x100005e74>
    0x100005efc:            85 a4 89 32  fmuls     %f18, %f18, %f2
    0x100005f00:            a9 a2 c8 ac  fsubs     %f11, %f12, %f20
    0x100005f04:            83 a4 09 30  fmuls     %f16, %f16, %f1
    0x100005f08:            af a1 88 24  fadds     %f6, %f4, %f23
    0x100005f0c:            ab a2 88 bf  fsubs     %f10, %f31, %f21
    0x100005f10:            a1 a3 c9 2f  fmuls     %f15, %f15, %f16
    0x100005f14:            bf a5 88 22  fadds     %f22, %f2, %f31
    0x100005f18:            bb a7 48 ae  fsubs     %f29, %f14, %f29
    0x100005f1c:            a7 a5 09 34  fmuls     %f20, %f20, %f19
    0x100005f20:            99 a5 c8 21  fadds     %f23, %f1, %f12
    0x100005f24:            ed 00 e0 00  ld        [%g3], %f22
    0x100005f28:            8b a6 08 a9  fsubs     %f24, %f9, %f5
    0x100005f2c:            b1 a5 49 35  fmuls     %f21, %f21, %f24
    0x100005f30:            93 a7 49 3d  fmuls     %f29, %f29, %f9
    0x100005f34:            8f a1 c8 b6  fsubs     %f7, %f22, %f7
    0x100005f38:            81 a7 c8 30  fadds     %f31, %f16, %f0
    0x100005f3c:            b9 a3 08 33  fadds     %f12, %f19, %f28
    0x100005f40:            9b a1 49 25  fmuls     %f5, %f5, %f13
    0x100005f44:            80 a0 80 01  cmp       %g2, %g1
    0x100005f48:            9a 00 e0 04  add       %g3, 0x4, %o5
    0x100005f4c:            97 a1 c9 27  fmuls     %f7, %f7, %f11
    0x100005f50:            91 a0 08 38  fadds     %f0, %f24, %f8
    0x100005f54:            9f a7 08 29  fadds     %f28, %f9, %f15
    0x100005f58:            a3 a2 08 2d  fadds     %f8, %f13, %f17
    0x100005f5c:            89 a3 c8 2b  fadds     %f15, %f11, %f4
    0x100005f60:            a5 a4 48 24  fadds     %f17, %f4, %f18
    0x100005f64:            14 40 00 0d  bg,pn     %icc, +0x34   <0x100005f98>
    0x100005f68:            01 00 00 00  nop
    0x100005f6c:            c5 03 60 00  ld        [%o5], %f2
    0x100005f70:            cd 01 20 00  ld        [%g4], %f6
    0x100005f74:            84 00 a0 01  add       %g2, 0x1, %g2
    0x100005f78:            80 a0 80 01  cmp       %g2, %g1
    0x100005f7c:            99 a1 88 a2  fsubs     %f6, %f2, %f12
    0x100005f80:            9a 03 60 04  add       %o5, 0x4, %o5
    0x100005f84:            88 01 20 04  add       %g4, 0x4, %g4
    0x100005f88:            8f a3 09 2c  fmuls     %f12, %f12, %f7
    0x100005f8c:            a5 a4 88 27  fadds     %f18, %f7, %f18
    0x100005f90:            24 4f ff f8  ble,a,pt  %icc, -0x20   <0x100005f70>
    0x100005f94:            c5 03 60 00  ld        [%o5], %f2
    0x100005f98:            d7 01 40 0c  ld        [%g5 + %o4], %f11
    0x100005f9c:            ed 02 20 18  ld        [%o0 + 0x18], %f22
    0x100005fa0:            a9 a4 89 2b  fmuls     %f18, %f11, %f20
    0x100005fa4:            83 ad 0a b6  fcmpes    %fcc1, %f20, %f22
    0x100005fa8:            19 50 00 06  fbuge,pn  %fcc1, +0x18   <0x100005fc0>
    0x100005fac:            92 02 60 01  add       %o1, 0x1, %o1
    0x100005fb0:            e9 22 20 18  st        %f20, [%o0 + 0x18]
    0x100005fb4:            d0 5e 60 10  ldx       [%i1 + 0x10], %o0
    0x100005fb8:            a6 03 00 08  add       %o4, %o0, %l3
    0x100005fbc:            d6 74 e0 10  stx       %o3, [%l3 + 0x10]
    0x100005fc0:            80 a2 40 14  cmp       %o1, %l4
    0x100005fc4:            98 03 20 20  add       %o4, 0x20, %o4
    0x100005fc8:            24 6f ff 71  ble,a,pt  %xcc, -0x23c  <0x100005d8c>
    0x100005fcc:            ca 5e 60 10  ldx       [%i1 + 0x10], %g5
    0x100005fd0:            c0 2c 64 60  clrb      [%l1 + 0x460]
    0x100005fd4:            a6 03 e0 01  add       %o7, 0x1, %l3
    0x100005fd8:            e6 24 25 30  st        %l3, [%l0 + 0x530]
    0x100005fdc:            da 5e 60 00  ldx       [%i1], %o5
    0x100005fe0:            89 3c e0 00  sra       %l3, 0x0, %g4
    0x100005fe4:            80 a1 00 0d  cmp       %g4, %o5
    0x100005fe8:            26 6f ff 47  bl,a,pt   %xcc, -0x2e4  <0x100005d04>
    0x100005fec:            fd 23 a9 f7  st        %f30, [%sp + 0x9f7]
    0x100005ff0:            d6 5b a8 c7  ldx       [%sp + 0x8c7], %o3
    0x100005ff4:            c0 2c 64 60  clrb      [%l1 + 0x460]
    0x100005ff8:            80 a5 40 18  cmp       %l5, %i0
    0x100005ffc:            db 1a e6 40  ldd       [%o3 + 0x640], %d44
    0x100006000:            36 60 00 04  bge,a,pn  %xcc, +0x10   <0x100006010>
    0x100006004:            ec 5e ff f8  ldx       [%i3 - 0x8], %l6
    0x100006008:            10 80 00 ba  ba        +0x2e8        <0x1000062f0>
    0x10000600c:            d8 5e 60 10  ldx       [%i1 + 0x10], %o4
    0x100006010:            e8 5b a8 cf  ldx       [%sp + 0x8cf], %l4
    0x100006014:            db 3d 80 14  std       %d44, [%l6 + %l4]
    0x100006018:            10 80 01 06  ba        +0x418        <0x100006430>
    0x10000601c:            eb 1e e0 20  ldd       [%i3 + 0x20], %d52
    0x100006020:            ec 5e 60 00  ldx       [%i1], %l6
    0x100006024:            95 3c e0 00  sra       %l3, 0x0, %o2
    0x100006028:            80 a2 80 16  cmp       %o2, %l6
    0x10000602c:            16 60 00 aa  bge,pn    %xcc, +0x2a8  <0x1000062d4>
    0x100006030:            80 a5 40 18  cmp       %l5, %i0
    0x100006034:            06 68 00 04  bl,pt     %xcc, +0x10   <0x100006044>
    0x100006038:            91 2a b0 05  sllx      %o2, 0x5, %o0
    0x10000603c:            10 80 00 00  ba        +0x0          <0x10000603c>
    0x100006040:            01 00 00 00  nop
    0x100006044:            93 2d 70 05  sllx      %l5, 0x5, %o1
    0x100006048:            9e 10 00 15  mov       %l5, %o7
    0x10000604c:            c8 5e 60 10  ldx       [%i1 + 0x10], %g4
    0x100006050:            96 10 00 09  mov       %o1, %o3
    0x100006054:            2d 00 04 00  sethi     %hi(0x100000), %l6
    0x100006058:            ae 15 a0 04  or        %l6, 0x4, %l7
    0x10000605c:            c6 06 60 08  ld        [%i1 + 0x8], %g3
    0x100006060:            8b 2d f0 0c  sllx      %l7, 0xc, %g5
    0x100006064:            e3 01 66 38  ld        [%g5 + 0x638], %f17
    0x100006068:            8a 01 00 0b  add       %g4, %o3, %g5
    0x10000606c:            84 01 00 08  add       %g4, %o0, %g2
    0x100006070:            d8 59 60 08  ldx       [%g5 + 0x8], %o4
    0x100006074:            80 a0 e0 00  cmp       %g3, 0x0
    0x100006078:            da 58 a0 08  ldx       [%g2 + 0x8], %o5
    0x10000607c:            04 40 00 84  ble,pn    %icc, +0x210  <0x10000628c>
    0x100006080:            ae 00 ff ff  add       %g3, -0x1, %l7
    0x100006084:            80 a0 e0 13  cmp       %g3, 0x13
    0x100006088:            82 10 20 00  clr       %g1
    0x10000608c:            06 40 00 75  bl,pn     %icc, +0x1d4  <0x100006260>
    0x100006090:            01 00 00 00  nop
    0x100006094:            d3 03 60 00  ld        [%o5], %f9
    0x100006098:            f9 03 60 24  ld        [%o5 + 0x24], %f28
    0x10000609c:            ff 03 60 20  ld        [%o5 + 0x20], %f31
    0x1000060a0:            e1 03 20 00  ld        [%o4], %f16
    0x1000060a4:            cf 03 60 0c  ld        [%o5 + 0xc], %f7
    0x1000060a8:            f3 03 20 18  ld        [%o4 + 0x18], %f25
    0x1000060ac:            ef 03 60 18  ld        [%o5 + 0x18], %f23
    0x1000060b0:            f1 03 20 0c  ld        [%o4 + 0xc], %f24
    0x1000060b4:            c1 03 60 08  ld        [%o5 + 0x8], %f0
    0x1000060b8:            fb 03 20 08  ld        [%o4 + 0x8], %f29
    0x1000060bc:            d9 03 60 10  ld        [%o5 + 0x10], %f12
    0x1000060c0:            db 03 20 04  ld        [%o4 + 0x4], %f13
    0x1000060c4:            e7 03 60 04  ld        [%o5 + 0x4], %f19
    0x1000060c8:            d1 03 20 10  ld        [%o4 + 0x10], %f8
    0x1000060cc:            a5 a2 48 b0  fsubs     %f9, %f16, %f18
    0x1000060d0:            89 a4 c8 ad  fsubs     %f19, %f13, %f4
    0x1000060d4:            df 03 20 14  ld        [%o4 + 0x14], %f15
    0x1000060d8:            95 a0 08 bd  fsubs     %f0, %f29, %f10
    0x1000060dc:            fd 03 20 24  ld        [%o4 + 0x24], %f30
    0x1000060e0:            8d a1 c8 b8  fsubs     %f7, %f24, %f6
    0x1000060e4:            d7 03 60 14  ld        [%o5 + 0x14], %f11
    0x1000060e8:            b5 a1 09 24  fmuls     %f4, %f4, %f26
    0x1000060ec:            85 a4 89 32  fmuls     %f18, %f18, %f2
    0x1000060f0:            07 00 04 00  sethi     %hi(0x100000), %g3
    0x1000060f4:            ac 10 e0 04  or        %g3, 0x4, %l6
    0x1000060f8:            85 2d b0 0c  sllx      %l6, 0xc, %g2
    0x1000060fc:            dd 00 a6 38  ld        [%g2 + 0x638], %f14
    0x100006100:            eb 03 20 20  ld        [%o4 + 0x20], %f21
    0x100006104:            c3 03 60 1c  ld        [%o5 + 0x1c], %f1
    0x100006108:            a9 a3 08 a8  fsubs     %f12, %f8, %f20
    0x10000610c:            8b a4 48 3a  fadds     %f17, %f26, %f5
    0x100006110:            ed 03 20 1c  ld        [%o4 + 0x1c], %f22
    0x100006114:            9a 03 60 2c  add       %o5, 0x2c, %o5
    0x100006118:            91 a2 c8 af  fsubs     %f11, %f15, %f8
    0x10000611c:            81 a2 89 2a  fmuls     %f10, %f10, %f0
    0x100006120:            98 03 20 28  add       %o4, 0x28, %o4
    0x100006124:            82 10 20 0b  mov       0xb, %g1
    0x100006128:            b1 a1 89 26  fmuls     %f6, %f6, %f24
    0x10000612c:            b5 a3 88 22  fadds     %f14, %f2, %f26
    0x100006130:            db 03 7f fc  ld        [%o5 - 0x4], %f13
    0x100006134:            ac 25 e0 07  sub       %l7, 0x7, %l6
    0x100006138:            c1 6b 60 90  prefetch  [%o5 + 0x90], #n_reads
    0x10000613c:            c1 6b 20 90  prefetch  [%o4 + 0x90], #n_reads
    0x100006140:            82 00 60 08  add       %g1, 0x8, %g1
    0x100006144:            9a 03 60 20  add       %o5, 0x20, %o5
    0x100006148:            cf 03 20 00  ld        [%o4], %f7
    0x10000614c:            af a5 c8 b9  fsubs     %f23, %f25, %f23
    0x100006150:            b3 a6 88 20  fadds     %f26, %f0, %f25
    0x100006154:            80 a0 40 16  cmp       %g1, %l6
    0x100006158:            c1 03 7f e0  ld        [%o5 - 0x20], %f0
    0x10000615c:            a9 a5 09 34  fmuls     %f20, %f20, %f20
    0x100006160:            bb a0 48 b6  fsubs     %f1, %f22, %f29
    0x100006164:            e1 03 20 04  ld        [%o4 + 0x4], %f16
    0x100006168:            98 03 20 20  add       %o4, 0x20, %o4
    0x10000616c:            ad a1 48 38  fadds     %f5, %f24, %f22
    0x100006170:            83 a2 09 28  fmuls     %f8, %f8, %f1
    0x100006174:            d9 03 7f e4  ld        [%o5 - 0x1c], %f12
    0x100006178:            8b a7 c8 b5  fsubs     %f31, %f21, %f5
    0x10000617c:            f1 03 3f e8  ld        [%o4 - 0x18], %f24
    0x100006180:            ab a6 48 34  fadds     %f25, %f20, %f21
    0x100006184:            bf a5 c9 37  fmuls     %f23, %f23, %f31
    0x100006188:            e7 03 7f e8  ld        [%o5 - 0x18], %f19
    0x10000618c:            91 a7 08 be  fsubs     %f28, %f30, %f8
    0x100006190:            fd 03 3f ec  ld        [%o4 - 0x14], %f30
    0x100006194:            b9 a5 88 21  fadds     %f22, %f1, %f28
    0x100006198:            93 a7 49 3d  fmuls     %f29, %f29, %f9
    0x10000619c:            ef 03 7f ec  ld        [%o5 - 0x14], %f23
    0x1000061a0:            a3 a3 48 a7  fsubs     %f13, %f7, %f17
    0x1000061a4:            f3 03 3f f0  ld        [%o4 - 0x10], %f25
    0x1000061a8:            9b a5 48 3f  fadds     %f21, %f31, %f13
    0x1000061ac:            9f a1 49 25  fmuls     %f5, %f5, %f15
    0x1000061b0:            c3 03 7f f0  ld        [%o5 - 0x10], %f1
    0x1000061b4:            97 a0 08 b0  fsubs     %f0, %f16, %f11
    0x1000061b8:            ed 03 3f f4  ld        [%o4 - 0xc], %f22
    0x1000061bc:            89 a7 08 29  fadds     %f28, %f9, %f4
    0x1000061c0:            a5 a2 09 28  fmuls     %f8, %f8, %f18
    0x1000061c4:            ff 03 7f f4  ld        [%o5 - 0xc], %f31
    0x1000061c8:            a9 a3 08 b8  fsubs     %f12, %f24, %f20
    0x1000061cc:            eb 03 3f f8  ld        [%o4 - 0x8], %f21
    0x1000061d0:            b5 a3 48 2f  fadds     %f13, %f15, %f26
    0x1000061d4:            81 a4 49 31  fmuls     %f17, %f17, %f0
    0x1000061d8:            f9 03 7f f8  ld        [%o5 - 0x8], %f28
    0x1000061dc:            91 a4 c8 be  fsubs     %f19, %f30, %f8
    0x1000061e0:            fd 03 3f fc  ld        [%o4 - 0x4], %f30
    0x1000061e4:            8b a1 08 32  fadds     %f4, %f18, %f5
    0x1000061e8:            db 03 7f fc  ld        [%o5 - 0x4], %f13
    0x1000061ec:            04 4f ff d3  ble,pt    %icc, -0xb4   <0x100006138>
    0x1000061f0:            b1 a2 c9 2b  fmuls     %f11, %f11, %f24
    0x1000061f4:            a5 a6 88 20  fadds     %f26, %f0, %f18
    0x1000061f8:            8f a5 c8 b9  fsubs     %f23, %f25, %f7
    0x1000061fc:            bb a5 09 34  fmuls     %f20, %f20, %f29
    0x100006200:            81 a7 c8 b5  fsubs     %f31, %f21, %f0
    0x100006204:            8d a0 48 b6  fsubs     %f1, %f22, %f6
    0x100006208:            99 a1 48 38  fadds     %f5, %f24, %f12
    0x10000620c:            a9 a2 09 28  fmuls     %f8, %f8, %f20
    0x100006210:            97 a1 c9 27  fmuls     %f7, %f7, %f11
    0x100006214:            89 a4 88 3d  fadds     %f18, %f29, %f4
    0x100006218:            f1 03 20 00  ld        [%o4], %f24
    0x10000621c:            ad a7 08 be  fsubs     %f28, %f30, %f22
    0x100006220:            bf a0 09 20  fmuls     %f0, %f0, %f31
    0x100006224:            95 a3 48 b8  fsubs     %f13, %f24, %f10
    0x100006228:            ab a1 89 26  fmuls     %f6, %f6, %f21
    0x10000622c:            b5 a3 08 34  fadds     %f12, %f20, %f26
    0x100006230:            af a1 08 2b  fadds     %f4, %f11, %f23
    0x100006234:            85 a5 89 36  fmuls     %f22, %f22, %f2
    0x100006238:            80 a0 40 17  cmp       %g1, %l7
    0x10000623c:            8b a2 89 2a  fmuls     %f10, %f10, %f5
    0x100006240:            98 03 20 04  add       %o4, 0x4, %o4
    0x100006244:            b9 a6 88 35  fadds     %f26, %f21, %f28
    0x100006248:            83 a5 c8 3f  fadds     %f23, %f31, %f1
    0x10000624c:            bd a7 08 22  fadds     %f28, %f2, %f30
    0x100006250:            9d a0 48 25  fadds     %f1, %f5, %f14
    0x100006254:            a3 a7 88 2e  fadds     %f30, %f14, %f17
    0x100006258:            14 40 00 0d  bg,pn     %icc, +0x34   <0x10000628c>
    0x10000625c:            01 00 00 00  nop
    0x100006260:            f1 03 20 00  ld        [%o4], %f24
    0x100006264:            f9 03 60 00  ld        [%o5], %f28
    0x100006268:            82 00 60 01  add       %g1, 0x1, %g1
    0x10000626c:            80 a0 40 17  cmp       %g1, %l7
    0x100006270:            9b a7 08 b8  fsubs     %f28, %f24, %f13
    0x100006274:            98 03 20 04  add       %o4, 0x4, %o4
    0x100006278:            9a 03 60 04  add       %o5, 0x4, %o5
    0x10000627c:            b5 a3 49 2d  fmuls     %f13, %f13, %f26
    0x100006280:            a3 a4 48 3a  fadds     %f17, %f26, %f17
    0x100006284:            24 4f ff f8  ble,a,pt  %icc, -0x20   <0x100006264>
    0x100006288:            f1 03 20 00  ld        [%o4], %f24
    0x10000628c:            d5 01 00 0b  ld        [%g4 + %o3], %f10
    0x100006290:            e5 01 60 18  ld        [%g5 + 0x18], %f18
    0x100006294:            bd a4 49 2a  fmuls     %f17, %f10, %f30
    0x100006298:            87 af 8a b2  fcmpes    %fcc3, %f30, %f18
    0x10000629c:            19 70 00 06  fbuge,pn  %fcc3, +0x18   <0x1000062b4>
    0x1000062a0:            9e 03 e0 01  add       %o7, 0x1, %o7
    0x1000062a4:            fd 21 60 18  st        %f30, [%g5 + 0x18]
    0x1000062a8:            ee 5e 60 10  ldx       [%i1 + 0x10], %l7
    0x1000062ac:            84 02 c0 17  add       %o3, %l7, %g2
    0x1000062b0:            d4 70 a0 10  stx       %o2, [%g2 + 0x10]
    0x1000062b4:            80 a3 c0 14  cmp       %o7, %l4
    0x1000062b8:            96 02 e0 20  add       %o3, 0x20, %o3
    0x1000062bc:            24 6f ff 66  ble,a,pt  %xcc, -0x268  <0x100006054>
    0x1000062c0:            c8 5e 60 10  ldx       [%i1 + 0x10], %g4
    0x1000062c4:            d6 5e 60 00  ldx       [%i1], %o3
    0x1000062c8:            80 a2 80 0b  cmp       %o2, %o3
    0x1000062cc:            06 6f ff 60  bl,pt     %xcc, -0x280  <0x10000604c>
    0x1000062d0:            9e 10 00 15  mov       %l5, %o7
    0x1000062d4:            ec 5b a8 c7  ldx       [%sp + 0x8c7], %l6
    0x1000062d8:            c0 2c 64 60  clrb      [%l1 + 0x460]
    0x1000062dc:            80 a5 40 18  cmp       %l5, %i0
    0x1000062e0:            db 1d a6 40  ldd       [%l6 + 0x640], %d44
    0x1000062e4:            36 68 00 e3  bge,a,pt  %xcc, +0x38c  <0x100006670>
    0x1000062e8:            d8 5e ff f8  ldx       [%i3 - 0x8], %o4
    0x1000062ec:            d8 5e 60 10  ldx       [%i1 + 0x10], %o4
    0x1000062f0:            9a 03 20 18  add       %o4, 0x18, %o5
    0x1000062f4:            98 25 00 15  sub       %l4, %l5, %o4
    0x1000062f8:            88 03 20 01  add       %o4, 0x1, %g4
    0x1000062fc:            ad 2d 70 05  sllx      %l5, 0x5, %l6
    0x100006300:            80 a1 20 0e  cmp       %g4, 0xe
    0x100006304:            86 03 40 16  add       %o5, %l6, %g3
    0x100006308:            06 60 00 3c  bl,pn     %xcc, +0xf0   <0x1000063f8>
    0x10000630c:            01 00 00 00  nop
    0x100006310:            e7 00 e0 80  ld        [%g3 + 0x80], %f19
    0x100006314:            d7 00 e0 e0  ld        [%g3 + 0xe0], %f11
    0x100006318:            df 00 e0 c0  ld        [%g3 + 0xc0], %f15
    0x10000631c:            f5 00 e0 20  ld        [%g3 + 0x20], %f26
    0x100006320:            d5 05 80 0d  ld        [%l6 + %o5], %f10
    0x100006324:            1b 00 04 00  sethi     %hi(0x100000), %o5
    0x100006328:            8f a0 19 3a  fstod     %f26, %d38
    0x10000632c:            a3 a0 19 2a  fstod     %f10, %d48
    0x100006330:            c5 00 e0 60  ld        [%g3 + 0x60], %f2
    0x100006334:            b0 13 60 04  or        %o5, 0x4, %i0
    0x100006338:            e3 00 e0 a0  ld        [%g3 + 0xa0], %f17
    0x10000633c:            af 2e 30 0c  sllx      %i0, 0xc, %l7
    0x100006340:            cd 00 e0 40  ld        [%g3 + 0x40], %f6
    0x100006344:            b7 a0 19 22  fstod     %f2, %d58
    0x100006348:            83 a3 48 47  faddd     %d44, %d38, %d32
    0x10000634c:            86 00 e1 00  add       %g3, 0x100, %g3
    0x100006350:            ef 1d e6 40  ldd       [%l7 + 0x640], %d54
    0x100006354:            b3 a0 19 26  fstod     %f6, %d56
    0x100006358:            aa 05 60 08  add       %l5, 0x8, %l5
    0x10000635c:            bb a5 c8 51  faddd     %d54, %d48, %d60
    0x100006360:            9a 25 20 05  sub       %l4, 0x5, %o5
    0x100006364:            c1 68 e1 60  prefetch  [%g3 + 0x160], #n_reads
    0x100006368:            aa 05 60 06  add       %l5, 0x6, %l5
    0x10000636c:            dd 00 e0 00  ld        [%g3], %f14
    0x100006370:            86 00 e0 c0  add       %g3, 0xc0, %g3
    0x100006374:            9f a0 19 33  fstod     %f19, %d46
    0x100006378:            9b a7 48 59  faddd     %d60, %d56, %d44
    0x10000637c:            80 a5 40 0d  cmp       %l5, %o5
    0x100006380:            b3 a0 19 31  fstod     %f17, %d56
    0x100006384:            f3 00 ff 60  ld        [%g3 - 0xa0], %f25
    0x100006388:            83 a0 48 5b  faddd     %d32, %d58, %d32
    0x10000638c:            b7 a0 19 2f  fstod     %f15, %d58
    0x100006390:            e7 00 ff 80  ld        [%g3 - 0x80], %f19
    0x100006394:            a7 a3 48 4f  faddd     %d44, %d46, %d50
    0x100006398:            ab a0 19 2b  fstod     %f11, %d52
    0x10000639c:            e3 00 ff a0  ld        [%g3 - 0x60], %f17
    0x1000063a0:            93 a0 48 59  faddd     %d32, %d56, %d40
    0x1000063a4:            b3 a0 19 2e  fstod     %f14, %d56
    0x1000063a8:            df 00 ff c0  ld        [%g3 - 0x40], %f15
    0x1000063ac:            bb a4 c8 5b  faddd     %d50, %d58, %d60
    0x1000063b0:            b7 a0 19 39  fstod     %f25, %d58
    0x1000063b4:            d7 00 ff e0  ld        [%g3 - 0x20], %f11
    0x1000063b8:            04 6f ff eb  ble,pt    %xcc, -0x54   <0x100006364>
    0x1000063bc:            83 a2 48 55  faddd     %d40, %d52, %d32
    0x1000063c0:            9b a0 48 5b  faddd     %d32, %d58, %d44
    0x1000063c4:            9f a7 48 59  faddd     %d60, %d56, %d46
    0x1000063c8:            b7 a0 19 31  fstod     %f17, %d58
    0x1000063cc:            83 a0 19 33  fstod     %f19, %d32
    0x1000063d0:            a7 a0 19 2b  fstod     %f11, %d50
    0x1000063d4:            ab a0 19 2f  fstod     %f15, %d52
    0x1000063d8:            80 a5 40 14  cmp       %l5, %l4
    0x1000063dc:            b3 a3 48 5b  faddd     %d44, %d58, %d56
    0x1000063e0:            93 a3 c8 41  faddd     %d46, %d32, %d40
    0x1000063e4:            bb a6 48 53  faddd     %d56, %d50, %d60
    0x1000063e8:            bf a2 48 55  faddd     %d40, %d52, %d62
    0x1000063ec:            9b a7 c8 5d  faddd     %d62, %d60, %d44
    0x1000063f0:            14 60 00 0a  bg,pn     %xcc, +0x28   <0x100006418>
    0x1000063f4:            01 00 00 00  nop
    0x1000063f8:            ef 00 e0 00  ld        [%g3], %f23
    0x1000063fc:            83 a0 19 37  fstod     %f23, %d32
    0x100006400:            aa 05 60 01  add       %l5, 0x1, %l5
    0x100006404:            80 a5 40 14  cmp       %l5, %l4
    0x100006408:            86 00 e0 20  add       %g3, 0x20, %g3
    0x10000640c:            9b a3 48 41  faddd     %d44, %d32, %d44
    0x100006410:            24 6f ff fb  ble,a,pt  %xcc, -0x14   <0x1000063fc>
    0x100006414:            ef 00 e0 00  ld        [%g3], %f23
    0x100006418:            de 5e ff f8  ldx       [%i3 - 0x8], %o7
    0x10000641c:            f0 5b a8 cf  ldx       [%sp + 0x8cf], %i0
    0x100006420:            80 a7 20 00  cmp       %i4, 0x0
    0x100006424:            12 40 00 95  bne,pn    %icc, +0x254  <0x100006678>
    0x100006428:            db 3b c0 18  std       %d44, [%o7 + %i0]
    0x10000642c:            eb 1e e0 20  ldd       [%i3 + 0x20], %d52
    0x100006430:            a5 a0 10 95  fxtos     %d52, %f18
    0x100006434:            e8 06 ff e8  ld        [%i3 - 0x18], %l4
    0x100006438:            80 a5 20 00  cmp       %l4, 0x0
    0x10000643c:            a9 a6 c9 32  fmuls     %f27, %f18, %f20
    0x100006440:            14 40 00 05  bg,pn     %icc, +0x14   <0x100006454>
    0x100006444:            af a0 19 34  fstod     %f20, %d54
    0x100006448:            ef 3e ff f0  std       %d54, [%i3 - 0x10]
    0x10000644c:            10 80 00 54  ba        +0x150        <0x10000659c>
    0x100006450:            c7 3b a9 37  std       %d34, [%sp + 0x937]
    0x100006454:            94 05 20 00  add       %l4, 0x0, %o2
    0x100006458:            84 05 3f ff  add       %l4, -0x1, %g2
    0x10000645c:            80 a2 a0 18  cmp       %o2, 0x18
    0x100006460:            a8 10 20 00  clr       %l4
    0x100006464:            ea 5e ff f8  ldx       [%i3 - 0x8], %l5
    0x100006468:            06 40 00 44  bl,pn     %icc, +0x110  <0x100006578>
    0x10000646c:            01 00 00 00  nop
    0x100006470:            f7 1d 60 00  ldd       [%l5], %d58
    0x100006474:            fb 1d 60 08  ldd       [%l5 + 0x8], %d60
    0x100006478:            db 1d 60 20  ldd       [%l5 + 0x20], %d44
    0x10000647c:            cf 1d 60 10  ldd       [%l5 + 0x10], %d38
    0x100006480:            f3 1d 60 50  ldd       [%l5 + 0x50], %d56
    0x100006484:            eb 1d 60 40  ldd       [%l5 + 0x40], %d52
    0x100006488:            d3 1d 60 18  ldd       [%l5 + 0x18], %d40
    0x10000648c:            ff 1d 60 58  ldd       [%l5 + 0x58], %d62
    0x100006490:            27 00 04 00  sethi     %hi(0x100000), %l3
    0x100006494:            e7 1d 60 38  ldd       [%l5 + 0x38], %d50
    0x100006498:            8a 14 e0 04  or        %l3, 0x4, %g5
    0x10000649c:            91 29 70 0c  sllx      %g5, 0xc, %o0
    0x1000064a0:            c3 1a 26 40  ldd       [%o0 + 0x640], %d32
    0x1000064a4:            e3 1d 60 30  ldd       [%l5 + 0x30], %d48
    0x1000064a8:            df 1d 60 28  ldd       [%l5 + 0x28], %d46
    0x1000064ac:            93 a5 c8 49  faddd     %d54, %d40, %d40
    0x1000064b0:            aa 05 60 60  add       %l5, 0x60, %l5
    0x1000064b4:            b7 a0 48 5b  faddd     %d32, %d58, %d58
    0x1000064b8:            bb a0 48 5d  faddd     %d32, %d60, %d60
    0x1000064bc:            a8 10 20 0c  mov       0xc, %l4
    0x1000064c0:            8f a0 48 47  faddd     %d32, %d38, %d38
    0x1000064c4:            ef 1d 7f e8  ldd       [%l5 - 0x18], %d54
    0x1000064c8:            96 20 a0 0b  sub       %g2, 0xb, %o3
    0x1000064cc:            c1 6d 61 30  prefetch  [%l5 + 0x130], #n_reads
    0x1000064d0:            a8 05 20 0c  add       %l4, 0xc, %l4
    0x1000064d4:            c3 1d 60 00  ldd       [%l5], %d32
    0x1000064d8:            aa 05 60 60  add       %l5, 0x60, %l5
    0x1000064dc:            9b a6 c8 4d  faddd     %d58, %d44, %d44
    0x1000064e0:            9f a7 48 4f  faddd     %d60, %d46, %d46
    0x1000064e4:            80 a5 00 0b  cmp       %l4, %o3
    0x1000064e8:            fb 1d 7f a8  ldd       [%l5 - 0x58], %d60
    0x1000064ec:            a3 a1 c8 51  faddd     %d38, %d48, %d48
    0x1000064f0:            cf 1d 7f b0  ldd       [%l5 - 0x50], %d38
    0x1000064f4:            a7 a2 48 53  faddd     %d40, %d50, %d50
    0x1000064f8:            d3 1d 7f b8  ldd       [%l5 - 0x48], %d40
    0x1000064fc:            ab a3 48 55  faddd     %d44, %d52, %d52
    0x100006500:            db 1d 7f c0  ldd       [%l5 - 0x40], %d44
    0x100006504:            af a3 c8 57  faddd     %d46, %d54, %d54
    0x100006508:            df 1d 7f c8  ldd       [%l5 - 0x38], %d46
    0x10000650c:            b3 a4 48 59  faddd     %d48, %d56, %d56
    0x100006510:            e3 1d 7f d0  ldd       [%l5 - 0x30], %d48
    0x100006514:            bf a4 c8 5f  faddd     %d50, %d62, %d62
    0x100006518:            e7 1d 7f d8  ldd       [%l5 - 0x28], %d50
    0x10000651c:            b7 a5 48 41  faddd     %d52, %d32, %d58
    0x100006520:            eb 1d 7f e0  ldd       [%l5 - 0x20], %d52
    0x100006524:            bb a5 c8 5d  faddd     %d54, %d60, %d60
    0x100006528:            ef 1d 7f e8  ldd       [%l5 - 0x18], %d54
    0x10000652c:            8f a6 48 47  faddd     %d56, %d38, %d38
    0x100006530:            f3 1d 7f f0  ldd       [%l5 - 0x10], %d56
    0x100006534:            93 a7 c8 49  faddd     %d62, %d40, %d40
    0x100006538:            04 4f ff e5  ble,pt    %icc, -0x6c   <0x1000064cc>
    0x10000653c:            ff 1d 7f f8  ldd       [%l5 - 0x8], %d62
    0x100006540:            8f a1 c8 51  faddd     %d38, %d48, %d38
    0x100006544:            bb a7 48 4f  faddd     %d60, %d46, %d60
    0x100006548:            a3 a2 48 53  faddd     %d40, %d50, %d48
    0x10000654c:            9b a6 c8 4d  faddd     %d58, %d44, %d44
    0x100006550:            80 a5 00 02  cmp       %l4, %g2
    0x100006554:            83 a1 c8 59  faddd     %d38, %d56, %d32
    0x100006558:            af a7 48 57  faddd     %d60, %d54, %d54
    0x10000655c:            b3 a4 48 5f  faddd     %d48, %d62, %d56
    0x100006560:            9f a3 48 55  faddd     %d44, %d52, %d46
    0x100006564:            bf a3 c8 57  faddd     %d46, %d54, %d62
    0x100006568:            a7 a7 c8 41  faddd     %d62, %d32, %d50
    0x10000656c:            af a4 c8 59  faddd     %d50, %d56, %d54
    0x100006570:            14 40 00 09  bg,pn     %icc, +0x24   <0x100006594>
    0x100006574:            01 00 00 00  nop
    0x100006578:            a8 05 20 01  add       %l4, 0x1, %l4
    0x10000657c:            80 a5 00 02  cmp       %l4, %g2
    0x100006580:            e3 1d 60 00  ldd       [%l5], %d48
    0x100006584:            aa 05 60 08  add       %l5, 0x8, %l5
    0x100006588:            af a5 c8 51  faddd     %d54, %d48, %d54
    0x10000658c:            04 4f ff fc  ble,pt    %icc, -0x10   <0x10000657c>
    0x100006590:            a8 05 20 01  add       %l4, 0x1, %l4
    0x100006594:            ef 3e ff f0  std       %d54, [%i3 - 0x10]
    0x100006598:            c7 3b a9 37  std       %d34, [%sp + 0x937]
    0x10000659c:            d0 5e ff f8  ldx       [%i3 - 0x8], %o0
    0x1000065a0:            c7 23 a9 7f  st        %f3, [%sp + 0x97f]
    0x1000065a4:            d7 3b a9 27  std       %d42, [%sp + 0x927]
    0x1000065a8:            40 04 2d de  call      +0x10b778     <0x100111d20>
    0x1000065ac:            cb 3b a9 2f  std       %d36, [%sp + 0x92f]
    0x1000065b0:            d4 5e e0 20  ldx       [%i3 + 0x20], %o2
    0x1000065b4:            c2 5b a8 b7  ldx       [%sp + 0x8b7], %g1
    0x1000065b8:            e6 04 25 30  ld        [%l0 + 0x530], %l3
    0x1000065bc:            c7 1b a9 37  ldd       [%sp + 0x937], %d34
    0x1000065c0:            d7 1b a9 27  ldd       [%sp + 0x927], %d42
    0x1000065c4:            80 a2 80 01  cmp       %o2, %g1
    0x1000065c8:            cb 1b a9 2f  ldd       [%sp + 0x92f], %d36
    0x1000065cc:            a4 04 a0 01  add       %l2, 0x1, %l2
    0x1000065d0:            c7 03 a9 7f  ld        [%sp + 0x97f], %f3
    0x1000065d4:            06 6f fc b6  bl,pt     %xcc, -0xd28  <0x1000058ac>
    0x1000065d8:            80 a4 a0 01  cmp       %l2, 0x1
    0x1000065dc:            db 1e ff f0  ldd       [%i3 - 0x10], %d44
    0x1000065e0:            87 a0 18 cd  fdtos     %d44, %f3
    0x1000065e4:            83 a0 19 23  fstod     %f3, %d32
    0x1000065e8:            c3 3b a9 c7  std       %d32, [%sp + 0x9c7]
    0x1000065ec:            e0 5b a8 b7  ldx       [%sp + 0x8b7], %l0
    0x1000065f0:            c7 3b a9 37  std       %d34, [%sp + 0x937]
    0x1000065f4:            d7 3b a9 27  std       %d42, [%sp + 0x927]
    0x1000065f8:            98 10 00 1d  mov       %i5, %o4
    0x1000065fc:            cb 3b a9 2f  std       %d36, [%sp + 0x92f]
    0x100006600:            96 10 20 00  clr       %o3
    0x100006604:            90 10 00 19  mov       %i1, %o0
    0x100006608:            95 3c 20 00  sra       %l0, 0x0, %o2
    0x10000660c:            7f ff f7 1a  call      -0x2398       <0x100004274>
    0x100006610:            92 06 e0 28  add       %i3, 0x28, %o1
    0x100006614:            d7 1b a9 27  ldd       [%sp + 0x927], %d42
    0x100006618:            cb 1b a9 2f  ldd       [%sp + 0x92f], %d36
    0x10000661c:            c7 1b a9 37  ldd       [%sp + 0x937], %d34
    0x100006620:            d0 26 e0 30  st        %o0, [%i3 + 0x30]
    0x100006624:            da 5e 60 00  ldx       [%i1], %o5
    0x100006628:            c3 1b a9 c7  ldd       [%sp + 0x9c7], %d32
    0x10000662c:            04 c3 40 23  brlez,pn  %o5, +0x8c    <0x1000066b8>
    0x100006630:            94 10 20 00  clr       %o2
    0x100006634:            a8 10 20 00  clr       %l4
    0x100006638:            ea 5e 60 10  ldx       [%i1 + 0x10], %l5
    0x10000663c:            9e 10 20 01  mov       0x1, %o7
    0x100006640:            b0 05 00 15  add       %l4, %l5, %i0
    0x100006644:            e0 5e ff d8  ldx       [%i3 - 0x28], %l0
    0x100006648:            d2 5e 20 10  ldx       [%i0 + 0x10], %o1
    0x10000664c:            94 02 a0 01  add       %o2, 0x1, %o2
    0x100006650:            a8 05 20 20  add       %l4, 0x20, %l4
    0x100006654:            de 2c 00 09  stb       %o7, [%l0 + %o1]
    0x100006658:            d0 5e 60 00  ldx       [%i1], %o0
    0x10000665c:            80 a2 80 08  cmp       %o2, %o0
    0x100006660:            26 6f ff f8  bl,a,pt   %xcc, -0x20   <0x100006640>
    0x100006664:            ea 5e 60 10  ldx       [%i1 + 0x10], %l5
    0x100006668:            10 80 00 15  ba        +0x54         <0x1000066bc>
    0x10000666c:            ee 5b a8 bf  ldx       [%sp + 0x8bf], %l7
    0x100006670:            de 5b a8 cf  ldx       [%sp + 0x8cf], %o7
    0x100006674:            db 3b 00 0f  std       %d44, [%o4 + %o7]
    0x100006678:            e8 5e e0 20  ldx       [%i3 + 0x20], %l4
    0x10000667c:            c8 5b a8 b7  ldx       [%sp + 0x8b7], %g4
    0x100006680:            a4 04 a0 01  add       %l2, 0x1, %l2
    0x100006684:            80 a5 00 04  cmp       %l4, %g4
    0x100006688:            06 6f fc 89  bl,pt     %xcc, -0xddc  <0x1000058ac>
    0x10000668c:            80 a4 a0 01  cmp       %l2, 0x1
    0x100006690:            df 1e ff f0  ldd       [%i3 - 0x10], %d46
    0x100006694:            b7 a0 18 cf  fdtos     %d46, %f27
    0x100006698:            83 a0 19 3b  fstod     %f27, %d32
    0x10000669c:            10 80 00 08  ba        +0x20         <0x1000066bc>
    0x1000066a0:            ee 5b a8 bf  ldx       [%sp + 0x8bf], %l7
    0x1000066a4:            d3 1e ff f0  ldd       [%i3 - 0x10], %d40
    0x1000066a8:            f0 5b a8 c7  ldx       [%sp + 0x8c7], %i0
    0x1000066ac:            93 a0 18 c9  fdtos     %d40, %f9
    0x1000066b0:            c7 1e 26 40  ldd       [%i0 + 0x640], %d34
    0x1000066b4:            83 a0 19 29  fstod     %f9, %d32
    0x1000066b8:            ee 5b a8 bf  ldx       [%sp + 0x8bf], %l7
    0x1000066bc:            eb 1b a8 bf  ldd       [%sp + 0x8bf], %d52
    0x1000066c0:            ef 1b a8 b7  ldd       [%sp + 0x8b7], %d54
    0x1000066c4:            f3 1e a0 18  ldd       [%i2 + 0x18], %d56
    0x1000066c8:            e0 5b a8 b7  ldx       [%sp + 0x8b7], %l0
    0x1000066cc:            c7 3b a9 37  std       %d34, [%sp + 0x937]
    0x1000066d0:            d7 3b a9 27  std       %d42, [%sp + 0x927]
    0x1000066d4:            cb 3b a9 2f  std       %d36, [%sp + 0x92f]
    0x1000066d8:            c3 3b a9 c7  std       %d32, [%sp + 0x9c7]
    0x1000066dc:            9a 05 e0 02  add       %l7, 0x2, %o5
    0x1000066e0:            da 73 a8 d7  stx       %o5, [%sp + 0x8d7]
    0x1000066e4:            98 04 3f fe  add       %l0, -0x2, %o4
    0x1000066e8:            81 a0 11 15  fxtod     %d52, %d0
    0x1000066ec:            c1 3b a9 df  std       %d0, [%sp + 0x9df]
    0x1000066f0:            d0 5b a9 df  ldx       [%sp + 0x9df], %o0
    0x1000066f4:            af a0 11 17  fxtod     %d54, %d54
    0x1000066f8:            ef 3b a9 47  std       %d54, [%sp + 0x947]
    0x1000066fc:            b3 a0 09 59  fmuld     %d0, %d56, %d56
    0x100006700:            f3 3b a9 3f  std       %d56, [%sp + 0x93f]
    0x100006704:            40 00 16 2f  call      +0x58bc       <0x10000bfc0>
    0x100006708:            d8 73 a8 df  stx       %o4, [%sp + 0x8df]
    0x10000670c:            da 06 ff ec  ld        [%i3 - 0x14], %o5
    0x100006710:            c3 1b a9 c7  ldd       [%sp + 0x9c7], %d32
    0x100006714:            f3 1b a9 3f  ldd       [%sp + 0x93f], %d56
    0x100006718:            d7 1b a9 27  ldd       [%sp + 0x927], %d42
    0x10000671c:            9f a0 49 c1  fdivd     %d32, %d32, %d46
    0x100006720:            83 3b 60 00  sra       %o5, 0x0, %g1
    0x100006724:            ae 48 40 17  mulx      %g1, %l7, %l7
    0x100006728:            ee 73 a9 f7  stx       %l7, [%sp + 0x9f7]
    0x10000672c:            fb 1b a9 f7  ldd       [%sp + 0x9f7], %d60
    0x100006730:            ef 1b a9 47  ldd       [%sp + 0x947], %d54
    0x100006734:            cb 1b a9 2f  ldd       [%sp + 0x92f], %d36
    0x100006738:            a3 a0 11 1d  fxtod     %d60, %d48
    0x10000673c:            c7 1b a9 37  ldd       [%sp + 0x937], %d34
    0x100006740:            ab a0 00 40  fmovd     %d0, %d52
    0x100006744:            ff 1e a0 20  ldd       [%i2 + 0x20], %d62
    0x100006748:            85 ab ca df  fcmped    %fcc2, %d46, %d62
    0x10000674c:            1d 60 00 96  fbule,pn  %fcc2, +0x258  <0x1000069a4>
    0x100006750:            a3 a0 18 c5  fdtos     %d36, %f17
    0x100006754:            bf a4 49 55  fmuld     %d48, %d52, %d62
    0x100006758:            d2 06 e0 30  ld        [%i3 + 0x30], %o1
    0x10000675c:            8a 10 20 00  clr       %g5
    0x100006760:            80 a7 20 00  cmp       %i4, 0x0
    0x100006764:            a1 3a 60 00  sra       %o1, 0x0, %l0
    0x100006768:            8b 7c 24 01  movre     %l0, 0x1, %g5
    0x10000676c:            93 a0 10 5f  fdtox     %d62, %d40
    0x100006770:            d3 3b a8 ff  std       %d40, [%sp + 0x8ff]
    0x100006774:            d0 5b a8 ff  ldx       [%sp + 0x8ff], %o0
    0x100006778:            a4 04 00 05  add       %l0, %g5, %l2
    0x10000677c:            e2 5e e0 28  ldx       [%i3 + 0x28], %l1
    0x100006780:            a6 04 3f ff  add       %l0, -0x1, %l3
    0x100006784:            d2 23 a8 e7  st        %o1, [%sp + 0x8e7]
    0x100006788:            a8 02 3f ff  add       %o0, -0x1, %l4
    0x10000678c:            c4 5b a8 c7  ldx       [%sp + 0x8c7], %g2
    0x100006790:            e3 18 a6 40  ldd       [%g2 + 0x640], %d48
    0x100006794:            12 40 00 37  bne,pn    %icc, +0xdc   <0x100006870>
    0x100006798:            c6 03 a8 e7  ld        [%sp + 0x8e7], %g3
    0x10000679c:            80 a0 e0 00  cmp       %g3, 0x0
    0x1000067a0:            04 40 00 34  ble,pn    %icc, +0xd0   <0x100006870>
    0x1000067a4:            ac 10 20 00  clr       %l6
    0x1000067a8:            aa 10 00 11  mov       %l1, %l5
    0x1000067ac:            eb 3b a9 4f  std       %d52, [%sp + 0x94f]
    0x1000067b0:            ae 10 00 10  mov       %l0, %l7
    0x1000067b4:            d7 3b a9 27  std       %d42, [%sp + 0x927]
    0x1000067b8:            c7 3b a9 37  std       %d34, [%sp + 0x937]
    0x1000067bc:            f3 3b a9 3f  std       %d56, [%sp + 0x93f]
    0x1000067c0:            ef 3b a9 47  std       %d54, [%sp + 0x947]
    0x1000067c4:            e3 23 a9 57  st        %f17, [%sp + 0x957]
    0x1000067c8:            e3 3b a9 5f  std       %d48, [%sp + 0x95f]
    0x1000067cc:            c3 3b a9 67  std       %d32, [%sp + 0x967]
    0x1000067d0:            40 04 2d 44  call      +0x10b510     <0x100111ce0>
    0x1000067d4:            cb 3b a9 2f  std       %d36, [%sp + 0x92f]
    0x1000067d8:            ca 05 60 00  ld        [%l5], %g5
    0x1000067dc:            eb 1b a9 4f  ldd       [%sp + 0x94f], %d52
    0x1000067e0:            d7 1b a9 27  ldd       [%sp + 0x927], %d42
    0x1000067e4:            cb 1b a9 2f  ldd       [%sp + 0x92f], %d36
    0x1000067e8:            c7 1b a9 37  ldd       [%sp + 0x937], %d34
    0x1000067ec:            f3 1b a9 3f  ldd       [%sp + 0x93f], %d56
    0x1000067f0:            ef 1b a9 47  ldd       [%sp + 0x947], %d54
    0x1000067f4:            e3 03 a9 57  ld        [%sp + 0x957], %f17
    0x1000067f8:            9a 25 e0 01  sub       %l7, 0x1, %o5
    0x1000067fc:            e3 1b a9 5f  ldd       [%sp + 0x95f], %d48
    0x100006800:            80 8d c0 0d  btst      %o5, %l7
    0x100006804:            c3 1b a9 67  ldd       [%sp + 0x967], %d32
    0x100006808:            12 60 00 0c  bne,pn    %xcc, +0x30   <0x100006838>
    0x10000680c:            01 00 00 00  nop
    0x100006810:            02 c5 c0 0a  brz,pn    %l7, +0x28    <0x100006838>
    0x100006814:            b1 3a 30 3f  srax      %o0, 0x3f, %i0
    0x100006818:            90 1a 00 18  xor       %o0, %i0, %o0
    0x10000681c:            92 22 00 18  sub       %o0, %i0, %o1
    0x100006820:            96 8a 40 0d  andcc     %o1, %o5, %o3
    0x100006824:            94 1a c0 18  xor       %o3, %i0, %o2
    0x100006828:            9e 22 80 18  sub       %o2, %i0, %o7
    0x10000682c:            97 66 50 0f  movne     %xcc, %o7, %o3
    0x100006830:            10 80 00 06  ba        +0x18         <0x100006848>
    0x100006834:            98 02 c0 16  add       %o3, %l6, %o4
    0x100006838:            85 6a 00 17  sdivx     %o0, %l7, %g2
    0x10000683c:            82 48 80 17  mulx      %g2, %l7, %g1
    0x100006840:            96 22 00 01  sub       %o0, %g1, %o3
    0x100006844:            98 02 c0 16  add       %o3, %l6, %o4
    0x100006848:            87 2b 30 02  sllx      %o4, 0x2, %g3
    0x10000684c:            ae 10 00 0d  mov       %o5, %l7
    0x100006850:            da 04 40 03  ld        [%l1 + %g3], %o5
    0x100006854:            da 25 60 00  st        %o5, [%l5]
    0x100006858:            ac 05 a0 01  add       %l6, 0x1, %l6
    0x10000685c:            ca 24 40 03  st        %g5, [%l1 + %g3]
    0x100006860:            80 a5 80 13  cmp       %l6, %l3
    0x100006864:            aa 05 60 04  add       %l5, 0x4, %l5
    0x100006868:            24 6f ff d3  ble,a,pt  %xcc, -0xb4   <0x1000067b4>
    0x10000686c:            eb 3b a9 4f  std       %d52, [%sp + 0x94f]
    0x100006870:            c8 5b a8 ff  ldx       [%sp + 0x8ff], %g4
    0x100006874:            04 c1 00 3f  brlez,pn  %g4, +0xfc    <0x100006970>
    0x100006878:            97 3c 30 3f  srax      %l0, 0x3f, %o3
    0x10000687c:            90 24 a0 01  sub       %l2, 0x1, %o0
    0x100006880:            9e 1c 00 0b  xor       %l0, %o3, %o7
    0x100006884:            80 8c 80 08  btst      %o0, %l2
    0x100006888:            ac 23 c0 0b  sub       %o7, %o3, %l6
    0x10000688c:            12 60 00 06  bne,pn    %xcc, +0x18   <0x1000068a4>
    0x100006890:            aa 10 20 00  clr       %l5
    0x100006894:            02 c4 80 04  brz,pn    %l2, +0x10    <0x1000068a4>
    0x100006898:            b0 10 20 00  clr       %i0
    0x10000689c:            10 80 00 06  ba        +0x18         <0x1000068b4>
    0x1000068a0:            89 a0 19 31  fstod     %f17, %d4
    0x1000068a4:            89 68 00 12  sdivx     %g0, %l2, %g4
    0x1000068a8:            8a 49 00 12  mulx      %g4, %l2, %g5
    0x1000068ac:            89 a0 19 31  fstod     %f17, %d4
    0x1000068b0:            b0 20 00 05  neg       %g5, %i0
    0x1000068b4:            c9 3b a9 f7  std       %d4, [%sp + 0x9f7]
    0x1000068b8:            ae 05 bf ff  add       %l6, -0x1, %l7
    0x1000068bc:            95 2e 30 02  sllx      %i0, 0x2, %o2
    0x1000068c0:            f3 3b a9 3f  std       %d56, [%sp + 0x93f]
    0x1000068c4:            eb 3b a9 4f  std       %d52, [%sp + 0x94f]
    0x1000068c8:            e3 23 a9 57  st        %f17, [%sp + 0x957]
    0x1000068cc:            e3 3b a9 5f  std       %d48, [%sp + 0x95f]
    0x1000068d0:            c3 3b a9 67  std       %d32, [%sp + 0x967]
    0x1000068d4:            de 02 80 11  ld        [%o2 + %l1], %o7
    0x1000068d8:            9a 10 00 1d  mov       %i5, %o5
    0x1000068dc:            92 10 00 19  mov       %i1, %o1
    0x1000068e0:            91 3b e0 00  sra       %o7, 0x0, %o0
    0x1000068e4:            98 10 00 1c  mov       %i4, %o4
    0x1000068e8:            96 06 e0 20  add       %i3, 0x20, %o3
    0x1000068ec:            ef 3b a9 47  std       %d54, [%sp + 0x947]
    0x1000068f0:            d7 3b a9 27  std       %d42, [%sp + 0x927]
    0x1000068f4:            c7 3b a9 37  std       %d34, [%sp + 0x937]
    0x1000068f8:            aa 05 60 01  add       %l5, 0x1, %l5
    0x1000068fc:            7f ff f1 b0  call      -0x3940       <0x100002fbc>
    0x100006900:            cb 3b a9 2f  std       %d36, [%sp + 0x92f]
    0x100006904:            97 35 70 3f  srlx      %l5, 0x3f, %o3
    0x100006908:            98 1a e0 01  xor       %o3, 0x1, %o4
    0x10000690c:            e3 1b a9 5f  ldd       [%sp + 0x95f], %d48
    0x100006910:            82 20 00 0c  neg       %o4, %g1
    0x100006914:            84 08 40 17  and       %g1, %l7, %g2
    0x100006918:            c9 1b a9 f7  ldd       [%sp + 0x9f7], %d4
    0x10000691c:            94 06 20 01  add       %i0, 0x1, %o2
    0x100006920:            eb 1b a9 4f  ldd       [%sp + 0x94f], %d52
    0x100006924:            86 00 a0 01  add       %g2, 0x1, %g3
    0x100006928:            d7 1b a9 27  ldd       [%sp + 0x927], %d42
    0x10000692c:            b0 1a 80 03  xor       %o2, %g3, %i0
    0x100006930:            cb 1b a9 2f  ldd       [%sp + 0x92f], %d36
    0x100006934:            92 10 20 00  clr       %o1
    0x100006938:            c7 1b a9 37  ldd       [%sp + 0x937], %d34
    0x10000693c:            93 7e 24 01  movre     %i0, 0x1, %o1
    0x100006940:            9a 20 00 09  neg       %o1, %o5
    0x100006944:            f3 1b a9 3f  ldd       [%sp + 0x93f], %d56
    0x100006948:            8b 3b 60 00  sra       %o5, 0x0, %g5
    0x10000694c:            ef 1b a9 47  ldd       [%sp + 0x947], %d54
    0x100006950:            90 09 40 16  and       %g5, %l6, %o0
    0x100006954:            e3 03 a9 57  ld        [%sp + 0x957], %f17
    0x100006958:            a3 a4 48 40  faddd     %d48, %d0, %d48
    0x10000695c:            80 a5 40 14  cmp       %l5, %l4
    0x100006960:            c3 1b a9 67  ldd       [%sp + 0x967], %d32
    0x100006964:            b0 22 80 08  sub       %o2, %o0, %i0
    0x100006968:            24 6f ff d5  ble,a,pt  %xcc, -0xac   <0x1000068bc>
    0x10000696c:            c9 3b a9 f7  std       %d4, [%sp + 0x9f7]
    0x100006970:            83 a0 48 d1  fsubd     %d32, %d48, %d32
    0x100006974:            fb 1e a0 20  ldd       [%i2 + 0x20], %d60
    0x100006978:            a7 a4 49 c1  fdivd     %d48, %d32, %d50
    0x10000697c:            87 ac ca dd  fcmped    %fcc3, %d50, %d60
    0x100006980:            0d 7f ff 83  fbg,pt    %fcc3, -0x1f4  <0x10000678c>
    0x100006984:            80 a7 20 00  cmp       %i4, 0x0
    0x100006988:            e0 06 ff ec  ld        [%i3 - 0x14], %l0
    0x10000698c:            e6 5b a8 bf  ldx       [%sp + 0x8bf], %l3
    0x100006990:            a3 3c 20 00  sra       %l0, 0x0, %l1
    0x100006994:            a4 4c 40 13  mulx      %l1, %l3, %l2
    0x100006998:            e4 73 a9 f7  stx       %l2, [%sp + 0x9f7]
    0x10000699c:            e3 1b a9 f7  ldd       [%sp + 0x9f7], %d48
    0x1000069a0:            a3 a0 11 11  fxtod     %d48, %d48
    0x1000069a4:            f7 1e e0 20  ldd       [%i3 + 0x20], %d58
    0x1000069a8:            91 a0 18 c1  fdtos     %d32, %f8
    0x1000069ac:            a7 a0 11 1b  fxtod     %d58, %d50
    0x1000069b0:            81 ac ca d9  fcmped    %fcc0, %d50, %d56
    0x1000069b4:            0b 40 00 07  fbug,pn   %fcc0, +0x1c   <0x1000069d0>
    0x1000069b8:            83 a0 19 28  fstod     %f8, %d32
    0x1000069bc:            fb 1e a0 28  ldd       [%i2 + 0x28], %d60
    0x1000069c0:            9b a5 c9 5d  fmuld     %d54, %d60, %d44
    0x1000069c4:            83 ac ca cd  fcmped    %fcc1, %d50, %d44
    0x1000069c8:            37 50 00 0b  fbge,a,pn %fcc1, +0x2c   <0x1000069f4>
    0x1000069cc:            b7 a0 49 c1  fdivd     %d32, %d32, %d58
    0x1000069d0:            e2 5e e0 20  ldx       [%i3 + 0x20], %l1
    0x1000069d4:            da 5b a8 d7  ldx       [%sp + 0x8d7], %o5
    0x1000069d8:            80 a4 40 0d  cmp       %l1, %o5
    0x1000069dc:            14 60 00 a1  bg,pn     %xcc, +0x284  <0x100006c60>
    0x1000069e0:            e4 5b a8 df  ldx       [%sp + 0x8df], %l2
    0x1000069e4:            80 a4 40 12  cmp       %l1, %l2
    0x1000069e8:            26 60 00 9f  bl,a,pn   %xcc, +0x27c  <0x100006c64>
    0x1000069ec:            e4 5e e0 20  ldx       [%i3 + 0x20], %l2
    0x1000069f0:            b7 a0 49 c1  fdivd     %d32, %d32, %d58
    0x1000069f4:            cf 1e a0 30  ldd       [%i2 + 0x30], %d38
    0x1000069f8:            85 ae ca c7  fcmped    %fcc2, %d58, %d38
    0x1000069fc:            1d 60 00 97  fbule,pn  %fcc2, +0x25c  <0x100006c58>
    0x100006a00:            d6 06 e0 30  ld        [%i3 + 0x30], %o3
    0x100006a04:            9b a4 49 55  fmuld     %d48, %d52, %d44
    0x100006a08:            86 10 20 00  clr       %g3
    0x100006a0c:            a1 3a e0 00  sra       %o3, 0x0, %l0
    0x100006a10:            87 7c 24 01  movre     %l0, 0x1, %g3
    0x100006a14:            e2 5e e0 28  ldx       [%i3 + 0x28], %l1
    0x100006a18:            a4 04 00 03  add       %l0, %g3, %l2
    0x100006a1c:            9f a0 10 4d  fdtox     %d44, %d46
    0x100006a20:            df 3b a9 1f  std       %d46, [%sp + 0x91f]
    0x100006a24:            a6 04 3f ff  add       %l0, -0x1, %l3
    0x100006a28:            d4 5b a9 1f  ldx       [%sp + 0x91f], %o2
    0x100006a2c:            80 a7 20 00  cmp       %i4, 0x0
    0x100006a30:            d6 23 a9 07  st        %o3, [%sp + 0x907]
    0x100006a34:            a8 02 bf ff  add       %o2, -0x1, %l4
    0x100006a38:            ca 5b a8 c7  ldx       [%sp + 0x8c7], %g5
    0x100006a3c:            cf 19 66 40  ldd       [%g5 + 0x640], %d38
    0x100006a40:            12 40 00 37  bne,pn    %icc, +0xdc   <0x100006b1c>
    0x100006a44:            d0 03 a9 07  ld        [%sp + 0x907], %o0
    0x100006a48:            80 a2 20 00  cmp       %o0, 0x0
    0x100006a4c:            04 40 00 34  ble,pn    %icc, +0xd0   <0x100006b1c>
    0x100006a50:            ac 10 20 00  clr       %l6
    0x100006a54:            aa 10 00 11  mov       %l1, %l5
    0x100006a58:            c3 3b a9 6f  std       %d32, [%sp + 0x96f]
    0x100006a5c:            ae 10 00 10  mov       %l0, %l7
    0x100006a60:            d7 3b a9 27  std       %d42, [%sp + 0x927]
    0x100006a64:            c7 3b a9 37  std       %d34, [%sp + 0x937]
    0x100006a68:            f3 3b a9 3f  std       %d56, [%sp + 0x93f]
    0x100006a6c:            ef 3b a9 47  std       %d54, [%sp + 0x947]
    0x100006a70:            eb 3b a9 4f  std       %d52, [%sp + 0x94f]
    0x100006a74:            e3 23 a9 57  st        %f17, [%sp + 0x957]
    0x100006a78:            cf 3b a9 77  std       %d38, [%sp + 0x977]
    0x100006a7c:            40 04 2c 99  call      +0x10b264     <0x100111ce0>
    0x100006a80:            cb 3b a9 2f  std       %d36, [%sp + 0x92f]
    0x100006a84:            ca 05 60 00  ld        [%l5], %g5
    0x100006a88:            c3 1b a9 6f  ldd       [%sp + 0x96f], %d32
    0x100006a8c:            eb 1b a9 4f  ldd       [%sp + 0x94f], %d52
    0x100006a90:            c7 1b a9 37  ldd       [%sp + 0x937], %d34
    0x100006a94:            d7 1b a9 27  ldd       [%sp + 0x927], %d42
    0x100006a98:            cb 1b a9 2f  ldd       [%sp + 0x92f], %d36
    0x100006a9c:            f3 1b a9 3f  ldd       [%sp + 0x93f], %d56
    0x100006aa0:            ef 1b a9 47  ldd       [%sp + 0x947], %d54
    0x100006aa4:            88 25 e0 01  sub       %l7, 0x1, %g4
    0x100006aa8:            e3 03 a9 57  ld        [%sp + 0x957], %f17
    0x100006aac:            80 8d c0 04  btst      %g4, %l7
    0x100006ab0:            cf 1b a9 77  ldd       [%sp + 0x977], %d38
    0x100006ab4:            12 60 00 0c  bne,pn    %xcc, +0x30   <0x100006ae4>
    0x100006ab8:            01 00 00 00  nop
    0x100006abc:            02 c5 c0 0a  brz,pn    %l7, +0x28    <0x100006ae4>
    0x100006ac0:            b1 3a 30 3f  srax      %o0, 0x3f, %i0
    0x100006ac4:            90 1a 00 18  xor       %o0, %i0, %o0
    0x100006ac8:            92 22 00 18  sub       %o0, %i0, %o1
    0x100006acc:            96 8a 40 04  andcc     %o1, %g4, %o3
    0x100006ad0:            94 1a c0 18  xor       %o3, %i0, %o2
    0x100006ad4:            9e 22 80 18  sub       %o2, %i0, %o7
    0x100006ad8:            97 66 50 0f  movne     %xcc, %o7, %o3
    0x100006adc:            10 80 00 06  ba        +0x18         <0x100006af4>
    0x100006ae0:            98 02 c0 16  add       %o3, %l6, %o4
    0x100006ae4:            85 6a 00 17  sdivx     %o0, %l7, %g2
    0x100006ae8:            82 48 80 17  mulx      %g2, %l7, %g1
    0x100006aec:            96 22 00 01  sub       %o0, %g1, %o3
    0x100006af0:            98 02 c0 16  add       %o3, %l6, %o4
    0x100006af4:            87 2b 30 02  sllx      %o4, 0x2, %g3
    0x100006af8:            da 04 40 03  ld        [%l1 + %g3], %o5
    0x100006afc:            ac 05 a0 01  add       %l6, 0x1, %l6
    0x100006b00:            da 25 60 00  st        %o5, [%l5]
    0x100006b04:            ca 24 40 03  st        %g5, [%l1 + %g3]
    0x100006b08:            80 a5 80 13  cmp       %l6, %l3
    0x100006b0c:            ae 10 00 04  mov       %g4, %l7
    0x100006b10:            aa 05 60 04  add       %l5, 0x4, %l5
    0x100006b14:            24 6f ff d3  ble,a,pt  %xcc, -0xb4   <0x100006a60>
    0x100006b18:            c3 3b a9 6f  std       %d32, [%sp + 0x96f]
    0x100006b1c:            d2 5b a9 1f  ldx       [%sp + 0x91f], %o1
    0x100006b20:            04 c2 40 3f  brlez,pn  %o1, +0xfc    <0x100006c1c>
    0x100006b24:            95 3c 30 3f  srax      %l0, 0x3f, %o2
    0x100006b28:            88 24 a0 01  sub       %l2, 0x1, %g4
    0x100006b2c:            92 1c 00 0a  xor       %l0, %o2, %o1
    0x100006b30:            80 8c 80 04  btst      %g4, %l2
    0x100006b34:            ac 22 40 0a  sub       %o1, %o2, %l6
    0x100006b38:            12 60 00 06  bne,pn    %xcc, +0x18   <0x100006b50>
    0x100006b3c:            aa 10 20 00  clr       %l5
    0x100006b40:            02 c4 80 04  brz,pn    %l2, +0x10    <0x100006b50>
    0x100006b44:            b0 10 20 00  clr       %i0
    0x100006b48:            10 80 00 06  ba        +0x18         <0x100006b60>
    0x100006b4c:            89 a0 19 31  fstod     %f17, %d4
    0x100006b50:            89 68 00 12  sdivx     %g0, %l2, %g4
    0x100006b54:            8a 49 00 12  mulx      %g4, %l2, %g5
    0x100006b58:            89 a0 19 31  fstod     %f17, %d4
    0x100006b5c:            b0 20 00 05  neg       %g5, %i0
    0x100006b60:            c9 3b a9 f7  std       %d4, [%sp + 0x9f7]
    0x100006b64:            ae 05 bf ff  add       %l6, -0x1, %l7
    0x100006b68:            9f 2e 30 02  sllx      %i0, 0x2, %o7
    0x100006b6c:            f3 3b a9 3f  std       %d56, [%sp + 0x93f]
    0x100006b70:            eb 3b a9 4f  std       %d52, [%sp + 0x94f]
    0x100006b74:            e3 23 a9 57  st        %f17, [%sp + 0x957]
    0x100006b78:            c3 3b a9 6f  std       %d32, [%sp + 0x96f]
    0x100006b7c:            cf 3b a9 77  std       %d38, [%sp + 0x977]
    0x100006b80:            d6 03 c0 11  ld        [%o7 + %l1], %o3
    0x100006b84:            9a 10 00 1d  mov       %i5, %o5
    0x100006b88:            92 10 00 19  mov       %i1, %o1
    0x100006b8c:            91 3a e0 00  sra       %o3, 0x0, %o0
    0x100006b90:            98 10 00 1c  mov       %i4, %o4
    0x100006b94:            96 06 e0 20  add       %i3, 0x20, %o3
    0x100006b98:            ef 3b a9 47  std       %d54, [%sp + 0x947]
    0x100006b9c:            d7 3b a9 27  std       %d42, [%sp + 0x927]
    0x100006ba0:            c7 3b a9 37  std       %d34, [%sp + 0x937]
    0x100006ba4:            aa 05 60 01  add       %l5, 0x1, %l5
    0x100006ba8:            7f ff f1 05  call      -0x3bec       <0x100002fbc>
    0x100006bac:            cb 3b a9 2f  std       %d36, [%sp + 0x92f]
    0x100006bb0:            99 35 70 3f  srlx      %l5, 0x3f, %o4
    0x100006bb4:            82 1b 20 01  xor       %o4, 0x1, %g1
    0x100006bb8:            cf 1b a9 77  ldd       [%sp + 0x977], %d38
    0x100006bbc:            84 20 00 01  neg       %g1, %g2
    0x100006bc0:            86 08 80 17  and       %g2, %l7, %g3
    0x100006bc4:            c9 1b a9 f7  ldd       [%sp + 0x9f7], %d4
    0x100006bc8:            9e 06 20 01  add       %i0, 0x1, %o7
    0x100006bcc:            c3 1b a9 6f  ldd       [%sp + 0x96f], %d32
    0x100006bd0:            92 00 e0 01  add       %g3, 0x1, %o1
    0x100006bd4:            eb 1b a9 4f  ldd       [%sp + 0x94f], %d52
    0x100006bd8:            b0 1b c0 09  xor       %o7, %o1, %i0
    0x100006bdc:            d7 1b a9 27  ldd       [%sp + 0x927], %d42
    0x100006be0:            94 10 20 00  clr       %o2
    0x100006be4:            cb 1b a9 2f  ldd       [%sp + 0x92f], %d36
    0x100006be8:            95 7e 24 01  movre     %i0, 0x1, %o2
    0x100006bec:            88 20 00 0a  neg       %o2, %g4
    0x100006bf0:            c7 1b a9 37  ldd       [%sp + 0x937], %d34
    0x100006bf4:            8b 39 20 00  sra       %g4, 0x0, %g5
    0x100006bf8:            f3 1b a9 3f  ldd       [%sp + 0x93f], %d56
    0x100006bfc:            90 09 40 16  and       %g5, %l6, %o0
    0x100006c00:            ef 1b a9 47  ldd       [%sp + 0x947], %d54
    0x100006c04:            8f a1 c8 40  faddd     %d38, %d0, %d38
    0x100006c08:            80 a5 40 14  cmp       %l5, %l4
    0x100006c0c:            e3 03 a9 57  ld        [%sp + 0x957], %f17
    0x100006c10:            b0 23 c0 08  sub       %o7, %o0, %i0
    0x100006c14:            24 6f ff d5  ble,a,pt  %xcc, -0xac   <0x100006b68>
    0x100006c18:            c9 3b a9 f7  std       %d4, [%sp + 0x9f7]
    0x100006c1c:            83 a0 48 c7  fsubd     %d32, %d38, %d32
    0x100006c20:            ff 1e a0 30  ldd       [%i2 + 0x30], %d62
    0x100006c24:            93 a1 c9 c1  fdivd     %d38, %d32, %d40
    0x100006c28:            87 aa 4a df  fcmped    %fcc3, %d40, %d62
    0x100006c2c:            0d 7f ff 83  fbg,pt    %fcc3, -0x1f4  <0x100006a38>
    0x100006c30:            80 a7 20 00  cmp       %i4, 0x0
    0x100006c34:            e6 06 ff ec  ld        [%i3 - 0x14], %l3
    0x100006c38:            e4 5b a8 bf  ldx       [%sp + 0x8bf], %l2
    0x100006c3c:            e7 1e e0 20  ldd       [%i3 + 0x20], %d50
    0x100006c40:            a9 3c e0 00  sra       %l3, 0x0, %l4
    0x100006c44:            9e 4d 00 12  mulx      %l4, %l2, %o7
    0x100006c48:            de 73 a9 f7  stx       %o7, [%sp + 0x9f7]
    0x100006c4c:            cf 1b a9 f7  ldd       [%sp + 0x9f7], %d38
    0x100006c50:            a7 a0 11 13  fxtod     %d50, %d50
    0x100006c54:            a3 a0 11 07  fxtod     %d38, %d48
    0x100006c58:            b5 a0 18 c1  fdtos     %d32, %f26
    0x100006c5c:            83 a0 19 3a  fstod     %f26, %d32
    0x100006c60:            e4 5e e0 20  ldx       [%i3 + 0x20], %l2
    0x100006c64:            e2 5b a8 bf  ldx       [%sp + 0x8bf], %l1
    0x100006c68:            80 a4 80 11  cmp       %l2, %l1
    0x100006c6c:            04 60 00 14  ble,pn    %xcc, +0x50   <0x100006cbc>
    0x100006c70:            db 1e a0 08  ldd       [%i2 + 0x8], %d44
    0x100006c74:            bf a2 c8 45  faddd     %d42, %d36, %d62
    0x100006c78:            87 a0 00 45  fmovd     %d36, %d34
    0x100006c7c:            e8 5b a8 b7  ldx       [%sp + 0x8b7], %l4
    0x100006c80:            80 a4 80 14  cmp       %l2, %l4
    0x100006c84:            8b a7 c9 4d  fmuld     %d62, %d44, %d36
    0x100006c88:            9f a1 48 c3  fsubd     %d36, %d34, %d46
    0x100006c8c:            93 a3 c9 53  fmuld     %d46, %d50, %d40
    0x100006c90:            16 60 00 15  bge,pn    %xcc, +0x54   <0x100006ce4>
    0x100006c94:            83 a0 48 49  faddd     %d32, %d40, %d32
    0x100006c98:            b7 a1 48 43  faddd     %d36, %d34, %d58
    0x100006c9c:            cf 1e a0 08  ldd       [%i2 + 0x8], %d38
    0x100006ca0:            97 a0 00 45  fmovd     %d36, %d42
    0x100006ca4:            8b a6 c9 47  fmuld     %d58, %d38, %d36
    0x100006ca8:            bb a1 48 cb  fsubd     %d36, %d42, %d60
    0x100006cac:            a7 a7 49 53  fmuld     %d60, %d50, %d50
    0x100006cb0:            83 a0 48 53  faddd     %d32, %d50, %d32
    0x100006cb4:            10 80 00 0d  ba        +0x34         <0x100006ce8>
    0x100006cb8:            df 1e a0 38  ldd       [%i2 + 0x38], %d46
    0x100006cbc:            de 5b a8 b7  ldx       [%sp + 0x8b7], %o7
    0x100006cc0:            80 a4 80 0f  cmp       %l2, %o7
    0x100006cc4:            16 60 00 0d  bge,pn    %xcc, +0x34   <0x100006cf8>
    0x100006cc8:            cf 1e a0 08  ldd       [%i2 + 0x8], %d38
    0x100006ccc:            b7 a1 48 43  faddd     %d36, %d34, %d58
    0x100006cd0:            97 a0 00 45  fmovd     %d36, %d42
    0x100006cd4:            8b a6 c9 47  fmuld     %d58, %d38, %d36
    0x100006cd8:            bb a1 48 cb  fsubd     %d36, %d42, %d60
    0x100006cdc:            a7 a7 49 53  fmuld     %d60, %d50, %d50
    0x100006ce0:            83 a0 48 53  faddd     %d32, %d50, %d32
    0x100006ce4:            df 1e a0 38  ldd       [%i2 + 0x38], %d46
    0x100006ce8:            93 a2 c9 4f  fmuld     %d42, %d46, %d40
    0x100006cec:            81 a8 ca c9  fcmped    %fcc0, %d34, %d40
    0x100006cf0:            27 4f fe 95  fbul,a,pt %fcc0, -0x5ac  <0x100006744>
    0x100006cf4:            9f a0 49 c1  fdivd     %d32, %d32, %d46
    0x100006cf8:            80 a7 20 00  cmp       %i4, 0x0
    0x100006cfc:            32 40 00 1b  bne,a,pn  %icc, +0x6c   <0x100006d68>
    0x100006d00:            81 a0 18 c1  fdtos     %d32, %f0
    0x100006d04:            d0 5e e0 28  ldx       [%i3 + 0x28], %o0
    0x100006d08:            40 04 2c 06  call      +0x10b018     <0x100111d20>
    0x100006d0c:            c3 3b a9 c7  std       %d32, [%sp + 0x9c7]
    0x100006d10:            40 04 2c 04  call      +0x10b010     <0x100111d20>
    0x100006d14:            d0 5e e0 38  ldx       [%i3 + 0x38], %o0
    0x100006d18:            f2 5e e0 20  ldx       [%i3 + 0x20], %i1
    0x100006d1c:            f8 5b a8 af  ldx       [%sp + 0x8af], %i4
    0x100006d20:            f2 77 20 00  stx       %i1, [%i4]
    0x100006d24:            c3 1b a9 c7  ldd       [%sp + 0x9c7], %d32
    0x100006d28:            81 a0 18 c1  fdtos     %d32, %f0
    0x100006d2c:            81 c7 e0 08  ret
    0x100006d30:            81 e8 20 00  restore   %g0, 0x0, %g0
    0x100006d34:            10 80 00 00  ba        +0x0          <0x100006d34>
    0x100006d38:            01 00 00 00  nop
    0x100006d3c:            80 a7 20 00  cmp       %i4, 0x0
    0x100006d40:            12 40 00 07  bne,pn    %icc, +0x1c   <0x100006d5c>
    0x100006d44:            39 00 04 00  sethi     %hi(0x100000), %i4
    0x100006d48:            40 04 2b f6  call      +0x10afd8     <0x100111d20>
    0x100006d4c:            d0 5e e0 38  ldx       [%i3 + 0x38], %o0
    0x100006d50:            fa 5b a8 af  ldx       [%sp + 0x8af], %i5
    0x100006d54:            f4 5e e0 20  ldx       [%i3 + 0x20], %i2
    0x100006d58:            f4 77 60 00  stx       %i2, [%i5]
    0x100006d5c:            b6 17 20 04  or        %i4, 0x4, %i3
    0x100006d60:            bb 2e f0 0c  sllx      %i3, 0xc, %i5
    0x100006d64:            c1 07 66 38  ld        [%i5 + 0x638], %f0
    0x100006d68:            81 c7 e0 08  ret
    0x100006d6c:            81 e8 20 00  restore   %g0, 0x0, %g0
    0x100006d70:            3f 80 00 00  fbo,a     +0x0          <0x100006d70>
    0x100006d74:            00 00 00 00  illtrap   0x0
    0x100006d78:            00 00 00 00  illtrap   0x0
    0x100006d7c:            00 00 00 00  illtrap   0x0
    0x100006d80:            00 00 00 00  illtrap   0x0
    0x100006d84:            00 00 00 00  illtrap   0x0
    0x100006d88:            00 00 00 00  illtrap   0x0
    0x100006d8c:            00 00 00 00  illtrap   0x0
__1cLcontcenters6FpnGPoints__i_()
    0x100006d90:            c4 5a 20 00  ldx       [%o0], %g2
    0x100006d94:            04 c0 80 3e  brlez,pn  %g2, +0xf8    <0x100006e8c>
    0x100006d98:            1b 00 04 00  sethi     %hi(0x100000), %o5
    0x100006d9c:            9a 13 60 06  or        %o5, 0x6, %o5
    0x100006da0:            99 2b 70 0c  sllx      %o5, 0xc, %o4
    0x100006da4:            c9 03 2d 70  ld        [%o4 + 0xd70], %f4
    0x100006da8:            92 10 20 00  clr       %o1
    0x100006dac:            c2 5a 20 10  ldx       [%o0 + 0x10], %g1
    0x100006db0:            94 10 20 00  clr       %o2
    0x100006db4:            98 00 40 0a  add       %g1, %o2, %o4
    0x100006db8:            d6 5b 20 10  ldx       [%o4 + 0x10], %o3
    0x100006dbc:            80 a2 c0 09  cmp       %o3, %o1
    0x100006dc0:            02 60 00 2e  be,pn     %xcc, +0xb8   <0x100006e78>
    0x100006dc4:            89 2a f0 05  sllx      %o3, 0x5, %g4
    0x100006dc8:            ed 00 40 0a  ld        [%g1 + %o2], %f22
    0x100006dcc:            e9 00 40 04  ld        [%g1 + %g4], %f20
    0x100006dd0:            ca 02 20 08  ld        [%o0 + 0x8], %g5
    0x100006dd4:            b1 a5 08 36  fadds     %f20, %f22, %f24
    0x100006dd8:            80 a1 60 00  cmp       %g5, 0x0
    0x100006ddc:            04 40 00 25  ble,pn    %icc, +0x94   <0x100006e70>
    0x100006de0:            9a 00 40 04  add       %g1, %g4, %o5
    0x100006de4:            d6 5b 60 08  ldx       [%o5 + 0x8], %o3
    0x100006de8:            8a 10 20 00  clr       %g5
    0x100006dec:            a5 a5 89 b8  fdivs     %f22, %f24, %f18
    0x100006df0:            a1 a1 08 b2  fsubs     %f4, %f18, %f16
    0x100006df4:            88 10 20 00  clr       %g4
    0x100006df8:            c1 02 c0 04  ld        [%o3 + %g4], %f0
    0x100006dfc:            8a 01 60 01  add       %g5, 0x1, %g5
    0x100006e00:            8d a0 09 30  fmuls     %f0, %f16, %f6
    0x100006e04:            cd 22 c0 04  st        %f6, [%o3 + %g4]
    0x100006e08:            c6 5a 20 10  ldx       [%o0 + 0x10], %g3
    0x100006e0c:            82 00 c0 0a  add       %g3, %o2, %g1
    0x100006e10:            c4 58 60 08  ldx       [%g1 + 0x8], %g2
    0x100006e14:            da 58 60 10  ldx       [%g1 + 0x10], %o5
    0x100006e18:            d1 00 80 04  ld        [%g2 + %g4], %f8
    0x100006e1c:            99 2b 70 05  sllx      %o5, 0x5, %o4
    0x100006e20:            96 00 c0 0c  add       %g3, %o4, %o3
    0x100006e24:            95 a2 09 32  fmuls     %f8, %f18, %f10
    0x100006e28:            c2 5a e0 08  ldx       [%o3 + 0x8], %g1
    0x100006e2c:            d9 01 00 01  ld        [%g4 + %g1], %f12
    0x100006e30:            9d a3 08 2a  fadds     %f12, %f10, %f14
    0x100006e34:            dd 21 00 01  st        %f14, [%g4 + %g1]
    0x100006e38:            c6 5a 20 10  ldx       [%o0 + 0x10], %g3
    0x100006e3c:            88 01 20 04  add       %g4, 0x4, %g4
    0x100006e40:            da 02 20 08  ld        [%o0 + 0x8], %o5
    0x100006e44:            84 00 c0 0a  add       %g3, %o2, %g2
    0x100006e48:            d6 58 a0 10  ldx       [%g2 + 0x10], %o3
    0x100006e4c:            99 3b 60 00  sra       %o5, 0x0, %o4
    0x100006e50:            80 a1 40 0c  cmp       %g5, %o4
    0x100006e54:            83 2a f0 05  sllx      %o3, 0x5, %g1
    0x100006e58:            9a 00 c0 01  add       %g3, %g1, %o5
    0x100006e5c:            26 6f ff e7  bl,a,pt   %xcc, -0x64   <0x100006df8>
    0x100006e60:            d6 5b 60 08  ldx       [%o5 + 0x8], %o3
    0x100006e64:            c5 00 c0 01  ld        [%g3 + %g1], %f2
    0x100006e68:            c1 02 80 03  ld        [%o2 + %g3], %f0
    0x100006e6c:            b1 a0 88 20  fadds     %f2, %f0, %f24
    0x100006e70:            f1 23 60 00  st        %f24, [%o5]
    0x100006e74:            c4 5a 20 00  ldx       [%o0], %g2
    0x100006e78:            92 02 60 01  add       %o1, 0x1, %o1
    0x100006e7c:            80 a2 40 02  cmp       %o1, %g2
    0x100006e80:            94 02 a0 20  add       %o2, 0x20, %o2
    0x100006e84:            26 6f ff cc  bl,a,pt   %xcc, -0xd0   <0x100006db4>
    0x100006e88:            c2 5a 20 10  ldx       [%o0 + 0x10], %g1
    0x100006e8c:            81 c3 e0 08  retl
    0x100006e90:            90 10 20 00  clr       %o0
__1cLcopycenters6FpnGPoints_1pll_v_()
    0x100006e94:            9d e3 bf 50  save      %sp, -0xb0, %sp
    0x100006e98:            92 10 20 01  mov       0x1, %o1
    0x100006e9c:            40 04 2b b1  call      +0x10aec4     <0x100111d60>
    0x100006ea0:            d0 5e 20 00  ldx       [%i0], %o0
    0x100006ea4:            ee 5e 20 00  ldx       [%i0], %l7
    0x100006ea8:            04 c5 c0 9e  brlez,pn  %l7, +0x278   <0x100007120>
    0x100006eac:            a8 10 00 08  mov       %o0, %l4
    0x100006eb0:            80 a5 e0 02  cmp       %l7, 0x2
    0x100006eb4:            a4 10 20 00  clr       %l2
    0x100006eb8:            ba 05 ff ff  add       %l7, -0x1, %i5
    0x100006ebc:            a6 10 20 00  clr       %l3
    0x100006ec0:            a2 10 20 01  mov       0x1, %l1
    0x100006ec4:            ec 5e 20 10  ldx       [%i0 + 0x10], %l6
    0x100006ec8:            06 60 00 11  bl,pn     %xcc, +0x44   <0x100006f0c>
    0x100006ecc:            01 00 00 00  nop
    0x100006ed0:            a6 10 00 16  mov       %l6, %l3
    0x100006ed4:            b8 05 ff fe  add       %l7, -0x2, %i4
    0x100006ed8:            c1 6c e1 30  prefetch  [%l3 + 0x130], #n_reads
    0x100006edc:            a4 04 a0 02  add       %l2, 0x2, %l2
    0x100006ee0:            d0 5c e0 10  ldx       [%l3 + 0x10], %o0
    0x100006ee4:            a6 04 e0 40  add       %l3, 0x40, %l3
    0x100006ee8:            80 a4 80 1c  cmp       %l2, %i4
    0x100006eec:            e2 2a 00 14  stb       %l1, [%o0 + %l4]
    0x100006ef0:            ca 5c ff f0  ldx       [%l3 - 0x10], %g5
    0x100006ef4:            04 6f ff f9  ble,pt    %xcc, -0x1c   <0x100006ed8>
    0x100006ef8:            e2 29 40 14  stb       %l1, [%g5 + %l4]
    0x100006efc:            80 a4 80 1d  cmp       %l2, %i5
    0x100006f00:            a6 24 c0 16  sub       %l3, %l6, %l3
    0x100006f04:            14 60 00 05  bg,pn     %xcc, +0x14   <0x100006f18>
    0x100006f08:            01 00 00 00  nop
    0x100006f0c:            aa 04 c0 16  add       %l3, %l6, %l5
    0x100006f10:            e4 5d 60 10  ldx       [%l5 + 0x10], %l2
    0x100006f14:            e2 2c 80 14  stb       %l1, [%l2 + %l4]
    0x100006f18:            aa 10 20 00  clr       %l5
    0x100006f1c:            a2 10 00 14  mov       %l4, %l1
    0x100006f20:            e0 5e 60 00  ldx       [%i1], %l0
    0x100006f24:            a6 10 20 00  clr       %l3
    0x100006f28:            d4 0d 20 00  ldub      [%l4], %o2
    0x100006f2c:            ad 2c 30 03  sllx      %l0, 0x3, %l6
    0x100006f30:            a4 05 80 1a  add       %l6, %i2, %l2
    0x100006f34:            ad 2c 30 05  sllx      %l0, 0x5, %l6
    0x100006f38:            80 a2 a0 00  cmp       %o2, 0x0
    0x100006f3c:            22 40 00 71  be,a,pn   %icc, +0x1c4  <0x100007100>
    0x100006f40:            aa 05 60 01  add       %l5, 0x1, %l5
    0x100006f44:            f4 5e 20 10  ldx       [%i0 + 0x10], %i2
    0x100006f48:            de 06 20 08  ld        [%i0 + 0x8], %o7
    0x100006f4c:            fa 5e 60 10  ldx       [%i1 + 0x10], %i5
    0x100006f50:            98 04 c0 1a  add       %l3, %i2, %o4
    0x100006f54:            9b 3b e0 00  sra       %o7, 0x0, %o5
    0x100006f58:            95 2b 70 02  sllx      %o5, 0x2, %o2
    0x100006f5c:            d2 5b 20 08  ldx       [%o4 + 0x8], %o1
    0x100006f60:            96 05 80 1d  add       %l6, %i5, %o3
    0x100006f64:            80 a2 a0 20  cmp       %o2, 0x20
    0x100006f68:            d0 5a e0 08  ldx       [%o3 + 0x8], %o0
    0x100006f6c:            14 60 00 59  bg,pn     %xcc, +0x164  <0x1000070d0>
    0x100006f70:            b8 0a 60 03  and       %o1, 0x3, %i4
    0x100006f74:            82 0a 20 03  and       %o0, 0x3, %g1
    0x100006f78:            80 90 40 1c  orcc      %g1, %i4, %g0
    0x100006f7c:            02 80 00 29  be        +0xa4         <0x100007020>
    0x100006f80:            98 10 00 08  mov       %o0, %o4
    0x100006f84:            94 a2 a0 02  subcc     %o2, 0x2, %o2
    0x100006f88:            06 60 00 1f  bl,pn     %xcc, +0x7c   <0x100007004>
    0x100006f8c:            9e 22 bf fe  sub       %o2, -0x2, %o7
    0x100006f90:            af 33 e0 1f  srl       %o7, 0x1f, %l7
    0x100006f94:            9a 03 c0 17  add       %o7, %l7, %o5
    0x100006f98:            b5 3b 60 01  sra       %o5, 0x1, %i2
    0x100006f9c:            80 a6 a0 01  cmp       %i2, 0x1
    0x100006fa0:            06 60 00 10  bl,pn     %xcc, +0x40   <0x100006fe0>
    0x100006fa4:            01 00 00 00  nop
    0x100006fa8:            9a 10 00 0a  mov       %o2, %o5
    0x100006fac:            96 10 00 09  mov       %o1, %o3
    0x100006fb0:            9a 23 60 02  sub       %o5, 0x2, %o5
    0x100006fb4:            98 03 20 02  add       %o4, 0x2, %o4
    0x100006fb8:            c8 0a e0 00  ldub      [%o3], %g4
    0x100006fbc:            96 02 e0 02  add       %o3, 0x2, %o3
    0x100006fc0:            c8 2b 3f fe  stb       %g4, [%o4 - 0x2]
    0x100006fc4:            c6 0a ff ff  ldub      [%o3 - 0x1], %g3
    0x100006fc8:            0e fb 7f fa  brgez,pt  %o5, -0x18    <0x100006fb0>
    0x100006fcc:            c6 2b 3f ff  stb       %g3, [%o4 - 0x1]
    0x100006fd0:            94 10 00 0d  mov       %o5, %o2
    0x100006fd4:            92 10 00 0b  mov       %o3, %o1
    0x100006fd8:            10 80 00 0b  ba        +0x2c         <0x100007004>
    0x100006fdc:            01 00 00 00  nop
    0x100006fe0:            94 a2 a0 02  subcc     %o2, 0x2, %o2
    0x100006fe4:            c8 0a 60 00  ldub      [%o1], %g4
    0x100006fe8:            c8 2b 20 00  stb       %g4, [%o4]
    0x100006fec:            c6 0a 60 01  ldub      [%o1 + 0x1], %g3
    0x100006ff0:            92 02 60 02  add       %o1, 0x2, %o1
    0x100006ff4:            c6 2b 20 01  stb       %g3, [%o4 + 0x1]
    0x100006ff8:            98 03 20 02  add       %o4, 0x2, %o4
    0x100006ffc:            36 6f ff fa  bge,a,pt  %xcc, -0x18   <0x100006fe4>
    0x100007000:            94 a2 a0 02  subcc     %o2, 0x2, %o2
    0x100007004:            80 a2 bf ff  cmp       %o2, -0x1
    0x100007008:            26 60 00 35  bl,a,pn   %xcc, +0xd4   <0x1000070dc>
    0x10000700c:            d8 5e 20 10  ldx       [%i0 + 0x10], %o4
    0x100007010:            d2 0a 60 00  ldub      [%o1], %o1
    0x100007014:            d2 2b 20 00  stb       %o1, [%o4]
    0x100007018:            10 80 00 31  ba        +0xc4         <0x1000070dc>
    0x10000701c:            d8 5e 20 10  ldx       [%i0 + 0x10], %o4
    0x100007020:            b4 a2 a0 04  subcc     %o2, 0x4, %i2
    0x100007024:            06 60 00 1d  bl,pn     %xcc, +0x74   <0x100007098>
    0x100007028:            84 10 00 0a  mov       %o2, %g2
    0x10000702c:            89 3a a0 01  sra       %o2, 0x1, %g4
    0x100007030:            87 31 20 1e  srl       %g4, 0x1e, %g3
    0x100007034:            b8 02 80 03  add       %o2, %g3, %i4
    0x100007038:            bb 3f 20 02  sra       %i4, 0x2, %i5
    0x10000703c:            80 a7 60 01  cmp       %i5, 0x1
    0x100007040:            06 60 00 0e  bl,pn     %xcc, +0x38   <0x100007078>
    0x100007044:            01 00 00 00  nop
    0x100007048:            ae 10 00 08  mov       %o0, %l7
    0x10000704c:            9e 10 00 09  mov       %o1, %o7
    0x100007050:            b4 26 a0 04  sub       %i2, 0x4, %i2
    0x100007054:            ae 05 e0 04  add       %l7, 0x4, %l7
    0x100007058:            c1 03 e0 00  ld        [%o7], %f0
    0x10000705c:            9e 03 e0 04  add       %o7, 0x4, %o7
    0x100007060:            0e fe bf fc  brgez,pt  %i2, -0x10    <0x100007050>
    0x100007064:            c1 25 ff fc  st        %f0, [%l7 - 0x4]
    0x100007068:            98 10 00 17  mov       %l7, %o4
    0x10000706c:            92 10 00 0f  mov       %o7, %o1
    0x100007070:            10 80 00 09  ba        +0x24         <0x100007094>
    0x100007074:            01 00 00 00  nop
    0x100007078:            b4 a6 a0 04  subcc     %i2, 0x4, %i2
    0x10000707c:            c1 02 60 00  ld        [%o1], %f0
    0x100007080:            92 02 60 04  add       %o1, 0x4, %o1
    0x100007084:            c1 23 20 00  st        %f0, [%o4]
    0x100007088:            98 03 20 04  add       %o4, 0x4, %o4
    0x10000708c:            36 6f ff fc  bge,a,pt  %xcc, -0x10   <0x10000707c>
    0x100007090:            b4 a6 a0 04  subcc     %i2, 0x4, %i2
    0x100007094:            94 06 a0 04  add       %i2, 0x4, %o2
    0x100007098:            80 88 a0 03  btst      0x3, %g2
    0x10000709c:            02 60 00 0f  be,pn     %xcc, +0x3c   <0x1000070d8>
    0x1000070a0:            94 a2 a0 01  subcc     %o2, 0x1, %o2
    0x1000070a4:            ca 0a 60 00  ldub      [%o1], %g5
    0x1000070a8:            04 60 00 0c  ble,pn    %xcc, +0x30   <0x1000070d8>
    0x1000070ac:            ca 2b 20 00  stb       %g5, [%o4]
    0x1000070b0:            d0 0a 60 01  ldub      [%o1 + 0x1], %o0
    0x1000070b4:            94 a2 a0 01  subcc     %o2, 0x1, %o2
    0x1000070b8:            04 60 00 08  ble,pn    %xcc, +0x20   <0x1000070d8>
    0x1000070bc:            d0 2b 20 01  stb       %o0, [%o4 + 0x1]
    0x1000070c0:            d4 0a 60 02  ldub      [%o1 + 0x2], %o2
    0x1000070c4:            d4 2b 20 02  stb       %o2, [%o4 + 0x2]
    0x1000070c8:            10 80 00 05  ba        +0x14         <0x1000070dc>
    0x1000070cc:            d8 5e 20 10  ldx       [%i0 + 0x10], %o4
    0x1000070d0:            40 04 2b 2c  call      +0x10acb0     <0x100111d80>
    0x1000070d4:            01 00 00 00  nop
    0x1000070d8:            d8 5e 20 10  ldx       [%i0 + 0x10], %o4
    0x1000070dc:            d6 5e 60 10  ldx       [%i1 + 0x10], %o3
    0x1000070e0:            c1 03 00 13  ld        [%o4 + %l3], %f0
    0x1000070e4:            a0 04 20 01  add       %l0, 0x1, %l0
    0x1000070e8:            c1 22 c0 16  st        %f0, [%o3 + %l6]
    0x1000070ec:            ac 05 a0 20  add       %l6, 0x20, %l6
    0x1000070f0:            f6 74 a0 00  stx       %i3, [%l2]
    0x1000070f4:            a4 04 a0 08  add       %l2, 0x8, %l2
    0x1000070f8:            ee 5e 20 00  ldx       [%i0], %l7
    0x1000070fc:            aa 05 60 01  add       %l5, 0x1, %l5
    0x100007100:            80 a5 40 17  cmp       %l5, %l7
    0x100007104:            a2 04 60 01  add       %l1, 0x1, %l1
    0x100007108:            a6 04 e0 20  add       %l3, 0x20, %l3
    0x10000710c:            b6 06 e0 01  add       %i3, 0x1, %i3
    0x100007110:            26 6f ff 8a  bl,a,pt   %xcc, -0x1d8  <0x100006f38>
    0x100007114:            d4 0c 60 00  ldub      [%l1], %o2
    0x100007118:            10 80 00 04  ba        +0x10         <0x100007128>
    0x10000711c:            b0 10 00 14  mov       %l4, %i0
    0x100007120:            e0 5e 60 00  ldx       [%i1], %l0
    0x100007124:            b0 10 00 14  mov       %l4, %i0
    0x100007128:            e0 76 60 00  stx       %l0, [%i1]
    0x10000712c:            40 04 2a fd  call      +0x10abf4     <0x100111d20>
    0x100007130:            81 e8 20 00  restore   %g0, 0x0, %g0
    0x100007134:            00 00 00 00  illtrap   0x0
    0x100007138:            00 00 00 00  illtrap   0x0
    0x10000713c:            00 00 00 00  illtrap   0x0
    0x100007140:            3f e0 00 00  0x3fe00000
    0x100007144:            00 00 00 00  illtrap   0x0
    0x100007148:            3f 80 00 00  fbo,a     +0x0          <0x100007148>
    0x10000714c:            30 00 00 00  illtrap   0x0
    0x100007150:            3f f1 99 99  0x3ff19999
    0x100007154:            99 99 99 9a  0x9999999a
    0x100007158:            3f b9 99 99  fbo,a     -0x19999c     <0xffe6d7bc>
    0x10000715c:            a0 00 00 00  add       %g0, %g0, %l0
    0x100007160:            3f ec cc cc  0x3feccccc
    0x100007164:            cc cc cc cd  ldsba     [%l3 + %o5] 0x66, %g6
    0x100007168:            3f 50 62 4d  fbo,a,pn  %fcc1, +0x18934 <0x10001fa9c>
    0x10000716c:            e0 00 00 00  ld        [%g0], %l0
    0x100007170:            3f ef f7 ce  0x3feff7ce
    0x100007174:            d9 16 87 2b  ldq       [%i2 + %o3], %f12
    0x100007178:            00 00 00 00  illtrap   0x0
__1cOlocalSearchSub6Fpv_0_()
    0x10000717c:            9d e3 be 00  save      %sp, -0x200, %sp
    0x100007180:            f4 06 20 20  ld        [%i0 + 0x20], %i2
    0x100007184:            f4 23 a8 b7  st        %i2, [%sp + 0x8b7]
    0x100007188:            fa 5e 20 08  ldx       [%i0 + 0x8], %i5
    0x10000718c:            f6 5e 20 00  ldx       [%i0], %i3
    0x100007190:            fa 73 a8 bf  stx       %i5, [%sp + 0x8bf]
    0x100007194:            fa 5e 20 10  ldx       [%i0 + 0x10], %i5
    0x100007198:            39 00 04 00  sethi     %hi(0x100000), %i4
    0x10000719c:            a4 17 21 12  or        %i4, 0x112, %l2
    0x1000071a0:            fa 73 a8 c7  stx       %i5, [%sp + 0x8c7]
    0x1000071a4:            f8 5e 20 18  ldx       [%i0 + 0x18], %i4
    0x1000071a8:            a1 2c b0 0c  sllx      %l2, 0xc, %l0
    0x1000071ac:            f8 73 a8 af  stx       %i4, [%sp + 0x8af]
    0x1000071b0:            b8 04 25 30  add       %l0, 0x530, %i4
    0x1000071b4:            fa 5e 20 28  ldx       [%i0 + 0x28], %i5
    0x1000071b8:            80 a6 a0 00  cmp       %i2, 0x0
    0x1000071bc:            d8 07 3f e8  ld        [%i4 - 0x18], %o4
    0x1000071c0:            12 40 00 06  bne,pn    %icc, +0x18   <0x1000071d8>
    0x1000071c4:            92 10 20 08  mov       0x8, %o1
    0x1000071c8:            40 04 2a e6  call      +0x10ab98     <0x100111d60>
    0x1000071cc:            91 3b 20 00  sra       %o4, 0x0, %o0
    0x1000071d0:            d8 07 3f e8  ld        [%i4 - 0x18], %o4
    0x1000071d4:            d0 77 20 38  stx       %o0, [%i4 + 0x38]
    0x1000071d8:            da 5e e0 00  ldx       [%i3], %o5
    0x1000071dc:            b5 3b 20 00  sra       %o4, 0x0, %i2
    0x1000071e0:            b2 03 3f ff  add       %o4, -0x1, %i1
    0x1000071e4:            a3 6b 40 1a  sdivx     %o5, %i2, %l1
    0x1000071e8:            09 00 04 00  sethi     %hi(0x100000), %g4
    0x1000071ec:            82 11 20 07  or        %g4, 0x7, %g1
    0x1000071f0:            d8 03 a8 b7  ld        [%sp + 0x8b7], %o4
    0x1000071f4:            af 28 70 0c  sllx      %g1, 0xc, %l7
    0x1000071f8:            ff 1d e1 38  ldd       [%l7 + 0x138], %d62
    0x1000071fc:            b5 3b 20 00  sra       %o4, 0x0, %i2
    0x100007200:            80 a3 00 19  cmp       %o4, %i1
    0x100007204:            98 4c 40 1a  mulx      %l1, %i2, %o4
    0x100007208:            94 03 00 11  add       %o4, %l1, %o2
    0x10000720c:            95 64 40 0d  move      %icc, %o5, %o2
    0x100007210:            97 2e b0 03  sllx      %i2, 0x3, %o3
    0x100007214:            ee 73 a8 cf  stx       %l7, [%sp + 0x8cf]
    0x100007218:            80 a3 00 0a  cmp       %o4, %o2
    0x10000721c:            d6 73 a8 d7  stx       %o3, [%sp + 0x8d7]
    0x100007220:            16 60 00 a1  bge,pn    %xcc, +0x284  <0x1000074a4>
    0x100007224:            b2 05 e1 38  add       %l7, 0x138, %i1
    0x100007228:            c2 5e e0 10  ldx       [%i3 + 0x10], %g1
    0x10000722c:            d6 06 e0 08  ld        [%i3 + 0x8], %o3
    0x100007230:            ab 2b 30 05  sllx      %o4, 0x5, %l5
    0x100007234:            84 10 00 0c  mov       %o4, %g2
    0x100007238:            c6 58 60 08  ldx       [%g1 + 0x8], %g3
    0x10000723c:            92 02 ff ff  add       %o3, -0x1, %o1
    0x100007240:            ac 02 bf ff  add       %o2, -0x1, %l6
    0x100007244:            e1 06 60 40  ld        [%i1 + 0x40], %f16
    0x100007248:            8a 05 40 01  add       %l5, %g1, %g5
    0x10000724c:            80 a2 e0 00  cmp       %o3, 0x0
    0x100007250:            ee 59 60 08  ldx       [%g5 + 0x8], %l7
    0x100007254:            04 40 00 75  ble,pn    %icc, +0x1d4  <0x100007428>
    0x100007258:            90 10 20 00  clr       %o0
    0x10000725c:            80 a2 e0 11  cmp       %o3, 0x11
    0x100007260:            b0 10 00 03  mov       %g3, %i0
    0x100007264:            06 40 00 66  bl,pn     %icc, +0x198  <0x1000073fc>
    0x100007268:            01 00 00 00  nop
    0x10000726c:            f1 05 e0 00  ld        [%l7], %f24
    0x100007270:            e7 05 e0 0c  ld        [%l7 + 0xc], %f19
    0x100007274:            d7 05 e0 04  ld        [%l7 + 0x4], %f11
    0x100007278:            d3 00 e0 04  ld        [%g3 + 0x4], %f9
    0x10000727c:            cd 00 e0 00  ld        [%g3], %f6
    0x100007280:            c1 05 e0 20  ld        [%l7 + 0x20], %f0
    0x100007284:            d5 05 e0 10  ld        [%l7 + 0x10], %f10
    0x100007288:            e5 05 e0 08  ld        [%l7 + 0x8], %f18
    0x10000728c:            dd 00 e0 08  ld        [%g3 + 0x8], %f14
    0x100007290:            e3 00 e0 0c  ld        [%g3 + 0xc], %f17
    0x100007294:            cf 00 e0 10  ld        [%g3 + 0x10], %f7
    0x100007298:            db 05 e0 14  ld        [%l7 + 0x14], %f13
    0x10000729c:            f7 00 e0 14  ld        [%g3 + 0x14], %f27
    0x1000072a0:            f9 05 e0 1c  ld        [%l7 + 0x1c], %f28
    0x1000072a4:            87 a2 c8 a9  fsubs     %f11, %f9, %f3
    0x1000072a8:            fd 00 e0 18  ld        [%g3 + 0x18], %f30
    0x1000072ac:            9f a6 08 a6  fsubs     %f24, %f6, %f15
    0x1000072b0:            e9 00 e0 1c  ld        [%g3 + 0x1c], %f20
    0x1000072b4:            af a4 88 ae  fsubs     %f18, %f14, %f23
    0x1000072b8:            d9 00 e0 20  ld        [%g3 + 0x20], %f12
    0x1000072bc:            b5 a0 c9 23  fmuls     %f3, %f3, %f26
    0x1000072c0:            8b a4 c8 b1  fsubs     %f19, %f17, %f5
    0x1000072c4:            d1 00 e0 24  ld        [%g3 + 0x24], %f8
    0x1000072c8:            b3 a3 c9 2f  fmuls     %f15, %f15, %f25
    0x1000072cc:            9d a2 88 a7  fsubs     %f10, %f7, %f14
    0x1000072d0:            ae 05 e0 2c  add       %l7, 0x2c, %l7
    0x1000072d4:            cd 05 ff fc  ld        [%l7 - 0x4], %f6
    0x1000072d8:            89 a4 08 3a  fadds     %f16, %f26, %f4
    0x1000072dc:            e1 06 60 40  ld        [%i1 + 0x40], %f16
    0x1000072e0:            83 a3 48 bb  fsubs     %f13, %f27, %f1
    0x1000072e4:            ad a5 c9 37  fmuls     %f23, %f23, %f22
    0x1000072e8:            d5 05 ff ec  ld        [%l7 - 0x14], %f10
    0x1000072ec:            aa 00 e0 28  add       %g3, 0x28, %l5
    0x1000072f0:            90 10 20 0b  mov       0xb, %o0
    0x1000072f4:            85 a1 49 25  fmuls     %f5, %f5, %f2
    0x1000072f8:            b1 a4 08 39  fadds     %f16, %f25, %f24
    0x1000072fc:            f5 05 ff f8  ld        [%l7 - 0x8], %f26
    0x100007300:            82 02 ff fa  add       %o3, -0x6, %g1
    0x100007304:            90 02 20 06  add       %o0, 0x6, %o0
    0x100007308:            ae 05 e0 18  add       %l7, 0x18, %l7
    0x10000730c:            d3 05 60 00  ld        [%l5], %f9
    0x100007310:            bf a2 88 be  fsubs     %f10, %f30, %f31
    0x100007314:            ab a6 08 36  fadds     %f24, %f22, %f21
    0x100007318:            80 a2 00 01  cmp       %o0, %g1
    0x10000731c:            e5 05 ff e8  ld        [%l7 - 0x18], %f18
    0x100007320:            bb a3 89 2e  fmuls     %f14, %f14, %f29
    0x100007324:            ad a7 08 b4  fsubs     %f28, %f20, %f22
    0x100007328:            e3 05 60 04  ld        [%l5 + 0x4], %f17
    0x10000732c:            aa 05 60 18  add       %l5, 0x18, %l5
    0x100007330:            85 a1 08 22  fadds     %f4, %f2, %f2
    0x100007334:            83 a0 49 21  fmuls     %f1, %f1, %f1
    0x100007338:            d5 05 ff ec  ld        [%l7 - 0x14], %f10
    0x10000733c:            a7 a0 08 ac  fsubs     %f0, %f12, %f19
    0x100007340:            fd 05 7f f0  ld        [%l5 - 0x10], %f30
    0x100007344:            b1 a5 48 3d  fadds     %f21, %f29, %f24
    0x100007348:            97 a7 c9 3f  fmuls     %f31, %f31, %f11
    0x10000734c:            f9 05 ff f0  ld        [%l7 - 0x10], %f28
    0x100007350:            b7 a6 88 a8  fsubs     %f26, %f8, %f27
    0x100007354:            e9 05 7f f4  ld        [%l5 - 0xc], %f20
    0x100007358:            8f a0 88 21  fadds     %f2, %f1, %f7
    0x10000735c:            89 a5 89 36  fmuls     %f22, %f22, %f4
    0x100007360:            c1 05 ff f4  ld        [%l7 - 0xc], %f0
    0x100007364:            9d a1 88 a9  fsubs     %f6, %f9, %f14
    0x100007368:            d9 05 7f f8  ld        [%l5 - 0x8], %f12
    0x10000736c:            b1 a6 08 2b  fadds     %f24, %f11, %f24
    0x100007370:            ad a4 c9 33  fmuls     %f19, %f19, %f22
    0x100007374:            f5 05 ff f8  ld        [%l7 - 0x8], %f26
    0x100007378:            83 a4 88 b1  fsubs     %f18, %f17, %f1
    0x10000737c:            d1 05 7f fc  ld        [%l5 - 0x4], %f8
    0x100007380:            89 a1 c8 24  fadds     %f7, %f4, %f4
    0x100007384:            cd 05 ff fc  ld        [%l7 - 0x4], %f6
    0x100007388:            04 4f ff df  ble,pt    %icc, -0x84   <0x100007304>
    0x10000738c:            85 a6 c9 3b  fmuls     %f27, %f27, %f2
    0x100007390:            a5 a2 88 be  fsubs     %f10, %f30, %f18
    0x100007394:            87 a6 08 36  fadds     %f24, %f22, %f3
    0x100007398:            a3 a3 89 2e  fmuls     %f14, %f14, %f17
    0x10000739c:            8b a7 08 b4  fsubs     %f28, %f20, %f5
    0x1000073a0:            9b a1 08 22  fadds     %f4, %f2, %f13
    0x1000073a4:            a7 a0 08 ac  fsubs     %f0, %f12, %f19
    0x1000073a8:            b9 a0 49 21  fmuls     %f1, %f1, %f28
    0x1000073ac:            af a4 89 32  fmuls     %f18, %f18, %f23
    0x1000073b0:            bd a0 c8 31  fadds     %f3, %f17, %f30
    0x1000073b4:            f7 05 60 00  ld        [%l5], %f27
    0x1000073b8:            b5 a6 88 a8  fsubs     %f26, %f8, %f26
    0x1000073bc:            91 a4 c9 33  fmuls     %f19, %f19, %f8
    0x1000073c0:            81 a1 88 bb  fsubs     %f6, %f27, %f0
    0x1000073c4:            b3 a1 49 25  fmuls     %f5, %f5, %f25
    0x1000073c8:            83 a3 48 3c  fadds     %f13, %f28, %f1
    0x1000073cc:            ab a7 88 37  fadds     %f30, %f23, %f21
    0x1000073d0:            bb a6 89 3a  fmuls     %f26, %f26, %f29
    0x1000073d4:            80 a2 00 09  cmp       %o0, %o1
    0x1000073d8:            85 a0 09 20  fmuls     %f0, %f0, %f2
    0x1000073dc:            b0 05 60 04  add       %l5, 0x4, %i0
    0x1000073e0:            a9 a0 48 39  fadds     %f1, %f25, %f20
    0x1000073e4:            bf a5 48 28  fadds     %f21, %f8, %f31
    0x1000073e8:            89 a5 08 3d  fadds     %f20, %f29, %f4
    0x1000073ec:            ad a7 c8 22  fadds     %f31, %f2, %f22
    0x1000073f0:            a1 a1 08 36  fadds     %f4, %f22, %f16
    0x1000073f4:            14 40 00 0d  bg,pn     %icc, +0x34   <0x100007428>
    0x1000073f8:            01 00 00 00  nop
    0x1000073fc:            cf 06 20 00  ld        [%i0], %f7
    0x100007400:            f1 05 e0 00  ld        [%l7], %f24
    0x100007404:            90 02 20 01  add       %o0, 0x1, %o0
    0x100007408:            80 a2 00 09  cmp       %o0, %o1
    0x10000740c:            b5 a6 08 a7  fsubs     %f24, %f7, %f26
    0x100007410:            b0 06 20 04  add       %i0, 0x4, %i0
    0x100007414:            ae 05 e0 04  add       %l7, 0x4, %l7
    0x100007418:            a5 a6 89 3a  fmuls     %f26, %f26, %f18
    0x10000741c:            a1 a4 08 32  fadds     %f16, %f18, %f16
    0x100007420:            24 4f ff f8  ble,a,pt  %icc, -0x20   <0x100007400>
    0x100007424:            cf 06 20 00  ld        [%i0], %f7
    0x100007428:            c7 01 60 00  ld        [%g5], %f3
    0x10000742c:            84 00 a0 01  add       %g2, 0x1, %g2
    0x100007430:            80 a0 80 16  cmp       %g2, %l6
    0x100007434:            99 a4 09 23  fmuls     %f16, %f3, %f12
    0x100007438:            8a 01 60 20  add       %g5, 0x20, %g5
    0x10000743c:            97 a0 19 2c  fstod     %f12, %d42
    0x100007440:            bf a7 c8 4b  faddd     %d62, %d42, %d62
    0x100007444:            24 6f ff 82  ble,a,pt  %xcc, -0x1f8  <0x10000724c>
    0x100007448:            e1 06 60 40  ld        [%i1 + 0x40], %f16
    0x10000744c:            e2 5f 20 38  ldx       [%i4 + 0x38], %l1
    0x100007450:            e6 5b a8 d7  ldx       [%sp + 0x8d7], %l3
    0x100007454:            ff 3c 40 13  std       %d62, [%l1 + %l3]
    0x100007458:            d0 07 3f e8  ld        [%i4 - 0x18], %o0
    0x10000745c:            80 a2 20 00  cmp       %o0, 0x0
    0x100007460:            04 40 00 07  ble,pn    %icc, +0x1c   <0x10000747c>
    0x100007464:            a4 02 3f ff  add       %o0, -0x1, %l2
    0x100007468:            e2 5b a8 cf  ldx       [%sp + 0x8cf], %l1
    0x10000746c:            8a 10 20 00  clr       %g5
    0x100007470:            d7 1c 61 38  ldd       [%l1 + 0x138], %d42
    0x100007474:            10 80 00 17  ba        +0x5c         <0x1000074d0>
    0x100007478:            d0 5f 20 38  ldx       [%i4 + 0x38], %o0
    0x10000747c:            ca 5e e0 00  ldx       [%i3], %g5
    0x100007480:            ea 5b a8 c7  ldx       [%sp + 0x8c7], %l5
    0x100007484:            80 a1 40 15  cmp       %g5, %l5
    0x100007488:            24 60 00 6a  ble,a,pn  %xcc, +0x1a8  <0x100007630>
    0x10000748c:            bb 2b 30 05  sllx      %o4, 0x5, %i5
    0x100007490:            ec 5b a8 cf  ldx       [%sp + 0x8cf], %l6
    0x100007494:            cb 1d a1 38  ldd       [%l6 + 0x138], %d36
    0x100007498:            d7 1d a1 38  ldd       [%l6 + 0x138], %d42
    0x10000749c:            10 80 00 9c  ba        +0x270        <0x10000770c>
    0x1000074a0:            de 03 a8 b7  ld        [%sp + 0x8b7], %o7
    0x1000074a4:            e6 5f 20 38  ldx       [%i4 + 0x38], %l3
    0x1000074a8:            ff 3c c0 0b  std       %d62, [%l3 + %o3]
    0x1000074ac:            de 07 3f e8  ld        [%i4 - 0x18], %o7
    0x1000074b0:            80 a3 e0 00  cmp       %o7, 0x0
    0x1000074b4:            24 48 00 90  ble,a,pt  %icc, +0x240  <0x1000076f4>
    0x1000074b8:            d2 5e e0 00  ldx       [%i3], %o1
    0x1000074bc:            d7 1d e1 38  ldd       [%l7 + 0x138], %d42
    0x1000074c0:            a4 03 ff ff  add       %o7, -0x1, %l2
    0x1000074c4:            8a 10 20 00  clr       %g5
    0x1000074c8:            d0 5f 20 38  ldx       [%i4 + 0x38], %o0
    0x1000074cc:            ac 02 bf ff  add       %o2, -0x1, %l6
    0x1000074d0:            96 04 a0 01  add       %l2, 0x1, %o3
    0x1000074d4:            80 a2 e0 18  cmp       %o3, 0x18
    0x1000074d8:            06 40 00 43  bl,pn     %icc, +0x10c  <0x1000075e4>
    0x1000074dc:            01 00 00 00  nop
    0x1000074e0:            fb 1a 20 00  ldd       [%o0], %d60
    0x1000074e4:            ff 1a 20 08  ldd       [%o0 + 0x8], %d62
    0x1000074e8:            db 1a 20 20  ldd       [%o0 + 0x20], %d44
    0x1000074ec:            cf 1a 20 10  ldd       [%o0 + 0x10], %d38
    0x1000074f0:            a6 11 20 07  or        %g4, 0x7, %l3
    0x1000074f4:            a9 2c f0 0c  sllx      %l3, 0xc, %l4
    0x1000074f8:            d3 1d 21 38  ldd       [%l4 + 0x138], %d40
    0x1000074fc:            c7 1a 20 58  ldd       [%o0 + 0x58], %d34
    0x100007500:            f3 1a 20 50  ldd       [%o0 + 0x50], %d56
    0x100007504:            b7 a2 48 5d  faddd     %d40, %d60, %d58
    0x100007508:            eb 1a 20 40  ldd       [%o0 + 0x40], %d52
    0x10000750c:            ef 1a 20 18  ldd       [%o0 + 0x18], %d54
    0x100007510:            e7 1a 20 38  ldd       [%o0 + 0x38], %d50
    0x100007514:            bb a2 48 5f  faddd     %d40, %d62, %d60
    0x100007518:            e3 1a 20 30  ldd       [%o0 + 0x30], %d48
    0x10000751c:            df 1a 20 28  ldd       [%o0 + 0x28], %d46
    0x100007520:            90 02 20 60  add       %o0, 0x60, %o0
    0x100007524:            97 a2 c8 57  faddd     %d42, %d54, %d42
    0x100007528:            8a 10 20 0c  mov       0xc, %g5
    0x10000752c:            93 a2 48 47  faddd     %d40, %d38, %d40
    0x100007530:            ef 1a 3f e8  ldd       [%o0 - 0x18], %d54
    0x100007534:            92 24 a0 0b  sub       %l2, 0xb, %o1
    0x100007538:            c1 6a 21 30  prefetch  [%o0 + 0x130], #n_reads
    0x10000753c:            8a 01 60 0c  add       %g5, 0xc, %g5
    0x100007540:            c3 1a 20 00  ldd       [%o0], %d32
    0x100007544:            90 02 20 60  add       %o0, 0x60, %o0
    0x100007548:            b7 a6 c8 4d  faddd     %d58, %d44, %d58
    0x10000754c:            9f a7 48 4f  faddd     %d60, %d46, %d46
    0x100007550:            80 a1 40 09  cmp       %g5, %o1
    0x100007554:            cb 1a 3f a8  ldd       [%o0 - 0x58], %d36
    0x100007558:            a3 a2 48 51  faddd     %d40, %d48, %d48
    0x10000755c:            cf 1a 3f b0  ldd       [%o0 - 0x50], %d38
    0x100007560:            a7 a2 c8 53  faddd     %d42, %d50, %d50
    0x100007564:            d7 1a 3f b8  ldd       [%o0 - 0x48], %d42
    0x100007568:            ab a6 c8 55  faddd     %d58, %d52, %d52
    0x10000756c:            db 1a 3f c0  ldd       [%o0 - 0x40], %d44
    0x100007570:            af a3 c8 57  faddd     %d46, %d54, %d54
    0x100007574:            df 1a 3f c8  ldd       [%o0 - 0x38], %d46
    0x100007578:            b3 a4 48 59  faddd     %d48, %d56, %d56
    0x10000757c:            e3 1a 3f d0  ldd       [%o0 - 0x30], %d48
    0x100007580:            87 a4 c8 43  faddd     %d50, %d34, %d34
    0x100007584:            e7 1a 3f d8  ldd       [%o0 - 0x28], %d50
    0x100007588:            b7 a5 48 41  faddd     %d52, %d32, %d58
    0x10000758c:            eb 1a 3f e0  ldd       [%o0 - 0x20], %d52
    0x100007590:            bb a5 c8 45  faddd     %d54, %d36, %d60
    0x100007594:            ef 1a 3f e8  ldd       [%o0 - 0x18], %d54
    0x100007598:            93 a6 48 47  faddd     %d56, %d38, %d40
    0x10000759c:            f3 1a 3f f0  ldd       [%o0 - 0x10], %d56
    0x1000075a0:            97 a0 c8 4b  faddd     %d34, %d42, %d42
    0x1000075a4:            04 4f ff e5  ble,pt    %icc, -0x6c   <0x100007538>
    0x1000075a8:            c7 1a 3f f8  ldd       [%o0 - 0x8], %d34
    0x1000075ac:            b7 a6 c8 4d  faddd     %d58, %d44, %d58
    0x1000075b0:            97 a2 c8 53  faddd     %d42, %d50, %d42
    0x1000075b4:            8b a7 48 4f  faddd     %d60, %d46, %d36
    0x1000075b8:            9b a2 48 51  faddd     %d40, %d48, %d44
    0x1000075bc:            80 a1 40 12  cmp       %g5, %l2
    0x1000075c0:            9f a6 c8 55  faddd     %d58, %d52, %d46
    0x1000075c4:            83 a2 c8 43  faddd     %d42, %d34, %d32
    0x1000075c8:            a3 a1 48 57  faddd     %d36, %d54, %d48
    0x1000075cc:            a7 a3 48 59  faddd     %d44, %d56, %d50
    0x1000075d0:            87 a3 c8 51  faddd     %d46, %d48, %d34
    0x1000075d4:            ab a0 c8 53  faddd     %d34, %d50, %d52
    0x1000075d8:            97 a5 48 41  faddd     %d52, %d32, %d42
    0x1000075dc:            14 40 00 09  bg,pn     %icc, +0x24   <0x100007600>
    0x1000075e0:            01 00 00 00  nop
    0x1000075e4:            8a 01 60 01  add       %g5, 0x1, %g5
    0x1000075e8:            80 a1 40 12  cmp       %g5, %l2
    0x1000075ec:            cb 1a 20 00  ldd       [%o0], %d36
    0x1000075f0:            90 02 20 08  add       %o0, 0x8, %o0
    0x1000075f4:            97 a2 c8 45  faddd     %d42, %d36, %d42
    0x1000075f8:            04 4f ff fc  ble,pt    %icc, -0x10   <0x1000075e8>
    0x1000075fc:            8a 01 60 01  add       %g5, 0x1, %g5
    0x100007600:            e6 5e e0 00  ldx       [%i3], %l3
    0x100007604:            da 5b a8 c7  ldx       [%sp + 0x8c7], %o5
    0x100007608:            80 a4 c0 0d  cmp       %l3, %o5
    0x10000760c:            04 60 00 05  ble,pn    %xcc, +0x14   <0x100007620>
    0x100007610:            f7 1e 60 08  ldd       [%i1 + 0x8], %d58
    0x100007614:            8b a2 c9 5b  fmuld     %d42, %d58, %d36
    0x100007618:            10 80 00 3d  ba        +0xf4         <0x10000770c>
    0x10000761c:            de 03 a8 b7  ld        [%sp + 0x8b7], %o7
    0x100007620:            80 a3 00 0a  cmp       %o4, %o2
    0x100007624:            36 60 08 67  bge,a,pn  %xcc, +0x219c <0x1000097c0>
    0x100007628:            fa 03 a8 b7  ld        [%sp + 0x8b7], %i5
    0x10000762c:            bb 2b 30 05  sllx      %o4, 0x5, %i5
    0x100007630:            b2 25 80 0c  sub       %l6, %o4, %i1
    0x100007634:            92 06 60 01  add       %i1, 0x1, %o1
    0x100007638:            80 a2 60 03  cmp       %o1, 0x3
    0x10000763c:            06 60 00 21  bl,pn     %xcc, +0x84   <0x1000076c0>
    0x100007640:            01 00 00 00  nop
    0x100007644:            f4 5e e0 10  ldx       [%i3 + 0x10], %i2
    0x100007648:            b2 07 60 20  add       %i5, 0x20, %i1
    0x10000764c:            a6 02 bf fe  add       %o2, -0x2, %l3
    0x100007650:            a0 07 40 1a  add       %i5, %i2, %l0
    0x100007654:            d8 74 20 10  stx       %o4, [%l0 + 0x10]
    0x100007658:            c8 5e e0 10  ldx       [%i3 + 0x10], %g4
    0x10000765c:            98 03 20 01  add       %o4, 0x1, %o4
    0x100007660:            ba 07 40 04  add       %i5, %g4, %i5
    0x100007664:            c0 27 60 18  clr       [%i5 + 0x18]
    0x100007668:            d0 5e e0 10  ldx       [%i3 + 0x10], %o0
    0x10000766c:            8a 06 40 08  add       %i1, %o0, %g5
    0x100007670:            d8 71 60 10  stx       %o4, [%g5 + 0x10]
    0x100007674:            d4 5e e0 10  ldx       [%i3 + 0x10], %o2
    0x100007678:            84 06 60 20  add       %i1, 0x20, %g2
    0x10000767c:            96 06 40 0a  add       %i1, %o2, %o3
    0x100007680:            9a 03 20 01  add       %o4, 0x1, %o5
    0x100007684:            c0 22 e0 18  clr       [%o3 + 0x18]
    0x100007688:            f0 5e e0 10  ldx       [%i3 + 0x10], %i0
    0x10000768c:            ae 00 80 18  add       %g2, %i0, %l7
    0x100007690:            da 75 e0 10  stx       %o5, [%l7 + 0x10]
    0x100007694:            c6 5e e0 10  ldx       [%i3 + 0x10], %g3
    0x100007698:            b2 06 60 40  add       %i1, 0x40, %i1
    0x10000769c:            82 00 80 03  add       %g2, %g3, %g1
    0x1000076a0:            98 03 20 02  add       %o4, 0x2, %o4
    0x1000076a4:            80 a3 00 13  cmp       %o4, %l3
    0x1000076a8:            04 6f ff f0  ble,pt    %xcc, -0x40   <0x100007668>
    0x1000076ac:            c0 20 60 18  clr       [%g1 + 0x18]
    0x1000076b0:            80 a3 00 16  cmp       %o4, %l6
    0x1000076b4:            ba 10 00 19  mov       %i1, %i5
    0x1000076b8:            14 60 00 0d  bg,pn     %xcc, +0x34   <0x1000076ec>
    0x1000076bc:            01 00 00 00  nop
    0x1000076c0:            f4 5e e0 10  ldx       [%i3 + 0x10], %i2
    0x1000076c4:            b2 07 40 1a  add       %i5, %i2, %i1
    0x1000076c8:            d8 76 60 10  stx       %o4, [%i1 + 0x10]
    0x1000076cc:            e0 5e e0 10  ldx       [%i3 + 0x10], %l0
    0x1000076d0:            98 03 20 01  add       %o4, 0x1, %o4
    0x1000076d4:            80 a3 00 16  cmp       %o4, %l6
    0x1000076d8:            a4 07 40 10  add       %i5, %l0, %l2
    0x1000076dc:            c0 24 a0 18  clr       [%l2 + 0x18]
    0x1000076e0:            ba 07 60 20  add       %i5, 0x20, %i5
    0x1000076e4:            24 6f ff f8  ble,a,pt  %xcc, -0x20   <0x1000076c4>
    0x1000076e8:            f4 5e e0 10  ldx       [%i3 + 0x10], %i2
    0x1000076ec:            10 80 08 35  ba        +0x20d4       <0x1000097c0>
    0x1000076f0:            fa 03 a8 b7  ld        [%sp + 0x8b7], %i5
    0x1000076f4:            ec 5b a8 c7  ldx       [%sp + 0x8c7], %l6
    0x1000076f8:            80 a2 40 16  cmp       %o1, %l6
    0x1000076fc:            04 60 08 30  ble,pn    %xcc, +0x20c0 <0x1000097bc>
    0x100007700:            cb 1d e1 38  ldd       [%l7 + 0x138], %d36
    0x100007704:            d7 1d e1 38  ldd       [%l7 + 0x138], %d42
    0x100007708:            de 03 a8 b7  ld        [%sp + 0x8b7], %o7
    0x10000770c:            80 a3 e0 00  cmp       %o7, 0x0
    0x100007710:            12 40 00 1a  bne,pn    %icc, +0x68   <0x100007778>
    0x100007714:            d7 3b a9 2f  std       %d42, [%sp + 0x92f]
    0x100007718:            cb 3b a9 27  std       %d36, [%sp + 0x927]
    0x10000771c:            7f ff ea 4f  call      -0x56c4       <0x100002058>
    0x100007720:            90 10 00 1b  mov       %i3, %o0
    0x100007724:            cb 1b a9 27  ldd       [%sp + 0x927], %d36
    0x100007728:            98 10 00 1d  mov       %i5, %o4
    0x10000772c:            90 10 00 1b  mov       %i3, %o0
    0x100007730:            87 a0 18 c5  fdtos     %d36, %f3
    0x100007734:            c7 23 a9 7f  st        %f3, [%sp + 0x97f]
    0x100007738:            96 10 00 1a  mov       %i2, %o3
    0x10000773c:            7f ff eb 43  call      -0x52f4       <0x100002448>
    0x100007740:            94 07 20 20  add       %i4, 0x20, %o2
    0x100007744:            e4 5f 20 20  ldx       [%i4 + 0x20], %l2
    0x100007748:            c2 5b a8 bf  ldx       [%sp + 0x8bf], %g1
    0x10000774c:            e6 04 25 30  ld        [%l0 + 0x530], %l3
    0x100007750:            c7 03 a9 7f  ld        [%sp + 0x97f], %f3
    0x100007754:            d7 1b a9 2f  ldd       [%sp + 0x92f], %d42
    0x100007758:            cb 1b a9 27  ldd       [%sp + 0x927], %d36
    0x10000775c:            80 a4 80 01  cmp       %l2, %g1
    0x100007760:            06 60 00 1b  bl,pn     %xcc, +0x6c   <0x1000077cc>
    0x100007764:            ea 5b a8 cf  ldx       [%sp + 0x8cf], %l5
    0x100007768:            83 a0 19 20  fstod     %f0, %d32
    0x10000776c:            c7 1d 61 38  ldd       [%l5 + 0x138], %d34
    0x100007770:            10 80 06 3f  ba        +0x18fc       <0x10000906c>
    0x100007774:            c3 3b a9 c7  std       %d32, [%sp + 0x9c7]
    0x100007778:            cb 3b a9 27  std       %d36, [%sp + 0x927]
    0x10000777c:            87 a0 18 c5  fdtos     %d36, %f3
    0x100007780:            c7 23 a9 7f  st        %f3, [%sp + 0x97f]
    0x100007784:            98 10 00 1d  mov       %i5, %o4
    0x100007788:            90 10 00 1b  mov       %i3, %o0
    0x10000778c:            96 10 00 1a  mov       %i2, %o3
    0x100007790:            7f ff eb 2e  call      -0x5348       <0x100002448>
    0x100007794:            94 07 20 20  add       %i4, 0x20, %o2
    0x100007798:            d4 5f 20 20  ldx       [%i4 + 0x20], %o2
    0x10000779c:            c2 5b a8 bf  ldx       [%sp + 0x8bf], %g1
    0x1000077a0:            e6 04 25 30  ld        [%l0 + 0x530], %l3
    0x1000077a4:            c7 03 a9 7f  ld        [%sp + 0x97f], %f3
    0x1000077a8:            d7 1b a9 2f  ldd       [%sp + 0x92f], %d42
    0x1000077ac:            cb 1b a9 27  ldd       [%sp + 0x927], %d36
    0x1000077b0:            80 a2 80 01  cmp       %o2, %g1
    0x1000077b4:            06 60 00 06  bl,pn     %xcc, +0x18   <0x1000077cc>
    0x1000077b8:            e8 5b a8 cf  ldx       [%sp + 0x8cf], %l4
    0x1000077bc:            83 a0 19 20  fstod     %f0, %d32
    0x1000077c0:            c7 1d 21 38  ldd       [%l4 + 0x138], %d34
    0x1000077c4:            10 80 06 5e  ba        +0x1978       <0x10000913c>
    0x1000077c8:            ee 5b a8 c7  ldx       [%sp + 0x8c7], %l7
    0x1000077cc:            23 00 04 00  sethi     %hi(0x100000), %l1
    0x1000077d0:            a8 14 61 12  or        %l1, 0x112, %l4
    0x1000077d4:            a3 2d 30 0c  sllx      %l4, 0xc, %l1
    0x1000077d8:            d6 07 3f e8  ld        [%i4 - 0x18], %o3
    0x1000077dc:            a4 10 20 00  clr       %l2
    0x1000077e0:            ca 5e e0 00  ldx       [%i3], %g5
    0x1000077e4:            f0 03 a8 b7  ld        [%sp + 0x8b7], %i0
    0x1000077e8:            95 3a e0 00  sra       %o3, 0x0, %o2
    0x1000077ec:            ab 69 40 0a  sdivx     %g5, %o2, %l5
    0x1000077f0:            90 4d 40 1a  mulx      %l5, %i2, %o0
    0x1000077f4:            ac 02 ff ff  add       %o3, -0x1, %l6
    0x1000077f8:            9e 26 00 16  sub       %i0, %l6, %o7
    0x1000077fc:            ac 02 00 15  add       %o0, %l5, %l6
    0x100007800:            93 3b e0 00  sra       %o7, 0x0, %o1
    0x100007804:            ad 7a 44 05  movre     %o1, %g5, %l6
    0x100007808:            a9 3a 20 00  sra       %o0, 0x0, %l4
    0x10000780c:            80 a5 00 16  cmp       %l4, %l6
    0x100007810:            16 60 00 8b  bge,pn    %xcc, +0x22c  <0x100007a3c>
    0x100007814:            aa 05 bf ff  add       %l6, -0x1, %l5
    0x100007818:            8a 10 00 14  mov       %l4, %g5
    0x10000781c:            e3 06 60 40  ld        [%i1 + 0x40], %f17
    0x100007820:            91 2d 30 05  sllx      %l4, 0x5, %o0
    0x100007824:            d2 5e e0 10  ldx       [%i3 + 0x10], %o1
    0x100007828:            c2 06 e0 08  ld        [%i3 + 0x8], %g1
    0x10000782c:            88 02 40 08  add       %o1, %o0, %g4
    0x100007830:            da 5a 60 08  ldx       [%o1 + 0x8], %o5
    0x100007834:            80 a0 60 00  cmp       %g1, 0x0
    0x100007838:            c6 59 20 08  ldx       [%g4 + 0x8], %g3
    0x10000783c:            04 40 00 75  ble,pn    %icc, +0x1d4  <0x100007a10>
    0x100007840:            ae 00 7f ff  add       %g1, -0x1, %l7
    0x100007844:            80 a0 60 11  cmp       %g1, 0x11
    0x100007848:            9e 10 20 00  clr       %o7
    0x10000784c:            06 40 00 66  bl,pn     %icc, +0x198  <0x1000079e4>
    0x100007850:            01 00 00 00  nop
    0x100007854:            f1 00 e0 00  ld        [%g3], %f24
    0x100007858:            eb 00 e0 20  ld        [%g3 + 0x20], %f21
    0x10000785c:            e5 00 e0 04  ld        [%g3 + 0x4], %f18
    0x100007860:            e7 03 60 04  ld        [%o5 + 0x4], %f19
    0x100007864:            d3 03 60 00  ld        [%o5], %f9
    0x100007868:            fd 00 e0 08  ld        [%g3 + 0x8], %f30
    0x10000786c:            c1 00 e0 14  ld        [%g3 + 0x14], %f0
    0x100007870:            ff 00 e0 28  ld        [%g3 + 0x28], %f31
    0x100007874:            cf 00 e0 0c  ld        [%g3 + 0xc], %f7
    0x100007878:            f7 03 60 08  ld        [%o5 + 0x8], %f27
    0x10000787c:            f9 03 60 0c  ld        [%o5 + 0xc], %f28
    0x100007880:            dd 03 60 14  ld        [%o5 + 0x14], %f14
    0x100007884:            d7 00 e0 10  ld        [%g3 + 0x10], %f11
    0x100007888:            d9 03 60 10  ld        [%o5 + 0x10], %f12
    0x10000788c:            89 a4 88 b3  fsubs     %f18, %f19, %f4
    0x100007890:            fb 06 60 40  ld        [%i1 + 0x40], %f29
    0x100007894:            95 a6 08 a9  fsubs     %f24, %f9, %f10
    0x100007898:            f5 03 60 18  ld        [%o5 + 0x18], %f26
    0x10000789c:            9f a7 88 bb  fsubs     %f30, %f27, %f15
    0x1000078a0:            ef 03 60 1c  ld        [%o5 + 0x1c], %f23
    0x1000078a4:            a9 a1 09 24  fmuls     %f4, %f4, %f20
    0x1000078a8:            8d a1 c8 bc  fsubs     %f7, %f28, %f6
    0x1000078ac:            db 03 60 20  ld        [%o5 + 0x20], %f13
    0x1000078b0:            a1 a2 89 2a  fmuls     %f10, %f10, %f16
    0x1000078b4:            91 a0 08 ae  fsubs     %f0, %f14, %f8
    0x1000078b8:            86 00 e0 2c  add       %g3, 0x2c, %g3
    0x1000078bc:            ed 03 60 24  ld        [%o5 + 0x24], %f22
    0x1000078c0:            8b a4 48 34  fadds     %f17, %f20, %f5
    0x1000078c4:            f1 00 ff f0  ld        [%g3 - 0x10], %f24
    0x1000078c8:            b9 a2 c8 ac  fsubs     %f11, %f12, %f28
    0x1000078cc:            b7 a3 c9 2f  fmuls     %f15, %f15, %f27
    0x1000078d0:            c1 00 ff ec  ld        [%g3 - 0x14], %f0
    0x1000078d4:            84 03 60 28  add       %o5, 0x28, %g2
    0x1000078d8:            9e 10 20 0b  mov       0xb, %o7
    0x1000078dc:            b3 a1 89 26  fmuls     %f6, %f6, %f25
    0x1000078e0:            bb a7 48 30  fadds     %f29, %f16, %f29
    0x1000078e4:            e9 00 ff f8  ld        [%g3 - 0x8], %f20
    0x1000078e8:            96 00 7f fa  add       %g1, -0x6, %o3
    0x1000078ec:            9e 03 e0 06  add       %o7, 0x6, %o7
    0x1000078f0:            86 00 e0 18  add       %g3, 0x18, %g3
    0x1000078f4:            cf 00 a0 00  ld        [%g2], %f7
    0x1000078f8:            bd a0 08 ba  fsubs     %f0, %f26, %f30
    0x1000078fc:            83 a7 48 3b  fadds     %f29, %f27, %f1
    0x100007900:            80 a3 c0 0b  cmp       %o7, %o3
    0x100007904:            e7 00 ff e8  ld        [%g3 - 0x18], %f19
    0x100007908:            93 a7 09 3c  fmuls     %f28, %f28, %f9
    0x10000790c:            b7 a6 08 b7  fsubs     %f24, %f23, %f27
    0x100007910:            e5 00 a0 04  ld        [%g2 + 0x4], %f18
    0x100007914:            84 00 a0 18  add       %g2, 0x18, %g2
    0x100007918:            b3 a1 48 39  fadds     %f5, %f25, %f25
    0x10000791c:            91 a2 09 28  fmuls     %f8, %f8, %f8
    0x100007920:            c1 00 ff ec  ld        [%g3 - 0x14], %f0
    0x100007924:            9d a5 48 ad  fsubs     %f21, %f13, %f14
    0x100007928:            f5 00 bf f0  ld        [%g2 - 0x10], %f26
    0x10000792c:            99 a0 48 29  fadds     %f1, %f9, %f12
    0x100007930:            97 a7 89 3e  fmuls     %f30, %f30, %f11
    0x100007934:            f1 00 ff f0  ld        [%g3 - 0x10], %f24
    0x100007938:            89 a5 08 b6  fsubs     %f20, %f22, %f4
    0x10000793c:            ef 00 bf f4  ld        [%g2 - 0xc], %f23
    0x100007940:            85 a6 48 28  fadds     %f25, %f8, %f2
    0x100007944:            8b a6 c9 3b  fmuls     %f27, %f27, %f5
    0x100007948:            eb 00 ff f4  ld        [%g3 - 0xc], %f21
    0x10000794c:            b9 a7 c8 a7  fsubs     %f31, %f7, %f28
    0x100007950:            db 00 bf f8  ld        [%g2 - 0x8], %f13
    0x100007954:            bb a3 08 2b  fadds     %f12, %f11, %f29
    0x100007958:            b7 a3 89 2e  fmuls     %f14, %f14, %f27
    0x10000795c:            e9 00 ff f8  ld        [%g3 - 0x8], %f20
    0x100007960:            91 a4 c8 b2  fsubs     %f19, %f18, %f8
    0x100007964:            ed 00 bf fc  ld        [%g2 - 0x4], %f22
    0x100007968:            8b a0 88 25  fadds     %f2, %f5, %f5
    0x10000796c:            ff 00 ff fc  ld        [%g3 - 0x4], %f31
    0x100007970:            04 4f ff df  ble,pt    %icc, -0x84   <0x1000078ec>
    0x100007974:            b3 a1 09 24  fmuls     %f4, %f4, %f25
    0x100007978:            99 a7 09 3c  fmuls     %f28, %f28, %f12
    0x10000797c:            bd a0 08 ba  fsubs     %f0, %f26, %f30
    0x100007980:            b9 a7 48 3b  fadds     %f29, %f27, %f28
    0x100007984:            81 a5 48 ad  fsubs     %f21, %f13, %f0
    0x100007988:            8d a6 08 b7  fsubs     %f24, %f23, %f6
    0x10000798c:            9b a1 48 39  fadds     %f5, %f25, %f13
    0x100007990:            95 a2 09 28  fmuls     %f8, %f8, %f10
    0x100007994:            af a7 89 3e  fmuls     %f30, %f30, %f23
    0x100007998:            9f a7 08 2c  fadds     %f28, %f12, %f15
    0x10000799c:            dd 00 a0 00  ld        [%g2], %f14
    0x1000079a0:            a9 a5 08 b6  fsubs     %f20, %f22, %f20
    0x1000079a4:            91 a0 09 20  fmuls     %f0, %f0, %f8
    0x1000079a8:            b5 a7 c8 ae  fsubs     %f31, %f14, %f26
    0x1000079ac:            a1 a1 89 26  fmuls     %f6, %f6, %f16
    0x1000079b0:            b3 a3 48 2a  fadds     %f13, %f10, %f25
    0x1000079b4:            ab a3 c8 37  fadds     %f15, %f23, %f21
    0x1000079b8:            bf a5 09 34  fmuls     %f20, %f20, %f31
    0x1000079bc:            80 a3 c0 17  cmp       %o7, %l7
    0x1000079c0:            8b a6 89 3a  fmuls     %f26, %f26, %f5
    0x1000079c4:            9a 00 a0 04  add       %g2, 0x4, %o5
    0x1000079c8:            bb a6 48 30  fadds     %f25, %f16, %f29
    0x1000079cc:            85 a5 48 28  fadds     %f21, %f8, %f2
    0x1000079d0:            ad a7 48 3f  fadds     %f29, %f31, %f22
    0x1000079d4:            83 a0 88 25  fadds     %f2, %f5, %f1
    0x1000079d8:            a3 a5 88 21  fadds     %f22, %f1, %f17
    0x1000079dc:            14 40 00 0d  bg,pn     %icc, +0x34   <0x100007a10>
    0x1000079e0:            01 00 00 00  nop
    0x1000079e4:            c9 03 60 00  ld        [%o5], %f4
    0x1000079e8:            c3 00 e0 00  ld        [%g3], %f1
    0x1000079ec:            9e 03 e0 01  add       %o7, 0x1, %o7
    0x1000079f0:            80 a3 c0 17  cmp       %o7, %l7
    0x1000079f4:            8b a0 48 a4  fsubs     %f1, %f4, %f5
    0x1000079f8:            9a 03 60 04  add       %o5, 0x4, %o5
    0x1000079fc:            86 00 e0 04  add       %g3, 0x4, %g3
    0x100007a00:            85 a1 49 25  fmuls     %f5, %f5, %f2
    0x100007a04:            a3 a4 48 22  fadds     %f17, %f2, %f17
    0x100007a08:            24 4f ff f8  ble,a,pt  %icc, -0x20   <0x1000079e8>
    0x100007a0c:            c9 03 60 00  ld        [%o5], %f4
    0x100007a10:            f3 02 40 08  ld        [%o1 + %o0], %f25
    0x100007a14:            8a 01 60 01  add       %g5, 0x1, %g5
    0x100007a18:            80 a1 40 15  cmp       %g5, %l5
    0x100007a1c:            81 a4 49 39  fmuls     %f17, %f25, %f0
    0x100007a20:            c1 21 20 18  st        %f0, [%g4 + 0x18]
    0x100007a24:            c8 5e e0 10  ldx       [%i3 + 0x10], %g4
    0x100007a28:            94 02 00 04  add       %o0, %g4, %o2
    0x100007a2c:            c0 72 a0 10  clrx      [%o2 + 0x10]
    0x100007a30:            90 02 20 20  add       %o0, 0x20, %o0
    0x100007a34:            24 6f ff 7c  ble,a,pt  %xcc, -0x210  <0x100007824>
    0x100007a38:            e3 06 60 40  ld        [%i1 + 0x40], %f17
    0x100007a3c:            d0 03 a8 b7  ld        [%sp + 0x8b7], %o0
    0x100007a40:            80 a2 20 00  cmp       %o0, 0x0
    0x100007a44:            12 40 00 d2  bne,pn    %icc, +0x348  <0x100007d8c>
    0x100007a48:            ae 10 20 01  mov       0x1, %l7
    0x100007a4c:            c4 07 3f e8  ld        [%i4 - 0x18], %g2
    0x100007a50:            c7 23 a9 7f  st        %f3, [%sp + 0x97f]
    0x100007a54:            d7 3b a9 2f  std       %d42, [%sp + 0x92f]
    0x100007a58:            cb 3b a9 27  std       %d36, [%sp + 0x927]
    0x100007a5c:            ee 77 20 20  stx       %l7, [%i4 + 0x20]
    0x100007a60:            95 38 a0 00  sra       %g2, 0x0, %o2
    0x100007a64:            40 04 28 a7  call      +0x10a29c     <0x100111d00>
    0x100007a68:            91 2a b0 03  sllx      %o2, 0x3, %o0
    0x100007a6c:            cb 1b a9 27  ldd       [%sp + 0x927], %d36
    0x100007a70:            d0 77 3f f8  stx       %o0, [%i4 - 0x8]
    0x100007a74:            c7 03 a9 7f  ld        [%sp + 0x97f], %f3
    0x100007a78:            ee 24 25 30  st        %l7, [%l0 + 0x530]
    0x100007a7c:            d6 5e e0 00  ldx       [%i3], %o3
    0x100007a80:            d7 1b a9 2f  ldd       [%sp + 0x92f], %d42
    0x100007a84:            80 a5 c0 0b  cmp       %l7, %o3
    0x100007a88:            16 60 00 b7  bge,pn    %xcc, +0x2dc  <0x100007d64>
    0x100007a8c:            a6 10 20 01  mov       0x1, %l3
    0x100007a90:            c9 06 60 10  ld        [%i1 + 0x10], %f4
    0x100007a94:            af 2d 30 05  sllx      %l4, 0x5, %l7
    0x100007a98:            a3 a1 09 a3  fdivs     %f4, %f3, %f17
    0x100007a9c:            e3 23 a9 f7  st        %f17, [%sp + 0x9f7]
    0x100007aa0:            d7 3b a9 2f  std       %d42, [%sp + 0x92f]
    0x100007aa4:            c7 23 a9 7f  st        %f3, [%sp + 0x97f]
    0x100007aa8:            40 04 28 8e  call      +0x10a238     <0x100111ce0>
    0x100007aac:            cb 3b a9 27  std       %d36, [%sp + 0x927]
    0x100007ab0:            d4 04 25 30  ld        [%l0 + 0x530], %o2
    0x100007ab4:            c8 5e e0 10  ldx       [%i3 + 0x10], %g4
    0x100007ab8:            c3 06 60 14  ld        [%i1 + 0x14], %f1
    0x100007abc:            9f 3a a0 00  sra       %o2, 0x0, %o7
    0x100007ac0:            93 2b f0 05  sllx      %o7, 0x5, %o1
    0x100007ac4:            82 02 40 04  add       %o1, %g4, %g1
    0x100007ac8:            c9 00 60 18  ld        [%g1 + 0x18], %f4
    0x100007acc:            d0 73 a9 9f  stx       %o0, [%sp + 0x99f]
    0x100007ad0:            c7 1b a9 9f  ldd       [%sp + 0x99f], %d34
    0x100007ad4:            e3 03 a9 f7  ld        [%sp + 0x9f7], %f17
    0x100007ad8:            c7 03 a9 7f  ld        [%sp + 0x97f], %f3
    0x100007adc:            8b a0 10 83  fxtos     %d34, %f5
    0x100007ae0:            85 a1 09 31  fmuls     %f4, %f17, %f2
    0x100007ae4:            d7 1b a9 2f  ldd       [%sp + 0x92f], %d42
    0x100007ae8:            cb 1b a9 27  ldd       [%sp + 0x927], %d36
    0x100007aec:            af a1 49 21  fmuls     %f5, %f1, %f23
    0x100007af0:            85 ad ca a2  fcmpes    %fcc2, %f23, %f2
    0x100007af4:            19 60 00 95  fbuge,pn  %fcc2, +0x254  <0x100007d48>
    0x100007af8:            ca 5f 20 20  ldx       [%i4 + 0x20], %g5
    0x100007afc:            80 a5 00 16  cmp       %l4, %l6
    0x100007b00:            86 01 60 01  add       %g5, 0x1, %g3
    0x100007b04:            16 60 00 90  bge,pn    %xcc, +0x240  <0x100007d44>
    0x100007b08:            c6 77 20 20  stx       %g3, [%i4 + 0x20]
    0x100007b0c:            90 10 00 14  mov       %l4, %o0
    0x100007b10:            e7 06 60 40  ld        [%i1 + 0x40], %f19
    0x100007b14:            96 10 00 17  mov       %l7, %o3
    0x100007b18:            c8 5e e0 10  ldx       [%i3 + 0x10], %g4
    0x100007b1c:            e6 06 e0 08  ld        [%i3 + 0x8], %l3
    0x100007b20:            8a 01 00 0b  add       %g4, %o3, %g5
    0x100007b24:            84 01 00 09  add       %g4, %o1, %g2
    0x100007b28:            d8 59 60 08  ldx       [%g5 + 0x8], %o4
    0x100007b2c:            80 a4 e0 00  cmp       %l3, 0x0
    0x100007b30:            c6 58 a0 08  ldx       [%g2 + 0x8], %g3
    0x100007b34:            04 40 00 76  ble,pn    %icc, +0x1d8  <0x100007d0c>
    0x100007b38:            a6 04 ff ff  add       %l3, -0x1, %l3
    0x100007b3c:            84 04 e0 01  add       %l3, 0x1, %g2
    0x100007b40:            80 a0 a0 11  cmp       %g2, 0x11
    0x100007b44:            82 10 20 00  clr       %g1
    0x100007b48:            06 40 00 66  bl,pn     %icc, +0x198  <0x100007ce0>
    0x100007b4c:            01 00 00 00  nop
    0x100007b50:            d7 00 e0 00  ld        [%g3], %f11
    0x100007b54:            ed 00 e0 10  ld        [%g3 + 0x10], %f22
    0x100007b58:            c9 00 e0 04  ld        [%g3 + 0x4], %f4
    0x100007b5c:            dd 03 20 04  ld        [%o4 + 0x4], %f14
    0x100007b60:            d9 03 20 00  ld        [%o4], %f12
    0x100007b64:            f1 00 e0 0c  ld        [%g3 + 0xc], %f24
    0x100007b68:            c5 00 e0 08  ld        [%g3 + 0x8], %f2
    0x100007b6c:            cb 03 20 08  ld        [%o4 + 0x8], %f5
    0x100007b70:            eb 03 20 0c  ld        [%o4 + 0xc], %f21
    0x100007b74:            d1 00 e0 18  ld        [%g3 + 0x18], %f8
    0x100007b78:            e9 03 20 10  ld        [%o4 + 0x10], %f20
    0x100007b7c:            f5 00 e0 28  ld        [%g3 + 0x28], %f26
    0x100007b80:            d5 00 e0 14  ld        [%g3 + 0x14], %f10
    0x100007b84:            df 03 20 14  ld        [%o4 + 0x14], %f15
    0x100007b88:            a1 a1 08 ae  fsubs     %f4, %f14, %f16
    0x100007b8c:            d3 06 60 40  ld        [%i1 + 0x40], %f9
    0x100007b90:            a5 a2 c8 ac  fsubs     %f11, %f12, %f18
    0x100007b94:            fd 00 e0 1c  ld        [%g3 + 0x1c], %f30
    0x100007b98:            bb a0 88 a5  fsubs     %f2, %f5, %f29
    0x100007b9c:            c3 03 20 18  ld        [%o4 + 0x18], %f1
    0x100007ba0:            81 a6 08 b5  fsubs     %f24, %f21, %f0
    0x100007ba4:            9b a4 09 30  fmuls     %f16, %f16, %f13
    0x100007ba8:            ff 03 20 1c  ld        [%o4 + 0x1c], %f31
    0x100007bac:            8d a4 89 32  fmuls     %f18, %f18, %f6
    0x100007bb0:            b3 a5 88 b4  fsubs     %f22, %f20, %f25
    0x100007bb4:            ef 03 20 20  ld        [%o4 + 0x20], %f23
    0x100007bb8:            b1 a7 49 3d  fmuls     %f29, %f29, %f24
    0x100007bbc:            8b a4 c8 2d  fadds     %f19, %f13, %f5
    0x100007bc0:            86 00 e0 2c  add       %g3, 0x2c, %g3
    0x100007bc4:            f9 03 20 24  ld        [%o4 + 0x24], %f28
    0x100007bc8:            84 03 20 28  add       %o4, 0x28, %g2
    0x100007bcc:            8f a2 88 af  fsubs     %f10, %f15, %f7
    0x100007bd0:            fb 00 ff f4  ld        [%g3 - 0xc], %f29
    0x100007bd4:            82 10 20 0b  mov       0xb, %g1
    0x100007bd8:            ad a0 09 20  fmuls     %f0, %f0, %f22
    0x100007bdc:            81 a2 48 26  fadds     %f9, %f6, %f0
    0x100007be0:            db 00 ff f8  ld        [%g3 - 0x8], %f13
    0x100007be4:            9a 24 e0 05  sub       %l3, 0x5, %o5
    0x100007be8:            82 00 60 06  add       %g1, 0x6, %g1
    0x100007bec:            86 00 e0 18  add       %g3, 0x18, %g3
    0x100007bf0:            d5 00 a0 00  ld        [%g2], %f10
    0x100007bf4:            99 a2 08 a1  fsubs     %f8, %f1, %f12
    0x100007bf8:            b7 a0 08 38  fadds     %f0, %f24, %f27
    0x100007bfc:            80 a0 40 0d  cmp       %g1, %o5
    0x100007c00:            eb 00 ff e8  ld        [%g3 - 0x18], %f21
    0x100007c04:            b3 a6 49 39  fmuls     %f25, %f25, %f25
    0x100007c08:            9d a7 88 bf  fsubs     %f30, %f31, %f14
    0x100007c0c:            e9 00 a0 04  ld        [%g2 + 0x4], %f20
    0x100007c10:            84 00 a0 18  add       %g2, 0x18, %g2
    0x100007c14:            97 a1 48 36  fadds     %f5, %f22, %f11
    0x100007c18:            8f a1 c9 27  fmuls     %f7, %f7, %f7
    0x100007c1c:            d1 00 ff ec  ld        [%g3 - 0x14], %f8
    0x100007c20:            ad a7 48 b7  fsubs     %f29, %f23, %f22
    0x100007c24:            c3 00 bf f0  ld        [%g2 - 0x10], %f1
    0x100007c28:            89 a6 c8 39  fadds     %f27, %f25, %f4
    0x100007c2c:            b1 a3 09 2c  fmuls     %f12, %f12, %f24
    0x100007c30:            fd 00 ff f0  ld        [%g3 - 0x10], %f30
    0x100007c34:            9f a3 48 bc  fsubs     %f13, %f28, %f15
    0x100007c38:            ff 00 bf f4  ld        [%g2 - 0xc], %f31
    0x100007c3c:            85 a2 c8 27  fadds     %f11, %f7, %f2
    0x100007c40:            8b a3 89 2e  fmuls     %f14, %f14, %f5
    0x100007c44:            fb 00 ff f4  ld        [%g3 - 0xc], %f29
    0x100007c48:            b3 a6 88 aa  fsubs     %f26, %f10, %f25
    0x100007c4c:            ef 00 bf f8  ld        [%g2 - 0x8], %f23
    0x100007c50:            81 a1 08 38  fadds     %f4, %f24, %f0
    0x100007c54:            b1 a5 89 36  fmuls     %f22, %f22, %f24
    0x100007c58:            db 00 ff f8  ld        [%g3 - 0x8], %f13
    0x100007c5c:            8f a5 48 b4  fsubs     %f21, %f20, %f7
    0x100007c60:            f9 00 bf fc  ld        [%g2 - 0x4], %f28
    0x100007c64:            8b a0 88 25  fadds     %f2, %f5, %f5
    0x100007c68:            f5 00 ff fc  ld        [%g3 - 0x4], %f26
    0x100007c6c:            04 4f ff df  ble,pt    %icc, -0x84   <0x100007be8>
    0x100007c70:            ad a3 c9 2f  fmuls     %f15, %f15, %f22
    0x100007c74:            ab a2 08 a1  fsubs     %f8, %f1, %f21
    0x100007c78:            9f a6 49 39  fmuls     %f25, %f25, %f15
    0x100007c7c:            b1 a0 08 38  fadds     %f0, %f24, %f24
    0x100007c80:            af a7 48 b7  fsubs     %f29, %f23, %f23
    0x100007c84:            a9 a7 88 bf  fsubs     %f30, %f31, %f20
    0x100007c88:            95 a1 c9 27  fmuls     %f7, %f7, %f10
    0x100007c8c:            bb a5 49 35  fmuls     %f21, %f21, %f29
    0x100007c90:            ad a1 48 36  fadds     %f5, %f22, %f22
    0x100007c94:            a1 a6 08 2f  fadds     %f24, %f15, %f16
    0x100007c98:            ff 00 a0 00  ld        [%g2], %f31
    0x100007c9c:            9b a3 48 bc  fsubs     %f13, %f28, %f13
    0x100007ca0:            83 a5 c9 37  fmuls     %f23, %f23, %f1
    0x100007ca4:            b5 a6 88 bf  fsubs     %f26, %f31, %f26
    0x100007ca8:            81 a5 09 34  fmuls     %f20, %f20, %f0
    0x100007cac:            b9 a5 88 2a  fadds     %f22, %f10, %f28
    0x100007cb0:            8d a4 08 3d  fadds     %f16, %f29, %f6
    0x100007cb4:            bd a3 49 2d  fmuls     %f13, %f13, %f30
    0x100007cb8:            80 a0 40 13  cmp       %g1, %l3
    0x100007cbc:            91 a6 89 3a  fmuls     %f26, %f26, %f8
    0x100007cc0:            98 00 a0 04  add       %g2, 0x4, %o4
    0x100007cc4:            93 a7 08 20  fadds     %f28, %f0, %f9
    0x100007cc8:            b3 a1 88 21  fadds     %f6, %f1, %f25
    0x100007ccc:            b7 a2 48 3e  fadds     %f9, %f30, %f27
    0x100007cd0:            8f a6 48 28  fadds     %f25, %f8, %f7
    0x100007cd4:            a7 a6 c8 27  fadds     %f27, %f7, %f19
    0x100007cd8:            14 40 00 0d  bg,pn     %icc, +0x34   <0x100007d0c>
    0x100007cdc:            01 00 00 00  nop
    0x100007ce0:            f9 03 20 00  ld        [%o4], %f28
    0x100007ce4:            fb 00 e0 00  ld        [%g3], %f29
    0x100007ce8:            82 00 60 01  add       %g1, 0x1, %g1
    0x100007cec:            80 a0 40 13  cmp       %g1, %l3
    0x100007cf0:            ab a7 48 bc  fsubs     %f29, %f28, %f21
    0x100007cf4:            98 03 20 04  add       %o4, 0x4, %o4
    0x100007cf8:            86 00 e0 04  add       %g3, 0x4, %g3
    0x100007cfc:            9f a5 49 35  fmuls     %f21, %f21, %f15
    0x100007d00:            a7 a4 c8 2f  fadds     %f19, %f15, %f19
    0x100007d04:            24 4f ff f8  ble,a,pt  %icc, -0x20   <0x100007ce4>
    0x100007d08:            f9 03 20 00  ld        [%o4], %f28
    0x100007d0c:            f7 01 00 0b  ld        [%g4 + %o3], %f27
    0x100007d10:            dd 01 60 18  ld        [%g5 + 0x18], %f14
    0x100007d14:            81 a4 c9 3b  fmuls     %f19, %f27, %f0
    0x100007d18:            87 a8 0a ae  fcmpes    %fcc3, %f0, %f14
    0x100007d1c:            19 70 00 06  fbuge,pn  %fcc3, +0x18   <0x100007d34>
    0x100007d20:            90 02 20 01  add       %o0, 0x1, %o0
    0x100007d24:            c1 21 60 18  st        %f0, [%g5 + 0x18]
    0x100007d28:            d8 5e e0 10  ldx       [%i3 + 0x10], %o4
    0x100007d2c:            a6 02 c0 0c  add       %o3, %o4, %l3
    0x100007d30:            de 74 e0 10  stx       %o7, [%l3 + 0x10]
    0x100007d34:            80 a2 00 15  cmp       %o0, %l5
    0x100007d38:            96 02 e0 20  add       %o3, 0x20, %o3
    0x100007d3c:            24 6f ff 77  ble,a,pt  %xcc, -0x224  <0x100007b18>
    0x100007d40:            e7 06 60 40  ld        [%i1 + 0x40], %f19
    0x100007d44:            c0 2c 64 60  clrb      [%l1 + 0x460]
    0x100007d48:            a6 02 a0 01  add       %o2, 0x1, %l3
    0x100007d4c:            e6 24 25 30  st        %l3, [%l0 + 0x530]
    0x100007d50:            d2 5e e0 00  ldx       [%i3], %o1
    0x100007d54:            9b 3c e0 00  sra       %l3, 0x0, %o5
    0x100007d58:            80 a3 40 09  cmp       %o5, %o1
    0x100007d5c:            26 6f ff 51  bl,a,pt   %xcc, -0x2bc  <0x100007aa0>
    0x100007d60:            e3 23 a9 f7  st        %f17, [%sp + 0x9f7]
    0x100007d64:            d0 5b a8 cf  ldx       [%sp + 0x8cf], %o0
    0x100007d68:            c0 2c 64 60  clrb      [%l1 + 0x460]
    0x100007d6c:            80 a5 00 16  cmp       %l4, %l6
    0x100007d70:            fb 1a 21 38  ldd       [%o0 + 0x138], %d60
    0x100007d74:            06 60 00 b1  bl,pn     %xcc, +0x2c4  <0x100008038>
    0x100007d78:            ec 5f 3f f8  ldx       [%i4 - 0x8], %l6
    0x100007d7c:            d4 5b a8 d7  ldx       [%sp + 0x8d7], %o2
    0x100007d80:            fb 3d 80 0a  std       %d60, [%l6 + %o2]
    0x100007d84:            10 80 00 ff  ba        +0x3fc        <0x100008180>
    0x100007d88:            db 1f 20 20  ldd       [%i4 + 0x20], %d44
    0x100007d8c:            de 5e e0 00  ldx       [%i3], %o7
    0x100007d90:            95 3c e0 00  sra       %l3, 0x0, %o2
    0x100007d94:            80 a2 80 0f  cmp       %o2, %o7
    0x100007d98:            16 60 00 a2  bge,pn    %xcc, +0x288  <0x100008020>
    0x100007d9c:            80 a5 00 16  cmp       %l4, %l6
    0x100007da0:            16 60 06 85  bge,pn    %xcc, +0x1a14 <0x1000097b4>
    0x100007da4:            93 2d 30 05  sllx      %l4, 0x5, %o1
    0x100007da8:            91 2a b0 05  sllx      %o2, 0x5, %o0
    0x100007dac:            9e 10 00 14  mov       %l4, %o7
    0x100007db0:            e5 06 60 40  ld        [%i1 + 0x40], %f18
    0x100007db4:            96 10 00 09  mov       %o1, %o3
    0x100007db8:            c8 5e e0 10  ldx       [%i3 + 0x10], %g4
    0x100007dbc:            d8 06 e0 08  ld        [%i3 + 0x8], %o4
    0x100007dc0:            9a 01 00 08  add       %g4, %o0, %o5
    0x100007dc4:            8a 01 00 0b  add       %g4, %o3, %g5
    0x100007dc8:            c6 5b 60 08  ldx       [%o5 + 0x8], %g3
    0x100007dcc:            80 a3 20 00  cmp       %o4, 0x0
    0x100007dd0:            f0 59 60 08  ldx       [%g5 + 0x8], %i0
    0x100007dd4:            04 40 00 81  ble,pn    %icc, +0x204  <0x100007fd8>
    0x100007dd8:            9a 03 3f ff  add       %o4, -0x1, %o5
    0x100007ddc:            80 a3 20 13  cmp       %o4, 0x13
    0x100007de0:            ae 10 20 00  clr       %l7
    0x100007de4:            06 40 00 72  bl,pn     %icc, +0x1c8  <0x100007fac>
    0x100007de8:            01 00 00 00  nop
    0x100007dec:            f7 00 e0 00  ld        [%g3], %f27
    0x100007df0:            e7 00 e0 14  ld        [%g3 + 0x14], %f19
    0x100007df4:            ff 00 e0 04  ld        [%g3 + 0x4], %f31
    0x100007df8:            ef 06 20 04  ld        [%i0 + 0x4], %f23
    0x100007dfc:            f5 06 20 00  ld        [%i0], %f26
    0x100007e00:            eb 00 e0 20  ld        [%g3 + 0x20], %f21
    0x100007e04:            d7 00 e0 18  ld        [%g3 + 0x18], %f11
    0x100007e08:            c3 00 e0 08  ld        [%g3 + 0x8], %f1
    0x100007e0c:            e1 00 e0 0c  ld        [%g3 + 0xc], %f16
    0x100007e10:            fd 06 20 0c  ld        [%i0 + 0xc], %f30
    0x100007e14:            f9 06 20 08  ld        [%i0 + 0x8], %f28
    0x100007e18:            df 06 20 14  ld        [%i0 + 0x14], %f15
    0x100007e1c:            db 00 e0 10  ld        [%g3 + 0x10], %f13
    0x100007e20:            d1 06 20 10  ld        [%i0 + 0x10], %f8
    0x100007e24:            b3 a7 c8 b7  fsubs     %f31, %f23, %f25
    0x100007e28:            f1 06 60 40  ld        [%i1 + 0x40], %f24
    0x100007e2c:            a3 a6 c8 ba  fsubs     %f27, %f26, %f17
    0x100007e30:            d5 00 e0 1c  ld        [%g3 + 0x1c], %f10
    0x100007e34:            8d a4 08 be  fsubs     %f16, %f30, %f6
    0x100007e38:            d9 06 20 18  ld        [%i0 + 0x18], %f12
    0x100007e3c:            bb a6 49 39  fmuls     %f25, %f25, %f29
    0x100007e40:            8f a0 48 bc  fsubs     %f1, %f28, %f7
    0x100007e44:            e9 06 20 1c  ld        [%i0 + 0x1c], %f20
    0x100007e48:            81 a4 49 31  fmuls     %f17, %f17, %f0
    0x100007e4c:            9f a4 c8 af  fsubs     %f19, %f15, %f15
    0x100007e50:            dd 06 20 20  ld        [%i0 + 0x20], %f14
    0x100007e54:            85 a4 88 3d  fadds     %f18, %f29, %f2
    0x100007e58:            a7 a1 89 26  fmuls     %f6, %f6, %f19
    0x100007e5c:            86 00 e0 2c  add       %g3, 0x2c, %g3
    0x100007e60:            d3 06 20 24  ld        [%i0 + 0x24], %f9
    0x100007e64:            a1 a3 48 a8  fsubs     %f13, %f8, %f16
    0x100007e68:            f7 00 ff fc  ld        [%g3 - 0x4], %f27
    0x100007e6c:            82 06 20 28  add       %i0, 0x28, %g1
    0x100007e70:            ae 10 20 0b  mov       0xb, %l7
    0x100007e74:            89 a1 c9 27  fmuls     %f7, %f7, %f4
    0x100007e78:            8d a6 08 20  fadds     %f24, %f0, %f6
    0x100007e7c:            fb 00 ff f8  ld        [%g3 - 0x8], %f29
    0x100007e80:            98 23 60 07  sub       %o5, 0x7, %o4
    0x100007e84:            c1 68 e0 90  prefetch  [%g3 + 0x90], #n_reads
    0x100007e88:            c1 68 60 90  prefetch  [%g1 + 0x90], #n_reads
    0x100007e8c:            ae 05 e0 08  add       %l7, 0x8, %l7
    0x100007e90:            86 00 e0 20  add       %g3, 0x20, %g3
    0x100007e94:            f5 00 60 00  ld        [%g1], %f26
    0x100007e98:            97 a2 c8 ac  fsubs     %f11, %f12, %f11
    0x100007e9c:            99 a1 88 24  fadds     %f6, %f4, %f12
    0x100007ea0:            80 a5 c0 0c  cmp       %l7, %o4
    0x100007ea4:            f9 00 ff e0  ld        [%g3 - 0x20], %f28
    0x100007ea8:            89 a4 09 30  fmuls     %f16, %f16, %f4
    0x100007eac:            95 a2 88 b4  fsubs     %f10, %f20, %f10
    0x100007eb0:            ff 00 60 04  ld        [%g1 + 0x4], %f31
    0x100007eb4:            82 00 60 20  add       %g1, 0x20, %g1
    0x100007eb8:            a9 a0 88 33  fadds     %f2, %f19, %f20
    0x100007ebc:            ad a3 c9 2f  fmuls     %f15, %f15, %f22
    0x100007ec0:            e1 00 ff e4  ld        [%g3 - 0x1c], %f16
    0x100007ec4:            8b a5 48 ae  fsubs     %f21, %f14, %f5
    0x100007ec8:            dd 00 7f e8  ld        [%g1 - 0x18], %f14
    0x100007ecc:            ab a3 08 24  fadds     %f12, %f4, %f21
    0x100007ed0:            af a2 c9 2b  fmuls     %f11, %f11, %f23
    0x100007ed4:            d1 00 ff e8  ld        [%g3 - 0x18], %f8
    0x100007ed8:            bd a7 48 a9  fsubs     %f29, %f9, %f30
    0x100007edc:            d3 00 7f ec  ld        [%g1 - 0x14], %f9
    0x100007ee0:            85 a5 08 36  fadds     %f20, %f22, %f2
    0x100007ee4:            83 a2 89 2a  fmuls     %f10, %f10, %f1
    0x100007ee8:            d7 00 ff ec  ld        [%g3 - 0x14], %f11
    0x100007eec:            9f a6 c8 ba  fsubs     %f27, %f26, %f15
    0x100007ef0:            d9 00 7f f0  ld        [%g1 - 0x10], %f12
    0x100007ef4:            b7 a5 48 37  fadds     %f21, %f23, %f27
    0x100007ef8:            9b a1 49 25  fmuls     %f5, %f5, %f13
    0x100007efc:            d5 00 ff f0  ld        [%g3 - 0x10], %f10
    0x100007f00:            a3 a7 08 bf  fsubs     %f28, %f31, %f17
    0x100007f04:            e9 00 7f f4  ld        [%g1 - 0xc], %f20
    0x100007f08:            a7 a0 88 21  fadds     %f2, %f1, %f19
    0x100007f0c:            b3 a7 89 3e  fmuls     %f30, %f30, %f25
    0x100007f10:            eb 00 ff f4  ld        [%g3 - 0xc], %f21
    0x100007f14:            a1 a4 08 ae  fsubs     %f16, %f14, %f16
    0x100007f18:            dd 00 7f f8  ld        [%g1 - 0x8], %f14
    0x100007f1c:            8d a6 c8 2d  fadds     %f27, %f13, %f6
    0x100007f20:            89 a3 c9 2f  fmuls     %f15, %f15, %f4
    0x100007f24:            fb 00 ff f8  ld        [%g3 - 0x8], %f29
    0x100007f28:            9f a2 08 a9  fsubs     %f8, %f9, %f15
    0x100007f2c:            d3 00 7f fc  ld        [%g1 - 0x4], %f9
    0x100007f30:            85 a4 c8 39  fadds     %f19, %f25, %f2
    0x100007f34:            f7 00 ff fc  ld        [%g3 - 0x4], %f27
    0x100007f38:            04 4f ff d3  ble,pt    %icc, -0xb4   <0x100007e84>
    0x100007f3c:            a7 a4 49 31  fmuls     %f17, %f17, %f19
    0x100007f40:            a5 a4 09 30  fmuls     %f16, %f16, %f18
    0x100007f44:            91 a2 c8 ac  fsubs     %f11, %f12, %f8
    0x100007f48:            a1 a1 88 24  fadds     %f6, %f4, %f16
    0x100007f4c:            9b a5 48 ae  fsubs     %f21, %f14, %f13
    0x100007f50:            8d a2 88 b4  fsubs     %f10, %f20, %f6
    0x100007f54:            b3 a0 88 33  fadds     %f2, %f19, %f25
    0x100007f58:            99 a3 c9 2f  fmuls     %f15, %f15, %f12
    0x100007f5c:            97 a2 09 28  fmuls     %f8, %f8, %f11
    0x100007f60:            8f a4 08 32  fadds     %f16, %f18, %f7
    0x100007f64:            e7 00 60 00  ld        [%g1], %f19
    0x100007f68:            bb a7 48 a9  fsubs     %f29, %f9, %f29
    0x100007f6c:            b1 a3 49 2d  fmuls     %f13, %f13, %f24
    0x100007f70:            81 a6 c8 b3  fsubs     %f27, %f19, %f0
    0x100007f74:            9d a1 89 26  fmuls     %f6, %f6, %f14
    0x100007f78:            93 a6 48 2c  fadds     %f25, %f12, %f9
    0x100007f7c:            95 a1 c8 2b  fadds     %f7, %f11, %f10
    0x100007f80:            89 a7 49 3d  fmuls     %f29, %f29, %f4
    0x100007f84:            80 a5 c0 0d  cmp       %l7, %o5
    0x100007f88:            ad a0 09 20  fmuls     %f0, %f0, %f22
    0x100007f8c:            b0 00 60 04  add       %g1, 0x4, %i0
    0x100007f90:            a9 a2 48 2e  fadds     %f9, %f14, %f20
    0x100007f94:            ab a2 88 38  fadds     %f10, %f24, %f21
    0x100007f98:            85 a5 08 24  fadds     %f20, %f4, %f2
    0x100007f9c:            8b a5 48 36  fadds     %f21, %f22, %f5
    0x100007fa0:            a5 a0 88 25  fadds     %f2, %f5, %f18
    0x100007fa4:            14 40 00 0d  bg,pn     %icc, +0x34   <0x100007fd8>
    0x100007fa8:            01 00 00 00  nop
    0x100007fac:            e7 06 20 00  ld        [%i0], %f19
    0x100007fb0:            f7 00 e0 00  ld        [%g3], %f27
    0x100007fb4:            ae 05 e0 01  add       %l7, 0x1, %l7
    0x100007fb8:            80 a5 c0 0d  cmp       %l7, %o5
    0x100007fbc:            9d a6 c8 b3  fsubs     %f27, %f19, %f14
    0x100007fc0:            b0 06 20 04  add       %i0, 0x4, %i0
    0x100007fc4:            86 00 e0 04  add       %g3, 0x4, %g3
    0x100007fc8:            93 a3 89 2e  fmuls     %f14, %f14, %f9
    0x100007fcc:            a5 a4 88 29  fadds     %f18, %f9, %f18
    0x100007fd0:            24 4f ff f8  ble,a,pt  %icc, -0x20   <0x100007fb0>
    0x100007fd4:            e7 06 20 00  ld        [%i0], %f19
    0x100007fd8:            d3 01 00 0b  ld        [%g4 + %o3], %f9
    0x100007fdc:            f3 01 60 18  ld        [%g5 + 0x18], %f25
    0x100007fe0:            8d a4 89 29  fmuls     %f18, %f9, %f6
    0x100007fe4:            83 a9 8a b9  fcmpes    %fcc1, %f6, %f25
    0x100007fe8:            19 50 00 06  fbuge,pn  %fcc1, +0x18   <0x100008000>
    0x100007fec:            9e 03 e0 01  add       %o7, 0x1, %o7
    0x100007ff0:            cd 21 60 18  st        %f6, [%g5 + 0x18]
    0x100007ff4:            f0 5e e0 10  ldx       [%i3 + 0x10], %i0
    0x100007ff8:            86 02 c0 18  add       %o3, %i0, %g3
    0x100007ffc:            d4 70 e0 10  stx       %o2, [%g3 + 0x10]
    0x100008000:            80 a3 c0 15  cmp       %o7, %l5
    0x100008004:            96 02 e0 20  add       %o3, 0x20, %o3
    0x100008008:            24 6f ff 6c  ble,a,pt  %xcc, -0x250  <0x100007db8>
    0x10000800c:            e5 06 60 40  ld        [%i1 + 0x40], %f18
    0x100008010:            ee 5e e0 00  ldx       [%i3], %l7
    0x100008014:            80 a2 80 17  cmp       %o2, %l7
    0x100008018:            06 6f ff 66  bl,pt     %xcc, -0x268  <0x100007db0>
    0x10000801c:            9e 10 00 14  mov       %l4, %o7
    0x100008020:            d6 5b a8 cf  ldx       [%sp + 0x8cf], %o3
    0x100008024:            c0 2c 64 60  clrb      [%l1 + 0x460]
    0x100008028:            80 a5 00 16  cmp       %l4, %l6
    0x10000802c:            fb 1a e1 38  ldd       [%o3 + 0x138], %d60
    0x100008030:            36 68 00 c4  bge,a,pt  %xcc, +0x310  <0x100008340>
    0x100008034:            c4 5f 3f f8  ldx       [%i4 - 0x8], %g2
    0x100008038:            92 25 40 14  sub       %l5, %l4, %o1
    0x10000803c:            94 02 60 01  add       %o1, 0x1, %o2
    0x100008040:            ad 2d 30 05  sllx      %l4, 0x5, %l6
    0x100008044:            c4 5e e0 10  ldx       [%i3 + 0x10], %g2
    0x100008048:            80 a2 a0 0e  cmp       %o2, 0xe
    0x10000804c:            86 00 a0 18  add       %g2, 0x18, %g3
    0x100008050:            8a 00 c0 16  add       %g3, %l6, %g5
    0x100008054:            06 60 00 3c  bl,pn     %xcc, +0xf0   <0x100008144>
    0x100008058:            01 00 00 00  nop
    0x10000805c:            d3 01 60 80  ld        [%g5 + 0x80], %f9
    0x100008060:            e1 01 60 e0  ld        [%g5 + 0xe0], %f16
    0x100008064:            ff 01 60 20  ld        [%g5 + 0x20], %f31
    0x100008068:            ef 05 80 03  ld        [%l6 + %g3], %f23
    0x10000806c:            e5 01 60 c0  ld        [%g5 + 0xc0], %f18
    0x100008070:            9f a0 19 3f  fstod     %f31, %d46
    0x100008074:            83 a0 19 37  fstod     %f23, %d32
    0x100008078:            07 00 04 00  sethi     %hi(0x100000), %g3
    0x10000807c:            f9 01 60 60  ld        [%g5 + 0x60], %f28
    0x100008080:            82 10 e0 07  or        %g3, 0x7, %g1
    0x100008084:            cf 01 60 a0  ld        [%g5 + 0xa0], %f7
    0x100008088:            89 28 70 0c  sllx      %g1, 0xc, %g4
    0x10000808c:            e3 01 60 40  ld        [%g5 + 0x40], %f17
    0x100008090:            a7 a0 19 3c  fstod     %f28, %d50
    0x100008094:            8f a7 48 4f  faddd     %d60, %d46, %d38
    0x100008098:            8a 01 61 00  add       %g5, 0x100, %g5
    0x10000809c:            f3 19 21 38  ldd       [%g4 + 0x138], %d56
    0x1000080a0:            a3 a0 19 31  fstod     %f17, %d48
    0x1000080a4:            a8 05 20 08  add       %l4, 0x8, %l4
    0x1000080a8:            83 a6 48 41  faddd     %d56, %d32, %d32
    0x1000080ac:            84 25 60 05  sub       %l5, 0x5, %g2
    0x1000080b0:            c1 69 61 60  prefetch  [%g5 + 0x160], #n_reads
    0x1000080b4:            a8 05 20 06  add       %l4, 0x6, %l4
    0x1000080b8:            c3 01 60 00  ld        [%g5], %f1
    0x1000080bc:            8a 01 60 c0  add       %g5, 0xc0, %g5
    0x1000080c0:            87 a0 19 29  fstod     %f9, %d34
    0x1000080c4:            93 a0 48 51  faddd     %d32, %d48, %d40
    0x1000080c8:            80 a5 00 02  cmp       %l4, %g2
    0x1000080cc:            bf a0 19 27  fstod     %f7, %d62
    0x1000080d0:            fd 01 7f 60  ld        [%g5 - 0xa0], %f30
    0x1000080d4:            a7 a1 c8 53  faddd     %d38, %d50, %d50
    0x1000080d8:            b7 a0 19 32  fstod     %f18, %d58
    0x1000080dc:            d3 01 7f 80  ld        [%g5 - 0x80], %f9
    0x1000080e0:            8f a2 48 43  faddd     %d40, %d34, %d38
    0x1000080e4:            af a0 19 30  fstod     %f16, %d54
    0x1000080e8:            cf 01 7f a0  ld        [%g5 - 0x60], %f7
    0x1000080ec:            ab a4 c8 5f  faddd     %d50, %d62, %d52
    0x1000080f0:            a3 a0 19 21  fstod     %f1, %d48
    0x1000080f4:            e5 01 7f c0  ld        [%g5 - 0x40], %f18
    0x1000080f8:            83 a1 c8 5b  faddd     %d38, %d58, %d32
    0x1000080fc:            a7 a0 19 3e  fstod     %f30, %d50
    0x100008100:            e1 01 7f e0  ld        [%g5 - 0x20], %f16
    0x100008104:            04 6f ff eb  ble,pt    %xcc, -0x54   <0x1000080b0>
    0x100008108:            8f a5 48 57  faddd     %d52, %d54, %d38
    0x10000810c:            93 a1 c8 53  faddd     %d38, %d50, %d40
    0x100008110:            87 a0 48 51  faddd     %d32, %d48, %d34
    0x100008114:            b7 a0 19 27  fstod     %f7, %d58
    0x100008118:            8f a0 19 29  fstod     %f9, %d38
    0x10000811c:            af a0 19 30  fstod     %f16, %d54
    0x100008120:            ab a0 19 32  fstod     %f18, %d52
    0x100008124:            80 a5 00 15  cmp       %l4, %l5
    0x100008128:            bf a2 48 5b  faddd     %d40, %d58, %d62
    0x10000812c:            a3 a0 c8 47  faddd     %d34, %d38, %d48
    0x100008130:            9b a7 c8 57  faddd     %d62, %d54, %d44
    0x100008134:            bb a4 48 55  faddd     %d48, %d52, %d60
    0x100008138:            bb a7 48 4d  faddd     %d60, %d44, %d60
    0x10000813c:            14 60 00 0a  bg,pn     %xcc, +0x28   <0x100008164>
    0x100008140:            01 00 00 00  nop
    0x100008144:            ff 01 60 00  ld        [%g5], %f31
    0x100008148:            87 a0 19 3f  fstod     %f31, %d34
    0x10000814c:            a8 05 20 01  add       %l4, 0x1, %l4
    0x100008150:            80 a5 00 15  cmp       %l4, %l5
    0x100008154:            8a 01 60 20  add       %g5, 0x20, %g5
    0x100008158:            bb a7 48 43  faddd     %d60, %d34, %d60
    0x10000815c:            24 6f ff fb  ble,a,pt  %xcc, -0x14   <0x100008148>
    0x100008160:            ff 01 60 00  ld        [%g5], %f31
    0x100008164:            d4 03 a8 b7  ld        [%sp + 0x8b7], %o2
    0x100008168:            ca 5f 3f f8  ldx       [%i4 - 0x8], %g5
    0x10000816c:            d2 5b a8 d7  ldx       [%sp + 0x8d7], %o1
    0x100008170:            80 a2 a0 00  cmp       %o2, 0x0
    0x100008174:            12 40 00 75  bne,pn    %icc, +0x1d4  <0x100008348>
    0x100008178:            fb 39 40 09  std       %d60, [%g5 + %o1]
    0x10000817c:            db 1f 20 20  ldd       [%i4 + 0x20], %d44
    0x100008180:            af a0 10 8d  fxtos     %d44, %f23
    0x100008184:            e8 07 3f e8  ld        [%i4 - 0x18], %l4
    0x100008188:            80 a5 20 00  cmp       %l4, 0x0
    0x10000818c:            8d a0 c9 37  fmuls     %f3, %f23, %f6
    0x100008190:            14 40 00 05  bg,pn     %icc, +0x14   <0x1000081a4>
    0x100008194:            9f a0 19 26  fstod     %f6, %d46
    0x100008198:            df 3f 3f f0  std       %d46, [%i4 - 0x10]
    0x10000819c:            10 80 00 54  ba        +0x150        <0x1000082ec>
    0x1000081a0:            d0 5f 3f f8  ldx       [%i4 - 0x8], %o0
    0x1000081a4:            80 a5 20 18  cmp       %l4, 0x18
    0x1000081a8:            82 05 3f ff  add       %l4, -0x1, %g1
    0x1000081ac:            94 10 20 00  clr       %o2
    0x1000081b0:            ae 10 00 14  mov       %l4, %l7
    0x1000081b4:            d8 5f 3f f8  ldx       [%i4 - 0x8], %o4
    0x1000081b8:            06 40 00 44  bl,pn     %icc, +0x110  <0x1000082c8>
    0x1000081bc:            01 00 00 00  nop
    0x1000081c0:            fb 1b 20 00  ldd       [%o4], %d60
    0x1000081c4:            e7 1b 20 08  ldd       [%o4 + 0x8], %d50
    0x1000081c8:            f7 1b 20 20  ldd       [%o4 + 0x20], %d58
    0x1000081cc:            c3 1b 20 10  ldd       [%o4 + 0x10], %d32
    0x1000081d0:            db 1b 20 48  ldd       [%o4 + 0x48], %d44
    0x1000081d4:            d3 1b 20 18  ldd       [%o4 + 0x18], %d40
    0x1000081d8:            eb 1b 20 58  ldd       [%o4 + 0x58], %d52
    0x1000081dc:            cf 1b 20 38  ldd       [%o4 + 0x38], %d38
    0x1000081e0:            2d 00 04 00  sethi     %hi(0x100000), %l6
    0x1000081e4:            ff 1b 20 30  ldd       [%o4 + 0x30], %d62
    0x1000081e8:            a6 15 a0 07  or        %l6, 0x7, %l3
    0x1000081ec:            a9 2c f0 0c  sllx      %l3, 0xc, %l4
    0x1000081f0:            ef 1d 21 38  ldd       [%l4 + 0x138], %d54
    0x1000081f4:            c7 1b 20 28  ldd       [%o4 + 0x28], %d34
    0x1000081f8:            b3 a3 c8 49  faddd     %d46, %d40, %d56
    0x1000081fc:            a3 a5 c8 5d  faddd     %d54, %d60, %d48
    0x100008200:            a7 a5 c8 53  faddd     %d54, %d50, %d50
    0x100008204:            98 03 20 60  add       %o4, 0x60, %o4
    0x100008208:            d3 1b 3f e0  ldd       [%o4 - 0x20], %d40
    0x10000820c:            94 10 20 0c  mov       0xc, %o2
    0x100008210:            af a5 c8 41  faddd     %d54, %d32, %d54
    0x100008214:            df 1b 3f f0  ldd       [%o4 - 0x10], %d46
    0x100008218:            86 05 ff f4  add       %l7, -0xc, %g3
    0x10000821c:            c1 6b 21 30  prefetch  [%o4 + 0x130], #n_reads
    0x100008220:            94 02 a0 0c  add       %o2, 0xc, %o2
    0x100008224:            fb 1b 20 00  ldd       [%o4], %d60
    0x100008228:            98 03 20 60  add       %o4, 0x60, %o4
    0x10000822c:            b7 a4 48 5b  faddd     %d48, %d58, %d58
    0x100008230:            87 a4 c8 43  faddd     %d50, %d34, %d34
    0x100008234:            80 a2 80 03  cmp       %o2, %g3
    0x100008238:            e7 1b 3f a8  ldd       [%o4 - 0x58], %d50
    0x10000823c:            bf a5 c8 5f  faddd     %d54, %d62, %d62
    0x100008240:            c3 1b 3f b0  ldd       [%o4 - 0x50], %d32
    0x100008244:            8f a6 48 47  faddd     %d56, %d38, %d38
    0x100008248:            f5 1b 3f b8  ldd       [%o4 - 0x48], %d26
    0x10000824c:            a3 a6 c8 49  faddd     %d58, %d40, %d48
    0x100008250:            f7 1b 3f c0  ldd       [%o4 - 0x40], %d58
    0x100008254:            9b a0 c8 4d  faddd     %d34, %d44, %d44
    0x100008258:            c7 1b 3f c8  ldd       [%o4 - 0x38], %d34
    0x10000825c:            9f a7 c8 4f  faddd     %d62, %d46, %d46
    0x100008260:            ff 1b 3f d0  ldd       [%o4 - 0x30], %d62
    0x100008264:            b3 a1 c8 55  faddd     %d38, %d52, %d56
    0x100008268:            cf 1b 3f d8  ldd       [%o4 - 0x28], %d38
    0x10000826c:            a3 a4 48 5d  faddd     %d48, %d60, %d48
    0x100008270:            d3 1b 3f e0  ldd       [%o4 - 0x20], %d40
    0x100008274:            a7 a3 48 53  faddd     %d44, %d50, %d50
    0x100008278:            db 1b 3f e8  ldd       [%o4 - 0x18], %d44
    0x10000827c:            af a3 c8 41  faddd     %d46, %d32, %d54
    0x100008280:            df 1b 3f f0  ldd       [%o4 - 0x10], %d46
    0x100008284:            b3 a6 48 5a  faddd     %d56, %d26, %d56
    0x100008288:            04 4f ff e5  ble,pt    %icc, -0x6c   <0x10000821c>
    0x10000828c:            eb 1b 3f f8  ldd       [%o4 - 0x8], %d52
    0x100008290:            bb a4 48 5b  faddd     %d48, %d58, %d60
    0x100008294:            83 a4 c8 43  faddd     %d50, %d34, %d32
    0x100008298:            b7 a5 c8 5f  faddd     %d54, %d62, %d58
    0x10000829c:            b3 a6 48 47  faddd     %d56, %d38, %d56
    0x1000082a0:            80 a2 80 01  cmp       %o2, %g1
    0x1000082a4:            a7 a7 48 49  faddd     %d60, %d40, %d50
    0x1000082a8:            af a0 48 4d  faddd     %d32, %d44, %d54
    0x1000082ac:            a3 a6 c8 4f  faddd     %d58, %d46, %d48
    0x1000082b0:            9b a6 48 55  faddd     %d56, %d52, %d44
    0x1000082b4:            ab a4 c8 57  faddd     %d50, %d54, %d52
    0x1000082b8:            9f a5 48 51  faddd     %d52, %d48, %d46
    0x1000082bc:            9f a3 c8 4d  faddd     %d46, %d44, %d46
    0x1000082c0:            14 40 00 09  bg,pn     %icc, +0x24   <0x1000082e4>
    0x1000082c4:            01 00 00 00  nop
    0x1000082c8:            94 02 a0 01  add       %o2, 0x1, %o2
    0x1000082cc:            80 a2 80 01  cmp       %o2, %g1
    0x1000082d0:            f3 1b 20 00  ldd       [%o4], %d56
    0x1000082d4:            98 03 20 08  add       %o4, 0x8, %o4
    0x1000082d8:            9f a3 c8 59  faddd     %d46, %d56, %d46
    0x1000082dc:            04 4f ff fc  ble,pt    %icc, -0x10   <0x1000082cc>
    0x1000082e0:            94 02 a0 01  add       %o2, 0x1, %o2
    0x1000082e4:            d0 5f 3f f8  ldx       [%i4 - 0x8], %o0
    0x1000082e8:            df 3f 3f f0  std       %d46, [%i4 - 0x10]
    0x1000082ec:            d7 3b a9 2f  std       %d42, [%sp + 0x92f]
    0x1000082f0:            c7 23 a9 7f  st        %f3, [%sp + 0x97f]
    0x1000082f4:            40 04 26 8b  call      +0x109a2c     <0x100111d20>
    0x1000082f8:            cb 3b a9 27  std       %d36, [%sp + 0x927]
    0x1000082fc:            e8 5f 20 20  ldx       [%i4 + 0x20], %l4
    0x100008300:            ee 5b a8 bf  ldx       [%sp + 0x8bf], %l7
    0x100008304:            e6 04 25 30  ld        [%l0 + 0x530], %l3
    0x100008308:            c7 03 a9 7f  ld        [%sp + 0x97f], %f3
    0x10000830c:            80 a5 00 17  cmp       %l4, %l7
    0x100008310:            d7 1b a9 2f  ldd       [%sp + 0x92f], %d42
    0x100008314:            a4 04 a0 01  add       %l2, 0x1, %l2
    0x100008318:            cb 1b a9 27  ldd       [%sp + 0x927], %d36
    0x10000831c:            06 68 00 11  bl,pt     %xcc, +0x44   <0x100008360>
    0x100008320:            80 a4 a0 01  cmp       %l2, 0x1
    0x100008324:            ff 1f 3f f0  ldd       [%i4 - 0x10], %d62
    0x100008328:            f0 5b a8 cf  ldx       [%sp + 0x8cf], %i0
    0x10000832c:            9d a0 18 df  fdtos     %d62, %f14
    0x100008330:            c7 1e 21 38  ldd       [%i0 + 0x138], %d34
    0x100008334:            83 a0 19 2e  fstod     %f14, %d32
    0x100008338:            10 80 03 4d  ba        +0xd34        <0x10000906c>
    0x10000833c:            c3 3b a9 c7  std       %d32, [%sp + 0x9c7]
    0x100008340:            ee 5b a8 d7  ldx       [%sp + 0x8d7], %l7
    0x100008344:            fb 38 80 17  std       %d60, [%g2 + %l7]
    0x100008348:            c8 5f 20 20  ldx       [%i4 + 0x20], %g4
    0x10000834c:            c4 5b a8 bf  ldx       [%sp + 0x8bf], %g2
    0x100008350:            80 a1 00 02  cmp       %g4, %g2
    0x100008354:            16 60 03 74  bge,pn    %xcc, +0xdd0  <0x100009124>
    0x100008358:            a4 04 a0 01  add       %l2, 0x1, %l2
    0x10000835c:            80 a4 a0 01  cmp       %l2, 0x1
    0x100008360:            26 4f fd 20  bl,a,pt   %icc, -0xb80  <0x1000077e0>
    0x100008364:            d6 07 3f e8  ld        [%i4 - 0x18], %o3
    0x100008368:            c8 5b a8 cf  ldx       [%sp + 0x8cf], %g4
    0x10000836c:            80 a4 a0 01  cmp       %l2, 0x1
    0x100008370:            c7 19 21 38  ldd       [%g4 + 0x138], %d34
    0x100008374:            06 40 00 08  bl,pn     %icc, +0x20   <0x100008394>
    0x100008378:            c4 03 a8 b7  ld        [%sp + 0x8b7], %g2
    0x10000837c:            b3 a1 48 43  faddd     %d36, %d34, %d56
    0x100008380:            ef 1e 60 08  ldd       [%i1 + 0x8], %d54
    0x100008384:            97 a0 00 45  fmovd     %d36, %d42
    0x100008388:            a4 10 20 00  clr       %l2
    0x10000838c:            8b a6 49 57  fmuld     %d56, %d54, %d36
    0x100008390:            87 a0 18 c5  fdtos     %d36, %f3
    0x100008394:            ec 5e e0 00  ldx       [%i3], %l6
    0x100008398:            80 a0 a0 00  cmp       %g2, 0x0
    0x10000839c:            12 40 00 51  bne,pn    %icc, +0x144  <0x1000084e0>
    0x1000083a0:            ae 05 bf ff  add       %l6, -0x1, %l7
    0x1000083a4:            04 c5 c0 3f  brlez,pn  %l7, +0xfc    <0x1000084a0>
    0x1000083a8:            a8 10 20 00  clr       %l4
    0x1000083ac:            c7 3b a9 37  std       %d34, [%sp + 0x937]
    0x1000083b0:            a6 10 20 00  clr       %l3
    0x1000083b4:            d7 3b a9 2f  std       %d42, [%sp + 0x92f]
    0x1000083b8:            c7 23 a9 7f  st        %f3, [%sp + 0x97f]
    0x1000083bc:            40 04 26 49  call      +0x109924     <0x100111ce0>
    0x1000083c0:            cb 3b a9 27  std       %d36, [%sp + 0x927]
    0x1000083c4:            ea 5e e0 00  ldx       [%i3], %l5
    0x1000083c8:            ca 5e e0 10  ldx       [%i3 + 0x10], %g5
    0x1000083cc:            c7 1b a9 37  ldd       [%sp + 0x937], %d34
    0x1000083d0:            cb 1b a9 27  ldd       [%sp + 0x927], %d36
    0x1000083d4:            c6 59 40 13  ldx       [%g5 + %l3], %g3
    0x1000083d8:            c7 03 a9 7f  ld        [%sp + 0x97f], %f3
    0x1000083dc:            9e 25 40 14  sub       %l5, %l4, %o7
    0x1000083e0:            d7 1b a9 2f  ldd       [%sp + 0x92f], %d42
    0x1000083e4:            88 01 40 13  add       %g5, %l3, %g4
    0x1000083e8:            ee 59 20 18  ldx       [%g4 + 0x18], %l7
    0x1000083ec:            ac 23 e0 01  sub       %o7, 0x1, %l6
    0x1000083f0:            c4 59 20 08  ldx       [%g4 + 0x8], %g2
    0x1000083f4:            80 8b c0 16  btst      %l6, %o7
    0x1000083f8:            c2 59 20 10  ldx       [%g4 + 0x10], %g1
    0x1000083fc:            12 60 00 0d  bne,pn    %xcc, +0x34   <0x100008430>
    0x100008400:            80 a3 e0 00  cmp       %o7, 0x0
    0x100008404:            02 60 00 0b  be,pn     %xcc, +0x2c   <0x100008430>
    0x100008408:            01 00 00 00  nop
    0x10000840c:            9f 3a 30 3f  srax      %o0, 0x3f, %o7
    0x100008410:            98 1a 00 0f  xor       %o0, %o7, %o4
    0x100008414:            b0 23 00 0f  sub       %o4, %o7, %i0
    0x100008418:            9a 8e 00 16  andcc     %i0, %l6, %o5
    0x10000841c:            94 1b 40 0f  xor       %o5, %o7, %o2
    0x100008420:            92 22 80 0f  sub       %o2, %o7, %o1
    0x100008424:            9b 66 50 09  movne     %xcc, %o1, %o5
    0x100008428:            10 80 00 06  ba        +0x18         <0x100008440>
    0x10000842c:            98 03 40 14  add       %o5, %l4, %o4
    0x100008430:            ad 6a 00 0f  sdivx     %o0, %o7, %l6
    0x100008434:            aa 4d 80 0f  mulx      %l6, %o7, %l5
    0x100008438:            9a 22 00 15  sub       %o0, %l5, %o5
    0x10000843c:            98 03 40 14  add       %o5, %l4, %o4
    0x100008440:            97 2b 30 05  sllx      %o4, 0x5, %o3
    0x100008444:            f0 59 40 0b  ldx       [%g5 + %o3], %i0
    0x100008448:            f0 71 40 13  stx       %i0, [%g5 + %l3]
    0x10000844c:            92 01 40 0b  add       %g5, %o3, %o1
    0x100008450:            d4 5a 60 08  ldx       [%o1 + 0x8], %o2
    0x100008454:            d4 71 20 08  stx       %o2, [%g4 + 0x8]
    0x100008458:            de 5a 60 10  ldx       [%o1 + 0x10], %o7
    0x10000845c:            de 71 20 10  stx       %o7, [%g4 + 0x10]
    0x100008460:            da 5a 60 18  ldx       [%o1 + 0x18], %o5
    0x100008464:            da 71 20 18  stx       %o5, [%g4 + 0x18]
    0x100008468:            d0 5e e0 10  ldx       [%i3 + 0x10], %o0
    0x10000846c:            a8 05 20 01  add       %l4, 0x1, %l4
    0x100008470:            a6 04 e0 20  add       %l3, 0x20, %l3
    0x100008474:            c6 72 c0 08  stx       %g3, [%o3 + %o0]
    0x100008478:            86 02 00 0b  add       %o0, %o3, %g3
    0x10000847c:            ee 70 e0 18  stx       %l7, [%g3 + 0x18]
    0x100008480:            c4 70 e0 08  stx       %g2, [%g3 + 0x8]
    0x100008484:            c2 70 e0 10  stx       %g1, [%g3 + 0x10]
    0x100008488:            ec 5e e0 00  ldx       [%i3], %l6
    0x10000848c:            ae 05 bf ff  add       %l6, -0x1, %l7
    0x100008490:            80 a5 00 17  cmp       %l4, %l7
    0x100008494:            26 6f ff c8  bl,a,pt   %xcc, -0xe0   <0x1000083b4>
    0x100008498:            c7 3b a9 37  std       %d34, [%sp + 0x937]
    0x10000849c:            e6 04 25 30  ld        [%l0 + 0x530], %l3
    0x1000084a0:            c8 07 3f e8  ld        [%i4 - 0x18], %g4
    0x1000084a4:            c6 03 a8 b7  ld        [%sp + 0x8b7], %g3
    0x1000084a8:            b7 a0 00 23  fmovs     %f3, %f27
    0x1000084ac:            99 39 20 00  sra       %g4, 0x0, %o4
    0x1000084b0:            b1 6d 80 0c  sdivx     %l6, %o4, %i0
    0x1000084b4:            84 4e 00 1a  mulx      %i0, %i2, %g2
    0x1000084b8:            82 01 3f ff  add       %g4, -0x1, %g1
    0x1000084bc:            80 a0 c0 01  cmp       %g3, %g1
    0x1000084c0:            86 00 80 18  add       %g2, %i0, %g3
    0x1000084c4:            ad 66 40 03  movne     %icc, %g3, %l6
    0x1000084c8:            ab 38 a0 00  sra       %g2, 0x0, %l5
    0x1000084cc:            80 a5 40 16  cmp       %l5, %l6
    0x1000084d0:            06 60 00 11  bl,pn     %xcc, +0x44   <0x100008514>
    0x1000084d4:            a8 05 bf ff  add       %l6, -0x1, %l4
    0x1000084d8:            10 80 00 9e  ba        +0x278        <0x100008750>
    0x1000084dc:            f7 23 a9 83  st        %f27, [%sp + 0x983]
    0x1000084e0:            d6 07 3f e8  ld        [%i4 - 0x18], %o3
    0x1000084e4:            b7 a0 00 23  fmovs     %f3, %f27
    0x1000084e8:            91 3a e0 00  sra       %o3, 0x0, %o0
    0x1000084ec:            83 6d 80 08  sdivx     %l6, %o0, %g1
    0x1000084f0:            ae 48 40 1a  mulx      %g1, %i2, %l7
    0x1000084f4:            a8 02 ff ff  add       %o3, -0x1, %l4
    0x1000084f8:            98 05 c0 01  add       %l7, %g1, %o4
    0x1000084fc:            80 a0 80 14  cmp       %g2, %l4
    0x100008500:            ad 66 40 0c  movne     %icc, %o4, %l6
    0x100008504:            ab 3d e0 00  sra       %l7, 0x0, %l5
    0x100008508:            80 a5 40 16  cmp       %l5, %l6
    0x10000850c:            16 60 01 6a  bge,pn    %xcc, +0x5a8  <0x100008ab4>
    0x100008510:            a8 05 bf ff  add       %l6, -0x1, %l4
    0x100008514:            8a 10 00 15  mov       %l5, %g5
    0x100008518:            df 06 60 40  ld        [%i1 + 0x40], %f15
    0x10000851c:            85 2d 70 05  sllx      %l5, 0x5, %g2
    0x100008520:            d2 5e e0 10  ldx       [%i3 + 0x10], %o1
    0x100008524:            d6 06 e0 08  ld        [%i3 + 0x8], %o3
    0x100008528:            88 02 40 02  add       %o1, %g2, %g4
    0x10000852c:            de 5a 60 08  ldx       [%o1 + 0x8], %o7
    0x100008530:            80 a2 e0 00  cmp       %o3, 0x0
    0x100008534:            da 59 20 08  ldx       [%g4 + 0x8], %o5
    0x100008538:            04 40 00 76  ble,pn    %icc, +0x1d8  <0x100008710>
    0x10000853c:            96 02 ff ff  add       %o3, -0x1, %o3
    0x100008540:            90 02 e0 01  add       %o3, 0x1, %o0
    0x100008544:            80 a2 20 11  cmp       %o0, 0x11
    0x100008548:            98 10 20 00  clr       %o4
    0x10000854c:            06 40 00 66  bl,pn     %icc, +0x198  <0x1000086e4>
    0x100008550:            01 00 00 00  nop
    0x100008554:            e1 03 60 00  ld        [%o5], %f16
    0x100008558:            c9 03 60 24  ld        [%o5 + 0x24], %f4
    0x10000855c:            db 03 60 04  ld        [%o5 + 0x4], %f13
    0x100008560:            ed 03 e0 04  ld        [%o7 + 0x4], %f22
    0x100008564:            eb 03 e0 00  ld        [%o7], %f21
    0x100008568:            cb 03 60 08  ld        [%o5 + 0x8], %f5
    0x10000856c:            c5 03 60 28  ld        [%o5 + 0x28], %f2
    0x100008570:            cf 03 60 14  ld        [%o5 + 0x14], %f7
    0x100008574:            fb 03 60 10  ld        [%o5 + 0x10], %f29
    0x100008578:            ff 03 60 0c  ld        [%o5 + 0xc], %f31
    0x10000857c:            cd 03 e0 0c  ld        [%o7 + 0xc], %f6
    0x100008580:            c1 03 e0 08  ld        [%o7 + 0x8], %f0
    0x100008584:            d9 03 e0 14  ld        [%o7 + 0x14], %f12
    0x100008588:            f9 03 e0 10  ld        [%o7 + 0x10], %f28
    0x10000858c:            a7 a3 48 b6  fsubs     %f13, %f22, %f19
    0x100008590:            e9 06 60 40  ld        [%i1 + 0x40], %f20
    0x100008594:            b1 a4 08 b5  fsubs     %f16, %f21, %f24
    0x100008598:            f3 03 e0 18  ld        [%o7 + 0x18], %f25
    0x10000859c:            91 a7 c8 a6  fsubs     %f31, %f6, %f8
    0x1000085a0:            dd 03 e0 1c  ld        [%o7 + 0x1c], %f14
    0x1000085a4:            a5 a4 c9 33  fmuls     %f19, %f19, %f18
    0x1000085a8:            b5 a1 48 a0  fsubs     %f5, %f0, %f26
    0x1000085ac:            d3 03 e0 20  ld        [%o7 + 0x20], %f9
    0x1000085b0:            a3 a6 09 38  fmuls     %f24, %f24, %f17
    0x1000085b4:            95 a1 c8 ac  fsubs     %f7, %f12, %f10
    0x1000085b8:            9a 03 60 2c  add       %o5, 0x2c, %o5
    0x1000085bc:            ef 03 e0 24  ld        [%o7 + 0x24], %f23
    0x1000085c0:            bd a3 c8 32  fadds     %f15, %f18, %f30
    0x1000085c4:            cd 03 7f f0  ld        [%o5 - 0x10], %f6
    0x1000085c8:            97 a7 48 bc  fsubs     %f29, %f28, %f11
    0x1000085cc:            a1 a6 89 3a  fmuls     %f26, %f26, %f16
    0x1000085d0:            cf 03 7f ec  ld        [%o5 - 0x14], %f7
    0x1000085d4:            82 03 e0 28  add       %o7, 0x28, %g1
    0x1000085d8:            98 10 20 0b  mov       0xb, %o4
    0x1000085dc:            9f a2 09 28  fmuls     %f8, %f8, %f15
    0x1000085e0:            83 a5 08 31  fadds     %f20, %f17, %f1
    0x1000085e4:            d9 03 7f f4  ld        [%o5 - 0xc], %f12
    0x1000085e8:            94 22 e0 05  sub       %o3, 0x5, %o2
    0x1000085ec:            98 03 20 06  add       %o4, 0x6, %o4
    0x1000085f0:            9a 03 60 18  add       %o5, 0x18, %o5
    0x1000085f4:            db 00 60 00  ld        [%g1], %f13
    0x1000085f8:            ad a1 c8 b9  fsubs     %f7, %f25, %f22
    0x1000085fc:            83 a0 48 30  fadds     %f1, %f16, %f1
    0x100008600:            80 a3 00 0a  cmp       %o4, %o2
    0x100008604:            ff 03 7f e8  ld        [%o5 - 0x18], %f31
    0x100008608:            97 a2 c9 2b  fmuls     %f11, %f11, %f11
    0x10000860c:            a1 a1 88 ae  fsubs     %f6, %f14, %f16
    0x100008610:            cb 00 60 04  ld        [%g1 + 0x4], %f5
    0x100008614:            82 00 60 18  add       %g1, 0x18, %g1
    0x100008618:            bd a7 88 2f  fadds     %f30, %f15, %f30
    0x10000861c:            95 a2 89 2a  fmuls     %f10, %f10, %f10
    0x100008620:            cf 03 7f ec  ld        [%o5 - 0x14], %f7
    0x100008624:            ab a3 08 a9  fsubs     %f12, %f9, %f21
    0x100008628:            f3 00 7f f0  ld        [%g1 - 0x10], %f25
    0x10000862c:            b9 a0 48 2b  fadds     %f1, %f11, %f28
    0x100008630:            bb a5 89 36  fmuls     %f22, %f22, %f29
    0x100008634:            cd 03 7f f0  ld        [%o5 - 0x10], %f6
    0x100008638:            9f a1 08 b7  fsubs     %f4, %f23, %f15
    0x10000863c:            dd 00 7f f4  ld        [%g1 - 0xc], %f14
    0x100008640:            81 a7 88 2a  fadds     %f30, %f10, %f0
    0x100008644:            a7 a4 09 30  fmuls     %f16, %f16, %f19
    0x100008648:            d9 03 7f f4  ld        [%o5 - 0xc], %f12
    0x10000864c:            97 a0 88 ad  fsubs     %f2, %f13, %f11
    0x100008650:            d3 00 7f f8  ld        [%g1 - 0x8], %f9
    0x100008654:            83 a7 08 3d  fadds     %f28, %f29, %f1
    0x100008658:            a1 a5 49 35  fmuls     %f21, %f21, %f16
    0x10000865c:            c9 03 7f f8  ld        [%o5 - 0x8], %f4
    0x100008660:            95 a7 c8 a5  fsubs     %f31, %f5, %f10
    0x100008664:            ef 00 7f fc  ld        [%g1 - 0x4], %f23
    0x100008668:            bd a0 08 33  fadds     %f0, %f19, %f30
    0x10000866c:            c5 03 7f fc  ld        [%o5 - 0x4], %f2
    0x100008670:            04 4f ff df  ble,pt    %icc, -0x84   <0x1000085ec>
    0x100008674:            9f a3 c9 2f  fmuls     %f15, %f15, %f15
    0x100008678:            bf a1 c8 b9  fsubs     %f7, %f25, %f31
    0x10000867c:            bb a2 c9 2b  fmuls     %f11, %f11, %f29
    0x100008680:            b9 a0 48 30  fadds     %f1, %f16, %f28
    0x100008684:            99 a3 08 a9  fsubs     %f12, %f9, %f12
    0x100008688:            8f a7 88 2f  fadds     %f30, %f15, %f7
    0x10000868c:            93 a1 88 ae  fsubs     %f6, %f14, %f9
    0x100008690:            95 a2 89 2a  fmuls     %f10, %f10, %f10
    0x100008694:            97 a7 c9 3f  fmuls     %f31, %f31, %f11
    0x100008698:            a7 a7 08 3d  fadds     %f28, %f29, %f19
    0x10000869c:            dd 00 60 00  ld        [%g1], %f14
    0x1000086a0:            b1 a1 08 b7  fsubs     %f4, %f23, %f24
    0x1000086a4:            91 a3 09 2c  fmuls     %f12, %f12, %f8
    0x1000086a8:            a3 a0 88 ae  fsubs     %f2, %f14, %f17
    0x1000086ac:            a5 a2 49 29  fmuls     %f9, %f9, %f18
    0x1000086b0:            b5 a1 c8 2a  fadds     %f7, %f10, %f26
    0x1000086b4:            b3 a4 c8 2b  fadds     %f19, %f11, %f25
    0x1000086b8:            89 a6 09 38  fmuls     %f24, %f24, %f4
    0x1000086bc:            80 a3 00 0b  cmp       %o4, %o3
    0x1000086c0:            af a4 49 31  fmuls     %f17, %f17, %f23
    0x1000086c4:            9e 00 60 04  add       %g1, 0x4, %o7
    0x1000086c8:            bd a6 88 32  fadds     %f26, %f18, %f30
    0x1000086cc:            85 a6 48 28  fadds     %f25, %f8, %f2
    0x1000086d0:            a9 a7 88 24  fadds     %f30, %f4, %f20
    0x1000086d4:            83 a0 88 37  fadds     %f2, %f23, %f1
    0x1000086d8:            9f a5 08 21  fadds     %f20, %f1, %f15
    0x1000086dc:            14 40 00 0d  bg,pn     %icc, +0x34   <0x100008710>
    0x1000086e0:            01 00 00 00  nop
    0x1000086e4:            d7 03 e0 00  ld        [%o7], %f11
    0x1000086e8:            ed 03 60 00  ld        [%o5], %f22
    0x1000086ec:            98 03 20 01  add       %o4, 0x1, %o4
    0x1000086f0:            80 a3 00 0b  cmp       %o4, %o3
    0x1000086f4:            bd a5 88 ab  fsubs     %f22, %f11, %f30
    0x1000086f8:            9e 03 e0 04  add       %o7, 0x4, %o7
    0x1000086fc:            9a 03 60 04  add       %o5, 0x4, %o5
    0x100008700:            95 a7 89 3e  fmuls     %f30, %f30, %f10
    0x100008704:            9f a3 c8 2a  fadds     %f15, %f10, %f15
    0x100008708:            24 4f ff f8  ble,a,pt  %icc, -0x20   <0x1000086e8>
    0x10000870c:            d7 03 e0 00  ld        [%o7], %f11
    0x100008710:            e3 02 40 02  ld        [%o1 + %g2], %f17
    0x100008714:            8a 01 60 01  add       %g5, 0x1, %g5
    0x100008718:            80 a1 40 14  cmp       %g5, %l4
    0x10000871c:            a9 a3 c9 31  fmuls     %f15, %f17, %f20
    0x100008720:            e9 21 20 18  st        %f20, [%g4 + 0x18]
    0x100008724:            de 5e e0 10  ldx       [%i3 + 0x10], %o7
    0x100008728:            92 00 80 0f  add       %g2, %o7, %o1
    0x10000872c:            c0 72 60 10  clrx      [%o1 + 0x10]
    0x100008730:            84 00 a0 20  add       %g2, 0x20, %g2
    0x100008734:            24 6f ff 7b  ble,a,pt  %xcc, -0x214  <0x100008520>
    0x100008738:            df 06 60 40  ld        [%i1 + 0x40], %f15
    0x10000873c:            d6 03 a8 b7  ld        [%sp + 0x8b7], %o3
    0x100008740:            80 a2 e0 00  cmp       %o3, 0x0
    0x100008744:            32 40 00 dd  bne,a,pn  %icc, +0x374  <0x100008ab8>
    0x100008748:            ee 5e e0 00  ldx       [%i3], %l7
    0x10000874c:            f7 23 a9 83  st        %f27, [%sp + 0x983]
    0x100008750:            d4 07 3f e8  ld        [%i4 - 0x18], %o2
    0x100008754:            c7 3b a9 37  std       %d34, [%sp + 0x937]
    0x100008758:            cb 3b a9 27  std       %d36, [%sp + 0x927]
    0x10000875c:            d7 3b a9 2f  std       %d42, [%sp + 0x92f]
    0x100008760:            c7 23 a9 7f  st        %f3, [%sp + 0x97f]
    0x100008764:            ae 10 20 01  mov       0x1, %l7
    0x100008768:            ee 77 20 20  stx       %l7, [%i4 + 0x20]
    0x10000876c:            91 3a a0 00  sra       %o2, 0x0, %o0
    0x100008770:            40 04 25 64  call      +0x109590     <0x100111d00>
    0x100008774:            91 2a 30 03  sllx      %o0, 0x3, %o0
    0x100008778:            cb 1b a9 27  ldd       [%sp + 0x927], %d36
    0x10000877c:            d7 1b a9 2f  ldd       [%sp + 0x92f], %d42
    0x100008780:            c7 1b a9 37  ldd       [%sp + 0x937], %d34
    0x100008784:            d0 77 3f f8  stx       %o0, [%i4 - 0x8]
    0x100008788:            f7 03 a9 83  ld        [%sp + 0x983], %f27
    0x10000878c:            ee 24 25 30  st        %l7, [%l0 + 0x530]
    0x100008790:            d6 5e e0 00  ldx       [%i3], %o3
    0x100008794:            c7 03 a9 7f  ld        [%sp + 0x97f], %f3
    0x100008798:            80 a5 c0 0b  cmp       %l7, %o3
    0x10000879c:            16 60 00 ba  bge,pn    %xcc, +0x2e8  <0x100008a84>
    0x1000087a0:            a6 10 20 01  mov       0x1, %l3
    0x1000087a4:            f3 06 60 10  ld        [%i1 + 0x10], %f25
    0x1000087a8:            af 2d 70 05  sllx      %l5, 0x5, %l7
    0x1000087ac:            b9 a6 49 bb  fdivs     %f25, %f27, %f28
    0x1000087b0:            f9 23 a9 f7  st        %f28, [%sp + 0x9f7]
    0x1000087b4:            d7 3b a9 2f  std       %d42, [%sp + 0x92f]
    0x1000087b8:            c7 3b a9 37  std       %d34, [%sp + 0x937]
    0x1000087bc:            f7 23 a9 83  st        %f27, [%sp + 0x983]
    0x1000087c0:            c7 23 a9 7f  st        %f3, [%sp + 0x97f]
    0x1000087c4:            40 04 25 47  call      +0x10951c     <0x100111ce0>
    0x1000087c8:            cb 3b a9 27  std       %d36, [%sp + 0x927]
    0x1000087cc:            d4 04 25 30  ld        [%l0 + 0x530], %o2
    0x1000087d0:            c2 5e e0 10  ldx       [%i3 + 0x10], %g1
    0x1000087d4:            fb 06 60 14  ld        [%i1 + 0x14], %f29
    0x1000087d8:            9f 3a a0 00  sra       %o2, 0x0, %o7
    0x1000087dc:            93 2b f0 05  sllx      %o7, 0x5, %o1
    0x1000087e0:            b0 02 40 01  add       %o1, %g1, %i0
    0x1000087e4:            ff 06 20 18  ld        [%i0 + 0x18], %f31
    0x1000087e8:            d0 73 a9 bf  stx       %o0, [%sp + 0x9bf]
    0x1000087ec:            c3 1b a9 bf  ldd       [%sp + 0x9bf], %d32
    0x1000087f0:            f9 03 a9 f7  ld        [%sp + 0x9f7], %f28
    0x1000087f4:            c7 1b a9 37  ldd       [%sp + 0x937], %d34
    0x1000087f8:            ab a0 10 81  fxtos     %d32, %f21
    0x1000087fc:            9f a7 c9 3c  fmuls     %f31, %f28, %f15
    0x100008800:            cb 1b a9 27  ldd       [%sp + 0x927], %d36
    0x100008804:            d7 1b a9 2f  ldd       [%sp + 0x92f], %d42
    0x100008808:            f7 03 a9 83  ld        [%sp + 0x983], %f27
    0x10000880c:            c7 03 a9 7f  ld        [%sp + 0x97f], %f3
    0x100008810:            a7 a5 49 3d  fmuls     %f21, %f29, %f19
    0x100008814:            83 ac ca af  fcmpes    %fcc1, %f19, %f15
    0x100008818:            19 50 00 94  fbuge,pn  %fcc1, +0x250  <0x100008a68>
    0x10000881c:            e6 5f 20 20  ldx       [%i4 + 0x20], %l3
    0x100008820:            80 a5 40 16  cmp       %l5, %l6
    0x100008824:            9a 04 e0 01  add       %l3, 0x1, %o5
    0x100008828:            16 60 00 8f  bge,pn    %xcc, +0x23c  <0x100008a64>
    0x10000882c:            da 77 20 20  stx       %o5, [%i4 + 0x20]
    0x100008830:            8a 10 00 15  mov       %l5, %g5
    0x100008834:            db 06 60 40  ld        [%i1 + 0x40], %f13
    0x100008838:            96 10 00 17  mov       %l7, %o3
    0x10000883c:            c6 5e e0 10  ldx       [%i3 + 0x10], %g3
    0x100008840:            c2 06 e0 08  ld        [%i3 + 0x8], %g1
    0x100008844:            88 00 c0 0b  add       %g3, %o3, %g4
    0x100008848:            98 00 c0 09  add       %g3, %o1, %o4
    0x10000884c:            f0 59 20 08  ldx       [%g4 + 0x8], %i0
    0x100008850:            80 a0 60 00  cmp       %g1, 0x0
    0x100008854:            d8 5b 20 08  ldx       [%o4 + 0x8], %o4
    0x100008858:            04 40 00 75  ble,pn    %icc, +0x1d4  <0x100008a2c>
    0x10000885c:            a6 00 7f ff  add       %g1, -0x1, %l3
    0x100008860:            80 a0 60 11  cmp       %g1, 0x11
    0x100008864:            9a 10 20 00  clr       %o5
    0x100008868:            06 40 00 66  bl,pn     %icc, +0x198  <0x100008a00>
    0x10000886c:            01 00 00 00  nop
    0x100008870:            c5 03 20 00  ld        [%o4], %f2
    0x100008874:            d5 03 20 1c  ld        [%o4 + 0x1c], %f10
    0x100008878:            ef 03 20 08  ld        [%o4 + 0x8], %f23
    0x10000887c:            c3 03 20 0c  ld        [%o4 + 0xc], %f1
    0x100008880:            fd 03 20 04  ld        [%o4 + 0x4], %f30
    0x100008884:            f5 06 20 00  ld        [%i0], %f26
    0x100008888:            f3 06 20 04  ld        [%i0 + 0x4], %f25
    0x10000888c:            e9 06 20 08  ld        [%i0 + 0x8], %f20
    0x100008890:            cd 06 20 0c  ld        [%i0 + 0xc], %f6
    0x100008894:            ed 03 20 10  ld        [%o4 + 0x10], %f22
    0x100008898:            d7 03 20 18  ld        [%o4 + 0x18], %f11
    0x10000889c:            fb 06 20 10  ld        [%i0 + 0x10], %f29
    0x1000088a0:            cf 03 20 28  ld        [%o4 + 0x28], %f7
    0x1000088a4:            cb 03 20 14  ld        [%o4 + 0x14], %f5
    0x1000088a8:            a7 a0 88 ba  fsubs     %f2, %f26, %f19
    0x1000088ac:            eb 06 20 14  ld        [%i0 + 0x14], %f21
    0x1000088b0:            81 a7 88 b9  fsubs     %f30, %f25, %f0
    0x1000088b4:            e5 06 60 40  ld        [%i1 + 0x40], %f18
    0x1000088b8:            b1 a5 c8 b4  fsubs     %f23, %f20, %f24
    0x1000088bc:            d9 06 20 18  ld        [%i0 + 0x18], %f12
    0x1000088c0:            a3 a0 48 a6  fsubs     %f1, %f6, %f17
    0x1000088c4:            b5 a4 c9 33  fmuls     %f19, %f19, %f26
    0x1000088c8:            ff 06 20 1c  ld        [%i0 + 0x1c], %f31
    0x1000088cc:            91 a0 09 20  fmuls     %f0, %f0, %f8
    0x1000088d0:            a1 a5 88 bd  fsubs     %f22, %f29, %f16
    0x1000088d4:            dd 06 20 20  ld        [%i0 + 0x20], %f14
    0x1000088d8:            89 a6 09 38  fmuls     %f24, %f24, %f4
    0x1000088dc:            d3 06 20 24  ld        [%i0 + 0x24], %f9
    0x1000088e0:            98 03 20 2c  add       %o4, 0x2c, %o4
    0x1000088e4:            82 06 20 28  add       %i0, 0x28, %g1
    0x1000088e8:            9f a1 48 b5  fsubs     %f5, %f21, %f15
    0x1000088ec:            ad a3 48 28  fadds     %f13, %f8, %f22
    0x1000088f0:            fb 03 3f f4  ld        [%o4 - 0xc], %f29
    0x1000088f4:            9a 10 20 0b  mov       0xb, %o5
    0x1000088f8:            85 a4 49 31  fmuls     %f17, %f17, %f2
    0x1000088fc:            8d a4 88 3a  fadds     %f18, %f26, %f6
    0x100008900:            f1 03 3f f8  ld        [%o4 - 0x8], %f24
    0x100008904:            b0 24 e0 05  sub       %l3, 0x5, %i0
    0x100008908:            9a 03 60 06  add       %o5, 0x6, %o5
    0x10000890c:            98 03 20 18  add       %o4, 0x18, %o4
    0x100008910:            c3 00 60 00  ld        [%g1], %f1
    0x100008914:            bd a2 c8 ac  fsubs     %f11, %f12, %f30
    0x100008918:            89 a1 88 24  fadds     %f6, %f4, %f4
    0x10000891c:            80 a3 40 18  cmp       %o5, %i0
    0x100008920:            eb 03 3f e8  ld        [%o4 - 0x18], %f21
    0x100008924:            b3 a4 09 30  fmuls     %f16, %f16, %f25
    0x100008928:            a1 a2 88 bf  fsubs     %f10, %f31, %f16
    0x10000892c:            e9 00 60 04  ld        [%g1 + 0x4], %f20
    0x100008930:            82 00 60 18  add       %g1, 0x18, %g1
    0x100008934:            85 a5 88 22  fadds     %f22, %f2, %f2
    0x100008938:            af a3 c9 2f  fmuls     %f15, %f15, %f23
    0x10000893c:            d7 03 3f ec  ld        [%o4 - 0x14], %f11
    0x100008940:            9f a7 48 ae  fsubs     %f29, %f14, %f15
    0x100008944:            d9 00 7f f0  ld        [%g1 - 0x10], %f12
    0x100008948:            ad a1 08 39  fadds     %f4, %f25, %f22
    0x10000894c:            8d a7 89 3e  fmuls     %f30, %f30, %f6
    0x100008950:            d5 03 3f f0  ld        [%o4 - 0x10], %f10
    0x100008954:            9b a6 08 a9  fsubs     %f24, %f9, %f13
    0x100008958:            ff 00 7f f4  ld        [%g1 - 0xc], %f31
    0x10000895c:            81 a0 88 37  fadds     %f2, %f23, %f0
    0x100008960:            8b a4 09 30  fmuls     %f16, %f16, %f5
    0x100008964:            fb 03 3f f4  ld        [%o4 - 0xc], %f29
    0x100008968:            a1 a1 c8 a1  fsubs     %f7, %f1, %f16
    0x10000896c:            dd 00 7f f8  ld        [%g1 - 0x8], %f14
    0x100008970:            8d a5 88 26  fadds     %f22, %f6, %f6
    0x100008974:            89 a3 c9 2f  fmuls     %f15, %f15, %f4
    0x100008978:            f1 03 3f f8  ld        [%o4 - 0x8], %f24
    0x10000897c:            9f a5 48 b4  fsubs     %f21, %f20, %f15
    0x100008980:            d3 00 7f fc  ld        [%g1 - 0x4], %f9
    0x100008984:            ad a0 08 25  fadds     %f0, %f5, %f22
    0x100008988:            cf 03 3f fc  ld        [%o4 - 0x4], %f7
    0x10000898c:            04 4f ff df  ble,pt    %icc, -0x84   <0x100008908>
    0x100008990:            85 a3 49 2d  fmuls     %f13, %f13, %f2
    0x100008994:            a9 a2 c8 ac  fsubs     %f11, %f12, %f20
    0x100008998:            83 a4 09 30  fmuls     %f16, %f16, %f1
    0x10000899c:            af a1 88 24  fadds     %f6, %f4, %f23
    0x1000089a0:            ab a2 88 bf  fsubs     %f10, %f31, %f21
    0x1000089a4:            99 a3 c9 2f  fmuls     %f15, %f15, %f12
    0x1000089a8:            a1 a5 88 22  fadds     %f22, %f2, %f16
    0x1000089ac:            9b a5 09 34  fmuls     %f20, %f20, %f13
    0x1000089b0:            bb a7 48 ae  fsubs     %f29, %f14, %f29
    0x1000089b4:            a7 a5 c8 21  fadds     %f23, %f1, %f19
    0x1000089b8:            ed 00 60 00  ld        [%g1], %f22
    0x1000089bc:            8b a6 08 a9  fsubs     %f24, %f9, %f5
    0x1000089c0:            b1 a5 49 35  fmuls     %f21, %f21, %f24
    0x1000089c4:            8f a1 c8 b6  fsubs     %f7, %f22, %f7
    0x1000089c8:            91 a7 49 3d  fmuls     %f29, %f29, %f8
    0x1000089cc:            93 a4 c8 2d  fadds     %f19, %f13, %f9
    0x1000089d0:            81 a4 08 2c  fadds     %f16, %f12, %f0
    0x1000089d4:            97 a1 49 25  fmuls     %f5, %f5, %f11
    0x1000089d8:            80 a3 40 13  cmp       %o5, %l3
    0x1000089dc:            89 a1 c9 27  fmuls     %f7, %f7, %f4
    0x1000089e0:            b0 00 60 04  add       %g1, 0x4, %i0
    0x1000089e4:            a3 a2 48 28  fadds     %f9, %f8, %f17
    0x1000089e8:            9f a0 08 38  fadds     %f0, %f24, %f15
    0x1000089ec:            95 a4 48 24  fadds     %f17, %f4, %f10
    0x1000089f0:            a5 a3 c8 2b  fadds     %f15, %f11, %f18
    0x1000089f4:            9b a4 88 2a  fadds     %f18, %f10, %f13
    0x1000089f8:            14 40 00 0d  bg,pn     %icc, +0x34   <0x100008a2c>
    0x1000089fc:            01 00 00 00  nop
    0x100008a00:            ef 06 20 00  ld        [%i0], %f23
    0x100008a04:            cd 03 20 00  ld        [%o4], %f6
    0x100008a08:            9a 03 60 01  add       %o5, 0x1, %o5
    0x100008a0c:            80 a3 40 13  cmp       %o5, %l3
    0x100008a10:            99 a1 88 b7  fsubs     %f6, %f23, %f12
    0x100008a14:            b0 06 20 04  add       %i0, 0x4, %i0
    0x100008a18:            98 03 20 04  add       %o4, 0x4, %o4
    0x100008a1c:            8f a3 09 2c  fmuls     %f12, %f12, %f7
    0x100008a20:            9b a3 48 27  fadds     %f13, %f7, %f13
    0x100008a24:            24 4f ff f8  ble,a,pt  %icc, -0x20   <0x100008a04>
    0x100008a28:            ef 06 20 00  ld        [%i0], %f23
    0x100008a2c:            d7 00 c0 0b  ld        [%g3 + %o3], %f11
    0x100008a30:            ed 01 20 18  ld        [%g4 + 0x18], %f22
    0x100008a34:            9b a3 49 2b  fmuls     %f13, %f11, %f13
    0x100008a38:            85 ab 4a b6  fcmpes    %fcc2, %f13, %f22
    0x100008a3c:            19 60 00 06  fbuge,pn  %fcc2, +0x18   <0x100008a54>
    0x100008a40:            8a 01 60 01  add       %g5, 0x1, %g5
    0x100008a44:            db 21 20 18  st        %f13, [%g4 + 0x18]
    0x100008a48:            e6 5e e0 10  ldx       [%i3 + 0x10], %l3
    0x100008a4c:            88 02 c0 13  add       %o3, %l3, %g4
    0x100008a50:            de 71 20 10  stx       %o7, [%g4 + 0x10]
    0x100008a54:            80 a1 40 14  cmp       %g5, %l4
    0x100008a58:            96 02 e0 20  add       %o3, 0x20, %o3
    0x100008a5c:            24 6f ff 78  ble,a,pt  %xcc, -0x220  <0x10000883c>
    0x100008a60:            db 06 60 40  ld        [%i1 + 0x40], %f13
    0x100008a64:            c0 2c 64 60  clrb      [%l1 + 0x460]
    0x100008a68:            a6 02 a0 01  add       %o2, 0x1, %l3
    0x100008a6c:            e6 24 25 30  st        %l3, [%l0 + 0x530]
    0x100008a70:            da 5e e0 00  ldx       [%i3], %o5
    0x100008a74:            99 3c e0 00  sra       %l3, 0x0, %o4
    0x100008a78:            80 a3 00 0d  cmp       %o4, %o5
    0x100008a7c:            26 6f ff 4e  bl,a,pt   %xcc, -0x2c8  <0x1000087b4>
    0x100008a80:            f9 23 a9 f7  st        %f28, [%sp + 0x9f7]
    0x100008a84:            d2 5b a8 cf  ldx       [%sp + 0x8cf], %o1
    0x100008a88:            c0 2c 64 60  clrb      [%l1 + 0x460]
    0x100008a8c:            80 a5 40 16  cmp       %l5, %l6
    0x100008a90:            db 1a 61 38  ldd       [%o1 + 0x138], %d44
    0x100008a94:            36 60 00 04  bge,a,pn  %xcc, +0x10   <0x100008aa4>
    0x100008a98:            da 5f 3f f8  ldx       [%i4 - 0x8], %o5
    0x100008a9c:            10 80 00 b4  ba        +0x2d0        <0x100008d6c>
    0x100008aa0:            d8 5e e0 10  ldx       [%i3 + 0x10], %o4
    0x100008aa4:            e8 5b a8 d7  ldx       [%sp + 0x8d7], %l4
    0x100008aa8:            db 3b 40 14  std       %d44, [%o5 + %l4]
    0x100008aac:            10 80 01 01  ba        +0x404        <0x100008eb0>
    0x100008ab0:            eb 1f 20 20  ldd       [%i4 + 0x20], %d52
    0x100008ab4:            ee 5e e0 00  ldx       [%i3], %l7
    0x100008ab8:            95 3c e0 00  sra       %l3, 0x0, %o2
    0x100008abc:            80 a2 80 17  cmp       %o2, %l7
    0x100008ac0:            16 60 00 a4  bge,pn    %xcc, +0x290  <0x100008d50>
    0x100008ac4:            80 a5 40 16  cmp       %l5, %l6
    0x100008ac8:            06 68 00 04  bl,pt     %xcc, +0x10   <0x100008ad8>
    0x100008acc:            91 2a b0 05  sllx      %o2, 0x5, %o0
    0x100008ad0:            10 80 00 00  ba        +0x0          <0x100008ad0>
    0x100008ad4:            01 00 00 00  nop
    0x100008ad8:            93 2d 70 05  sllx      %l5, 0x5, %o1
    0x100008adc:            9e 10 00 15  mov       %l5, %o7
    0x100008ae0:            e3 06 60 40  ld        [%i1 + 0x40], %f17
    0x100008ae4:            96 10 00 09  mov       %o1, %o3
    0x100008ae8:            c8 5e e0 10  ldx       [%i3 + 0x10], %g4
    0x100008aec:            f0 06 e0 08  ld        [%i3 + 0x8], %i0
    0x100008af0:            8a 01 00 0b  add       %g4, %o3, %g5
    0x100008af4:            ae 01 00 08  add       %g4, %o0, %l7
    0x100008af8:            da 59 60 08  ldx       [%g5 + 0x8], %o5
    0x100008afc:            80 a6 20 00  cmp       %i0, 0x0
    0x100008b00:            c6 5d e0 08  ldx       [%l7 + 0x8], %g3
    0x100008b04:            04 40 00 81  ble,pn    %icc, +0x204  <0x100008d08>
    0x100008b08:            98 06 3f ff  add       %i0, -0x1, %o4
    0x100008b0c:            80 a6 20 13  cmp       %i0, 0x13
    0x100008b10:            ae 10 20 00  clr       %l7
    0x100008b14:            06 40 00 72  bl,pn     %icc, +0x1c8  <0x100008cdc>
    0x100008b18:            01 00 00 00  nop
    0x100008b1c:            d3 00 e0 00  ld        [%g3], %f9
    0x100008b20:            f9 00 e0 24  ld        [%g3 + 0x24], %f28
    0x100008b24:            cf 00 e0 0c  ld        [%g3 + 0xc], %f7
    0x100008b28:            ff 00 e0 20  ld        [%g3 + 0x20], %f31
    0x100008b2c:            ef 00 e0 18  ld        [%g3 + 0x18], %f23
    0x100008b30:            c1 00 e0 08  ld        [%g3 + 0x8], %f0
    0x100008b34:            d9 00 e0 10  ld        [%g3 + 0x10], %f12
    0x100008b38:            e7 00 e0 04  ld        [%g3 + 0x4], %f19
    0x100008b3c:            db 03 60 04  ld        [%o5 + 0x4], %f13
    0x100008b40:            e1 03 60 00  ld        [%o5], %f16
    0x100008b44:            f1 03 60 0c  ld        [%o5 + 0xc], %f24
    0x100008b48:            fb 03 60 08  ld        [%o5 + 0x8], %f29
    0x100008b4c:            d1 03 60 10  ld        [%o5 + 0x10], %f8
    0x100008b50:            d7 00 e0 14  ld        [%g3 + 0x14], %f11
    0x100008b54:            89 a4 c8 ad  fsubs     %f19, %f13, %f4
    0x100008b58:            df 03 60 14  ld        [%o5 + 0x14], %f15
    0x100008b5c:            a5 a2 48 b0  fsubs     %f9, %f16, %f18
    0x100008b60:            dd 06 60 40  ld        [%i1 + 0x40], %f14
    0x100008b64:            95 a0 08 bd  fsubs     %f0, %f29, %f10
    0x100008b68:            c3 00 e0 1c  ld        [%g3 + 0x1c], %f1
    0x100008b6c:            b5 a1 09 24  fmuls     %f4, %f4, %f26
    0x100008b70:            8d a1 c8 b8  fsubs     %f7, %f24, %f6
    0x100008b74:            f3 03 60 18  ld        [%o5 + 0x18], %f25
    0x100008b78:            85 a4 89 32  fmuls     %f18, %f18, %f2
    0x100008b7c:            a9 a3 08 a8  fsubs     %f12, %f8, %f20
    0x100008b80:            86 00 e0 2c  add       %g3, 0x2c, %g3
    0x100008b84:            ed 03 60 1c  ld        [%o5 + 0x1c], %f22
    0x100008b88:            8b a4 48 3a  fadds     %f17, %f26, %f5
    0x100008b8c:            eb 03 60 20  ld        [%o5 + 0x20], %f21
    0x100008b90:            91 a2 c8 af  fsubs     %f11, %f15, %f8
    0x100008b94:            81 a2 89 2a  fmuls     %f10, %f10, %f0
    0x100008b98:            fd 03 60 24  ld        [%o5 + 0x24], %f30
    0x100008b9c:            84 03 60 28  add       %o5, 0x28, %g2
    0x100008ba0:            ae 10 20 0b  mov       0xb, %l7
    0x100008ba4:            b1 a1 89 26  fmuls     %f6, %f6, %f24
    0x100008ba8:            b5 a3 88 22  fadds     %f14, %f2, %f26
    0x100008bac:            db 00 ff fc  ld        [%g3 - 0x4], %f13
    0x100008bb0:            b0 23 20 07  sub       %o4, 0x7, %i0
    0x100008bb4:            c1 68 e0 90  prefetch  [%g3 + 0x90], #n_reads
    0x100008bb8:            c1 68 a0 90  prefetch  [%g2 + 0x90], #n_reads
    0x100008bbc:            ae 05 e0 08  add       %l7, 0x8, %l7
    0x100008bc0:            86 00 e0 20  add       %g3, 0x20, %g3
    0x100008bc4:            cf 00 a0 00  ld        [%g2], %f7
    0x100008bc8:            af a5 c8 b9  fsubs     %f23, %f25, %f23
    0x100008bcc:            b3 a6 88 20  fadds     %f26, %f0, %f25
    0x100008bd0:            80 a5 c0 18  cmp       %l7, %i0
    0x100008bd4:            c1 00 ff e0  ld        [%g3 - 0x20], %f0
    0x100008bd8:            a9 a5 09 34  fmuls     %f20, %f20, %f20
    0x100008bdc:            bb a0 48 b6  fsubs     %f1, %f22, %f29
    0x100008be0:            e1 00 a0 04  ld        [%g2 + 0x4], %f16
    0x100008be4:            84 00 a0 20  add       %g2, 0x20, %g2
    0x100008be8:            ad a1 48 38  fadds     %f5, %f24, %f22
    0x100008bec:            83 a2 09 28  fmuls     %f8, %f8, %f1
    0x100008bf0:            d9 00 ff e4  ld        [%g3 - 0x1c], %f12
    0x100008bf4:            8b a7 c8 b5  fsubs     %f31, %f21, %f5
    0x100008bf8:            f1 00 bf e8  ld        [%g2 - 0x18], %f24
    0x100008bfc:            ab a6 48 34  fadds     %f25, %f20, %f21
    0x100008c00:            bf a5 c9 37  fmuls     %f23, %f23, %f31
    0x100008c04:            e7 00 ff e8  ld        [%g3 - 0x18], %f19
    0x100008c08:            91 a7 08 be  fsubs     %f28, %f30, %f8
    0x100008c0c:            fd 00 bf ec  ld        [%g2 - 0x14], %f30
    0x100008c10:            b9 a5 88 21  fadds     %f22, %f1, %f28
    0x100008c14:            93 a7 49 3d  fmuls     %f29, %f29, %f9
    0x100008c18:            ef 00 ff ec  ld        [%g3 - 0x14], %f23
    0x100008c1c:            a3 a3 48 a7  fsubs     %f13, %f7, %f17
    0x100008c20:            f3 00 bf f0  ld        [%g2 - 0x10], %f25
    0x100008c24:            9b a5 48 3f  fadds     %f21, %f31, %f13
    0x100008c28:            9f a1 49 25  fmuls     %f5, %f5, %f15
    0x100008c2c:            c3 00 ff f0  ld        [%g3 - 0x10], %f1
    0x100008c30:            97 a0 08 b0  fsubs     %f0, %f16, %f11
    0x100008c34:            ed 00 bf f4  ld        [%g2 - 0xc], %f22
    0x100008c38:            89 a7 08 29  fadds     %f28, %f9, %f4
    0x100008c3c:            a5 a2 09 28  fmuls     %f8, %f8, %f18
    0x100008c40:            ff 00 ff f4  ld        [%g3 - 0xc], %f31
    0x100008c44:            a9 a3 08 b8  fsubs     %f12, %f24, %f20
    0x100008c48:            eb 00 bf f8  ld        [%g2 - 0x8], %f21
    0x100008c4c:            b5 a3 48 2f  fadds     %f13, %f15, %f26
    0x100008c50:            81 a4 49 31  fmuls     %f17, %f17, %f0
    0x100008c54:            f9 00 ff f8  ld        [%g3 - 0x8], %f28
    0x100008c58:            91 a4 c8 be  fsubs     %f19, %f30, %f8
    0x100008c5c:            fd 00 bf fc  ld        [%g2 - 0x4], %f30
    0x100008c60:            8b a1 08 32  fadds     %f4, %f18, %f5
    0x100008c64:            db 00 ff fc  ld        [%g3 - 0x4], %f13
    0x100008c68:            04 4f ff d3  ble,pt    %icc, -0xb4   <0x100008bb4>
    0x100008c6c:            b1 a2 c9 2b  fmuls     %f11, %f11, %f24
    0x100008c70:            a5 a6 88 20  fadds     %f26, %f0, %f18
    0x100008c74:            8f a5 c8 b9  fsubs     %f23, %f25, %f7
    0x100008c78:            bb a5 09 34  fmuls     %f20, %f20, %f29
    0x100008c7c:            81 a7 c8 b5  fsubs     %f31, %f21, %f0
    0x100008c80:            8d a0 48 b6  fsubs     %f1, %f22, %f6
    0x100008c84:            99 a1 48 38  fadds     %f5, %f24, %f12
    0x100008c88:            a9 a2 09 28  fmuls     %f8, %f8, %f20
    0x100008c8c:            97 a1 c9 27  fmuls     %f7, %f7, %f11
    0x100008c90:            89 a4 88 3d  fadds     %f18, %f29, %f4
    0x100008c94:            f1 00 a0 00  ld        [%g2], %f24
    0x100008c98:            ad a7 08 be  fsubs     %f28, %f30, %f22
    0x100008c9c:            bf a0 09 20  fmuls     %f0, %f0, %f31
    0x100008ca0:            95 a3 48 b8  fsubs     %f13, %f24, %f10
    0x100008ca4:            ab a1 89 26  fmuls     %f6, %f6, %f21
    0x100008ca8:            b5 a3 08 34  fadds     %f12, %f20, %f26
    0x100008cac:            af a1 08 2b  fadds     %f4, %f11, %f23
    0x100008cb0:            85 a5 89 36  fmuls     %f22, %f22, %f2
    0x100008cb4:            80 a5 c0 0c  cmp       %l7, %o4
    0x100008cb8:            8b a2 89 2a  fmuls     %f10, %f10, %f5
    0x100008cbc:            9a 00 a0 04  add       %g2, 0x4, %o5
    0x100008cc0:            b9 a6 88 35  fadds     %f26, %f21, %f28
    0x100008cc4:            83 a5 c8 3f  fadds     %f23, %f31, %f1
    0x100008cc8:            bd a7 08 22  fadds     %f28, %f2, %f30
    0x100008ccc:            9d a0 48 25  fadds     %f1, %f5, %f14
    0x100008cd0:            a3 a7 88 2e  fadds     %f30, %f14, %f17
    0x100008cd4:            14 40 00 0d  bg,pn     %icc, +0x34   <0x100008d08>
    0x100008cd8:            01 00 00 00  nop
    0x100008cdc:            f1 03 60 00  ld        [%o5], %f24
    0x100008ce0:            f5 00 e0 00  ld        [%g3], %f26
    0x100008ce4:            ae 05 e0 01  add       %l7, 0x1, %l7
    0x100008ce8:            80 a5 c0 0c  cmp       %l7, %o4
    0x100008cec:            a5 a6 88 b8  fsubs     %f26, %f24, %f18
    0x100008cf0:            9a 03 60 04  add       %o5, 0x4, %o5
    0x100008cf4:            86 00 e0 04  add       %g3, 0x4, %g3
    0x100008cf8:            91 a4 89 32  fmuls     %f18, %f18, %f8
    0x100008cfc:            a3 a4 48 28  fadds     %f17, %f8, %f17
    0x100008d00:            24 4f ff f8  ble,a,pt  %icc, -0x20   <0x100008ce0>
    0x100008d04:            f1 03 60 00  ld        [%o5], %f24
    0x100008d08:            fd 01 00 0b  ld        [%g4 + %o3], %f30
    0x100008d0c:            d5 01 60 18  ld        [%g5 + 0x18], %f10
    0x100008d10:            b9 a4 49 3e  fmuls     %f17, %f30, %f28
    0x100008d14:            81 af 0a aa  fcmpes    %fcc0, %f28, %f10
    0x100008d18:            19 40 00 06  fbuge,pn  %fcc0, +0x18   <0x100008d30>
    0x100008d1c:            9e 03 e0 01  add       %o7, 0x1, %o7
    0x100008d20:            f9 21 60 18  st        %f28, [%g5 + 0x18]
    0x100008d24:            c6 5e e0 10  ldx       [%i3 + 0x10], %g3
    0x100008d28:            84 02 c0 03  add       %o3, %g3, %g2
    0x100008d2c:            d4 70 a0 10  stx       %o2, [%g2 + 0x10]
    0x100008d30:            80 a3 c0 14  cmp       %o7, %l4
    0x100008d34:            96 02 e0 20  add       %o3, 0x20, %o3
    0x100008d38:            24 6f ff 6c  ble,a,pt  %xcc, -0x250  <0x100008ae8>
    0x100008d3c:            e3 06 60 40  ld        [%i1 + 0x40], %f17
    0x100008d40:            d8 5e e0 00  ldx       [%i3], %o4
    0x100008d44:            80 a2 80 0c  cmp       %o2, %o4
    0x100008d48:            06 6f ff 66  bl,pt     %xcc, -0x268  <0x100008ae0>
    0x100008d4c:            9e 10 00 15  mov       %l5, %o7
    0x100008d50:            de 5b a8 cf  ldx       [%sp + 0x8cf], %o7
    0x100008d54:            c0 2c 64 60  clrb      [%l1 + 0x460]
    0x100008d58:            80 a5 40 16  cmp       %l5, %l6
    0x100008d5c:            db 1b e1 38  ldd       [%o7 + 0x138], %d44
    0x100008d60:            36 68 00 e4  bge,a,pt  %xcc, +0x390  <0x1000090f0>
    0x100008d64:            f0 5f 3f f8  ldx       [%i4 - 0x8], %i0
    0x100008d68:            d8 5e e0 10  ldx       [%i3 + 0x10], %o4
    0x100008d6c:            88 25 00 15  sub       %l4, %l5, %g4
    0x100008d70:            8a 01 20 01  add       %g4, 0x1, %g5
    0x100008d74:            af 2d 70 05  sllx      %l5, 0x5, %l7
    0x100008d78:            82 03 20 18  add       %o4, 0x18, %g1
    0x100008d7c:            80 a1 60 0e  cmp       %g5, 0xe
    0x100008d80:            9e 00 40 17  add       %g1, %l7, %o7
    0x100008d84:            06 60 00 3c  bl,pn     %xcc, +0xf0   <0x100008e74>
    0x100008d88:            01 00 00 00  nop
    0x100008d8c:            e7 03 e0 80  ld        [%o7 + 0x80], %f19
    0x100008d90:            d7 03 e0 e0  ld        [%o7 + 0xe0], %f11
    0x100008d94:            df 03 e0 c0  ld        [%o7 + 0xc0], %f15
    0x100008d98:            f5 03 e0 20  ld        [%o7 + 0x20], %f26
    0x100008d9c:            d5 05 c0 01  ld        [%l7 + %g1], %f10
    0x100008da0:            2d 00 04 00  sethi     %hi(0x100000), %l6
    0x100008da4:            ab a0 19 3a  fstod     %f26, %d52
    0x100008da8:            a3 a0 19 2a  fstod     %f10, %d48
    0x100008dac:            c5 03 e0 60  ld        [%o7 + 0x60], %f2
    0x100008db0:            ae 15 a0 07  or        %l6, 0x7, %l7
    0x100008db4:            e3 03 e0 a0  ld        [%o7 + 0xa0], %f17
    0x100008db8:            87 2d f0 0c  sllx      %l7, 0xc, %g3
    0x100008dbc:            cd 03 e0 40  ld        [%o7 + 0x40], %f6
    0x100008dc0:            b7 a0 19 22  fstod     %f2, %d58
    0x100008dc4:            83 a3 48 55  faddd     %d44, %d52, %d32
    0x100008dc8:            9e 03 e1 00  add       %o7, 0x100, %o7
    0x100008dcc:            ef 18 e1 38  ldd       [%g3 + 0x138], %d54
    0x100008dd0:            b3 a0 19 26  fstod     %f6, %d56
    0x100008dd4:            aa 05 60 08  add       %l5, 0x8, %l5
    0x100008dd8:            bb a5 c8 51  faddd     %d54, %d48, %d60
    0x100008ddc:            88 25 20 05  sub       %l4, 0x5, %g4
    0x100008de0:            c1 6b e1 60  prefetch  [%o7 + 0x160], #n_reads
    0x100008de4:            aa 05 60 06  add       %l5, 0x6, %l5
    0x100008de8:            dd 03 e0 00  ld        [%o7], %f14
    0x100008dec:            9e 03 e0 c0  add       %o7, 0xc0, %o7
    0x100008df0:            9f a0 19 33  fstod     %f19, %d46
    0x100008df4:            9b a7 48 59  faddd     %d60, %d56, %d44
    0x100008df8:            80 a5 40 04  cmp       %l5, %g4
    0x100008dfc:            b3 a0 19 31  fstod     %f17, %d56
    0x100008e00:            f3 03 ff 60  ld        [%o7 - 0xa0], %f25
    0x100008e04:            83 a0 48 5b  faddd     %d32, %d58, %d32
    0x100008e08:            b7 a0 19 2f  fstod     %f15, %d58
    0x100008e0c:            e7 03 ff 80  ld        [%o7 - 0x80], %f19
    0x100008e10:            bb a3 48 4f  faddd     %d44, %d46, %d60
    0x100008e14:            a7 a0 19 2b  fstod     %f11, %d50
    0x100008e18:            e3 03 ff a0  ld        [%o7 - 0x60], %f17
    0x100008e1c:            93 a0 48 59  faddd     %d32, %d56, %d40
    0x100008e20:            b3 a0 19 2e  fstod     %f14, %d56
    0x100008e24:            df 03 ff c0  ld        [%o7 - 0x40], %f15
    0x100008e28:            bb a7 48 5b  faddd     %d60, %d58, %d60
    0x100008e2c:            b7 a0 19 39  fstod     %f25, %d58
    0x100008e30:            d7 03 ff e0  ld        [%o7 - 0x20], %f11
    0x100008e34:            04 6f ff eb  ble,pt    %xcc, -0x54   <0x100008de0>
    0x100008e38:            83 a2 48 53  faddd     %d40, %d50, %d32
    0x100008e3c:            a3 a0 48 5b  faddd     %d32, %d58, %d48
    0x100008e40:            9b a0 19 31  fstod     %f17, %d44
    0x100008e44:            bb a7 48 59  faddd     %d60, %d56, %d60
    0x100008e48:            9f a0 19 33  fstod     %f19, %d46
    0x100008e4c:            b3 a0 19 2b  fstod     %f11, %d56
    0x100008e50:            a7 a0 19 2f  fstod     %f15, %d50
    0x100008e54:            80 a5 40 14  cmp       %l5, %l4
    0x100008e58:            83 a4 48 4d  faddd     %d48, %d44, %d32
    0x100008e5c:            93 a7 48 4f  faddd     %d60, %d46, %d40
    0x100008e60:            8f a0 48 59  faddd     %d32, %d56, %d38
    0x100008e64:            bf a2 48 53  faddd     %d40, %d50, %d62
    0x100008e68:            9b a7 c8 47  faddd     %d62, %d38, %d44
    0x100008e6c:            14 60 00 0a  bg,pn     %xcc, +0x28   <0x100008e94>
    0x100008e70:            01 00 00 00  nop
    0x100008e74:            c5 03 e0 00  ld        [%o7], %f2
    0x100008e78:            83 a0 19 22  fstod     %f2, %d32
    0x100008e7c:            aa 05 60 01  add       %l5, 0x1, %l5
    0x100008e80:            80 a5 40 14  cmp       %l5, %l4
    0x100008e84:            9e 03 e0 20  add       %o7, 0x20, %o7
    0x100008e88:            9b a3 48 41  faddd     %d44, %d32, %d44
    0x100008e8c:            24 6f ff fb  ble,a,pt  %xcc, -0x14   <0x100008e78>
    0x100008e90:            c5 03 e0 00  ld        [%o7], %f2
    0x100008e94:            da 03 a8 b7  ld        [%sp + 0x8b7], %o5
    0x100008e98:            d2 5f 3f f8  ldx       [%i4 - 0x8], %o1
    0x100008e9c:            d8 5b a8 d7  ldx       [%sp + 0x8d7], %o4
    0x100008ea0:            80 a3 60 00  cmp       %o5, 0x0
    0x100008ea4:            12 40 00 95  bne,pn    %icc, +0x254  <0x1000090f8>
    0x100008ea8:            db 3a 40 0c  std       %d44, [%o1 + %o4]
    0x100008eac:            eb 1f 20 20  ldd       [%i4 + 0x20], %d52
    0x100008eb0:            a1 a0 10 95  fxtos     %d52, %f16
    0x100008eb4:            ea 07 3f e8  ld        [%i4 - 0x18], %l5
    0x100008eb8:            80 a5 60 00  cmp       %l5, 0x0
    0x100008ebc:            9b a6 c9 30  fmuls     %f27, %f16, %f13
    0x100008ec0:            14 40 00 05  bg,pn     %icc, +0x14   <0x100008ed4>
    0x100008ec4:            af a0 19 2d  fstod     %f13, %d54
    0x100008ec8:            ef 3f 3f f0  std       %d54, [%i4 - 0x10]
    0x100008ecc:            10 80 00 54  ba        +0x150        <0x10000901c>
    0x100008ed0:            c7 3b a9 37  std       %d34, [%sp + 0x937]
    0x100008ed4:            80 a5 60 18  cmp       %l5, 0x18
    0x100008ed8:            a6 05 7f ff  add       %l5, -0x1, %l3
    0x100008edc:            a8 10 20 00  clr       %l4
    0x100008ee0:            9e 10 00 15  mov       %l5, %o7
    0x100008ee4:            da 5f 3f f8  ldx       [%i4 - 0x8], %o5
    0x100008ee8:            06 40 00 44  bl,pn     %icc, +0x110  <0x100008ff8>
    0x100008eec:            01 00 00 00  nop
    0x100008ef0:            cf 1b 60 08  ldd       [%o5 + 0x8], %d38
    0x100008ef4:            f7 1b 60 00  ldd       [%o5], %d58
    0x100008ef8:            db 1b 60 20  ldd       [%o5 + 0x20], %d44
    0x100008efc:            c3 1b 60 10  ldd       [%o5 + 0x10], %d32
    0x100008f00:            f3 1b 60 50  ldd       [%o5 + 0x50], %d56
    0x100008f04:            eb 1b 60 40  ldd       [%o5 + 0x40], %d52
    0x100008f08:            d3 1b 60 18  ldd       [%o5 + 0x18], %d40
    0x100008f0c:            ff 1b 60 58  ldd       [%o5 + 0x58], %d62
    0x100008f10:            2b 00 04 00  sethi     %hi(0x100000), %l5
    0x100008f14:            e7 1b 60 38  ldd       [%o5 + 0x38], %d50
    0x100008f18:            90 15 60 07  or        %l5, 0x7, %o0
    0x100008f1c:            93 2a 30 0c  sllx      %o0, 0xc, %o1
    0x100008f20:            fd 1a 61 38  ldd       [%o1 + 0x138], %d30
    0x100008f24:            e3 1b 60 30  ldd       [%o5 + 0x30], %d48
    0x100008f28:            df 1b 60 28  ldd       [%o5 + 0x28], %d46
    0x100008f2c:            bb a7 88 47  faddd     %d30, %d38, %d60
    0x100008f30:            93 a5 c8 49  faddd     %d54, %d40, %d40
    0x100008f34:            9a 03 60 60  add       %o5, 0x60, %o5
    0x100008f38:            b7 a7 88 5b  faddd     %d30, %d58, %d58
    0x100008f3c:            a8 10 20 0c  mov       0xc, %l4
    0x100008f40:            8f a7 88 41  faddd     %d30, %d32, %d38
    0x100008f44:            ef 1b 7f e8  ldd       [%o5 - 0x18], %d54
    0x100008f48:            96 03 ff f4  add       %o7, -0xc, %o3
    0x100008f4c:            c1 6b 61 30  prefetch  [%o5 + 0x130], #n_reads
    0x100008f50:            a8 05 20 0c  add       %l4, 0xc, %l4
    0x100008f54:            c3 1b 60 00  ldd       [%o5], %d32
    0x100008f58:            9a 03 60 60  add       %o5, 0x60, %o5
    0x100008f5c:            9b a6 c8 4d  faddd     %d58, %d44, %d44
    0x100008f60:            9f a7 48 4f  faddd     %d60, %d46, %d46
    0x100008f64:            80 a5 00 0b  cmp       %l4, %o3
    0x100008f68:            fb 1b 7f a8  ldd       [%o5 - 0x58], %d60
    0x100008f6c:            a3 a1 c8 51  faddd     %d38, %d48, %d48
    0x100008f70:            cf 1b 7f b0  ldd       [%o5 - 0x50], %d38
    0x100008f74:            a7 a2 48 53  faddd     %d40, %d50, %d50
    0x100008f78:            d3 1b 7f b8  ldd       [%o5 - 0x48], %d40
    0x100008f7c:            ab a3 48 55  faddd     %d44, %d52, %d52
    0x100008f80:            db 1b 7f c0  ldd       [%o5 - 0x40], %d44
    0x100008f84:            af a3 c8 57  faddd     %d46, %d54, %d54
    0x100008f88:            df 1b 7f c8  ldd       [%o5 - 0x38], %d46
    0x100008f8c:            b3 a4 48 59  faddd     %d48, %d56, %d56
    0x100008f90:            e3 1b 7f d0  ldd       [%o5 - 0x30], %d48
    0x100008f94:            bf a4 c8 5f  faddd     %d50, %d62, %d62
    0x100008f98:            e7 1b 7f d8  ldd       [%o5 - 0x28], %d50
    0x100008f9c:            b7 a5 48 41  faddd     %d52, %d32, %d58
    0x100008fa0:            eb 1b 7f e0  ldd       [%o5 - 0x20], %d52
    0x100008fa4:            bb a5 c8 5d  faddd     %d54, %d60, %d60
    0x100008fa8:            ef 1b 7f e8  ldd       [%o5 - 0x18], %d54
    0x100008fac:            8f a6 48 47  faddd     %d56, %d38, %d38
    0x100008fb0:            f3 1b 7f f0  ldd       [%o5 - 0x10], %d56
    0x100008fb4:            93 a7 c8 49  faddd     %d62, %d40, %d40
    0x100008fb8:            04 4f ff e5  ble,pt    %icc, -0x6c   <0x100008f4c>
    0x100008fbc:            ff 1b 7f f8  ldd       [%o5 - 0x8], %d62
    0x100008fc0:            8f a1 c8 51  faddd     %d38, %d48, %d38
    0x100008fc4:            9f a7 48 4f  faddd     %d60, %d46, %d46
    0x100008fc8:            9b a6 c8 4d  faddd     %d58, %d44, %d44
    0x100008fcc:            a3 a2 48 53  faddd     %d40, %d50, %d48
    0x100008fd0:            80 a5 00 13  cmp       %l4, %l3
    0x100008fd4:            83 a1 c8 59  faddd     %d38, %d56, %d32
    0x100008fd8:            af a3 c8 57  faddd     %d46, %d54, %d54
    0x100008fdc:            ab a3 48 55  faddd     %d44, %d52, %d52
    0x100008fe0:            b3 a4 48 5f  faddd     %d48, %d62, %d56
    0x100008fe4:            bf a5 48 57  faddd     %d52, %d54, %d62
    0x100008fe8:            bb a7 c8 41  faddd     %d62, %d32, %d60
    0x100008fec:            af a7 48 59  faddd     %d60, %d56, %d54
    0x100008ff0:            14 40 00 09  bg,pn     %icc, +0x24   <0x100009014>
    0x100008ff4:            01 00 00 00  nop
    0x100008ff8:            a8 05 20 01  add       %l4, 0x1, %l4
    0x100008ffc:            80 a5 00 13  cmp       %l4, %l3
    0x100009000:            e7 1b 60 00  ldd       [%o5], %d50
    0x100009004:            9a 03 60 08  add       %o5, 0x8, %o5
    0x100009008:            af a5 c8 53  faddd     %d54, %d50, %d54
    0x10000900c:            04 4f ff fc  ble,pt    %icc, -0x10   <0x100008ffc>
    0x100009010:            a8 05 20 01  add       %l4, 0x1, %l4
    0x100009014:            ef 3f 3f f0  std       %d54, [%i4 - 0x10]
    0x100009018:            c7 3b a9 37  std       %d34, [%sp + 0x937]
    0x10000901c:            d0 5f 3f f8  ldx       [%i4 - 0x8], %o0
    0x100009020:            c7 23 a9 7f  st        %f3, [%sp + 0x97f]
    0x100009024:            d7 3b a9 2f  std       %d42, [%sp + 0x92f]
    0x100009028:            40 04 23 3e  call      +0x108cf8     <0x100111d20>
    0x10000902c:            cb 3b a9 27  std       %d36, [%sp + 0x927]
    0x100009030:            ec 5f 20 20  ldx       [%i4 + 0x20], %l6
    0x100009034:            de 5b a8 bf  ldx       [%sp + 0x8bf], %o7
    0x100009038:            e6 04 25 30  ld        [%l0 + 0x530], %l3
    0x10000903c:            c7 1b a9 37  ldd       [%sp + 0x937], %d34
    0x100009040:            cb 1b a9 27  ldd       [%sp + 0x927], %d36
    0x100009044:            80 a5 80 0f  cmp       %l6, %o7
    0x100009048:            d7 1b a9 2f  ldd       [%sp + 0x92f], %d42
    0x10000904c:            a4 04 a0 01  add       %l2, 0x1, %l2
    0x100009050:            c7 03 a9 7f  ld        [%sp + 0x97f], %f3
    0x100009054:            06 6f fc c8  bl,pt     %xcc, -0xce0  <0x100008374>
    0x100009058:            80 a4 a0 01  cmp       %l2, 0x1
    0x10000905c:            db 1f 3f f0  ldd       [%i4 - 0x10], %d44
    0x100009060:            87 a0 18 cd  fdtos     %d44, %f3
    0x100009064:            83 a0 19 23  fstod     %f3, %d32
    0x100009068:            c3 3b a9 c7  std       %d32, [%sp + 0x9c7]
    0x10000906c:            e0 5b a8 bf  ldx       [%sp + 0x8bf], %l0
    0x100009070:            c7 3b a9 37  std       %d34, [%sp + 0x937]
    0x100009074:            cb 3b a9 27  std       %d36, [%sp + 0x927]
    0x100009078:            98 10 00 1d  mov       %i5, %o4
    0x10000907c:            d7 3b a9 2f  std       %d42, [%sp + 0x92f]
    0x100009080:            96 10 20 00  clr       %o3
    0x100009084:            90 10 00 1b  mov       %i3, %o0
    0x100009088:            95 3c 20 00  sra       %l0, 0x0, %o2
    0x10000908c:            7f ff ec 7a  call      -0x4e18       <0x100004274>
    0x100009090:            92 07 20 28  add       %i4, 0x28, %o1
    0x100009094:            cb 1b a9 27  ldd       [%sp + 0x927], %d36
    0x100009098:            d7 1b a9 2f  ldd       [%sp + 0x92f], %d42
    0x10000909c:            c7 1b a9 37  ldd       [%sp + 0x937], %d34
    0x1000090a0:            d0 27 20 30  st        %o0, [%i4 + 0x30]
    0x1000090a4:            da 5e e0 00  ldx       [%i3], %o5
    0x1000090a8:            c3 1b a9 c7  ldd       [%sp + 0x9c7], %d32
    0x1000090ac:            04 c3 40 23  brlez,pn  %o5, +0x8c    <0x100009138>
    0x1000090b0:            8a 10 20 00  clr       %g5
    0x1000090b4:            a2 10 20 00  clr       %l1
    0x1000090b8:            ea 5e e0 10  ldx       [%i3 + 0x10], %l5
    0x1000090bc:            92 10 20 01  mov       0x1, %o1
    0x1000090c0:            ac 04 40 15  add       %l1, %l5, %l6
    0x1000090c4:            d0 5f 3f d8  ldx       [%i4 - 0x28], %o0
    0x1000090c8:            de 5d a0 10  ldx       [%l6 + 0x10], %o7
    0x1000090cc:            8a 01 60 01  add       %g5, 0x1, %g5
    0x1000090d0:            a2 04 60 20  add       %l1, 0x20, %l1
    0x1000090d4:            d2 2a 00 0f  stb       %o1, [%o0 + %o7]
    0x1000090d8:            e8 5e e0 00  ldx       [%i3], %l4
    0x1000090dc:            80 a1 40 14  cmp       %g5, %l4
    0x1000090e0:            26 6f ff f8  bl,a,pt   %xcc, -0x20   <0x1000090c0>
    0x1000090e4:            ea 5e e0 10  ldx       [%i3 + 0x10], %l5
    0x1000090e8:            10 80 00 15  ba        +0x54         <0x10000913c>
    0x1000090ec:            ee 5b a8 c7  ldx       [%sp + 0x8c7], %l7
    0x1000090f0:            da 5b a8 d7  ldx       [%sp + 0x8d7], %o5
    0x1000090f4:            db 3e 00 0d  std       %d44, [%i0 + %o5]
    0x1000090f8:            ea 5f 20 20  ldx       [%i4 + 0x20], %l5
    0x1000090fc:            c6 5b a8 bf  ldx       [%sp + 0x8bf], %g3
    0x100009100:            a4 04 a0 01  add       %l2, 0x1, %l2
    0x100009104:            80 a5 40 03  cmp       %l5, %g3
    0x100009108:            06 6f fc 9b  bl,pt     %xcc, -0xd94  <0x100008374>
    0x10000910c:            80 a4 a0 01  cmp       %l2, 0x1
    0x100009110:            fb 1f 3f f0  ldd       [%i4 - 0x10], %d60
    0x100009114:            b7 a0 18 dd  fdtos     %d60, %f27
    0x100009118:            83 a0 19 3b  fstod     %f27, %d32
    0x10000911c:            10 80 00 08  ba        +0x20         <0x10000913c>
    0x100009120:            ee 5b a8 c7  ldx       [%sp + 0x8c7], %l7
    0x100009124:            d3 1f 3f f0  ldd       [%i4 - 0x10], %d40
    0x100009128:            ee 5b a8 cf  ldx       [%sp + 0x8cf], %l7
    0x10000912c:            93 a0 18 c9  fdtos     %d40, %f9
    0x100009130:            c7 1d e1 38  ldd       [%l7 + 0x138], %d34
    0x100009134:            83 a0 19 29  fstod     %f9, %d32
    0x100009138:            ee 5b a8 c7  ldx       [%sp + 0x8c7], %l7
    0x10000913c:            eb 1b a8 c7  ldd       [%sp + 0x8c7], %d52
    0x100009140:            ef 1b a8 bf  ldd       [%sp + 0x8bf], %d54
    0x100009144:            f3 1e 60 18  ldd       [%i1 + 0x18], %d56
    0x100009148:            e0 5b a8 bf  ldx       [%sp + 0x8bf], %l0
    0x10000914c:            c7 3b a9 37  std       %d34, [%sp + 0x937]
    0x100009150:            cb 3b a9 27  std       %d36, [%sp + 0x927]
    0x100009154:            d7 3b a9 2f  std       %d42, [%sp + 0x92f]
    0x100009158:            c3 3b a9 c7  std       %d32, [%sp + 0x9c7]
    0x10000915c:            98 05 e0 02  add       %l7, 0x2, %o4
    0x100009160:            d8 73 a8 e7  stx       %o4, [%sp + 0x8e7]
    0x100009164:            96 04 3f fe  add       %l0, -0x2, %o3
    0x100009168:            81 a0 11 15  fxtod     %d52, %d0
    0x10000916c:            c1 3b a9 df  std       %d0, [%sp + 0x9df]
    0x100009170:            d0 5b a9 df  ldx       [%sp + 0x9df], %o0
    0x100009174:            af a0 11 17  fxtod     %d54, %d54
    0x100009178:            ef 3b a9 3f  std       %d54, [%sp + 0x93f]
    0x10000917c:            b3 a0 09 59  fmuld     %d0, %d56, %d56
    0x100009180:            f3 3b a9 47  std       %d56, [%sp + 0x947]
    0x100009184:            40 00 0b 8f  call      +0x2e3c       <0x10000bfc0>
    0x100009188:            d6 73 a8 df  stx       %o3, [%sp + 0x8df]
    0x10000918c:            ec 07 3f ec  ld        [%i4 - 0x14], %l6
    0x100009190:            c3 1b a9 c7  ldd       [%sp + 0x9c7], %d32
    0x100009194:            f3 1b a9 47  ldd       [%sp + 0x947], %d56
    0x100009198:            cb 1b a9 27  ldd       [%sp + 0x927], %d36
    0x10000919c:            9f a0 49 c1  fdivd     %d32, %d32, %d46
    0x1000091a0:            85 3d a0 00  sra       %l6, 0x0, %g2
    0x1000091a4:            86 48 80 17  mulx      %g2, %l7, %g3
    0x1000091a8:            c6 73 a9 f7  stx       %g3, [%sp + 0x9f7]
    0x1000091ac:            cf 1b a9 f7  ldd       [%sp + 0x9f7], %d38
    0x1000091b0:            ef 1b a9 3f  ldd       [%sp + 0x93f], %d54
    0x1000091b4:            d7 1b a9 2f  ldd       [%sp + 0x92f], %d42
    0x1000091b8:            a7 a0 11 07  fxtod     %d38, %d50
    0x1000091bc:            c7 1b a9 37  ldd       [%sp + 0x937], %d34
    0x1000091c0:            ab a0 00 40  fmovd     %d0, %d52
    0x1000091c4:            fb 1e 60 20  ldd       [%i1 + 0x20], %d60
    0x1000091c8:            87 ab ca dd  fcmped    %fcc3, %d46, %d60
    0x1000091cc:            1d 70 00 97  fbule,pn  %fcc3, +0x25c  <0x100009428>
    0x1000091d0:            a3 a0 18 c5  fdtos     %d36, %f17
    0x1000091d4:            bf a4 c9 55  fmuld     %d50, %d52, %d62
    0x1000091d8:            d0 07 20 30  ld        [%i4 + 0x30], %o0
    0x1000091dc:            a4 10 20 00  clr       %l2
    0x1000091e0:            e2 5f 20 28  ldx       [%i4 + 0x28], %l1
    0x1000091e4:            a1 3a 20 00  sra       %o0, 0x0, %l0
    0x1000091e8:            a5 7c 24 01  movre     %l0, 0x1, %l2
    0x1000091ec:            93 a0 10 5f  fdtox     %d62, %d40
    0x1000091f0:            d3 3b a8 ff  std       %d40, [%sp + 0x8ff]
    0x1000091f4:            ca 5b a8 ff  ldx       [%sp + 0x8ff], %g5
    0x1000091f8:            a4 04 00 12  add       %l0, %l2, %l2
    0x1000091fc:            ec 03 a8 b7  ld        [%sp + 0x8b7], %l6
    0x100009200:            a6 04 3f ff  add       %l0, -0x1, %l3
    0x100009204:            d0 23 a8 ef  st        %o0, [%sp + 0x8ef]
    0x100009208:            a8 01 7f ff  add       %g5, -0x1, %l4
    0x10000920c:            ea 5b a8 cf  ldx       [%sp + 0x8cf], %l5
    0x100009210:            80 a5 a0 00  cmp       %l6, 0x0
    0x100009214:            e7 1d 61 38  ldd       [%l5 + 0x138], %d50
    0x100009218:            12 40 00 37  bne,pn    %icc, +0xdc   <0x1000092f4>
    0x10000921c:            f0 03 a8 ef  ld        [%sp + 0x8ef], %i0
    0x100009220:            80 a6 20 00  cmp       %i0, 0x0
    0x100009224:            04 40 00 34  ble,pn    %icc, +0xd0   <0x1000092f4>
    0x100009228:            ac 10 20 00  clr       %l6
    0x10000922c:            aa 10 00 11  mov       %l1, %l5
    0x100009230:            eb 3b a9 57  std       %d52, [%sp + 0x957]
    0x100009234:            ae 10 00 10  mov       %l0, %l7
    0x100009238:            d7 3b a9 2f  std       %d42, [%sp + 0x92f]
    0x10000923c:            c7 3b a9 37  std       %d34, [%sp + 0x937]
    0x100009240:            ef 3b a9 3f  std       %d54, [%sp + 0x93f]
    0x100009244:            f3 3b a9 47  std       %d56, [%sp + 0x947]
    0x100009248:            e3 23 a9 4f  st        %f17, [%sp + 0x94f]
    0x10000924c:            e7 3b a9 5f  std       %d50, [%sp + 0x95f]
    0x100009250:            c3 3b a9 67  std       %d32, [%sp + 0x967]
    0x100009254:            40 04 22 a3  call      +0x108a8c     <0x100111ce0>
    0x100009258:            cb 3b a9 27  std       %d36, [%sp + 0x927]
    0x10000925c:            ca 05 60 00  ld        [%l5], %g5
    0x100009260:            eb 1b a9 57  ldd       [%sp + 0x957], %d52
    0x100009264:            c7 1b a9 37  ldd       [%sp + 0x937], %d34
    0x100009268:            cb 1b a9 27  ldd       [%sp + 0x927], %d36
    0x10000926c:            d7 1b a9 2f  ldd       [%sp + 0x92f], %d42
    0x100009270:            ef 1b a9 3f  ldd       [%sp + 0x93f], %d54
    0x100009274:            f3 1b a9 47  ldd       [%sp + 0x947], %d56
    0x100009278:            e3 03 a9 4f  ld        [%sp + 0x94f], %f17
    0x10000927c:            88 25 e0 01  sub       %l7, 0x1, %g4
    0x100009280:            e7 1b a9 5f  ldd       [%sp + 0x95f], %d50
    0x100009284:            80 8d c0 04  btst      %g4, %l7
    0x100009288:            c3 1b a9 67  ldd       [%sp + 0x967], %d32
    0x10000928c:            12 60 00 0c  bne,pn    %xcc, +0x30   <0x1000092bc>
    0x100009290:            01 00 00 00  nop
    0x100009294:            02 c5 c0 0a  brz,pn    %l7, +0x28    <0x1000092bc>
    0x100009298:            9b 3a 30 3f  srax      %o0, 0x3f, %o5
    0x10000929c:            9e 1a 00 0d  xor       %o0, %o5, %o7
    0x1000092a0:            84 23 c0 0d  sub       %o7, %o5, %g2
    0x1000092a4:            96 88 80 04  andcc     %g2, %g4, %o3
    0x1000092a8:            92 1a c0 0d  xor       %o3, %o5, %o1
    0x1000092ac:            90 22 40 0d  sub       %o1, %o5, %o0
    0x1000092b0:            97 66 50 08  movne     %xcc, %o0, %o3
    0x1000092b4:            10 80 00 06  ba        +0x18         <0x1000092cc>
    0x1000092b8:            98 02 c0 16  add       %o3, %l6, %o4
    0x1000092bc:            87 6a 00 17  sdivx     %o0, %l7, %g3
    0x1000092c0:            94 48 c0 17  mulx      %g3, %l7, %o2
    0x1000092c4:            96 22 00 0a  sub       %o0, %o2, %o3
    0x1000092c8:            98 02 c0 16  add       %o3, %l6, %o4
    0x1000092cc:            83 2b 30 02  sllx      %o4, 0x2, %g1
    0x1000092d0:            f0 04 40 01  ld        [%l1 + %g1], %i0
    0x1000092d4:            ac 05 a0 01  add       %l6, 0x1, %l6
    0x1000092d8:            f0 25 60 00  st        %i0, [%l5]
    0x1000092dc:            ca 24 40 01  st        %g5, [%l1 + %g1]
    0x1000092e0:            80 a5 80 13  cmp       %l6, %l3
    0x1000092e4:            ae 10 00 04  mov       %g4, %l7
    0x1000092e8:            aa 05 60 04  add       %l5, 0x4, %l5
    0x1000092ec:            24 6f ff d3  ble,a,pt  %xcc, -0xb4   <0x100009238>
    0x1000092f0:            eb 3b a9 57  std       %d52, [%sp + 0x957]
    0x1000092f4:            c2 5b a8 ff  ldx       [%sp + 0x8ff], %g1
    0x1000092f8:            04 c0 40 3f  brlez,pn  %g1, +0xfc    <0x1000093f4>
    0x1000092fc:            97 3c 30 3f  srax      %l0, 0x3f, %o3
    0x100009300:            b0 24 a0 01  sub       %l2, 0x1, %i0
    0x100009304:            90 1c 00 0b  xor       %l0, %o3, %o0
    0x100009308:            80 8c 80 18  btst      %i0, %l2
    0x10000930c:            ac 22 00 0b  sub       %o0, %o3, %l6
    0x100009310:            12 60 00 06  bne,pn    %xcc, +0x18   <0x100009328>
    0x100009314:            aa 10 20 00  clr       %l5
    0x100009318:            02 c4 80 04  brz,pn    %l2, +0x10    <0x100009328>
    0x10000931c:            b0 10 20 00  clr       %i0
    0x100009320:            10 80 00 06  ba        +0x18         <0x100009338>
    0x100009324:            89 a0 19 31  fstod     %f17, %d4
    0x100009328:            89 68 00 12  sdivx     %g0, %l2, %g4
    0x10000932c:            8a 49 00 12  mulx      %g4, %l2, %g5
    0x100009330:            89 a0 19 31  fstod     %f17, %d4
    0x100009334:            b0 20 00 05  neg       %g5, %i0
    0x100009338:            c9 3b a9 f7  std       %d4, [%sp + 0x9f7]
    0x10000933c:            ae 05 bf ff  add       %l6, -0x1, %l7
    0x100009340:            87 2e 30 02  sllx      %i0, 0x2, %g3
    0x100009344:            f3 3b a9 47  std       %d56, [%sp + 0x947]
    0x100009348:            e3 23 a9 4f  st        %f17, [%sp + 0x94f]
    0x10000934c:            eb 3b a9 57  std       %d52, [%sp + 0x957]
    0x100009350:            e7 3b a9 5f  std       %d50, [%sp + 0x95f]
    0x100009354:            c3 3b a9 67  std       %d32, [%sp + 0x967]
    0x100009358:            d4 00 c0 11  ld        [%g3 + %l1], %o2
    0x10000935c:            9a 10 00 1d  mov       %i5, %o5
    0x100009360:            92 10 00 1b  mov       %i3, %o1
    0x100009364:            91 3a a0 00  sra       %o2, 0x0, %o0
    0x100009368:            98 10 00 1a  mov       %i2, %o4
    0x10000936c:            96 07 20 20  add       %i4, 0x20, %o3
    0x100009370:            ef 3b a9 3f  std       %d54, [%sp + 0x93f]
    0x100009374:            d7 3b a9 2f  std       %d42, [%sp + 0x92f]
    0x100009378:            c7 3b a9 37  std       %d34, [%sp + 0x937]
    0x10000937c:            aa 05 60 01  add       %l5, 0x1, %l5
    0x100009380:            7f ff e7 0f  call      -0x63c4       <0x100002fbc>
    0x100009384:            cb 3b a9 27  std       %d36, [%sp + 0x927]
    0x100009388:            9f 35 70 3f  srlx      %l5, 0x3f, %o7
    0x10000938c:            92 1b e0 01  xor       %o7, 0x1, %o1
    0x100009390:            e7 1b a9 5f  ldd       [%sp + 0x95f], %d50
    0x100009394:            9a 20 00 09  neg       %o1, %o5
    0x100009398:            96 0b 40 17  and       %o5, %l7, %o3
    0x10000939c:            c9 1b a9 f7  ldd       [%sp + 0x9f7], %d4
    0x1000093a0:            84 06 20 01  add       %i0, 0x1, %g2
    0x1000093a4:            eb 1b a9 57  ldd       [%sp + 0x957], %d52
    0x1000093a8:            82 02 e0 01  add       %o3, 0x1, %g1
    0x1000093ac:            c7 1b a9 37  ldd       [%sp + 0x937], %d34
    0x1000093b0:            b0 18 80 01  xor       %g2, %g1, %i0
    0x1000093b4:            cb 1b a9 27  ldd       [%sp + 0x927], %d36
    0x1000093b8:            88 10 20 00  clr       %g4
    0x1000093bc:            d7 1b a9 2f  ldd       [%sp + 0x92f], %d42
    0x1000093c0:            89 7e 24 01  movre     %i0, 0x1, %g4
    0x1000093c4:            8a 20 00 04  neg       %g4, %g5
    0x1000093c8:            ef 1b a9 3f  ldd       [%sp + 0x93f], %d54
    0x1000093cc:            91 39 60 00  sra       %g5, 0x0, %o0
    0x1000093d0:            f3 1b a9 47  ldd       [%sp + 0x947], %d56
    0x1000093d4:            86 0a 00 16  and       %o0, %l6, %g3
    0x1000093d8:            e3 03 a9 4f  ld        [%sp + 0x94f], %f17
    0x1000093dc:            a7 a4 c8 40  faddd     %d50, %d0, %d50
    0x1000093e0:            80 a5 40 14  cmp       %l5, %l4
    0x1000093e4:            c3 1b a9 67  ldd       [%sp + 0x967], %d32
    0x1000093e8:            b0 20 80 03  sub       %g2, %g3, %i0
    0x1000093ec:            24 6f ff d5  ble,a,pt  %xcc, -0xac   <0x100009340>
    0x1000093f0:            c9 3b a9 f7  std       %d4, [%sp + 0x9f7]
    0x1000093f4:            83 a0 48 d3  fsubd     %d32, %d50, %d32
    0x1000093f8:            cf 1e 60 20  ldd       [%i1 + 0x20], %d38
    0x1000093fc:            a3 a4 c9 c1  fdivd     %d50, %d32, %d48
    0x100009400:            81 ac 4a c7  fcmped    %fcc0, %d48, %d38
    0x100009404:            2d 4f ff 82  fbg,a,pt  %fcc0, -0x1f8  <0x10000920c>
    0x100009408:            ec 03 a8 b7  ld        [%sp + 0x8b7], %l6
    0x10000940c:            e0 07 3f ec  ld        [%i4 - 0x14], %l0
    0x100009410:            e4 5b a8 c7  ldx       [%sp + 0x8c7], %l2
    0x100009414:            a3 3c 20 00  sra       %l0, 0x0, %l1
    0x100009418:            a6 4c 40 12  mulx      %l1, %l2, %l3
    0x10000941c:            e6 73 a9 f7  stx       %l3, [%sp + 0x9f7]
    0x100009420:            df 1b a9 f7  ldd       [%sp + 0x9f7], %d46
    0x100009424:            a7 a0 11 0f  fxtod     %d46, %d50
    0x100009428:            f7 1f 20 20  ldd       [%i4 + 0x20], %d58
    0x10000942c:            a9 a0 18 c1  fdtos     %d32, %f20
    0x100009430:            a3 a0 11 1b  fxtod     %d58, %d48
    0x100009434:            83 ac 4a d9  fcmped    %fcc1, %d48, %d56
    0x100009438:            0b 50 00 07  fbug,pn   %fcc1, +0x1c   <0x100009454>
    0x10000943c:            83 a0 19 34  fstod     %f20, %d32
    0x100009440:            cf 1e 60 28  ldd       [%i1 + 0x28], %d38
    0x100009444:            9b a5 c9 47  fmuld     %d54, %d38, %d44
    0x100009448:            85 ac 4a cd  fcmped    %fcc2, %d48, %d44
    0x10000944c:            37 60 00 0b  fbge,a,pn %fcc2, +0x2c   <0x100009478>
    0x100009450:            b7 a0 49 c1  fdivd     %d32, %d32, %d58
    0x100009454:            e4 5f 20 20  ldx       [%i4 + 0x20], %l2
    0x100009458:            c8 5b a8 e7  ldx       [%sp + 0x8e7], %g4
    0x10000945c:            80 a4 80 04  cmp       %l2, %g4
    0x100009460:            14 60 00 a2  bg,pn     %xcc, +0x288  <0x1000096e8>
    0x100009464:            ca 5b a8 df  ldx       [%sp + 0x8df], %g5
    0x100009468:            80 a4 80 05  cmp       %l2, %g5
    0x10000946c:            26 60 00 a0  bl,a,pn   %xcc, +0x280  <0x1000096ec>
    0x100009470:            e0 5f 20 20  ldx       [%i4 + 0x20], %l0
    0x100009474:            b7 a0 49 c1  fdivd     %d32, %d32, %d58
    0x100009478:            d3 1e 60 30  ldd       [%i1 + 0x30], %d40
    0x10000947c:            87 ae ca c9  fcmped    %fcc3, %d58, %d40
    0x100009480:            1d 70 00 98  fbule,pn  %fcc3, +0x260  <0x1000096e0>
    0x100009484:            d4 07 20 30  ld        [%i4 + 0x30], %o2
    0x100009488:            9b a4 c9 55  fmuld     %d50, %d52, %d44
    0x10000948c:            d4 23 a9 07  st        %o2, [%sp + 0x907]
    0x100009490:            a1 3a a0 00  sra       %o2, 0x0, %l0
    0x100009494:            94 10 20 00  clr       %o2
    0x100009498:            95 7c 24 01  movre     %l0, 0x1, %o2
    0x10000949c:            e2 5f 20 28  ldx       [%i4 + 0x28], %l1
    0x1000094a0:            bb a0 10 4d  fdtox     %d44, %d60
    0x1000094a4:            fb 3b a9 1f  std       %d60, [%sp + 0x91f]
    0x1000094a8:            d2 5b a9 1f  ldx       [%sp + 0x91f], %o1
    0x1000094ac:            a4 04 00 0a  add       %l0, %o2, %l2
    0x1000094b0:            a6 04 3f ff  add       %l0, -0x1, %l3
    0x1000094b4:            c6 03 a8 b7  ld        [%sp + 0x8b7], %g3
    0x1000094b8:            a8 02 7f ff  add       %o1, -0x1, %l4
    0x1000094bc:            c4 5b a8 cf  ldx       [%sp + 0x8cf], %g2
    0x1000094c0:            80 a0 e0 00  cmp       %g3, 0x0
    0x1000094c4:            d3 18 a1 38  ldd       [%g2 + 0x138], %d40
    0x1000094c8:            12 40 00 37  bne,pn    %icc, +0xdc   <0x1000095a4>
    0x1000094cc:            c8 03 a9 07  ld        [%sp + 0x907], %g4
    0x1000094d0:            80 a1 20 00  cmp       %g4, 0x0
    0x1000094d4:            04 40 00 34  ble,pn    %icc, +0xd0   <0x1000095a4>
    0x1000094d8:            ac 10 20 00  clr       %l6
    0x1000094dc:            aa 10 00 11  mov       %l1, %l5
    0x1000094e0:            c3 3b a9 77  std       %d32, [%sp + 0x977]
    0x1000094e4:            ae 10 00 10  mov       %l0, %l7
    0x1000094e8:            d7 3b a9 2f  std       %d42, [%sp + 0x92f]
    0x1000094ec:            c7 3b a9 37  std       %d34, [%sp + 0x937]
    0x1000094f0:            ef 3b a9 3f  std       %d54, [%sp + 0x93f]
    0x1000094f4:            f3 3b a9 47  std       %d56, [%sp + 0x947]
    0x1000094f8:            e3 23 a9 4f  st        %f17, [%sp + 0x94f]
    0x1000094fc:            eb 3b a9 57  std       %d52, [%sp + 0x957]
    0x100009500:            d3 3b a9 6f  std       %d40, [%sp + 0x96f]
    0x100009504:            40 04 21 f7  call      +0x1087dc     <0x100111ce0>
    0x100009508:            cb 3b a9 27  std       %d36, [%sp + 0x927]
    0x10000950c:            c8 05 60 00  ld        [%l5], %g4
    0x100009510:            c3 1b a9 77  ldd       [%sp + 0x977], %d32
    0x100009514:            eb 1b a9 57  ldd       [%sp + 0x957], %d52
    0x100009518:            c7 1b a9 37  ldd       [%sp + 0x937], %d34
    0x10000951c:            cb 1b a9 27  ldd       [%sp + 0x927], %d36
    0x100009520:            d7 1b a9 2f  ldd       [%sp + 0x92f], %d42
    0x100009524:            ef 1b a9 3f  ldd       [%sp + 0x93f], %d54
    0x100009528:            f3 1b a9 47  ldd       [%sp + 0x947], %d56
    0x10000952c:            b0 25 e0 01  sub       %l7, 0x1, %i0
    0x100009530:            e3 03 a9 4f  ld        [%sp + 0x94f], %f17
    0x100009534:            80 8d c0 18  btst      %i0, %l7
    0x100009538:            d3 1b a9 6f  ldd       [%sp + 0x96f], %d40
    0x10000953c:            12 60 00 0c  bne,pn    %xcc, +0x30   <0x10000956c>
    0x100009540:            01 00 00 00  nop
    0x100009544:            02 c5 c0 0a  brz,pn    %l7, +0x28    <0x10000956c>
    0x100009548:            9b 3a 30 3f  srax      %o0, 0x3f, %o5
    0x10000954c:            9e 1a 00 0d  xor       %o0, %o5, %o7
    0x100009550:            84 23 c0 0d  sub       %o7, %o5, %g2
    0x100009554:            96 88 80 18  andcc     %g2, %i0, %o3
    0x100009558:            92 1a c0 0d  xor       %o3, %o5, %o1
    0x10000955c:            90 22 40 0d  sub       %o1, %o5, %o0
    0x100009560:            97 66 50 08  movne     %xcc, %o0, %o3
    0x100009564:            10 80 00 06  ba        +0x18         <0x10000957c>
    0x100009568:            98 02 c0 16  add       %o3, %l6, %o4
    0x10000956c:            87 6a 00 17  sdivx     %o0, %l7, %g3
    0x100009570:            94 48 c0 17  mulx      %g3, %l7, %o2
    0x100009574:            96 22 00 0a  sub       %o0, %o2, %o3
    0x100009578:            98 02 c0 16  add       %o3, %l6, %o4
    0x10000957c:            83 2b 30 02  sllx      %o4, 0x2, %g1
    0x100009580:            ae 10 00 18  mov       %i0, %l7
    0x100009584:            f0 04 40 01  ld        [%l1 + %g1], %i0
    0x100009588:            f0 25 60 00  st        %i0, [%l5]
    0x10000958c:            ac 05 a0 01  add       %l6, 0x1, %l6
    0x100009590:            c8 24 40 01  st        %g4, [%l1 + %g1]
    0x100009594:            80 a5 80 13  cmp       %l6, %l3
    0x100009598:            aa 05 60 04  add       %l5, 0x4, %l5
    0x10000959c:            24 6f ff d3  ble,a,pt  %xcc, -0xb4   <0x1000094e8>
    0x1000095a0:            c3 3b a9 77  std       %d32, [%sp + 0x977]
    0x1000095a4:            ca 5b a9 1f  ldx       [%sp + 0x91f], %g5
    0x1000095a8:            04 c1 40 3f  brlez,pn  %g5, +0xfc    <0x1000096a4>
    0x1000095ac:            8b 3c 30 3f  srax      %l0, 0x3f, %g5
    0x1000095b0:            9e 24 a0 01  sub       %l2, 0x1, %o7
    0x1000095b4:            92 1c 00 05  xor       %l0, %g5, %o1
    0x1000095b8:            80 8c 80 0f  btst      %o7, %l2
    0x1000095bc:            ac 22 40 05  sub       %o1, %g5, %l6
    0x1000095c0:            12 60 00 06  bne,pn    %xcc, +0x18   <0x1000095d8>
    0x1000095c4:            aa 10 20 00  clr       %l5
    0x1000095c8:            02 c4 80 04  brz,pn    %l2, +0x10    <0x1000095d8>
    0x1000095cc:            b0 10 20 00  clr       %i0
    0x1000095d0:            10 80 00 06  ba        +0x18         <0x1000095e8>
    0x1000095d4:            89 a0 19 31  fstod     %f17, %d4
    0x1000095d8:            89 68 00 12  sdivx     %g0, %l2, %g4
    0x1000095dc:            8a 49 00 12  mulx      %g4, %l2, %g5
    0x1000095e0:            89 a0 19 31  fstod     %f17, %d4
    0x1000095e4:            b0 20 00 05  neg       %g5, %i0
    0x1000095e8:            c9 3b a9 f7  std       %d4, [%sp + 0x9f7]
    0x1000095ec:            ae 05 bf ff  add       %l6, -0x1, %l7
    0x1000095f0:            95 2e 30 02  sllx      %i0, 0x2, %o2
    0x1000095f4:            f3 3b a9 47  std       %d56, [%sp + 0x947]
    0x1000095f8:            e3 23 a9 4f  st        %f17, [%sp + 0x94f]
    0x1000095fc:            eb 3b a9 57  std       %d52, [%sp + 0x957]
    0x100009600:            d3 3b a9 6f  std       %d40, [%sp + 0x96f]
    0x100009604:            c3 3b a9 77  std       %d32, [%sp + 0x977]
    0x100009608:            de 02 80 11  ld        [%o2 + %l1], %o7
    0x10000960c:            9a 10 00 1d  mov       %i5, %o5
    0x100009610:            92 10 00 1b  mov       %i3, %o1
    0x100009614:            91 3b e0 00  sra       %o7, 0x0, %o0
    0x100009618:            98 10 00 1a  mov       %i2, %o4
    0x10000961c:            96 07 20 20  add       %i4, 0x20, %o3
    0x100009620:            ef 3b a9 3f  std       %d54, [%sp + 0x93f]
    0x100009624:            d7 3b a9 2f  std       %d42, [%sp + 0x92f]
    0x100009628:            c7 3b a9 37  std       %d34, [%sp + 0x937]
    0x10000962c:            aa 05 60 01  add       %l5, 0x1, %l5
    0x100009630:            7f ff e6 63  call      -0x6674       <0x100002fbc>
    0x100009634:            cb 3b a9 27  std       %d36, [%sp + 0x927]
    0x100009638:            93 35 70 3f  srlx      %l5, 0x3f, %o1
    0x10000963c:            9a 1a 60 01  xor       %o1, 0x1, %o5
    0x100009640:            d3 1b a9 6f  ldd       [%sp + 0x96f], %d40
    0x100009644:            96 20 00 0d  neg       %o5, %o3
    0x100009648:            82 0a c0 17  and       %o3, %l7, %g1
    0x10000964c:            c9 1b a9 f7  ldd       [%sp + 0x9f7], %d4
    0x100009650:            84 06 20 01  add       %i0, 0x1, %g2
    0x100009654:            c3 1b a9 77  ldd       [%sp + 0x977], %d32
    0x100009658:            98 00 60 01  add       %g1, 0x1, %o4
    0x10000965c:            eb 1b a9 57  ldd       [%sp + 0x957], %d52
    0x100009660:            8a 18 80 0c  xor       %g2, %o4, %g5
    0x100009664:            c7 1b a9 37  ldd       [%sp + 0x937], %d34
    0x100009668:            b0 10 20 00  clr       %i0
    0x10000966c:            cb 1b a9 27  ldd       [%sp + 0x927], %d36
    0x100009670:            b1 79 64 01  movre     %g5, 0x1, %i0
    0x100009674:            88 20 00 18  neg       %i0, %g4
    0x100009678:            d7 1b a9 2f  ldd       [%sp + 0x92f], %d42
    0x10000967c:            91 39 20 00  sra       %g4, 0x0, %o0
    0x100009680:            ef 1b a9 3f  ldd       [%sp + 0x93f], %d54
    0x100009684:            94 0a 00 16  and       %o0, %l6, %o2
    0x100009688:            f3 1b a9 47  ldd       [%sp + 0x947], %d56
    0x10000968c:            93 a2 48 40  faddd     %d40, %d0, %d40
    0x100009690:            80 a5 40 14  cmp       %l5, %l4
    0x100009694:            e3 03 a9 4f  ld        [%sp + 0x94f], %f17
    0x100009698:            b0 20 80 0a  sub       %g2, %o2, %i0
    0x10000969c:            24 6f ff d5  ble,a,pt  %xcc, -0xac   <0x1000095f0>
    0x1000096a0:            c9 3b a9 f7  std       %d4, [%sp + 0x9f7]
    0x1000096a4:            83 a0 48 c9  fsubd     %d32, %d40, %d32
    0x1000096a8:            fb 1e 60 30  ldd       [%i1 + 0x30], %d60
    0x1000096ac:            bf a2 49 c1  fdivd     %d40, %d32, %d62
    0x1000096b0:            81 af ca dd  fcmped    %fcc0, %d62, %d60
    0x1000096b4:            2d 4f ff 82  fbg,a,pt  %fcc0, -0x1f8  <0x1000094bc>
    0x1000096b8:            c6 03 a8 b7  ld        [%sp + 0x8b7], %g3
    0x1000096bc:            e8 07 3f ec  ld        [%i4 - 0x14], %l4
    0x1000096c0:            da 5b a8 c7  ldx       [%sp + 0x8c7], %o5
    0x1000096c4:            e3 1f 20 20  ldd       [%i4 + 0x20], %d48
    0x1000096c8:            91 3d 20 00  sra       %l4, 0x0, %o0
    0x1000096cc:            96 4a 00 0d  mulx      %o0, %o5, %o3
    0x1000096d0:            d6 73 a9 f7  stx       %o3, [%sp + 0x9f7]
    0x1000096d4:            e7 1b a9 f7  ldd       [%sp + 0x9f7], %d50
    0x1000096d8:            a3 a0 11 11  fxtod     %d48, %d48
    0x1000096dc:            a7 a0 11 13  fxtod     %d50, %d50
    0x1000096e0:            91 a0 18 c1  fdtos     %d32, %f8
    0x1000096e4:            83 a0 19 28  fstod     %f8, %d32
    0x1000096e8:            e0 5f 20 20  ldx       [%i4 + 0x20], %l0
    0x1000096ec:            e4 5b a8 c7  ldx       [%sp + 0x8c7], %l2
    0x1000096f0:            80 a4 00 12  cmp       %l0, %l2
    0x1000096f4:            04 60 00 14  ble,pn    %xcc, +0x50   <0x100009744>
    0x1000096f8:            db 1e 60 08  ldd       [%i1 + 0x8], %d44
    0x1000096fc:            bb a2 c8 45  faddd     %d42, %d36, %d60
    0x100009700:            87 a0 00 45  fmovd     %d36, %d34
    0x100009704:            e2 5b a8 bf  ldx       [%sp + 0x8bf], %l1
    0x100009708:            80 a4 00 11  cmp       %l0, %l1
    0x10000970c:            8b a7 49 4d  fmuld     %d60, %d44, %d36
    0x100009710:            9f a1 48 c3  fsubd     %d36, %d34, %d46
    0x100009714:            bf a3 c9 51  fmuld     %d46, %d48, %d62
    0x100009718:            16 60 00 15  bge,pn    %xcc, +0x54   <0x10000976c>
    0x10000971c:            83 a0 48 5f  faddd     %d32, %d62, %d32
    0x100009720:            b7 a1 48 43  faddd     %d36, %d34, %d58
    0x100009724:            df 1e 60 08  ldd       [%i1 + 0x8], %d46
    0x100009728:            97 a0 00 45  fmovd     %d36, %d42
    0x10000972c:            8b a6 c9 4f  fmuld     %d58, %d46, %d36
    0x100009730:            8f a1 48 cb  fsubd     %d36, %d42, %d38
    0x100009734:            a3 a1 c9 51  fmuld     %d38, %d48, %d48
    0x100009738:            83 a0 48 51  faddd     %d32, %d48, %d32
    0x10000973c:            10 80 00 0d  ba        +0x34         <0x100009770>
    0x100009740:            df 1e 60 38  ldd       [%i1 + 0x38], %d46
    0x100009744:            e8 5b a8 bf  ldx       [%sp + 0x8bf], %l4
    0x100009748:            80 a4 00 14  cmp       %l0, %l4
    0x10000974c:            16 60 00 0d  bge,pn    %xcc, +0x34   <0x100009780>
    0x100009750:            d3 1e 60 08  ldd       [%i1 + 0x8], %d40
    0x100009754:            b7 a1 48 43  faddd     %d36, %d34, %d58
    0x100009758:            97 a0 00 45  fmovd     %d36, %d42
    0x10000975c:            8b a6 c9 49  fmuld     %d58, %d40, %d36
    0x100009760:            8f a1 48 cb  fsubd     %d36, %d42, %d38
    0x100009764:            a3 a1 c9 51  fmuld     %d38, %d48, %d48
    0x100009768:            83 a0 48 51  faddd     %d32, %d48, %d32
    0x10000976c:            df 1e 60 38  ldd       [%i1 + 0x38], %d46
    0x100009770:            bf a2 c9 4f  fmuld     %d42, %d46, %d62
    0x100009774:            83 a8 ca df  fcmped    %fcc1, %d34, %d62
    0x100009778:            27 5f fe 93  fbul,a,pt %fcc1, -0x5b4  <0x1000091c4>
    0x10000977c:            9f a0 49 c1  fdivd     %d32, %d32, %d46
    0x100009780:            f2 03 a8 b7  ld        [%sp + 0x8b7], %i1
    0x100009784:            80 a6 60 00  cmp       %i1, 0x0
    0x100009788:            12 40 00 16  bne,pn    %icc, +0x58   <0x1000097e0>
    0x10000978c:            01 00 00 00  nop
    0x100009790:            40 04 21 64  call      +0x108590     <0x100111d20>
    0x100009794:            d0 5f 20 28  ldx       [%i4 + 0x28], %o0
    0x100009798:            40 04 21 62  call      +0x108588     <0x100111d20>
    0x10000979c:            d0 5f 20 38  ldx       [%i4 + 0x38], %o0
    0x1000097a0:            f8 5f 20 20  ldx       [%i4 + 0x20], %i4
    0x1000097a4:            f6 5b a8 af  ldx       [%sp + 0x8af], %i3
    0x1000097a8:            f8 76 e0 00  stx       %i4, [%i3]
    0x1000097ac:            81 c7 e0 08  ret
    0x1000097b0:            91 e8 20 00  restore   %g0, 0x0, %o0
    0x1000097b4:            10 80 00 00  ba        +0x0          <0x1000097b4>
    0x1000097b8:            01 00 00 00  nop
    0x1000097bc:            fa 03 a8 b7  ld        [%sp + 0x8b7], %i5
    0x1000097c0:            80 a7 60 00  cmp       %i5, 0x0
    0x1000097c4:            12 40 00 07  bne,pn    %icc, +0x1c   <0x1000097e0>
    0x1000097c8:            01 00 00 00  nop
    0x1000097cc:            40 04 21 55  call      +0x108554     <0x100111d20>
    0x1000097d0:            d0 5f 20 38  ldx       [%i4 + 0x38], %o0
    0x1000097d4:            f4 5b a8 af  ldx       [%sp + 0x8af], %i2
    0x1000097d8:            f6 5f 20 20  ldx       [%i4 + 0x20], %i3
    0x1000097dc:            f6 76 a0 00  stx       %i3, [%i2]
    0x1000097e0:            81 c7 e0 08  ret
    0x1000097e4:            91 e8 20 00  restore   %g0, 0x0, %o0
    0x1000097e8:            00 00 00 00  illtrap   0x0
    0x1000097ec:            00 00 00 00  illtrap   0x0
    0x1000097f0:            3f e0 00 00  0x3fe00000
    0x1000097f4:            00 00 00 00  illtrap   0x0
    0x1000097f8:            3f 80 00 00  fbo,a     +0x0          <0x1000097f8>
    0x1000097fc:            30 00 00 00  illtrap   0x0
    0x100009800:            3f f1 99 99  0x3ff19999
    0x100009804:            99 99 99 9a  0x9999999a
    0x100009808:            3f b9 99 99  fbo,a     -0x19999c     <0xffe6fe6c>
    0x10000980c:            a0 00 00 00  add       %g0, %g0, %l0
    0x100009810:            3f ec cc cc  0x3feccccc
    0x100009814:            cc cc cc cd  ldsba     [%l3 + %o5] 0x66, %g6
    0x100009818:            3f 50 62 4d  fbo,a,pn  %fcc1, +0x18934 <0x10002214c>
    0x10000981c:            e0 00 00 00  ld        [%g0], %l0
    0x100009820:            3f ef f7 ce  0x3feff7ce
    0x100009824:            d9 16 87 2b  ldq       [%i2 + %o3], %f12
    0x100009828:            00 00 00 00  illtrap   0x0
__1cLlocalSearch6FpnGPoints_llpl_v_()
    0x10000982c:            9d e3 bb 10  save      %sp, -0x4f0, %sp
    0x100009830:            3b 00 04 00  sethi     %hi(0x100000), %i5
    0x100009834:            f6 73 a8 bf  stx       %i3, [%sp + 0x8bf]
    0x100009838:            b8 17 61 12  or        %i5, 0x112, %i4
    0x10000983c:            f2 73 a8 d7  stx       %i1, [%sp + 0x8d7]
    0x100009840:            b9 2f 30 0c  sllx      %i4, 0xc, %i4
    0x100009844:            f6 07 25 18  ld        [%i4 + 0x518], %i3
    0x100009848:            f8 73 a8 c7  stx       %i4, [%sp + 0x8c7]
    0x10000984c:            f4 73 a8 cf  stx       %i2, [%sp + 0x8cf]
    0x100009850:            f0 73 a8 df  stx       %i0, [%sp + 0x8df]
    0x100009854:            a1 3e e0 00  sra       %i3, 0x0, %l0
    0x100009858:            40 04 21 52  call      +0x108548     <0x100111da0>
    0x10000985c:            91 2c 30 02  sllx      %l0, 0x2, %o0
    0x100009860:            e2 07 25 18  ld        [%i4 + 0x518], %l1
    0x100009864:            d0 73 a8 af  stx       %o0, [%sp + 0x8af]
    0x100009868:            b3 3c 60 00  sra       %l1, 0x0, %i1
    0x10000986c:            a5 2e 70 02  sllx      %i1, 0x2, %l2
    0x100009870:            a8 24 80 19  sub       %l2, %i1, %l4
    0x100009874:            40 04 21 4b  call      +0x10852c     <0x100111da0>
    0x100009878:            91 2d 30 04  sllx      %l4, 0x4, %o0
    0x10000987c:            ec 07 25 18  ld        [%i4 + 0x518], %l6
    0x100009880:            80 a5 a0 00  cmp       %l6, 0x0
    0x100009884:            04 40 05 81  ble,pn    %icc, +0x1604 <0x10000ae88>
    0x100009888:            d0 73 a8 b7  stx       %o0, [%sp + 0x8b7]
    0x10000988c:            2b 00 04 00  sethi     %hi(0x100000), %l5
    0x100009890:            86 15 60 09  or        %l5, 0x9, %g3
    0x100009894:            ba 07 25 18  add       %i4, 0x518, %i5
    0x100009898:            b7 28 f0 0c  sllx      %g3, 0xc, %i3
    0x10000989c:            c0 23 a8 e7  clr       [%sp + 0x8e7]
    0x1000098a0:            b8 06 e7 e8  add       %i3, 0x7e8, %i4
    0x1000098a4:            d0 73 a8 ef  stx       %o0, [%sp + 0x8ef]
    0x1000098a8:            aa 10 00 08  mov       %o0, %l5
    0x1000098ac:            d4 5b a8 b7  ldx       [%sp + 0x8b7], %o2
    0x1000098b0:            e4 5b a8 df  ldx       [%sp + 0x8df], %l2
    0x1000098b4:            ec 5b a8 bf  ldx       [%sp + 0x8bf], %l6
    0x1000098b8:            ee 5b a8 cf  ldx       [%sp + 0x8cf], %l7
    0x1000098bc:            f0 5b a8 d7  ldx       [%sp + 0x8d7], %i0
    0x1000098c0:            e8 03 a8 e7  ld        [%sp + 0x8e7], %l4
    0x1000098c4:            e4 75 60 00  stx       %l2, [%l5]
    0x1000098c8:            f0 75 60 08  stx       %i0, [%l5 + 0x8]
    0x1000098cc:            ee 75 60 10  stx       %l7, [%l5 + 0x10]
    0x1000098d0:            ec 75 60 18  stx       %l6, [%l5 + 0x18]
    0x1000098d4:            e8 25 60 20  st        %l4, [%l5 + 0x20]
    0x1000098d8:            9e 07 a7 b7  add       %fp, 0x7b7, %o7
    0x1000098dc:            de 75 60 28  stx       %o7, [%l5 + 0x28]
    0x1000098e0:            d6 02 a0 20  ld        [%o2 + 0x20], %o3
    0x1000098e4:            da 5a a0 08  ldx       [%o2 + 0x8], %o5
    0x1000098e8:            e6 5a a0 10  ldx       [%o2 + 0x10], %l3
    0x1000098ec:            d8 5a a0 18  ldx       [%o2 + 0x18], %o4
    0x1000098f0:            e0 5a a0 00  ldx       [%o2], %l0
    0x1000098f4:            d6 23 a8 ff  st        %o3, [%sp + 0x8ff]
    0x1000098f8:            e4 5a a0 28  ldx       [%o2 + 0x28], %l2
    0x1000098fc:            da 73 a9 07  stx       %o5, [%sp + 0x907]
    0x100009900:            d8 73 a8 f7  stx       %o4, [%sp + 0x8f7]
    0x100009904:            e6 73 a9 0f  stx       %l3, [%sp + 0x90f]
    0x100009908:            80 a2 e0 00  cmp       %o3, 0x0
    0x10000990c:            12 40 00 07  bne,pn    %icc, +0x1c   <0x100009928>
    0x100009910:            c4 5b a8 c7  ldx       [%sp + 0x8c7], %g2
    0x100009914:            92 10 20 08  mov       0x8, %o1
    0x100009918:            d4 00 a5 18  ld        [%g2 + 0x518], %o2
    0x10000991c:            40 04 21 11  call      +0x108444     <0x100111d60>
    0x100009920:            91 3a a0 00  sra       %o2, 0x0, %o0
    0x100009924:            d0 77 60 50  stx       %o0, [%i5 + 0x50]
    0x100009928:            e2 5b a8 c7  ldx       [%sp + 0x8c7], %l1
    0x10000992c:            d8 5c 20 00  ldx       [%l0], %o4
    0x100009930:            cb 1e e7 e8  ldd       [%i3 + 0x7e8], %d36
    0x100009934:            c6 04 65 18  ld        [%l1 + 0x518], %g3
    0x100009938:            89 38 e0 00  sra       %g3, 0x0, %g4
    0x10000993c:            97 6b 00 04  sdivx     %o4, %g4, %o3
    0x100009940:            9a 00 ff ff  add       %g3, -0x1, %o5
    0x100009944:            c8 03 a8 ff  ld        [%sp + 0x8ff], %g4
    0x100009948:            a3 39 20 00  sra       %g4, 0x0, %l1
    0x10000994c:            b2 4a c0 11  mulx      %o3, %l1, %i1
    0x100009950:            aa 06 40 0b  add       %i1, %o3, %l5
    0x100009954:            80 a1 00 0d  cmp       %g4, %o5
    0x100009958:            ab 64 40 0c  move      %icc, %o4, %l5
    0x10000995c:            80 a6 40 15  cmp       %i1, %l5
    0x100009960:            87 2c 70 03  sllx      %l1, 0x3, %g3
    0x100009964:            16 60 00 9e  bge,pn    %xcc, +0x278  <0x100009bdc>
    0x100009968:            c6 73 a9 17  stx       %g3, [%sp + 0x917]
    0x10000996c:            c4 5c 20 10  ldx       [%l0 + 0x10], %g2
    0x100009970:            f4 04 20 08  ld        [%l0 + 0x8], %i2
    0x100009974:            af 2e 70 05  sllx      %i1, 0x5, %l7
    0x100009978:            9a 05 7f ff  add       %l5, -0x1, %o5
    0x10000997c:            c8 58 a0 08  ldx       [%g2 + 0x8], %g4
    0x100009980:            98 06 bf ff  add       %i2, -0x1, %o4
    0x100009984:            94 10 00 19  mov       %i1, %o2
    0x100009988:            e1 07 20 40  ld        [%i4 + 0x40], %f16
    0x10000998c:            8a 05 c0 02  add       %l7, %g2, %g5
    0x100009990:            80 a6 a0 00  cmp       %i2, 0x0
    0x100009994:            ec 59 60 08  ldx       [%g5 + 0x8], %l6
    0x100009998:            04 40 00 75  ble,pn    %icc, +0x1d4  <0x100009b6c>
    0x10000999c:            a6 10 20 00  clr       %l3
    0x1000099a0:            80 a6 a0 11  cmp       %i2, 0x11
    0x1000099a4:            ae 10 00 04  mov       %g4, %l7
    0x1000099a8:            06 40 00 66  bl,pn     %icc, +0x198  <0x100009b40>
    0x1000099ac:            01 00 00 00  nop
    0x1000099b0:            c3 05 a0 00  ld        [%l6], %f1
    0x1000099b4:            f5 05 a0 24  ld        [%l6 + 0x24], %f26
    0x1000099b8:            e3 05 a0 0c  ld        [%l6 + 0xc], %f17
    0x1000099bc:            c1 05 a0 20  ld        [%l6 + 0x20], %f0
    0x1000099c0:            d3 05 a0 08  ld        [%l6 + 0x8], %f9
    0x1000099c4:            eb 05 a0 14  ld        [%l6 + 0x14], %f21
    0x1000099c8:            cd 05 a0 28  ld        [%l6 + 0x28], %f6
    0x1000099cc:            e7 05 a0 10  ld        [%l6 + 0x10], %f19
    0x1000099d0:            c7 05 a0 04  ld        [%l6 + 0x4], %f3
    0x1000099d4:            dd 01 20 04  ld        [%g4 + 0x4], %f14
    0x1000099d8:            d5 01 20 00  ld        [%g4], %f10
    0x1000099dc:            e5 01 20 08  ld        [%g4 + 0x8], %f18
    0x1000099e0:            d7 01 20 0c  ld        [%g4 + 0xc], %f11
    0x1000099e4:            cf 01 20 10  ld        [%g4 + 0x10], %f7
    0x1000099e8:            af a0 c8 ae  fsubs     %f3, %f14, %f23
    0x1000099ec:            db 01 20 14  ld        [%g4 + 0x14], %f13
    0x1000099f0:            9f a0 48 aa  fsubs     %f1, %f10, %f15
    0x1000099f4:            f9 05 a0 1c  ld        [%l6 + 0x1c], %f28
    0x1000099f8:            b3 a2 48 b2  fsubs     %f9, %f18, %f25
    0x1000099fc:            fd 01 20 18  ld        [%g4 + 0x18], %f30
    0x100009a00:            b7 a5 c9 37  fmuls     %f23, %f23, %f27
    0x100009a04:            8b a4 48 ab  fsubs     %f17, %f11, %f5
    0x100009a08:            e9 01 20 1c  ld        [%g4 + 0x1c], %f20
    0x100009a0c:            bb a3 c9 2f  fmuls     %f15, %f15, %f29
    0x100009a10:            ac 05 a0 2c  add       %l6, 0x2c, %l6
    0x100009a14:            9d a4 c8 a7  fsubs     %f19, %f7, %f14
    0x100009a18:            d9 01 20 20  ld        [%g4 + 0x20], %f12
    0x100009a1c:            89 a4 08 3b  fadds     %f16, %f27, %f4
    0x100009a20:            e1 07 20 40  ld        [%i4 + 0x40], %f16
    0x100009a24:            83 a5 48 ad  fsubs     %f21, %f13, %f1
    0x100009a28:            ad a6 49 39  fmuls     %f25, %f25, %f22
    0x100009a2c:            d1 01 20 24  ld        [%g4 + 0x24], %f8
    0x100009a30:            96 01 20 28  add       %g4, 0x28, %o3
    0x100009a34:            a6 10 20 0b  mov       0xb, %l3
    0x100009a38:            85 a1 49 25  fmuls     %f5, %f5, %f2
    0x100009a3c:            b1 a4 08 3d  fadds     %f16, %f29, %f24
    0x100009a40:            d5 05 bf ec  ld        [%l6 - 0x14], %f10
    0x100009a44:            9e 06 bf fa  add       %i2, -0x6, %o7
    0x100009a48:            a6 04 e0 06  add       %l3, 0x6, %l3
    0x100009a4c:            ac 05 a0 18  add       %l6, 0x18, %l6
    0x100009a50:            d7 02 e0 00  ld        [%o3], %f11
    0x100009a54:            93 a2 88 be  fsubs     %f10, %f30, %f9
    0x100009a58:            bf a6 08 36  fadds     %f24, %f22, %f31
    0x100009a5c:            80 a4 c0 0f  cmp       %l3, %o7
    0x100009a60:            e5 05 bf e8  ld        [%l6 - 0x18], %f18
    0x100009a64:            ad a3 89 2e  fmuls     %f14, %f14, %f22
    0x100009a68:            9d a7 08 b4  fsubs     %f28, %f20, %f14
    0x100009a6c:            e3 02 e0 04  ld        [%o3 + 0x4], %f17
    0x100009a70:            96 02 e0 18  add       %o3, 0x18, %o3
    0x100009a74:            85 a1 08 22  fadds     %f4, %f2, %f2
    0x100009a78:            b1 a0 49 21  fmuls     %f1, %f1, %f24
    0x100009a7c:            d5 05 bf ec  ld        [%l6 - 0x14], %f10
    0x100009a80:            8f a0 08 ac  fsubs     %f0, %f12, %f7
    0x100009a84:            fd 02 ff f0  ld        [%o3 - 0x10], %f30
    0x100009a88:            83 a7 c8 36  fadds     %f31, %f22, %f1
    0x100009a8c:            87 a2 49 29  fmuls     %f9, %f9, %f3
    0x100009a90:            f9 05 bf f0  ld        [%l6 - 0x10], %f28
    0x100009a94:            9b a6 88 a8  fsubs     %f26, %f8, %f13
    0x100009a98:            e9 02 ff f4  ld        [%o3 - 0xc], %f20
    0x100009a9c:            a7 a0 88 38  fadds     %f2, %f24, %f19
    0x100009aa0:            89 a3 89 2e  fmuls     %f14, %f14, %f4
    0x100009aa4:            c1 05 bf f4  ld        [%l6 - 0xc], %f0
    0x100009aa8:            9d a1 88 ab  fsubs     %f6, %f11, %f14
    0x100009aac:            d9 02 ff f8  ld        [%o3 - 0x8], %f12
    0x100009ab0:            b1 a0 48 23  fadds     %f1, %f3, %f24
    0x100009ab4:            ad a1 c9 27  fmuls     %f7, %f7, %f22
    0x100009ab8:            f5 05 bf f8  ld        [%l6 - 0x8], %f26
    0x100009abc:            83 a4 88 b1  fsubs     %f18, %f17, %f1
    0x100009ac0:            d1 02 ff fc  ld        [%o3 - 0x4], %f8
    0x100009ac4:            89 a4 c8 24  fadds     %f19, %f4, %f4
    0x100009ac8:            cd 05 bf fc  ld        [%l6 - 0x4], %f6
    0x100009acc:            04 4f ff df  ble,pt    %icc, -0x84   <0x100009a48>
    0x100009ad0:            85 a3 49 2d  fmuls     %f13, %f13, %f2
    0x100009ad4:            9b a6 08 36  fadds     %f24, %f22, %f13
    0x100009ad8:            8f a2 88 be  fsubs     %f10, %f30, %f7
    0x100009adc:            9f a3 89 2e  fmuls     %f14, %f14, %f15
    0x100009ae0:            8b a7 08 b4  fsubs     %f28, %f20, %f5
    0x100009ae4:            ab a1 08 22  fadds     %f4, %f2, %f21
    0x100009ae8:            a3 a0 08 ac  fsubs     %f0, %f12, %f17
    0x100009aec:            af a0 49 21  fmuls     %f1, %f1, %f23
    0x100009af0:            b7 a1 c9 27  fmuls     %f7, %f7, %f27
    0x100009af4:            b3 a3 48 2f  fadds     %f13, %f15, %f25
    0x100009af8:            e7 02 e0 00  ld        [%o3], %f19
    0x100009afc:            bb a6 88 a8  fsubs     %f26, %f8, %f29
    0x100009b00:            ad a4 49 31  fmuls     %f17, %f17, %f22
    0x100009b04:            bf a1 88 b3  fsubs     %f6, %f19, %f31
    0x100009b08:            a9 a1 49 25  fmuls     %f5, %f5, %f20
    0x100009b0c:            81 a5 48 37  fadds     %f21, %f23, %f0
    0x100009b10:            85 a6 48 3b  fadds     %f25, %f27, %f2
    0x100009b14:            8d a7 49 3d  fmuls     %f29, %f29, %f6
    0x100009b18:            80 a4 c0 0c  cmp       %l3, %o4
    0x100009b1c:            89 a7 c9 3f  fmuls     %f31, %f31, %f4
    0x100009b20:            ae 02 e0 04  add       %o3, 0x4, %l7
    0x100009b24:            b1 a0 08 34  fadds     %f0, %f20, %f24
    0x100009b28:            b5 a0 88 36  fadds     %f2, %f22, %f26
    0x100009b2c:            91 a6 08 26  fadds     %f24, %f6, %f8
    0x100009b30:            b9 a6 88 24  fadds     %f26, %f4, %f28
    0x100009b34:            a1 a2 08 3c  fadds     %f8, %f28, %f16
    0x100009b38:            14 40 00 0d  bg,pn     %icc, +0x34   <0x100009b6c>
    0x100009b3c:            01 00 00 00  nop
    0x100009b40:            d3 05 e0 00  ld        [%l7], %f9
    0x100009b44:            c5 05 a0 00  ld        [%l6], %f2
    0x100009b48:            a6 04 e0 01  add       %l3, 0x1, %l3
    0x100009b4c:            80 a4 c0 0c  cmp       %l3, %o4
    0x100009b50:            b1 a0 88 a9  fsubs     %f2, %f9, %f24
    0x100009b54:            ae 05 e0 04  add       %l7, 0x4, %l7
    0x100009b58:            ac 05 a0 04  add       %l6, 0x4, %l6
    0x100009b5c:            9d a6 09 38  fmuls     %f24, %f24, %f14
    0x100009b60:            a1 a4 08 2e  fadds     %f16, %f14, %f16
    0x100009b64:            24 4f ff f8  ble,a,pt  %icc, -0x20   <0x100009b44>
    0x100009b68:            d3 05 e0 00  ld        [%l7], %f9
    0x100009b6c:            ff 01 60 00  ld        [%g5], %f31
    0x100009b70:            94 02 a0 01  add       %o2, 0x1, %o2
    0x100009b74:            80 a2 80 0d  cmp       %o2, %o5
    0x100009b78:            ad a4 09 3f  fmuls     %f16, %f31, %f22
    0x100009b7c:            8a 01 60 20  add       %g5, 0x20, %g5
    0x100009b80:            ab a0 19 36  fstod     %f22, %d52
    0x100009b84:            8b a1 48 55  faddd     %d36, %d52, %d36
    0x100009b88:            24 6f ff 82  ble,a,pt  %xcc, -0x1f8  <0x100009990>
    0x100009b8c:            e1 07 20 40  ld        [%i4 + 0x40], %f16
    0x100009b90:            e6 5f 60 50  ldx       [%i5 + 0x50], %l3
    0x100009b94:            cb 3c c0 03  std       %d36, [%l3 + %g3]
    0x100009b98:            e6 5b a8 c7  ldx       [%sp + 0x8c7], %l3
    0x100009b9c:            e8 04 e5 18  ld        [%l3 + 0x518], %l4
    0x100009ba0:            80 a5 20 00  cmp       %l4, 0x0
    0x100009ba4:            04 40 00 06  ble,pn    %icc, +0x18   <0x100009bbc>
    0x100009ba8:            86 05 3f ff  add       %l4, -0x1, %g3
    0x100009bac:            cf 1e e7 e8  ldd       [%i3 + 0x7e8], %d38
    0x100009bb0:            8a 10 20 00  clr       %g5
    0x100009bb4:            10 80 00 16  ba        +0x58         <0x100009c0c>
    0x100009bb8:            c8 5f 60 50  ldx       [%i5 + 0x50], %g4
    0x100009bbc:            f4 5c 20 00  ldx       [%l0], %i2
    0x100009bc0:            d0 5b a9 0f  ldx       [%sp + 0x90f], %o0
    0x100009bc4:            80 a6 80 08  cmp       %i2, %o0
    0x100009bc8:            04 60 00 66  ble,pn    %xcc, +0x198  <0x100009d60>
    0x100009bcc:            cb 1e e7 e8  ldd       [%i3 + 0x7e8], %d36
    0x100009bd0:            cf 1e e7 e8  ldd       [%i3 + 0x7e8], %d38
    0x100009bd4:            10 80 00 9a  ba        +0x268        <0x100009e3c>
    0x100009bd8:            f2 03 a8 ff  ld        [%sp + 0x8ff], %i1
    0x100009bdc:            c8 5f 60 50  ldx       [%i5 + 0x50], %g4
    0x100009be0:            cb 39 00 03  std       %d36, [%g4 + %g3]
    0x100009be4:            d4 5b a8 c7  ldx       [%sp + 0x8c7], %o2
    0x100009be8:            d4 02 a5 18  ld        [%o2 + 0x518], %o2
    0x100009bec:            80 a2 a0 00  cmp       %o2, 0x0
    0x100009bf0:            24 48 00 8e  ble,a,pt  %icc, +0x238  <0x100009e28>
    0x100009bf4:            ea 5c 20 00  ldx       [%l0], %l5
    0x100009bf8:            cf 1e e7 e8  ldd       [%i3 + 0x7e8], %d38
    0x100009bfc:            86 02 bf ff  add       %o2, -0x1, %g3
    0x100009c00:            8a 10 20 00  clr       %g5
    0x100009c04:            c8 5f 60 50  ldx       [%i5 + 0x50], %g4
    0x100009c08:            9a 05 7f ff  add       %l5, -0x1, %o5
    0x100009c0c:            90 00 e0 01  add       %g3, 0x1, %o0
    0x100009c10:            80 a2 20 18  cmp       %o0, 0x18
    0x100009c14:            06 40 00 41  bl,pn     %icc, +0x104  <0x100009d18>
    0x100009c18:            01 00 00 00  nop
    0x100009c1c:            c7 19 20 00  ldd       [%g4], %d34
    0x100009c20:            ef 19 20 08  ldd       [%g4 + 0x8], %d54
    0x100009c24:            ff 19 20 20  ldd       [%g4 + 0x20], %d62
    0x100009c28:            cb 19 20 10  ldd       [%g4 + 0x10], %d36
    0x100009c2c:            fb 19 20 18  ldd       [%g4 + 0x18], %d60
    0x100009c30:            f3 19 20 58  ldd       [%g4 + 0x58], %d56
    0x100009c34:            e7 19 20 50  ldd       [%g4 + 0x50], %d50
    0x100009c38:            e3 19 20 48  ldd       [%g4 + 0x48], %d48
    0x100009c3c:            df 19 20 40  ldd       [%g4 + 0x40], %d46
    0x100009c40:            bb a1 c8 5d  faddd     %d38, %d60, %d60
    0x100009c44:            cf 1e e7 e8  ldd       [%i3 + 0x7e8], %d38
    0x100009c48:            db 19 20 38  ldd       [%g4 + 0x38], %d44
    0x100009c4c:            d7 19 20 30  ldd       [%g4 + 0x30], %d42
    0x100009c50:            ab a1 c8 43  faddd     %d38, %d34, %d52
    0x100009c54:            8a 10 20 0c  mov       0xc, %g5
    0x100009c58:            d3 19 20 28  ldd       [%g4 + 0x28], %d40
    0x100009c5c:            af a1 c8 57  faddd     %d38, %d54, %d54
    0x100009c60:            88 01 20 60  add       %g4, 0x60, %g4
    0x100009c64:            87 a1 c8 45  faddd     %d38, %d36, %d34
    0x100009c68:            92 20 e0 0b  sub       %g3, 0xb, %o1
    0x100009c6c:            c1 69 21 30  prefetch  [%g4 + 0x130], #n_reads
    0x100009c70:            8a 01 60 0c  add       %g5, 0xc, %g5
    0x100009c74:            cf 19 20 00  ldd       [%g4], %d38
    0x100009c78:            88 01 20 60  add       %g4, 0x60, %g4
    0x100009c7c:            bf a5 48 5f  faddd     %d52, %d62, %d62
    0x100009c80:            93 a5 c8 49  faddd     %d54, %d40, %d40
    0x100009c84:            80 a1 40 09  cmp       %g5, %o1
    0x100009c88:            ef 19 3f a8  ldd       [%g4 - 0x58], %d54
    0x100009c8c:            97 a0 c8 4b  faddd     %d34, %d42, %d42
    0x100009c90:            f7 19 3f b0  ldd       [%g4 - 0x50], %d58
    0x100009c94:            9b a7 48 4d  faddd     %d60, %d44, %d44
    0x100009c98:            c3 19 3f b8  ldd       [%g4 - 0x48], %d32
    0x100009c9c:            9f a7 c8 4f  faddd     %d62, %d46, %d46
    0x100009ca0:            ff 19 3f c0  ldd       [%g4 - 0x40], %d62
    0x100009ca4:            a3 a2 48 51  faddd     %d40, %d48, %d48
    0x100009ca8:            d3 19 3f c8  ldd       [%g4 - 0x38], %d40
    0x100009cac:            a7 a2 c8 53  faddd     %d42, %d50, %d50
    0x100009cb0:            d7 19 3f d0  ldd       [%g4 - 0x30], %d42
    0x100009cb4:            b3 a3 48 59  faddd     %d44, %d56, %d56
    0x100009cb8:            db 19 3f d8  ldd       [%g4 - 0x28], %d44
    0x100009cbc:            ab a3 c8 47  faddd     %d46, %d38, %d52
    0x100009cc0:            df 19 3f e0  ldd       [%g4 - 0x20], %d46
    0x100009cc4:            af a4 48 57  faddd     %d48, %d54, %d54
    0x100009cc8:            e3 19 3f e8  ldd       [%g4 - 0x18], %d48
    0x100009ccc:            87 a4 c8 5b  faddd     %d50, %d58, %d34
    0x100009cd0:            e7 19 3f f0  ldd       [%g4 - 0x10], %d50
    0x100009cd4:            bb a6 48 41  faddd     %d56, %d32, %d60
    0x100009cd8:            04 4f ff e5  ble,pt    %icc, -0x6c   <0x100009c6c>
    0x100009cdc:            f3 19 3f f8  ldd       [%g4 - 0x8], %d56
    0x100009ce0:            8f a5 c8 49  faddd     %d54, %d40, %d38
    0x100009ce4:            8b a5 48 5f  faddd     %d52, %d62, %d36
    0x100009ce8:            87 a0 c8 4b  faddd     %d34, %d42, %d34
    0x100009cec:            9b a7 48 4d  faddd     %d60, %d44, %d44
    0x100009cf0:            80 a1 40 03  cmp       %g5, %g3
    0x100009cf4:            a3 a1 c8 51  faddd     %d38, %d48, %d48
    0x100009cf8:            9f a1 48 4f  faddd     %d36, %d46, %d46
    0x100009cfc:            b7 a0 c8 53  faddd     %d34, %d50, %d58
    0x100009d00:            83 a3 48 59  faddd     %d44, %d56, %d32
    0x100009d04:            a7 a3 c8 51  faddd     %d46, %d48, %d50
    0x100009d08:            ab a4 c8 5b  faddd     %d50, %d58, %d52
    0x100009d0c:            8f a5 48 41  faddd     %d52, %d32, %d38
    0x100009d10:            14 40 00 09  bg,pn     %icc, +0x24   <0x100009d34>
    0x100009d14:            01 00 00 00  nop
    0x100009d18:            8a 01 60 01  add       %g5, 0x1, %g5
    0x100009d1c:            80 a1 40 03  cmp       %g5, %g3
    0x100009d20:            cb 19 20 00  ldd       [%g4], %d36
    0x100009d24:            88 01 20 08  add       %g4, 0x8, %g4
    0x100009d28:            8f a1 c8 45  faddd     %d38, %d36, %d38
    0x100009d2c:            04 4f ff fc  ble,pt    %icc, -0x10   <0x100009d1c>
    0x100009d30:            8a 01 60 01  add       %g5, 0x1, %g5
    0x100009d34:            de 5c 20 00  ldx       [%l0], %o7
    0x100009d38:            ca 5b a9 0f  ldx       [%sp + 0x90f], %g5
    0x100009d3c:            80 a3 c0 05  cmp       %o7, %g5
    0x100009d40:            04 60 00 05  ble,pn    %xcc, +0x14   <0x100009d54>
    0x100009d44:            c7 1f 20 08  ldd       [%i4 + 0x8], %d34
    0x100009d48:            8b a1 c9 43  fmuld     %d38, %d34, %d36
    0x100009d4c:            10 80 00 3c  ba        +0xf0         <0x100009e3c>
    0x100009d50:            f2 03 a8 ff  ld        [%sp + 0x8ff], %i1
    0x100009d54:            80 a6 40 15  cmp       %i1, %l5
    0x100009d58:            36 60 04 39  bge,a,pn  %xcc, +0x10e4 <0x10000ae3c>
    0x100009d5c:            e0 03 a8 ff  ld        [%sp + 0x8ff], %l0
    0x100009d60:            86 23 40 19  sub       %o5, %i1, %g3
    0x100009d64:            98 00 e0 01  add       %g3, 0x1, %o4
    0x100009d68:            80 a3 20 03  cmp       %o4, 0x3
    0x100009d6c:            a5 2e 70 05  sllx      %i1, 0x5, %l2
    0x100009d70:            06 60 00 21  bl,pn     %xcc, +0x84   <0x100009df4>
    0x100009d74:            01 00 00 00  nop
    0x100009d78:            e2 5c 20 10  ldx       [%l0 + 0x10], %l1
    0x100009d7c:            b4 04 a0 20  add       %l2, 0x20, %i2
    0x100009d80:            90 05 7f fe  add       %l5, -0x2, %o0
    0x100009d84:            8a 04 40 12  add       %l1, %l2, %g5
    0x100009d88:            f2 71 60 10  stx       %i1, [%g5 + 0x10]
    0x100009d8c:            c8 5c 20 10  ldx       [%l0 + 0x10], %g4
    0x100009d90:            b2 06 60 01  add       %i1, 0x1, %i1
    0x100009d94:            a4 01 00 12  add       %g4, %l2, %l2
    0x100009d98:            c0 24 a0 18  clr       [%l2 + 0x18]
    0x100009d9c:            e6 5c 20 10  ldx       [%l0 + 0x10], %l3
    0x100009da0:            ac 04 c0 1a  add       %l3, %i2, %l6
    0x100009da4:            f2 75 a0 10  stx       %i1, [%l6 + 0x10]
    0x100009da8:            ee 5c 20 10  ldx       [%l0 + 0x10], %l7
    0x100009dac:            b0 06 a0 20  add       %i2, 0x20, %i0
    0x100009db0:            94 05 c0 1a  add       %l7, %i2, %o2
    0x100009db4:            a8 06 60 01  add       %i1, 0x1, %l4
    0x100009db8:            c0 22 a0 18  clr       [%o2 + 0x18]
    0x100009dbc:            f2 5c 20 10  ldx       [%l0 + 0x10], %i1
    0x100009dc0:            92 06 40 18  add       %i1, %i0, %o1
    0x100009dc4:            e8 72 60 10  stx       %l4, [%o1 + 0x10]
    0x100009dc8:            ea 5c 20 10  ldx       [%l0 + 0x10], %l5
    0x100009dcc:            b4 06 a0 40  add       %i2, 0x40, %i2
    0x100009dd0:            84 05 40 18  add       %l5, %i0, %g2
    0x100009dd4:            b2 05 20 01  add       %l4, 0x1, %i1
    0x100009dd8:            80 a6 40 08  cmp       %i1, %o0
    0x100009ddc:            04 6f ff f0  ble,pt    %xcc, -0x40   <0x100009d9c>
    0x100009de0:            c0 20 a0 18  clr       [%g2 + 0x18]
    0x100009de4:            80 a6 40 0d  cmp       %i1, %o5
    0x100009de8:            a4 10 00 1a  mov       %i2, %l2
    0x100009dec:            14 60 00 0d  bg,pn     %xcc, +0x34   <0x100009e20>
    0x100009df0:            01 00 00 00  nop
    0x100009df4:            e2 5c 20 10  ldx       [%l0 + 0x10], %l1
    0x100009df8:            86 04 40 12  add       %l1, %l2, %g3
    0x100009dfc:            f2 70 e0 10  stx       %i1, [%g3 + 0x10]
    0x100009e00:            c8 5c 20 10  ldx       [%l0 + 0x10], %g4
    0x100009e04:            b2 06 60 01  add       %i1, 0x1, %i1
    0x100009e08:            80 a6 40 0d  cmp       %i1, %o5
    0x100009e0c:            94 01 00 12  add       %g4, %l2, %o2
    0x100009e10:            c0 22 a0 18  clr       [%o2 + 0x18]
    0x100009e14:            a4 04 a0 20  add       %l2, 0x20, %l2
    0x100009e18:            24 6f ff f8  ble,a,pt  %xcc, -0x20   <0x100009df8>
    0x100009e1c:            e2 5c 20 10  ldx       [%l0 + 0x10], %l1
    0x100009e20:            10 80 04 07  ba        +0x101c       <0x10000ae3c>
    0x100009e24:            e0 03 a8 ff  ld        [%sp + 0x8ff], %l0
    0x100009e28:            80 a5 40 13  cmp       %l5, %l3
    0x100009e2c:            04 60 04 03  ble,pn    %xcc, +0x100c <0x10000ae38>
    0x100009e30:            cb 1e e7 e8  ldd       [%i3 + 0x7e8], %d36
    0x100009e34:            cf 1e e7 e8  ldd       [%i3 + 0x7e8], %d38
    0x100009e38:            f2 03 a8 ff  ld        [%sp + 0x8ff], %i1
    0x100009e3c:            80 a6 60 00  cmp       %i1, 0x0
    0x100009e40:            12 40 00 1b  bne,pn    %icc, +0x6c   <0x100009eac>
    0x100009e44:            cf 3b a9 27  std       %d38, [%sp + 0x927]
    0x100009e48:            cb 3b a9 1f  std       %d36, [%sp + 0x91f]
    0x100009e4c:            7f ff e0 83  call      -0x7df4       <0x100002058>
    0x100009e50:            90 10 00 10  mov       %l0, %o0
    0x100009e54:            cb 1b a9 1f  ldd       [%sp + 0x91f], %d36
    0x100009e58:            98 10 00 12  mov       %l2, %o4
    0x100009e5c:            90 10 00 10  mov       %l0, %o0
    0x100009e60:            87 a0 18 c5  fdtos     %d36, %f3
    0x100009e64:            c7 23 a9 37  st        %f3, [%sp + 0x937]
    0x100009e68:            96 10 00 11  mov       %l1, %o3
    0x100009e6c:            7f ff e1 77  call      -0x7a24       <0x100002448>
    0x100009e70:            94 07 60 38  add       %i5, 0x38, %o2
    0x100009e74:            f2 5f 60 38  ldx       [%i5 + 0x38], %i1
    0x100009e78:            f4 5b a9 07  ldx       [%sp + 0x907], %i2
    0x100009e7c:            cb 1b a9 1f  ldd       [%sp + 0x91f], %d36
    0x100009e80:            cf 1b a9 27  ldd       [%sp + 0x927], %d38
    0x100009e84:            80 a6 40 1a  cmp       %i1, %i2
    0x100009e88:            06 60 00 05  bl,pn     %xcc, +0x14   <0x100009e9c>
    0x100009e8c:            c7 1e e7 e8  ldd       [%i3 + 0x7e8], %d34
    0x100009e90:            83 a0 19 20  fstod     %f0, %d32
    0x100009e94:            10 80 02 73  ba        +0x9cc        <0x10000a860>
    0x100009e98:            c3 3b a9 e7  std       %d32, [%sp + 0x9e7]
    0x100009e9c:            b2 10 20 00  clr       %i1
    0x100009ea0:            c7 03 a9 37  ld        [%sp + 0x937], %f3
    0x100009ea4:            10 80 00 16  ba        +0x58         <0x100009efc>
    0x100009ea8:            01 00 00 00  nop
    0x100009eac:            cb 3b a9 1f  std       %d36, [%sp + 0x91f]
    0x100009eb0:            98 10 00 12  mov       %l2, %o4
    0x100009eb4:            87 a0 18 c5  fdtos     %d36, %f3
    0x100009eb8:            c7 23 a9 37  st        %f3, [%sp + 0x937]
    0x100009ebc:            90 10 00 10  mov       %l0, %o0
    0x100009ec0:            96 10 00 11  mov       %l1, %o3
    0x100009ec4:            7f ff e1 61  call      -0x7a7c       <0x100002448>
    0x100009ec8:            94 07 60 38  add       %i5, 0x38, %o2
    0x100009ecc:            ca 5f 60 38  ldx       [%i5 + 0x38], %g5
    0x100009ed0:            c8 5b a9 07  ldx       [%sp + 0x907], %g4
    0x100009ed4:            cb 1b a9 1f  ldd       [%sp + 0x91f], %d36
    0x100009ed8:            cf 1b a9 27  ldd       [%sp + 0x927], %d38
    0x100009edc:            80 a1 40 04  cmp       %g5, %g4
    0x100009ee0:            06 60 00 05  bl,pn     %xcc, +0x14   <0x100009ef4>
    0x100009ee4:            c7 1e e7 e8  ldd       [%i3 + 0x7e8], %d34
    0x100009ee8:            83 a0 19 20  fstod     %f0, %d32
    0x100009eec:            10 80 02 7d  ba        +0x9f4        <0x10000a8e0>
    0x100009ef0:            f4 5b a9 0f  ldx       [%sp + 0x90f], %i2
    0x100009ef4:            c7 03 a9 37  ld        [%sp + 0x937], %f3
    0x100009ef8:            b2 10 20 00  clr       %i1
    0x100009efc:            cb 3b a9 1f  std       %d36, [%sp + 0x91f]
    0x100009f00:            98 10 00 12  mov       %l2, %o4
    0x100009f04:            cf 3b a9 27  std       %d38, [%sp + 0x927]
    0x100009f08:            90 10 00 10  mov       %l0, %o0
    0x100009f0c:            96 10 00 11  mov       %l1, %o3
    0x100009f10:            7f ff e1 4e  call      -0x7ac8       <0x100002448>
    0x100009f14:            94 07 60 38  add       %i5, 0x38, %o2
    0x100009f18:            e6 5f 60 38  ldx       [%i5 + 0x38], %l3
    0x100009f1c:            d2 5b a9 07  ldx       [%sp + 0x907], %o1
    0x100009f20:            cb 1b a9 1f  ldd       [%sp + 0x91f], %d36
    0x100009f24:            cf 1b a9 27  ldd       [%sp + 0x927], %d38
    0x100009f28:            80 a4 c0 09  cmp       %l3, %o1
    0x100009f2c:            16 60 02 45  bge,pn    %xcc, +0x914  <0x10000a840>
    0x100009f30:            c7 03 a9 37  ld        [%sp + 0x937], %f3
    0x100009f34:            b2 06 60 01  add       %i1, 0x1, %i1
    0x100009f38:            80 a6 60 01  cmp       %i1, 0x1
    0x100009f3c:            26 4f ff f0  bl,a,pt   %icc, -0x40   <0x100009efc>
    0x100009f40:            c7 23 a9 37  st        %f3, [%sp + 0x937]
    0x100009f44:            c7 1e e7 e8  ldd       [%i3 + 0x7e8], %d34
    0x100009f48:            c8 07 60 18  ld        [%i5 + 0x18], %g4
    0x100009f4c:            80 a6 60 01  cmp       %i1, 0x1
    0x100009f50:            06 40 00 08  bl,pn     %icc, +0x20   <0x100009f70>
    0x100009f54:            d4 03 a8 ff  ld        [%sp + 0x8ff], %o2
    0x100009f58:            af a1 48 43  faddd     %d36, %d34, %d54
    0x100009f5c:            c3 1f 20 08  ldd       [%i4 + 0x8], %d32
    0x100009f60:            8f a0 00 45  fmovd     %d36, %d38
    0x100009f64:            b2 10 20 00  clr       %i1
    0x100009f68:            8b a5 c9 41  fmuld     %d54, %d32, %d36
    0x100009f6c:            87 a0 18 c5  fdtos     %d36, %f3
    0x100009f70:            e6 5c 20 00  ldx       [%l0], %l3
    0x100009f74:            80 a2 a0 00  cmp       %o2, 0x0
    0x100009f78:            12 40 00 51  bne,pn    %icc, +0x144  <0x10000a0bc>
    0x100009f7c:            a8 04 ff ff  add       %l3, -0x1, %l4
    0x100009f80:            04 c5 00 3e  brlez,pn  %l4, +0xf8    <0x10000a078>
    0x100009f84:            ac 10 20 00  clr       %l6
    0x100009f88:            c7 3b a9 2f  std       %d34, [%sp + 0x92f]
    0x100009f8c:            a8 10 20 00  clr       %l4
    0x100009f90:            cf 3b a9 27  std       %d38, [%sp + 0x927]
    0x100009f94:            c7 23 a9 37  st        %f3, [%sp + 0x937]
    0x100009f98:            40 04 1f 52  call      +0x107d48     <0x100111ce0>
    0x100009f9c:            cb 3b a9 1f  std       %d36, [%sp + 0x91f]
    0x100009fa0:            ea 5c 20 00  ldx       [%l0], %l5
    0x100009fa4:            ca 5c 20 10  ldx       [%l0 + 0x10], %g5
    0x100009fa8:            c7 1b a9 2f  ldd       [%sp + 0x92f], %d34
    0x100009fac:            cb 1b a9 1f  ldd       [%sp + 0x91f], %d36
    0x100009fb0:            c6 59 40 14  ldx       [%g5 + %l4], %g3
    0x100009fb4:            c7 03 a9 37  ld        [%sp + 0x937], %f3
    0x100009fb8:            b4 25 40 16  sub       %l5, %l6, %i2
    0x100009fbc:            cf 1b a9 27  ldd       [%sp + 0x927], %d38
    0x100009fc0:            88 01 40 14  add       %g5, %l4, %g4
    0x100009fc4:            ea 59 20 18  ldx       [%g4 + 0x18], %l5
    0x100009fc8:            a6 26 a0 01  sub       %i2, 0x1, %l3
    0x100009fcc:            c4 59 20 08  ldx       [%g4 + 0x8], %g2
    0x100009fd0:            80 8e 80 13  btst      %l3, %i2
    0x100009fd4:            ee 59 20 10  ldx       [%g4 + 0x10], %l7
    0x100009fd8:            12 60 00 0d  bne,pn    %xcc, +0x34   <0x10000a00c>
    0x100009fdc:            80 a6 a0 00  cmp       %i2, 0x0
    0x100009fe0:            02 60 00 0b  be,pn     %xcc, +0x2c   <0x10000a00c>
    0x100009fe4:            01 00 00 00  nop
    0x100009fe8:            b5 3a 30 3f  srax      %o0, 0x3f, %i2
    0x100009fec:            98 1a 00 1a  xor       %o0, %i2, %o4
    0x100009ff0:            b0 23 00 1a  sub       %o4, %i2, %i0
    0x100009ff4:            90 8e 00 13  andcc     %i0, %l3, %o0
    0x100009ff8:            94 1a 00 1a  xor       %o0, %i2, %o2
    0x100009ffc:            92 22 80 1a  sub       %o2, %i2, %o1
    0x10000a000:            91 66 50 09  movne     %xcc, %o1, %o0
    0x10000a004:            10 80 00 06  ba        +0x18         <0x10000a01c>
    0x10000a008:            98 02 00 16  add       %o0, %l6, %o4
    0x10000a00c:            9f 6a 00 1a  sdivx     %o0, %i2, %o7
    0x10000a010:            96 4b c0 1a  mulx      %o7, %i2, %o3
    0x10000a014:            90 22 00 0b  sub       %o0, %o3, %o0
    0x10000a018:            98 02 00 16  add       %o0, %l6, %o4
    0x10000a01c:            a7 2b 30 05  sllx      %o4, 0x5, %l3
    0x10000a020:            f0 59 40 13  ldx       [%g5 + %l3], %i0
    0x10000a024:            f0 71 40 14  stx       %i0, [%g5 + %l4]
    0x10000a028:            92 01 40 13  add       %g5, %l3, %o1
    0x10000a02c:            ca 5a 60 08  ldx       [%o1 + 0x8], %g5
    0x10000a030:            ca 71 20 08  stx       %g5, [%g4 + 0x8]
    0x10000a034:            d4 5a 60 10  ldx       [%o1 + 0x10], %o2
    0x10000a038:            d4 71 20 10  stx       %o2, [%g4 + 0x10]
    0x10000a03c:            d0 5a 60 18  ldx       [%o1 + 0x18], %o0
    0x10000a040:            d0 71 20 18  stx       %o0, [%g4 + 0x18]
    0x10000a044:            da 5c 20 10  ldx       [%l0 + 0x10], %o5
    0x10000a048:            ac 05 a0 01  add       %l6, 0x1, %l6
    0x10000a04c:            a8 05 20 20  add       %l4, 0x20, %l4
    0x10000a050:            c6 74 c0 0d  stx       %g3, [%l3 + %o5]
    0x10000a054:            86 03 40 13  add       %o5, %l3, %g3
    0x10000a058:            c4 70 e0 08  stx       %g2, [%g3 + 0x8]
    0x10000a05c:            ee 70 e0 10  stx       %l7, [%g3 + 0x10]
    0x10000a060:            ea 70 e0 18  stx       %l5, [%g3 + 0x18]
    0x10000a064:            e6 5c 20 00  ldx       [%l0], %l3
    0x10000a068:            84 04 ff ff  add       %l3, -0x1, %g2
    0x10000a06c:            80 a5 80 02  cmp       %l6, %g2
    0x10000a070:            26 6f ff c8  bl,a,pt   %xcc, -0xe0   <0x100009f90>
    0x10000a074:            c7 3b a9 2f  std       %d34, [%sp + 0x92f]
    0x10000a078:            d8 5b a8 c7  ldx       [%sp + 0x8c7], %o4
    0x10000a07c:            d6 03 a8 ff  ld        [%sp + 0x8ff], %o3
    0x10000a080:            bd a0 00 23  fmovs     %f3, %f30
    0x10000a084:            ec 03 25 18  ld        [%o4 + 0x518], %l6
    0x10000a088:            8b 3d a0 00  sra       %l6, 0x0, %g5
    0x10000a08c:            b1 6c c0 05  sdivx     %l3, %g5, %i0
    0x10000a090:            aa 4e 00 11  mulx      %i0, %l1, %l5
    0x10000a094:            84 05 bf ff  add       %l6, -0x1, %g2
    0x10000a098:            b4 05 40 18  add       %l5, %i0, %i2
    0x10000a09c:            80 a2 c0 02  cmp       %o3, %g2
    0x10000a0a0:            a7 66 40 1a  movne     %icc, %i2, %l3
    0x10000a0a4:            a9 3d 60 00  sra       %l5, 0x0, %l4
    0x10000a0a8:            80 a5 00 13  cmp       %l4, %l3
    0x10000a0ac:            06 60 00 12  bl,pn     %xcc, +0x48   <0x10000a0f4>
    0x10000a0b0:            aa 04 ff ff  add       %l3, -0x1, %l5
    0x10000a0b4:            10 80 00 46  ba        +0x118        <0x10000a1cc>
    0x10000a0b8:            fd 23 a9 3b  st        %f30, [%sp + 0x93b]
    0x10000a0bc:            f0 5b a8 c7  ldx       [%sp + 0x8c7], %i0
    0x10000a0c0:            bd a0 00 23  fmovs     %f3, %f30
    0x10000a0c4:            d6 06 25 18  ld        [%i0 + 0x518], %o3
    0x10000a0c8:            9f 3a e0 00  sra       %o3, 0x0, %o7
    0x10000a0cc:            b1 6c c0 0f  sdivx     %l3, %o7, %i0
    0x10000a0d0:            84 4e 00 11  mulx      %i0, %l1, %g2
    0x10000a0d4:            98 02 ff ff  add       %o3, -0x1, %o4
    0x10000a0d8:            ae 00 80 18  add       %g2, %i0, %l7
    0x10000a0dc:            80 a2 80 0c  cmp       %o2, %o4
    0x10000a0e0:            a7 66 40 17  movne     %icc, %l7, %l3
    0x10000a0e4:            a9 38 a0 00  sra       %g2, 0x0, %l4
    0x10000a0e8:            80 a5 00 13  cmp       %l4, %l3
    0x10000a0ec:            16 60 00 c2  bge,pn    %xcc, +0x308  <0x10000a3f4>
    0x10000a0f0:            aa 04 ff ff  add       %l3, -0x1, %l5
    0x10000a0f4:            b4 10 00 14  mov       %l4, %i2
    0x10000a0f8:            fd 23 a9 3b  st        %f30, [%sp + 0x93b]
    0x10000a0fc:            af 2d 30 05  sllx      %l4, 0x5, %l7
    0x10000a100:            cb 3b a9 1f  std       %d36, [%sp + 0x91f]
    0x10000a104:            cf 3b a9 27  std       %d38, [%sp + 0x927]
    0x10000a108:            c7 3b a9 2f  std       %d34, [%sp + 0x92f]
    0x10000a10c:            c7 23 a9 37  st        %f3, [%sp + 0x937]
    0x10000a110:            d8 5c 20 10  ldx       [%l0 + 0x10], %o4
    0x10000a114:            92 07 a7 17  add       %fp, 0x717, %o1
    0x10000a118:            90 07 a7 37  add       %fp, 0x737, %o0
    0x10000a11c:            d6 5b 00 17  ldx       [%o4 + %l7], %o3
    0x10000a120:            d6 77 a7 37  stx       %o3, [%fp + 0x737]
    0x10000a124:            b0 03 00 17  add       %o4, %l7, %i0
    0x10000a128:            c4 5e 20 08  ldx       [%i0 + 0x8], %g2
    0x10000a12c:            c4 77 a7 3f  stx       %g2, [%fp + 0x73f]
    0x10000a130:            c8 5e 20 10  ldx       [%i0 + 0x10], %g4
    0x10000a134:            c8 77 a7 47  stx       %g4, [%fp + 0x747]
    0x10000a138:            d4 5e 20 18  ldx       [%i0 + 0x18], %o2
    0x10000a13c:            d4 77 a7 4f  stx       %o2, [%fp + 0x74f]
    0x10000a140:            ec 5c 20 10  ldx       [%l0 + 0x10], %l6
    0x10000a144:            b4 06 a0 01  add       %i2, 0x1, %i2
    0x10000a148:            ca 5d a0 00  ldx       [%l6], %g5
    0x10000a14c:            ca 77 a7 17  stx       %g5, [%fp + 0x717]
    0x10000a150:            de 5d a0 08  ldx       [%l6 + 0x8], %o7
    0x10000a154:            de 77 a7 1f  stx       %o7, [%fp + 0x71f]
    0x10000a158:            c6 5d a0 10  ldx       [%l6 + 0x10], %g3
    0x10000a15c:            c6 77 a7 27  stx       %g3, [%fp + 0x727]
    0x10000a160:            da 5d a0 18  ldx       [%l6 + 0x18], %o5
    0x10000a164:            da 77 a7 2f  stx       %o5, [%fp + 0x72f]
    0x10000a168:            d6 04 20 08  ld        [%l0 + 0x8], %o3
    0x10000a16c:            7f ff e0 24  call      -0x7f70       <0x1000021fc>
    0x10000a170:            95 3a e0 00  sra       %o3, 0x0, %o2
    0x10000a174:            d2 5c 20 10  ldx       [%l0 + 0x10], %o1
    0x10000a178:            fd 03 a9 3b  ld        [%sp + 0x93b], %f30
    0x10000a17c:            cb 1b a9 1f  ldd       [%sp + 0x91f], %d36
    0x10000a180:            df 05 c0 09  ld        [%l7 + %o1], %f15
    0x10000a184:            c7 1b a9 2f  ldd       [%sp + 0x92f], %d34
    0x10000a188:            cf 1b a9 27  ldd       [%sp + 0x927], %d38
    0x10000a18c:            c7 03 a9 37  ld        [%sp + 0x937], %f3
    0x10000a190:            90 02 40 17  add       %o1, %l7, %o0
    0x10000a194:            b3 a0 09 2f  fmuls     %f0, %f15, %f25
    0x10000a198:            f3 22 20 18  st        %f25, [%o0 + 0x18]
    0x10000a19c:            d8 5c 20 10  ldx       [%l0 + 0x10], %o4
    0x10000a1a0:            80 a6 80 15  cmp       %i2, %l5
    0x10000a1a4:            84 03 00 17  add       %o4, %l7, %g2
    0x10000a1a8:            c0 70 a0 10  clrx      [%g2 + 0x10]
    0x10000a1ac:            ae 05 e0 20  add       %l7, 0x20, %l7
    0x10000a1b0:            24 6f ff d4  ble,a,pt  %xcc, -0xb0   <0x10000a100>
    0x10000a1b4:            fd 23 a9 3b  st        %f30, [%sp + 0x93b]
    0x10000a1b8:            d0 03 a8 ff  ld        [%sp + 0x8ff], %o0
    0x10000a1bc:            80 a2 20 00  cmp       %o0, 0x0
    0x10000a1c0:            32 48 00 8d  bne,a,pt  %icc, +0x234  <0x10000a3f4>
    0x10000a1c4:            c8 07 60 18  ld        [%i5 + 0x18], %g4
    0x10000a1c8:            fd 23 a9 3b  st        %f30, [%sp + 0x93b]
    0x10000a1cc:            d2 5b a8 c7  ldx       [%sp + 0x8c7], %o1
    0x10000a1d0:            c7 3b a9 2f  std       %d34, [%sp + 0x92f]
    0x10000a1d4:            cb 3b a9 1f  std       %d36, [%sp + 0x91f]
    0x10000a1d8:            ee 02 65 18  ld        [%o1 + 0x518], %l7
    0x10000a1dc:            c7 23 a9 37  st        %f3, [%sp + 0x937]
    0x10000a1e0:            cf 3b a9 27  std       %d38, [%sp + 0x927]
    0x10000a1e4:            b4 10 20 01  mov       0x1, %i2
    0x10000a1e8:            f4 77 60 38  stx       %i2, [%i5 + 0x38]
    0x10000a1ec:            8b 3d e0 00  sra       %l7, 0x0, %g5
    0x10000a1f0:            2d 00 04 00  sethi     %hi(0x100000), %l6
    0x10000a1f4:            40 04 1e c3  call      +0x107b0c     <0x100111d00>
    0x10000a1f8:            91 29 70 03  sllx      %g5, 0x3, %o0
    0x10000a1fc:            cb 1b a9 1f  ldd       [%sp + 0x91f], %d36
    0x10000a200:            cf 1b a9 27  ldd       [%sp + 0x927], %d38
    0x10000a204:            d0 77 60 10  stx       %o0, [%i5 + 0x10]
    0x10000a208:            fd 03 a9 3b  ld        [%sp + 0x93b], %f30
    0x10000a20c:            f4 27 60 18  st        %i2, [%i5 + 0x18]
    0x10000a210:            f0 5c 20 00  ldx       [%l0], %i0
    0x10000a214:            84 15 a1 12  or        %l6, 0x112, %g2
    0x10000a218:            c7 1b a9 2f  ldd       [%sp + 0x92f], %d34
    0x10000a21c:            80 a6 80 18  cmp       %i2, %i0
    0x10000a220:            af 28 b0 0c  sllx      %g2, 0xc, %l7
    0x10000a224:            c7 03 a9 37  ld        [%sp + 0x937], %f3
    0x10000a228:            16 60 00 69  bge,pn    %xcc, +0x1a4  <0x10000a3cc>
    0x10000a22c:            88 10 20 01  mov       0x1, %g4
    0x10000a230:            eb 07 20 10  ld        [%i4 + 0x10], %f21
    0x10000a234:            b5 2d 30 05  sllx      %l4, 0x5, %i2
    0x10000a238:            91 a5 49 be  fdivs     %f21, %f30, %f8
    0x10000a23c:            d1 23 a9 3f  st        %f8, [%sp + 0x93f]
    0x10000a240:            cf 3b a9 27  std       %d38, [%sp + 0x927]
    0x10000a244:            c7 3b a9 2f  std       %d34, [%sp + 0x92f]
    0x10000a248:            c7 23 a9 37  st        %f3, [%sp + 0x937]
    0x10000a24c:            fd 23 a9 3b  st        %f30, [%sp + 0x93b]
    0x10000a250:            40 04 1e a4  call      +0x107a90     <0x100111ce0>
    0x10000a254:            cb 3b a9 1f  std       %d36, [%sp + 0x91f]
    0x10000a258:            c8 07 60 18  ld        [%i5 + 0x18], %g4
    0x10000a25c:            f0 5c 20 10  ldx       [%l0 + 0x10], %i0
    0x10000a260:            d9 07 20 14  ld        [%i4 + 0x14], %f12
    0x10000a264:            ad 39 20 00  sra       %g4, 0x0, %l6
    0x10000a268:            87 2d b0 05  sllx      %l6, 0x5, %g3
    0x10000a26c:            9e 06 00 03  add       %i0, %g3, %o7
    0x10000a270:            db 03 e0 18  ld        [%o7 + 0x18], %f13
    0x10000a274:            d0 73 a9 df  stx       %o0, [%sp + 0x9df]
    0x10000a278:            cf 1b a9 df  ldd       [%sp + 0x9df], %d38
    0x10000a27c:            d1 03 a9 3f  ld        [%sp + 0x93f], %f8
    0x10000a280:            cb 1b a9 1f  ldd       [%sp + 0x91f], %d36
    0x10000a284:            a9 a0 10 87  fxtos     %d38, %f20
    0x10000a288:            8d a3 49 28  fmuls     %f13, %f8, %f6
    0x10000a28c:            cf 1b a9 27  ldd       [%sp + 0x927], %d38
    0x10000a290:            c7 1b a9 2f  ldd       [%sp + 0x92f], %d34
    0x10000a294:            c7 03 a9 37  ld        [%sp + 0x937], %f3
    0x10000a298:            fd 03 a9 3b  ld        [%sp + 0x93b], %f30
    0x10000a29c:            b5 a5 09 2c  fmuls     %f20, %f12, %f26
    0x10000a2a0:            87 ae 8a a6  fcmpes    %fcc3, %f26, %f6
    0x10000a2a4:            19 70 00 43  fbuge,pn  %fcc3, +0x10c  <0x10000a3b0>
    0x10000a2a8:            ec 5f 60 38  ldx       [%i5 + 0x38], %l6
    0x10000a2ac:            80 a5 00 13  cmp       %l4, %l3
    0x10000a2b0:            9a 05 a0 01  add       %l6, 0x1, %o5
    0x10000a2b4:            16 60 00 3e  bge,pn    %xcc, +0xf8   <0x10000a3ac>
    0x10000a2b8:            da 77 60 38  stx       %o5, [%i5 + 0x38]
    0x10000a2bc:            98 10 20 01  mov       0x1, %o4
    0x10000a2c0:            d8 2d e4 60  stb       %o4, [%l7 + 0x460]
    0x10000a2c4:            ac 10 00 14  mov       %l4, %l6
    0x10000a2c8:            d1 23 a9 3f  st        %f8, [%sp + 0x93f]
    0x10000a2cc:            b0 10 00 1a  mov       %i2, %i0
    0x10000a2d0:            d8 5c 20 10  ldx       [%l0 + 0x10], %o4
    0x10000a2d4:            c7 3b a9 2f  std       %d34, [%sp + 0x92f]
    0x10000a2d8:            fd 23 a9 3b  st        %f30, [%sp + 0x93b]
    0x10000a2dc:            d0 5b 00 03  ldx       [%o4 + %g3], %o0
    0x10000a2e0:            d0 77 a6 b7  stx       %o0, [%fp + 0x6b7]
    0x10000a2e4:            94 03 00 03  add       %o4, %g3, %o2
    0x10000a2e8:            c4 5a a0 08  ldx       [%o2 + 0x8], %g2
    0x10000a2ec:            c4 77 a6 bf  stx       %g2, [%fp + 0x6bf]
    0x10000a2f0:            c8 5a a0 10  ldx       [%o2 + 0x10], %g4
    0x10000a2f4:            c8 77 a6 c7  stx       %g4, [%fp + 0x6c7]
    0x10000a2f8:            ca 5a a0 18  ldx       [%o2 + 0x18], %g5
    0x10000a2fc:            ca 77 a6 cf  stx       %g5, [%fp + 0x6cf]
    0x10000a300:            c6 5c 20 10  ldx       [%l0 + 0x10], %g3
    0x10000a304:            c7 23 a9 37  st        %f3, [%sp + 0x937]
    0x10000a308:            cf 3b a9 27  std       %d38, [%sp + 0x927]
    0x10000a30c:            de 58 c0 18  ldx       [%g3 + %i0], %o7
    0x10000a310:            de 77 a6 97  stx       %o7, [%fp + 0x697]
    0x10000a314:            92 00 c0 18  add       %g3, %i0, %o1
    0x10000a318:            da 5a 60 08  ldx       [%o1 + 0x8], %o5
    0x10000a31c:            da 77 a6 9f  stx       %o5, [%fp + 0x69f]
    0x10000a320:            d6 5a 60 10  ldx       [%o1 + 0x10], %o3
    0x10000a324:            d6 77 a6 a7  stx       %o3, [%fp + 0x6a7]
    0x10000a328:            d0 5a 60 18  ldx       [%o1 + 0x18], %o0
    0x10000a32c:            d0 77 a6 af  stx       %o0, [%fp + 0x6af]
    0x10000a330:            d8 04 20 08  ld        [%l0 + 0x8], %o4
    0x10000a334:            92 07 a6 97  add       %fp, 0x697, %o1
    0x10000a338:            90 07 a6 b7  add       %fp, 0x6b7, %o0
    0x10000a33c:            cb 3b a9 1f  std       %d36, [%sp + 0x91f]
    0x10000a340:            7f ff df af  call      -0x8144       <0x1000021fc>
    0x10000a344:            95 3b 20 00  sra       %o4, 0x0, %o2
    0x10000a348:            c4 5c 20 10  ldx       [%l0 + 0x10], %g2
    0x10000a34c:            c8 07 60 18  ld        [%i5 + 0x18], %g4
    0x10000a350:            d1 03 a9 3f  ld        [%sp + 0x93f], %f8
    0x10000a354:            e3 06 00 02  ld        [%i0 + %g2], %f17
    0x10000a358:            fd 03 a9 3b  ld        [%sp + 0x93b], %f30
    0x10000a35c:            94 00 80 18  add       %g2, %i0, %o2
    0x10000a360:            a7 a0 09 31  fmuls     %f0, %f17, %f19
    0x10000a364:            e5 02 a0 18  ld        [%o2 + 0x18], %f18
    0x10000a368:            c7 1b a9 2f  ldd       [%sp + 0x92f], %d34
    0x10000a36c:            cb 1b a9 1f  ldd       [%sp + 0x91f], %d36
    0x10000a370:            cf 1b a9 27  ldd       [%sp + 0x927], %d38
    0x10000a374:            c7 03 a9 37  ld        [%sp + 0x937], %f3
    0x10000a378:            81 ac ca b2  fcmpes    %fcc0, %f19, %f18
    0x10000a37c:            8b 39 20 00  sra       %g4, 0x0, %g5
    0x10000a380:            19 40 00 06  fbuge,pn  %fcc0, +0x18   <0x10000a398>
    0x10000a384:            ac 05 a0 01  add       %l6, 0x1, %l6
    0x10000a388:            e7 22 a0 18  st        %f19, [%o2 + 0x18]
    0x10000a38c:            d6 5c 20 10  ldx       [%l0 + 0x10], %o3
    0x10000a390:            92 02 c0 18  add       %o3, %i0, %o1
    0x10000a394:            ca 72 60 10  stx       %g5, [%o1 + 0x10]
    0x10000a398:            80 a5 80 15  cmp       %l6, %l5
    0x10000a39c:            87 29 70 05  sllx      %g5, 0x5, %g3
    0x10000a3a0:            b0 06 20 20  add       %i0, 0x20, %i0
    0x10000a3a4:            24 6f ff cb  ble,a,pt  %xcc, -0xd4   <0x10000a2d0>
    0x10000a3a8:            d1 23 a9 3f  st        %f8, [%sp + 0x93f]
    0x10000a3ac:            c0 2d e4 60  clrb      [%l7 + 0x460]
    0x10000a3b0:            88 01 20 01  add       %g4, 0x1, %g4
    0x10000a3b4:            c8 27 60 18  st        %g4, [%i5 + 0x18]
    0x10000a3b8:            ec 5c 20 00  ldx       [%l0], %l6
    0x10000a3bc:            9b 39 20 00  sra       %g4, 0x0, %o5
    0x10000a3c0:            80 a3 40 16  cmp       %o5, %l6
    0x10000a3c4:            26 6f ff 9f  bl,a,pt   %xcc, -0x184  <0x10000a240>
    0x10000a3c8:            d1 23 a9 3f  st        %f8, [%sp + 0x93f]
    0x10000a3cc:            df 1e e7 e8  ldd       [%i3 + 0x7e8], %d46
    0x10000a3d0:            c0 2d e4 60  clrb      [%l7 + 0x460]
    0x10000a3d4:            80 a5 00 13  cmp       %l4, %l3
    0x10000a3d8:            26 68 00 52  bl,a,pt   %xcc, +0x148  <0x10000a520>
    0x10000a3dc:            ee 5c 20 10  ldx       [%l0 + 0x10], %l7
    0x10000a3e0:            ec 5f 60 10  ldx       [%i5 + 0x10], %l6
    0x10000a3e4:            c4 5b a9 17  ldx       [%sp + 0x917], %g2
    0x10000a3e8:            df 3d 80 02  std       %d46, [%l6 + %g2]
    0x10000a3ec:            10 80 00 9c  ba        +0x270        <0x10000a65c>
    0x10000a3f0:            c3 1f 60 38  ldd       [%i5 + 0x38], %d32
    0x10000a3f4:            f0 5c 20 00  ldx       [%l0], %i0
    0x10000a3f8:            95 39 20 00  sra       %g4, 0x0, %o2
    0x10000a3fc:            80 a2 80 18  cmp       %o2, %i0
    0x10000a400:            16 60 00 40  bge,pn    %xcc, +0x100  <0x10000a500>
    0x10000a404:            80 a5 00 13  cmp       %l4, %l3
    0x10000a408:            ae 10 00 14  mov       %l4, %l7
    0x10000a40c:            84 10 00 14  mov       %l4, %g2
    0x10000a410:            26 60 00 04  bl,a,pn   %xcc, +0x10   <0x10000a420>
    0x10000a414:            fd 23 a9 3b  st        %f30, [%sp + 0x93b]
    0x10000a418:            10 bf ff fe  ba        -0x8          <0x10000a410>
    0x10000a41c:            01 00 00 00  nop
    0x10000a420:            c7 3b a9 2f  std       %d34, [%sp + 0x92f]
    0x10000a424:            d0 5c 20 10  ldx       [%l0 + 0x10], %o0
    0x10000a428:            93 2a b0 05  sllx      %o2, 0x5, %o1
    0x10000a42c:            c7 23 a9 37  st        %f3, [%sp + 0x937]
    0x10000a430:            d6 5a 00 09  ldx       [%o0 + %o1], %o3
    0x10000a434:            8a 02 00 09  add       %o0, %o1, %g5
    0x10000a438:            d6 77 a6 f7  stx       %o3, [%fp + 0x6f7]
    0x10000a43c:            d8 59 60 08  ldx       [%g5 + 0x8], %o4
    0x10000a440:            d8 77 a6 ff  stx       %o4, [%fp + 0x6ff]
    0x10000a444:            d4 59 60 10  ldx       [%g5 + 0x10], %o2
    0x10000a448:            d4 77 a7 07  stx       %o2, [%fp + 0x707]
    0x10000a44c:            ec 59 60 18  ldx       [%g5 + 0x18], %l6
    0x10000a450:            ec 77 a7 0f  stx       %l6, [%fp + 0x70f]
    0x10000a454:            de 5c 20 10  ldx       [%l0 + 0x10], %o7
    0x10000a458:            b5 28 b0 05  sllx      %g2, 0x5, %i2
    0x10000a45c:            cf 3b a9 27  std       %d38, [%sp + 0x927]
    0x10000a460:            f0 5e 80 0f  ldx       [%i2 + %o7], %i0
    0x10000a464:            9a 03 c0 1a  add       %o7, %i2, %o5
    0x10000a468:            f0 77 a6 d7  stx       %i0, [%fp + 0x6d7]
    0x10000a46c:            c8 5b 60 08  ldx       [%o5 + 0x8], %g4
    0x10000a470:            c8 77 a6 df  stx       %g4, [%fp + 0x6df]
    0x10000a474:            c6 5b 60 10  ldx       [%o5 + 0x10], %g3
    0x10000a478:            c6 77 a6 e7  stx       %g3, [%fp + 0x6e7]
    0x10000a47c:            d6 5b 60 18  ldx       [%o5 + 0x18], %o3
    0x10000a480:            d6 77 a6 ef  stx       %o3, [%fp + 0x6ef]
    0x10000a484:            d8 04 20 08  ld        [%l0 + 0x8], %o4
    0x10000a488:            92 07 a6 d7  add       %fp, 0x6d7, %o1
    0x10000a48c:            90 07 a6 f7  add       %fp, 0x6f7, %o0
    0x10000a490:            95 3b 20 00  sra       %o4, 0x0, %o2
    0x10000a494:            7f ff df 5a  call      -0x8298       <0x1000021fc>
    0x10000a498:            cb 3b a9 1f  std       %d36, [%sp + 0x91f]
    0x10000a49c:            d2 5c 20 10  ldx       [%l0 + 0x10], %o1
    0x10000a4a0:            c8 07 60 18  ld        [%i5 + 0x18], %g4
    0x10000a4a4:            cb 1b a9 1f  ldd       [%sp + 0x91f], %d36
    0x10000a4a8:            f9 06 80 09  ld        [%i2 + %o1], %f28
    0x10000a4ac:            90 02 40 1a  add       %o1, %i2, %o0
    0x10000a4b0:            d5 02 20 18  ld        [%o0 + 0x18], %f10
    0x10000a4b4:            ab a0 09 3c  fmuls     %f0, %f28, %f21
    0x10000a4b8:            fd 03 a9 3b  ld        [%sp + 0x93b], %f30
    0x10000a4bc:            cf 1b a9 27  ldd       [%sp + 0x927], %d38
    0x10000a4c0:            c7 1b a9 2f  ldd       [%sp + 0x92f], %d34
    0x10000a4c4:            c7 03 a9 37  ld        [%sp + 0x937], %f3
    0x10000a4c8:            95 39 20 00  sra       %g4, 0x0, %o2
    0x10000a4cc:            85 ad 4a aa  fcmpes    %fcc2, %f21, %f10
    0x10000a4d0:            19 60 00 06  fbuge,pn  %fcc2, +0x18   <0x10000a4e8>
    0x10000a4d4:            ae 05 e0 01  add       %l7, 0x1, %l7
    0x10000a4d8:            eb 22 20 18  st        %f21, [%o0 + 0x18]
    0x10000a4dc:            da 5c 20 10  ldx       [%l0 + 0x10], %o5
    0x10000a4e0:            b4 03 40 1a  add       %o5, %i2, %i2
    0x10000a4e4:            d4 76 a0 10  stx       %o2, [%i2 + 0x10]
    0x10000a4e8:            85 3d e0 00  sra       %l7, 0x0, %g2
    0x10000a4ec:            80 a0 80 15  cmp       %g2, %l5
    0x10000a4f0:            34 67 ff c3  bg,a,pn   %xcc, -0xf4   <0x10000a3fc>
    0x10000a4f4:            f0 5c 20 00  ldx       [%l0], %i0
    0x10000a4f8:            10 bf ff ca  ba        -0xd8         <0x10000a420>
    0x10000a4fc:            fd 23 a9 3b  st        %f30, [%sp + 0x93b]
    0x10000a500:            11 00 04 00  sethi     %hi(0x100000), %o0
    0x10000a504:            df 1e e7 e8  ldd       [%i3 + 0x7e8], %d46
    0x10000a508:            9a 12 21 12  or        %o0, 0x112, %o5
    0x10000a50c:            a7 2b 70 0c  sllx      %o5, 0xc, %l3
    0x10000a510:            c0 2c e4 60  clrb      [%l3 + 0x460]
    0x10000a514:            36 68 00 be  bge,a,pt  %xcc, +0x2f8  <0x10000a80c>
    0x10000a518:            e8 5f 60 10  ldx       [%i5 + 0x10], %l4
    0x10000a51c:            ee 5c 20 10  ldx       [%l0 + 0x10], %l7
    0x10000a520:            85 2d 30 05  sllx      %l4, 0x5, %g2
    0x10000a524:            86 00 80 17  add       %g2, %l7, %g3
    0x10000a528:            b4 00 e0 18  add       %g3, 0x18, %i2
    0x10000a52c:            8a 25 40 14  sub       %l5, %l4, %g5
    0x10000a530:            86 01 60 01  add       %g5, 0x1, %g3
    0x10000a534:            80 a0 e0 0e  cmp       %g3, 0xe
    0x10000a538:            06 60 00 39  bl,pn     %xcc, +0xe4   <0x10000a61c>
    0x10000a53c:            01 00 00 00  nop
    0x10000a540:            d9 06 a0 00  ld        [%i2], %f12
    0x10000a544:            d7 06 a0 80  ld        [%i2 + 0x80], %f11
    0x10000a548:            e1 06 a0 e0  ld        [%i2 + 0xe0], %f16
    0x10000a54c:            e9 06 a0 20  ld        [%i2 + 0x20], %f20
    0x10000a550:            bb a0 19 2c  fstod     %f12, %d60
    0x10000a554:            e5 06 a0 c0  ld        [%i2 + 0xc0], %f18
    0x10000a558:            bf a0 19 34  fstod     %f20, %d62
    0x10000a55c:            c1 06 a0 60  ld        [%i2 + 0x60], %f0
    0x10000a560:            d3 06 a0 a0  ld        [%i2 + 0xa0], %f9
    0x10000a564:            cd 06 a0 40  ld        [%i2 + 0x40], %f6
    0x10000a568:            b7 a0 19 20  fstod     %f0, %d58
    0x10000a56c:            b4 06 a1 00  add       %i2, 0x100, %i2
    0x10000a570:            b3 a0 19 26  fstod     %f6, %d56
    0x10000a574:            e7 1e e7 e8  ldd       [%i3 + 0x7e8], %d50
    0x10000a578:            83 a3 c8 5f  faddd     %d46, %d62, %d32
    0x10000a57c:            a8 05 20 08  add       %l4, 0x8, %l4
    0x10000a580:            bb a4 c8 5d  faddd     %d50, %d60, %d60
    0x10000a584:            90 25 60 05  sub       %l5, 0x5, %o0
    0x10000a588:            c1 6e a1 60  prefetch  [%i2 + 0x160], #n_reads
    0x10000a58c:            a8 05 20 06  add       %l4, 0x6, %l4
    0x10000a590:            f5 06 a0 00  ld        [%i2], %f26
    0x10000a594:            b4 06 a0 c0  add       %i2, 0xc0, %i2
    0x10000a598:            9f a0 19 2b  fstod     %f11, %d46
    0x10000a59c:            a3 a7 48 59  faddd     %d60, %d56, %d48
    0x10000a5a0:            80 a5 00 08  cmp       %l4, %o0
    0x10000a5a4:            b3 a0 19 29  fstod     %f9, %d56
    0x10000a5a8:            d1 06 bf 60  ld        [%i2 - 0xa0], %f8
    0x10000a5ac:            9b a0 48 5b  faddd     %d32, %d58, %d44
    0x10000a5b0:            b7 a0 19 32  fstod     %f18, %d58
    0x10000a5b4:            d7 06 bf 80  ld        [%i2 - 0x80], %f11
    0x10000a5b8:            97 a4 48 4f  faddd     %d48, %d46, %d42
    0x10000a5bc:            af a0 19 30  fstod     %f16, %d54
    0x10000a5c0:            d3 06 bf a0  ld        [%i2 - 0x60], %f9
    0x10000a5c4:            ab a3 48 59  faddd     %d44, %d56, %d52
    0x10000a5c8:            b3 a0 19 3a  fstod     %f26, %d56
    0x10000a5cc:            e5 06 bf c0  ld        [%i2 - 0x40], %f18
    0x10000a5d0:            bb a2 c8 5b  faddd     %d42, %d58, %d60
    0x10000a5d4:            b7 a0 19 28  fstod     %f8, %d58
    0x10000a5d8:            e1 06 bf e0  ld        [%i2 - 0x20], %f16
    0x10000a5dc:            04 6f ff eb  ble,pt    %xcc, -0x54   <0x10000a588>
    0x10000a5e0:            83 a5 48 57  faddd     %d52, %d54, %d32
    0x10000a5e4:            bf a0 48 5b  faddd     %d32, %d58, %d62
    0x10000a5e8:            9f a0 19 2b  fstod     %f11, %d46
    0x10000a5ec:            a7 a0 19 29  fstod     %f9, %d50
    0x10000a5f0:            a3 a7 48 59  faddd     %d60, %d56, %d48
    0x10000a5f4:            af a0 19 30  fstod     %f16, %d54
    0x10000a5f8:            ab a0 19 32  fstod     %f18, %d52
    0x10000a5fc:            80 a5 00 15  cmp       %l4, %l5
    0x10000a600:            9b a7 c8 53  faddd     %d62, %d50, %d44
    0x10000a604:            97 a4 48 4f  faddd     %d48, %d46, %d42
    0x10000a608:            83 a3 48 57  faddd     %d44, %d54, %d32
    0x10000a60c:            93 a2 c8 55  faddd     %d42, %d52, %d40
    0x10000a610:            9f a2 48 41  faddd     %d40, %d32, %d46
    0x10000a614:            14 60 00 0a  bg,pn     %xcc, +0x28   <0x10000a63c>
    0x10000a618:            01 00 00 00  nop
    0x10000a61c:            ef 06 a0 00  ld        [%i2], %f23
    0x10000a620:            b3 a0 19 37  fstod     %f23, %d56
    0x10000a624:            a8 05 20 01  add       %l4, 0x1, %l4
    0x10000a628:            80 a5 00 15  cmp       %l4, %l5
    0x10000a62c:            b4 06 a0 20  add       %i2, 0x20, %i2
    0x10000a630:            9f a3 c8 59  faddd     %d46, %d56, %d46
    0x10000a634:            24 6f ff fb  ble,a,pt  %xcc, -0x14   <0x10000a620>
    0x10000a638:            ef 06 a0 00  ld        [%i2], %f23
    0x10000a63c:            c6 5f 60 10  ldx       [%i5 + 0x10], %g3
    0x10000a640:            d6 03 a8 ff  ld        [%sp + 0x8ff], %o3
    0x10000a644:            d4 5b a9 17  ldx       [%sp + 0x917], %o2
    0x10000a648:            80 a2 e0 00  cmp       %o3, 0x0
    0x10000a64c:            df 38 c0 0a  std       %d46, [%g3 + %o2]
    0x10000a650:            32 48 00 72  bne,a,pt  %icc, +0x1c8  <0x10000a818>
    0x10000a654:            d2 5f 60 38  ldx       [%i5 + 0x38], %o1
    0x10000a658:            c3 1f 60 38  ldd       [%i5 + 0x38], %d32
    0x10000a65c:            b7 a0 10 81  fxtos     %d32, %f27
    0x10000a660:            ec 5b a8 c7  ldx       [%sp + 0x8c7], %l6
    0x10000a664:            ea 05 a5 18  ld        [%l6 + 0x518], %l5
    0x10000a668:            bb a7 89 3b  fmuls     %f30, %f27, %f29
    0x10000a66c:            80 a5 60 00  cmp       %l5, 0x0
    0x10000a670:            14 40 00 05  bg,pn     %icc, +0x14   <0x10000a684>
    0x10000a674:            93 a0 19 3d  fstod     %f29, %d40
    0x10000a678:            d3 3f 60 08  std       %d40, [%i5 + 0x8]
    0x10000a67c:            10 80 00 50  ba        +0x140        <0x10000a7bc>
    0x10000a680:            c7 3b a9 2f  std       %d34, [%sp + 0x92f]
    0x10000a684:            80 a5 60 18  cmp       %l5, 0x18
    0x10000a688:            ae 05 7f ff  add       %l5, -0x1, %l7
    0x10000a68c:            94 10 20 00  clr       %o2
    0x10000a690:            d2 5f 60 10  ldx       [%i5 + 0x10], %o1
    0x10000a694:            06 40 00 41  bl,pn     %icc, +0x104  <0x10000a798>
    0x10000a698:            01 00 00 00  nop
    0x10000a69c:            f7 1a 60 00  ldd       [%o1], %d58
    0x10000a6a0:            fb 1a 60 08  ldd       [%o1 + 0x8], %d60
    0x10000a6a4:            db 1a 60 20  ldd       [%o1 + 0x20], %d44
    0x10000a6a8:            c3 1a 60 10  ldd       [%o1 + 0x10], %d32
    0x10000a6ac:            f3 1a 60 50  ldd       [%o1 + 0x50], %d56
    0x10000a6b0:            ef 1a 60 48  ldd       [%o1 + 0x48], %d54
    0x10000a6b4:            eb 1a 60 18  ldd       [%o1 + 0x18], %d52
    0x10000a6b8:            ff 1a 60 58  ldd       [%o1 + 0x58], %d62
    0x10000a6bc:            e7 1a 60 38  ldd       [%o1 + 0x38], %d50
    0x10000a6c0:            97 a2 48 55  faddd     %d40, %d52, %d42
    0x10000a6c4:            d3 1e e7 e8  ldd       [%i3 + 0x7e8], %d40
    0x10000a6c8:            e3 1a 60 30  ldd       [%o1 + 0x30], %d48
    0x10000a6cc:            df 1a 60 28  ldd       [%o1 + 0x28], %d46
    0x10000a6d0:            b7 a2 48 5b  faddd     %d40, %d58, %d58
    0x10000a6d4:            bb a2 48 5d  faddd     %d40, %d60, %d60
    0x10000a6d8:            92 02 60 60  add       %o1, 0x60, %o1
    0x10000a6dc:            94 10 20 0c  mov       0xc, %o2
    0x10000a6e0:            93 a2 48 41  faddd     %d40, %d32, %d40
    0x10000a6e4:            eb 1a 7f e0  ldd       [%o1 - 0x20], %d52
    0x10000a6e8:            84 05 7f f4  add       %l5, -0xc, %g2
    0x10000a6ec:            c1 6a 61 30  prefetch  [%o1 + 0x130], #n_reads
    0x10000a6f0:            94 02 a0 0c  add       %o2, 0xc, %o2
    0x10000a6f4:            c3 1a 60 00  ldd       [%o1], %d32
    0x10000a6f8:            92 02 60 60  add       %o1, 0x60, %o1
    0x10000a6fc:            9b a6 c8 4d  faddd     %d58, %d44, %d44
    0x10000a700:            9f a7 48 4f  faddd     %d60, %d46, %d46
    0x10000a704:            80 a2 80 02  cmp       %o2, %g2
    0x10000a708:            fb 1a 7f a8  ldd       [%o1 - 0x58], %d60
    0x10000a70c:            a3 a2 48 51  faddd     %d40, %d48, %d48
    0x10000a710:            d3 1a 7f b0  ldd       [%o1 - 0x50], %d40
    0x10000a714:            a7 a2 c8 53  faddd     %d42, %d50, %d50
    0x10000a718:            d7 1a 7f b8  ldd       [%o1 - 0x48], %d42
    0x10000a71c:            ab a3 48 55  faddd     %d44, %d52, %d52
    0x10000a720:            db 1a 7f c0  ldd       [%o1 - 0x40], %d44
    0x10000a724:            af a3 c8 57  faddd     %d46, %d54, %d54
    0x10000a728:            df 1a 7f c8  ldd       [%o1 - 0x38], %d46
    0x10000a72c:            b3 a4 48 59  faddd     %d48, %d56, %d56
    0x10000a730:            e3 1a 7f d0  ldd       [%o1 - 0x30], %d48
    0x10000a734:            bf a4 c8 5f  faddd     %d50, %d62, %d62
    0x10000a738:            e7 1a 7f d8  ldd       [%o1 - 0x28], %d50
    0x10000a73c:            b7 a5 48 41  faddd     %d52, %d32, %d58
    0x10000a740:            eb 1a 7f e0  ldd       [%o1 - 0x20], %d52
    0x10000a744:            bb a5 c8 5d  faddd     %d54, %d60, %d60
    0x10000a748:            ef 1a 7f e8  ldd       [%o1 - 0x18], %d54
    0x10000a74c:            93 a6 48 49  faddd     %d56, %d40, %d40
    0x10000a750:            f3 1a 7f f0  ldd       [%o1 - 0x10], %d56
    0x10000a754:            97 a7 c8 4b  faddd     %d62, %d42, %d42
    0x10000a758:            04 4f ff e5  ble,pt    %icc, -0x6c   <0x10000a6ec>
    0x10000a75c:            ff 1a 7f f8  ldd       [%o1 - 0x8], %d62
    0x10000a760:            83 a7 48 4f  faddd     %d60, %d46, %d32
    0x10000a764:            93 a2 48 51  faddd     %d40, %d48, %d40
    0x10000a768:            bb a6 c8 4d  faddd     %d58, %d44, %d60
    0x10000a76c:            a7 a2 c8 53  faddd     %d42, %d50, %d50
    0x10000a770:            80 a2 80 17  cmp       %o2, %l7
    0x10000a774:            9f a0 48 57  faddd     %d32, %d54, %d46
    0x10000a778:            9b a2 48 59  faddd     %d40, %d56, %d44
    0x10000a77c:            a3 a7 48 55  faddd     %d60, %d52, %d48
    0x10000a780:            b3 a4 c8 5f  faddd     %d50, %d62, %d56
    0x10000a784:            bf a4 48 4f  faddd     %d48, %d46, %d62
    0x10000a788:            97 a7 c8 4d  faddd     %d62, %d44, %d42
    0x10000a78c:            93 a2 c8 59  faddd     %d42, %d56, %d40
    0x10000a790:            14 40 00 09  bg,pn     %icc, +0x24   <0x10000a7b4>
    0x10000a794:            01 00 00 00  nop
    0x10000a798:            94 02 a0 01  add       %o2, 0x1, %o2
    0x10000a79c:            80 a2 80 17  cmp       %o2, %l7
    0x10000a7a0:            ef 1a 60 00  ldd       [%o1], %d54
    0x10000a7a4:            92 02 60 08  add       %o1, 0x8, %o1
    0x10000a7a8:            93 a2 48 57  faddd     %d40, %d54, %d40
    0x10000a7ac:            04 4f ff fc  ble,pt    %icc, -0x10   <0x10000a79c>
    0x10000a7b0:            94 02 a0 01  add       %o2, 0x1, %o2
    0x10000a7b4:            d3 3f 60 08  std       %d40, [%i5 + 0x8]
    0x10000a7b8:            c7 3b a9 2f  std       %d34, [%sp + 0x92f]
    0x10000a7bc:            d0 5f 60 10  ldx       [%i5 + 0x10], %o0
    0x10000a7c0:            c7 23 a9 37  st        %f3, [%sp + 0x937]
    0x10000a7c4:            cf 3b a9 27  std       %d38, [%sp + 0x927]
    0x10000a7c8:            40 04 1d 56  call      +0x107558     <0x100111d20>
    0x10000a7cc:            cb 3b a9 1f  std       %d36, [%sp + 0x91f]
    0x10000a7d0:            de 5f 60 38  ldx       [%i5 + 0x38], %o7
    0x10000a7d4:            d8 5b a9 07  ldx       [%sp + 0x907], %o4
    0x10000a7d8:            cb 1b a9 1f  ldd       [%sp + 0x91f], %d36
    0x10000a7dc:            cf 1b a9 27  ldd       [%sp + 0x927], %d38
    0x10000a7e0:            c7 1b a9 2f  ldd       [%sp + 0x92f], %d34
    0x10000a7e4:            c7 03 a9 37  ld        [%sp + 0x937], %f3
    0x10000a7e8:            80 a3 c0 0c  cmp       %o7, %o4
    0x10000a7ec:            b2 06 60 01  add       %i1, 0x1, %i1
    0x10000a7f0:            26 6f fd d7  bl,a,pt   %xcc, -0x8a4  <0x100009f4c>
    0x10000a7f4:            c8 07 60 18  ld        [%i5 + 0x18], %g4
    0x10000a7f8:            eb 1f 60 08  ldd       [%i5 + 0x8], %d52
    0x10000a7fc:            b9 a0 18 d5  fdtos     %d52, %f28
    0x10000a800:            83 a0 19 3c  fstod     %f28, %d32
    0x10000a804:            10 80 00 17  ba        +0x5c         <0x10000a860>
    0x10000a808:            c3 3b a9 e7  std       %d32, [%sp + 0x9e7]
    0x10000a80c:            c6 5b a9 17  ldx       [%sp + 0x917], %g3
    0x10000a810:            df 3d 00 03  std       %d46, [%l4 + %g3]
    0x10000a814:            d2 5f 60 38  ldx       [%i5 + 0x38], %o1
    0x10000a818:            ca 5b a9 07  ldx       [%sp + 0x907], %g5
    0x10000a81c:            b2 06 60 01  add       %i1, 0x1, %i1
    0x10000a820:            80 a2 40 05  cmp       %o1, %g5
    0x10000a824:            06 6f fd cb  bl,pt     %xcc, -0x8d4  <0x100009f50>
    0x10000a828:            80 a6 60 01  cmp       %i1, 0x1
    0x10000a82c:            fb 1f 60 08  ldd       [%i5 + 0x8], %d60
    0x10000a830:            95 a0 18 dd  fdtos     %d60, %f10
    0x10000a834:            83 a0 19 2a  fstod     %f10, %d32
    0x10000a838:            10 80 00 2a  ba        +0xa8         <0x10000a8e0>
    0x10000a83c:            f4 5b a9 0f  ldx       [%sp + 0x90f], %i2
    0x10000a840:            da 03 a8 ff  ld        [%sp + 0x8ff], %o5
    0x10000a844:            83 a0 19 20  fstod     %f0, %d32
    0x10000a848:            80 a3 60 00  cmp       %o5, 0x0
    0x10000a84c:            02 40 00 04  be,pn     %icc, +0x10   <0x10000a85c>
    0x10000a850:            c7 1e e7 e8  ldd       [%i3 + 0x7e8], %d34
    0x10000a854:            10 80 00 23  ba        +0x8c         <0x10000a8e0>
    0x10000a858:            f4 5b a9 0f  ldx       [%sp + 0x90f], %i2
    0x10000a85c:            c3 3b a9 e7  std       %d32, [%sp + 0x9e7]
    0x10000a860:            ea 5b a9 07  ldx       [%sp + 0x907], %l5
    0x10000a864:            cb 3b a9 1f  std       %d36, [%sp + 0x91f]
    0x10000a868:            cf 3b a9 27  std       %d38, [%sp + 0x927]
    0x10000a86c:            98 10 00 12  mov       %l2, %o4
    0x10000a870:            c7 3b a9 2f  std       %d34, [%sp + 0x92f]
    0x10000a874:            96 10 20 00  clr       %o3
    0x10000a878:            90 10 00 10  mov       %l0, %o0
    0x10000a87c:            95 3d 60 00  sra       %l5, 0x0, %o2
    0x10000a880:            7f ff e6 7d  call      -0x660c       <0x100004274>
    0x10000a884:            92 07 60 40  add       %i5, 0x40, %o1
    0x10000a888:            cb 1b a9 1f  ldd       [%sp + 0x91f], %d36
    0x10000a88c:            cf 1b a9 27  ldd       [%sp + 0x927], %d38
    0x10000a890:            c7 1b a9 2f  ldd       [%sp + 0x92f], %d34
    0x10000a894:            d0 27 60 48  st        %o0, [%i5 + 0x48]
    0x10000a898:            ee 5c 20 00  ldx       [%l0], %l7
    0x10000a89c:            c3 1b a9 e7  ldd       [%sp + 0x9e7], %d32
    0x10000a8a0:            04 c5 c0 0f  brlez,pn  %l7, +0x3c    <0x10000a8dc>
    0x10000a8a4:            94 10 20 00  clr       %o2
    0x10000a8a8:            c8 5c 20 10  ldx       [%l0 + 0x10], %g4
    0x10000a8ac:            92 10 20 00  clr       %o1
    0x10000a8b0:            86 01 00 09  add       %g4, %o1, %g3
    0x10000a8b4:            d6 5f 7f f0  ldx       [%i5 - 0x10], %o3
    0x10000a8b8:            da 58 e0 10  ldx       [%g3 + 0x10], %o5
    0x10000a8bc:            9e 10 20 01  mov       0x1, %o7
    0x10000a8c0:            94 02 a0 01  add       %o2, 0x1, %o2
    0x10000a8c4:            de 2a c0 0d  stb       %o7, [%o3 + %o5]
    0x10000a8c8:            d8 5c 20 00  ldx       [%l0], %o4
    0x10000a8cc:            92 02 60 20  add       %o1, 0x20, %o1
    0x10000a8d0:            80 a2 80 0c  cmp       %o2, %o4
    0x10000a8d4:            26 6f ff f7  bl,a,pt   %xcc, -0x24   <0x10000a8b0>
    0x10000a8d8:            c8 5c 20 10  ldx       [%l0 + 0x10], %g4
    0x10000a8dc:            f4 5b a9 0f  ldx       [%sp + 0x90f], %i2
    0x10000a8e0:            db 1b a9 0f  ldd       [%sp + 0x90f], %d44
    0x10000a8e4:            df 1b a9 07  ldd       [%sp + 0x907], %d46
    0x10000a8e8:            e3 1f 20 18  ldd       [%i4 + 0x18], %d48
    0x10000a8ec:            e8 5b a9 07  ldx       [%sp + 0x907], %l4
    0x10000a8f0:            cb 3b a9 1f  std       %d36, [%sp + 0x91f]
    0x10000a8f4:            cf 3b a9 27  std       %d38, [%sp + 0x927]
    0x10000a8f8:            c7 3b a9 2f  std       %d34, [%sp + 0x92f]
    0x10000a8fc:            c3 3b a9 e7  std       %d32, [%sp + 0x9e7]
    0x10000a900:            aa 06 a0 02  add       %i2, 0x2, %l5
    0x10000a904:            ea 73 a9 4f  stx       %l5, [%sp + 0x94f]
    0x10000a908:            a6 05 3f fe  add       %l4, -0x2, %l3
    0x10000a90c:            81 a0 11 0d  fxtod     %d44, %d0
    0x10000a910:            c1 3b a9 ff  std       %d0, [%sp + 0x9ff]
    0x10000a914:            d0 5b a9 ff  ldx       [%sp + 0x9ff], %o0
    0x10000a918:            af a0 11 0f  fxtod     %d46, %d54
    0x10000a91c:            ef 3b a9 67  std       %d54, [%sp + 0x967]
    0x10000a920:            b3 a0 09 51  fmuld     %d0, %d48, %d56
    0x10000a924:            f3 3b a9 6f  std       %d56, [%sp + 0x96f]
    0x10000a928:            40 00 05 a6  call      +0x1698       <0x10000bfc0>
    0x10000a92c:            e6 73 a9 47  stx       %l3, [%sp + 0x947]
    0x10000a930:            c8 07 60 04  ld        [%i5 + 0x4], %g4
    0x10000a934:            c3 1b a9 e7  ldd       [%sp + 0x9e7], %d32
    0x10000a938:            f3 1b a9 6f  ldd       [%sp + 0x96f], %d56
    0x10000a93c:            ef 1b a9 67  ldd       [%sp + 0x967], %d54
    0x10000a940:            93 a0 49 c1  fdivd     %d32, %d32, %d40
    0x10000a944:            95 39 20 00  sra       %g4, 0x0, %o2
    0x10000a948:            b4 4a 80 1a  mulx      %o2, %i2, %i2
    0x10000a94c:            f4 73 aa 17  stx       %i2, [%sp + 0xa17]
    0x10000a950:            cf 1b aa 17  ldd       [%sp + 0xa17], %d38
    0x10000a954:            cb 1b a9 1f  ldd       [%sp + 0x91f], %d36
    0x10000a958:            c7 1b a9 2f  ldd       [%sp + 0x92f], %d34
    0x10000a95c:            a7 a0 11 07  fxtod     %d38, %d50
    0x10000a960:            cf 1b a9 27  ldd       [%sp + 0x927], %d38
    0x10000a964:            ab a0 00 40  fmovd     %d0, %d52
    0x10000a968:            df 1f 20 20  ldd       [%i4 + 0x20], %d46
    0x10000a96c:            83 aa 4a cf  fcmped    %fcc1, %d40, %d46
    0x10000a970:            1d 50 00 73  fbule,pn  %fcc1, +0x1cc  <0x10000ab3c>
    0x10000a974:            8f a0 18 c5  fdtos     %d36, %f7
    0x10000a978:            bb a4 c9 55  fmuld     %d50, %d52, %d60
    0x10000a97c:            e8 07 60 48  ld        [%i5 + 0x48], %l4
    0x10000a980:            9e 10 20 00  clr       %o7
    0x10000a984:            e6 5f 60 40  ldx       [%i5 + 0x40], %l3
    0x10000a988:            b3 3d 20 00  sra       %l4, 0x0, %i1
    0x10000a98c:            9f 7e 64 01  movre     %i1, 0x1, %o7
    0x10000a990:            bf a0 10 5d  fdtox     %d60, %d62
    0x10000a994:            ff 3b a9 5f  std       %d62, [%sp + 0x95f]
    0x10000a998:            da 5b a9 5f  ldx       [%sp + 0x95f], %o5
    0x10000a99c:            b4 06 40 0f  add       %i1, %o7, %i2
    0x10000a9a0:            a8 03 7f ff  add       %o5, -0x1, %l4
    0x10000a9a4:            da 03 a8 ff  ld        [%sp + 0x8ff], %o5
    0x10000a9a8:            80 a3 60 00  cmp       %o5, 0x0
    0x10000a9ac:            db 1e e7 e8  ldd       [%i3 + 0x7e8], %d44
    0x10000a9b0:            12 40 00 16  bne,pn    %icc, +0x58   <0x10000aa08>
    0x10000a9b4:            90 10 00 13  mov       %l3, %o0
    0x10000a9b8:            cb 3b a9 1f  std       %d36, [%sp + 0x91f]
    0x10000a9bc:            cf 3b a9 27  std       %d38, [%sp + 0x927]
    0x10000a9c0:            c7 3b a9 2f  std       %d34, [%sp + 0x92f]
    0x10000a9c4:            eb 3b a9 7f  std       %d52, [%sp + 0x97f]
    0x10000a9c8:            ef 3b a9 67  std       %d54, [%sp + 0x967]
    0x10000a9cc:            f3 3b a9 6f  std       %d56, [%sp + 0x96f]
    0x10000a9d0:            cf 23 a9 77  st        %f7, [%sp + 0x977]
    0x10000a9d4:            c3 3b a9 af  std       %d32, [%sp + 0x9af]
    0x10000a9d8:            db 3b a9 a7  std       %d44, [%sp + 0x9a7]
    0x10000a9dc:            7f ff dd e1  call      -0x887c       <0x100002160>
    0x10000a9e0:            92 10 00 19  mov       %i1, %o1
    0x10000a9e4:            cb 1b a9 1f  ldd       [%sp + 0x91f], %d36
    0x10000a9e8:            cf 1b a9 27  ldd       [%sp + 0x927], %d38
    0x10000a9ec:            c7 1b a9 2f  ldd       [%sp + 0x92f], %d34
    0x10000a9f0:            eb 1b a9 7f  ldd       [%sp + 0x97f], %d52
    0x10000a9f4:            ef 1b a9 67  ldd       [%sp + 0x967], %d54
    0x10000a9f8:            f3 1b a9 6f  ldd       [%sp + 0x96f], %d56
    0x10000a9fc:            cf 03 a9 77  ld        [%sp + 0x977], %f7
    0x10000aa00:            c3 1b a9 af  ldd       [%sp + 0x9af], %d32
    0x10000aa04:            db 1b a9 a7  ldd       [%sp + 0x9a7], %d44
    0x10000aa08:            ea 5b a9 5f  ldx       [%sp + 0x95f], %l5
    0x10000aa0c:            04 c5 40 3f  brlez,pn  %l5, +0xfc    <0x10000ab08>
    0x10000aa10:            b1 3e 70 3f  srax      %i1, 0x3f, %i0
    0x10000aa14:            96 26 a0 01  sub       %i2, 0x1, %o3
    0x10000aa18:            98 1e 40 18  xor       %i1, %i0, %o4
    0x10000aa1c:            80 8e 80 0b  btst      %o3, %i2
    0x10000aa20:            aa 23 00 18  sub       %o4, %i0, %l5
    0x10000aa24:            12 60 00 06  bne,pn    %xcc, +0x18   <0x10000aa3c>
    0x10000aa28:            ac 10 20 00  clr       %l6
    0x10000aa2c:            02 c6 80 04  brz,pn    %i2, +0x10    <0x10000aa3c>
    0x10000aa30:            b0 10 20 00  clr       %i0
    0x10000aa34:            10 80 00 06  ba        +0x18         <0x10000aa4c>
    0x10000aa38:            89 a0 19 27  fstod     %f7, %d4
    0x10000aa3c:            9b 68 00 1a  sdivx     %g0, %i2, %o5
    0x10000aa40:            9e 4b 40 1a  mulx      %o5, %i2, %o7
    0x10000aa44:            89 a0 19 27  fstod     %f7, %d4
    0x10000aa48:            b0 20 00 0f  neg       %o7, %i0
    0x10000aa4c:            c9 3b aa 17  std       %d4, [%sp + 0xa17]
    0x10000aa50:            ae 05 7f ff  add       %l5, -0x1, %l7
    0x10000aa54:            93 2e 30 02  sllx      %i0, 0x2, %o1
    0x10000aa58:            f3 3b a9 6f  std       %d56, [%sp + 0x96f]
    0x10000aa5c:            cf 23 a9 77  st        %f7, [%sp + 0x977]
    0x10000aa60:            eb 3b a9 7f  std       %d52, [%sp + 0x97f]
    0x10000aa64:            c3 3b a9 af  std       %d32, [%sp + 0x9af]
    0x10000aa68:            db 3b a9 a7  std       %d44, [%sp + 0x9a7]
    0x10000aa6c:            ca 02 40 13  ld        [%o1 + %l3], %g5
    0x10000aa70:            9a 10 00 12  mov       %l2, %o5
    0x10000aa74:            92 10 00 10  mov       %l0, %o1
    0x10000aa78:            91 39 60 00  sra       %g5, 0x0, %o0
    0x10000aa7c:            98 10 00 11  mov       %l1, %o4
    0x10000aa80:            96 07 60 38  add       %i5, 0x38, %o3
    0x10000aa84:            ef 3b a9 67  std       %d54, [%sp + 0x967]
    0x10000aa88:            c7 3b a9 2f  std       %d34, [%sp + 0x92f]
    0x10000aa8c:            cf 3b a9 27  std       %d38, [%sp + 0x927]
    0x10000aa90:            ac 05 a0 01  add       %l6, 0x1, %l6
    0x10000aa94:            7f ff e1 4a  call      -0x7ad8       <0x100002fbc>
    0x10000aa98:            cb 3b a9 1f  std       %d36, [%sp + 0x91f]
    0x10000aa9c:            91 35 b0 3f  srlx      %l6, 0x3f, %o0
    0x10000aaa0:            9a 1a 20 01  xor       %o0, 0x1, %o5
    0x10000aaa4:            db 1b a9 a7  ldd       [%sp + 0x9a7], %d44
    0x10000aaa8:            9e 20 00 0d  neg       %o5, %o7
    0x10000aaac:            96 0b c0 17  and       %o7, %l7, %o3
    0x10000aab0:            c9 1b aa 17  ldd       [%sp + 0xa17], %d4
    0x10000aab4:            86 06 20 01  add       %i0, 0x1, %g3
    0x10000aab8:            eb 1b a9 7f  ldd       [%sp + 0x97f], %d52
    0x10000aabc:            98 02 e0 01  add       %o3, 0x1, %o4
    0x10000aac0:            ef 1b a9 67  ldd       [%sp + 0x967], %d54
    0x10000aac4:            b0 18 c0 0c  xor       %g3, %o4, %i0
    0x10000aac8:            f3 1b a9 6f  ldd       [%sp + 0x96f], %d56
    0x10000aacc:            88 10 20 00  clr       %g4
    0x10000aad0:            cf 03 a9 77  ld        [%sp + 0x977], %f7
    0x10000aad4:            89 7e 24 01  movre     %i0, 0x1, %g4
    0x10000aad8:            94 20 00 04  neg       %g4, %o2
    0x10000aadc:            c3 1b a9 af  ldd       [%sp + 0x9af], %d32
    0x10000aae0:            93 3a a0 00  sra       %o2, 0x0, %o1
    0x10000aae4:            c7 1b a9 2f  ldd       [%sp + 0x92f], %d34
    0x10000aae8:            8a 0a 40 15  and       %o1, %l5, %g5
    0x10000aaec:            cb 1b a9 1f  ldd       [%sp + 0x91f], %d36
    0x10000aaf0:            9b a3 48 40  faddd     %d44, %d0, %d44
    0x10000aaf4:            80 a5 80 14  cmp       %l6, %l4
    0x10000aaf8:            cf 1b a9 27  ldd       [%sp + 0x927], %d38
    0x10000aafc:            b0 20 c0 05  sub       %g3, %g5, %i0
    0x10000ab00:            24 6f ff d5  ble,a,pt  %xcc, -0xac   <0x10000aa54>
    0x10000ab04:            c9 3b aa 17  std       %d4, [%sp + 0xa17]
    0x10000ab08:            83 a0 48 cd  fsubd     %d32, %d44, %d32
    0x10000ab0c:            ff 1f 20 20  ldd       [%i4 + 0x20], %d62
    0x10000ab10:            97 a3 49 c1  fdivd     %d44, %d32, %d42
    0x10000ab14:            85 aa ca df  fcmped    %fcc2, %d42, %d62
    0x10000ab18:            2d 6f ff a4  fbg,a,pt  %fcc2, -0x170  <0x10000a9a8>
    0x10000ab1c:            da 03 a8 ff  ld        [%sp + 0x8ff], %o5
    0x10000ab20:            da 07 60 04  ld        [%i5 + 0x4], %o5
    0x10000ab24:            f4 5b a9 0f  ldx       [%sp + 0x90f], %i2
    0x10000ab28:            a7 3b 60 00  sra       %o5, 0x0, %l3
    0x10000ab2c:            9e 4c c0 1a  mulx      %l3, %i2, %o7
    0x10000ab30:            de 73 aa 17  stx       %o7, [%sp + 0xa17]
    0x10000ab34:            ff 1b aa 17  ldd       [%sp + 0xa17], %d62
    0x10000ab38:            a7 a0 11 1f  fxtod     %d62, %d50
    0x10000ab3c:            fb 1f 60 38  ldd       [%i5 + 0x38], %d60
    0x10000ab40:            87 a0 18 c1  fdtos     %d32, %f3
    0x10000ab44:            a3 a0 11 1d  fxtod     %d60, %d48
    0x10000ab48:            87 ac 4a d9  fcmped    %fcc3, %d48, %d56
    0x10000ab4c:            0b 70 00 07  fbug,pn   %fcc3, +0x1c   <0x10000ab68>
    0x10000ab50:            83 a0 19 23  fstod     %f3, %d32
    0x10000ab54:            d7 1f 20 28  ldd       [%i4 + 0x28], %d42
    0x10000ab58:            9b a5 c9 4b  fmuld     %d54, %d42, %d44
    0x10000ab5c:            81 ac 4a cd  fcmped    %fcc0, %d48, %d44
    0x10000ab60:            37 40 00 0b  fbge,a,pn %fcc0, +0x2c   <0x10000ab8c>
    0x10000ab64:            b7 a0 49 c1  fdivd     %d32, %d32, %d58
    0x10000ab68:            de 5f 60 38  ldx       [%i5 + 0x38], %o7
    0x10000ab6c:            e6 5b a9 4f  ldx       [%sp + 0x94f], %l3
    0x10000ab70:            80 a3 c0 13  cmp       %o7, %l3
    0x10000ab74:            14 60 00 7e  bg,pn     %xcc, +0x1f8  <0x10000ad6c>
    0x10000ab78:            e8 5b a9 47  ldx       [%sp + 0x947], %l4
    0x10000ab7c:            80 a3 c0 14  cmp       %o7, %l4
    0x10000ab80:            26 60 00 7c  bl,a,pn   %xcc, +0x1f0  <0x10000ad70>
    0x10000ab84:            e8 5f 60 38  ldx       [%i5 + 0x38], %l4
    0x10000ab88:            b7 a0 49 c1  fdivd     %d32, %d32, %d58
    0x10000ab8c:            ff 1f 20 30  ldd       [%i4 + 0x30], %d62
    0x10000ab90:            83 ae ca df  fcmped    %fcc1, %d58, %d62
    0x10000ab94:            1d 50 00 74  fbule,pn  %fcc1, +0x1d0  <0x10000ad64>
    0x10000ab98:            d2 07 60 48  ld        [%i5 + 0x48], %o1
    0x10000ab9c:            a7 a4 c9 55  fmuld     %d50, %d52, %d50
    0x10000aba0:            90 10 20 00  clr       %o0
    0x10000aba4:            b5 3a 60 00  sra       %o1, 0x0, %i2
    0x10000aba8:            ea 5f 60 40  ldx       [%i5 + 0x40], %l5
    0x10000abac:            91 7e a4 01  movre     %i2, 0x1, %o0
    0x10000abb0:            a8 06 80 08  add       %i2, %o0, %l4
    0x10000abb4:            b7 a0 10 53  fdtox     %d50, %d58
    0x10000abb8:            f7 3b a9 9f  std       %d58, [%sp + 0x99f]
    0x10000abbc:            de 5b a9 9f  ldx       [%sp + 0x99f], %o7
    0x10000abc0:            ac 03 ff ff  add       %o7, -0x1, %l6
    0x10000abc4:            de 03 a8 ff  ld        [%sp + 0x8ff], %o7
    0x10000abc8:            80 a3 e0 00  cmp       %o7, 0x0
    0x10000abcc:            f7 1e e7 e8  ldd       [%i3 + 0x7e8], %d58
    0x10000abd0:            12 40 00 16  bne,pn    %icc, +0x58   <0x10000ac28>
    0x10000abd4:            90 10 00 15  mov       %l5, %o0
    0x10000abd8:            cb 3b a9 1f  std       %d36, [%sp + 0x91f]
    0x10000abdc:            cf 3b a9 27  std       %d38, [%sp + 0x927]
    0x10000abe0:            c7 3b a9 2f  std       %d34, [%sp + 0x92f]
    0x10000abe4:            c3 3b a9 bf  std       %d32, [%sp + 0x9bf]
    0x10000abe8:            f7 3b a9 b7  std       %d58, [%sp + 0x9b7]
    0x10000abec:            eb 3b a9 7f  std       %d52, [%sp + 0x97f]
    0x10000abf0:            ef 3b a9 67  std       %d54, [%sp + 0x967]
    0x10000abf4:            f3 3b a9 6f  std       %d56, [%sp + 0x96f]
    0x10000abf8:            cf 23 a9 77  st        %f7, [%sp + 0x977]
    0x10000abfc:            7f ff dd 59  call      -0x8a9c       <0x100002160>
    0x10000ac00:            92 10 00 1a  mov       %i2, %o1
    0x10000ac04:            cb 1b a9 1f  ldd       [%sp + 0x91f], %d36
    0x10000ac08:            cf 1b a9 27  ldd       [%sp + 0x927], %d38
    0x10000ac0c:            c7 1b a9 2f  ldd       [%sp + 0x92f], %d34
    0x10000ac10:            c3 1b a9 bf  ldd       [%sp + 0x9bf], %d32
    0x10000ac14:            f7 1b a9 b7  ldd       [%sp + 0x9b7], %d58
    0x10000ac18:            eb 1b a9 7f  ldd       [%sp + 0x97f], %d52
    0x10000ac1c:            ef 1b a9 67  ldd       [%sp + 0x967], %d54
    0x10000ac20:            f3 1b a9 6f  ldd       [%sp + 0x96f], %d56
    0x10000ac24:            cf 03 a9 77  ld        [%sp + 0x977], %f7
    0x10000ac28:            f2 5b a9 9f  ldx       [%sp + 0x99f], %i1
    0x10000ac2c:            04 c6 40 3f  brlez,pn  %i1, +0xfc    <0x10000ad28>
    0x10000ac30:            b3 3e b0 3f  srax      %i2, 0x3f, %i1
    0x10000ac34:            9a 25 20 01  sub       %l4, 0x1, %o5
    0x10000ac38:            a6 1e 80 19  xor       %i2, %i1, %l3
    0x10000ac3c:            80 8d 00 0d  btst      %o5, %l4
    0x10000ac40:            ae 24 c0 19  sub       %l3, %i1, %l7
    0x10000ac44:            12 60 00 06  bne,pn    %xcc, +0x18   <0x10000ac5c>
    0x10000ac48:            b2 10 20 00  clr       %i1
    0x10000ac4c:            02 c5 00 04  brz,pn    %l4, +0x10    <0x10000ac5c>
    0x10000ac50:            b0 10 20 00  clr       %i0
    0x10000ac54:            10 80 00 06  ba        +0x18         <0x10000ac6c>
    0x10000ac58:            89 a0 19 27  fstod     %f7, %d4
    0x10000ac5c:            97 68 00 14  sdivx     %g0, %l4, %o3
    0x10000ac60:            88 4a c0 14  mulx      %o3, %l4, %g4
    0x10000ac64:            89 a0 19 27  fstod     %f7, %d4
    0x10000ac68:            b0 20 00 04  neg       %g4, %i0
    0x10000ac6c:            c9 3b aa 17  std       %d4, [%sp + 0xa17]
    0x10000ac70:            a6 05 ff ff  add       %l7, -0x1, %l3
    0x10000ac74:            91 2e 30 02  sllx      %i0, 0x2, %o0
    0x10000ac78:            f3 3b a9 6f  std       %d56, [%sp + 0x96f]
    0x10000ac7c:            cf 23 a9 77  st        %f7, [%sp + 0x977]
    0x10000ac80:            eb 3b a9 7f  std       %d52, [%sp + 0x97f]
    0x10000ac84:            c3 3b a9 bf  std       %d32, [%sp + 0x9bf]
    0x10000ac88:            f7 3b a9 b7  std       %d58, [%sp + 0x9b7]
    0x10000ac8c:            de 02 00 15  ld        [%o0 + %l5], %o7
    0x10000ac90:            9a 10 00 12  mov       %l2, %o5
    0x10000ac94:            92 10 00 10  mov       %l0, %o1
    0x10000ac98:            91 3b e0 00  sra       %o7, 0x0, %o0
    0x10000ac9c:            98 10 00 11  mov       %l1, %o4
    0x10000aca0:            96 07 60 38  add       %i5, 0x38, %o3
    0x10000aca4:            ef 3b a9 67  std       %d54, [%sp + 0x967]
    0x10000aca8:            c7 3b a9 2f  std       %d34, [%sp + 0x92f]
    0x10000acac:            cf 3b a9 27  std       %d38, [%sp + 0x927]
    0x10000acb0:            b2 06 60 01  add       %i1, 0x1, %i1
    0x10000acb4:            7f ff e0 c2  call      -0x7cf8       <0x100002fbc>
    0x10000acb8:            cb 3b a9 1f  std       %d36, [%sp + 0x91f]
    0x10000acbc:            9b 36 70 3f  srlx      %i1, 0x3f, %o5
    0x10000acc0:            96 1b 60 01  xor       %o5, 0x1, %o3
    0x10000acc4:            f7 1b a9 b7  ldd       [%sp + 0x9b7], %d58
    0x10000acc8:            98 20 00 0b  neg       %o3, %o4
    0x10000accc:            84 0b 00 13  and       %o4, %l3, %g2
    0x10000acd0:            c9 1b aa 17  ldd       [%sp + 0xa17], %d4
    0x10000acd4:            86 06 20 01  add       %i0, 0x1, %g3
    0x10000acd8:            c3 1b a9 bf  ldd       [%sp + 0x9bf], %d32
    0x10000acdc:            88 00 a0 01  add       %g2, 0x1, %g4
    0x10000ace0:            eb 1b a9 7f  ldd       [%sp + 0x97f], %d52
    0x10000ace4:            b0 18 c0 04  xor       %g3, %g4, %i0
    0x10000ace8:            ef 1b a9 67  ldd       [%sp + 0x967], %d54
    0x10000acec:            92 10 20 00  clr       %o1
    0x10000acf0:            f3 1b a9 6f  ldd       [%sp + 0x96f], %d56
    0x10000acf4:            93 7e 24 01  movre     %i0, 0x1, %o1
    0x10000acf8:            8a 20 00 09  neg       %o1, %g5
    0x10000acfc:            cf 03 a9 77  ld        [%sp + 0x977], %f7
    0x10000ad00:            91 39 60 00  sra       %g5, 0x0, %o0
    0x10000ad04:            c7 1b a9 2f  ldd       [%sp + 0x92f], %d34
    0x10000ad08:            9e 0a 00 17  and       %o0, %l7, %o7
    0x10000ad0c:            cb 1b a9 1f  ldd       [%sp + 0x91f], %d36
    0x10000ad10:            b7 a6 c8 40  faddd     %d58, %d0, %d58
    0x10000ad14:            80 a6 40 16  cmp       %i1, %l6
    0x10000ad18:            cf 1b a9 27  ldd       [%sp + 0x927], %d38
    0x10000ad1c:            b0 20 c0 0f  sub       %g3, %o7, %i0
    0x10000ad20:            24 6f ff d5  ble,a,pt  %xcc, -0xac   <0x10000ac74>
    0x10000ad24:            c9 3b aa 17  std       %d4, [%sp + 0xa17]
    0x10000ad28:            83 a0 48 db  fsubd     %d32, %d58, %d32
    0x10000ad2c:            e3 1f 20 30  ldd       [%i4 + 0x30], %d48
    0x10000ad30:            a7 a6 c9 c1  fdivd     %d58, %d32, %d50
    0x10000ad34:            85 ac ca d1  fcmped    %fcc2, %d50, %d48
    0x10000ad38:            2d 6f ff a4  fbg,a,pt  %fcc2, -0x170  <0x10000abc8>
    0x10000ad3c:            de 03 a8 ff  ld        [%sp + 0x8ff], %o7
    0x10000ad40:            d6 07 60 04  ld        [%i5 + 0x4], %o3
    0x10000ad44:            f0 5b a9 0f  ldx       [%sp + 0x90f], %i0
    0x10000ad48:            d3 1f 60 38  ldd       [%i5 + 0x38], %d40
    0x10000ad4c:            99 3a e0 00  sra       %o3, 0x0, %o4
    0x10000ad50:            b0 4b 00 18  mulx      %o4, %i0, %i0
    0x10000ad54:            f0 73 aa 17  stx       %i0, [%sp + 0xa17]
    0x10000ad58:            d7 1b aa 17  ldd       [%sp + 0xa17], %d42
    0x10000ad5c:            a3 a0 11 09  fxtod     %d40, %d48
    0x10000ad60:            a7 a0 11 0b  fxtod     %d42, %d50
    0x10000ad64:            97 a0 18 c1  fdtos     %d32, %f11
    0x10000ad68:            83 a0 19 2b  fstod     %f11, %d32
    0x10000ad6c:            e8 5f 60 38  ldx       [%i5 + 0x38], %l4
    0x10000ad70:            ec 5b a9 0f  ldx       [%sp + 0x90f], %l6
    0x10000ad74:            80 a5 00 16  cmp       %l4, %l6
    0x10000ad78:            04 60 00 14  ble,pn    %xcc, +0x50   <0x10000adc8>
    0x10000ad7c:            db 1f 20 08  ldd       [%i4 + 0x8], %d44
    0x10000ad80:            9f a1 c8 45  faddd     %d38, %d36, %d46
    0x10000ad84:            87 a0 00 45  fmovd     %d36, %d34
    0x10000ad88:            ee 5b a9 07  ldx       [%sp + 0x907], %l7
    0x10000ad8c:            80 a5 00 17  cmp       %l4, %l7
    0x10000ad90:            8b a3 c9 4d  fmuld     %d46, %d44, %d36
    0x10000ad94:            93 a1 48 c3  fsubd     %d36, %d34, %d40
    0x10000ad98:            bb a2 49 51  fmuld     %d40, %d48, %d60
    0x10000ad9c:            16 60 00 15  bge,pn    %xcc, +0x54   <0x10000adf0>
    0x10000ada0:            83 a0 48 5d  faddd     %d32, %d60, %d32
    0x10000ada4:            97 a1 48 43  faddd     %d36, %d34, %d42
    0x10000ada8:            d3 1f 20 08  ldd       [%i4 + 0x8], %d40
    0x10000adac:            8f a0 00 45  fmovd     %d36, %d38
    0x10000adb0:            8b a2 c9 49  fmuld     %d42, %d40, %d36
    0x10000adb4:            9b a1 48 c7  fsubd     %d36, %d38, %d44
    0x10000adb8:            9f a3 49 51  fmuld     %d44, %d48, %d46
    0x10000adbc:            83 a0 48 4f  faddd     %d32, %d46, %d32
    0x10000adc0:            10 80 00 0d  ba        +0x34         <0x10000adf4>
    0x10000adc4:            d3 1f 20 38  ldd       [%i4 + 0x38], %d40
    0x10000adc8:            f0 5b a9 07  ldx       [%sp + 0x907], %i0
    0x10000adcc:            80 a5 00 18  cmp       %l4, %i0
    0x10000add0:            16 60 00 0d  bge,pn    %xcc, +0x34   <0x10000ae04>
    0x10000add4:            fb 1f 20 08  ldd       [%i4 + 0x8], %d60
    0x10000add8:            b7 a1 48 43  faddd     %d36, %d34, %d58
    0x10000addc:            8f a0 00 45  fmovd     %d36, %d38
    0x10000ade0:            8b a6 c9 5d  fmuld     %d58, %d60, %d36
    0x10000ade4:            bf a1 48 c7  fsubd     %d36, %d38, %d62
    0x10000ade8:            97 a7 c9 51  fmuld     %d62, %d48, %d42
    0x10000adec:            83 a0 48 4b  faddd     %d32, %d42, %d32
    0x10000adf0:            d3 1f 20 38  ldd       [%i4 + 0x38], %d40
    0x10000adf4:            a3 a1 c9 49  fmuld     %d38, %d40, %d48
    0x10000adf8:            87 a8 ca d1  fcmped    %fcc3, %d34, %d48
    0x10000adfc:            27 7f fe db  fbul,a,pt %fcc3, -0x494  <0x10000a968>
    0x10000ae00:            93 a0 49 c1  fdivd     %d32, %d32, %d40
    0x10000ae04:            c4 03 a8 ff  ld        [%sp + 0x8ff], %g2
    0x10000ae08:            80 a0 a0 00  cmp       %g2, 0x0
    0x10000ae0c:            32 40 00 15  bne,a,pn  %icc, +0x54   <0x10000ae60>
    0x10000ae10:            e0 03 a8 e7  ld        [%sp + 0x8e7], %l0
    0x10000ae14:            40 04 1b c3  call      +0x106f0c     <0x100111d20>
    0x10000ae18:            d0 5f 60 40  ldx       [%i5 + 0x40], %o0
    0x10000ae1c:            40 04 1b c1  call      +0x106f04     <0x100111d20>
    0x10000ae20:            d0 5f 60 50  ldx       [%i5 + 0x50], %o0
    0x10000ae24:            f2 5f 60 38  ldx       [%i5 + 0x38], %i1
    0x10000ae28:            c6 5b a8 f7  ldx       [%sp + 0x8f7], %g3
    0x10000ae2c:            f2 70 e0 00  stx       %i1, [%g3]
    0x10000ae30:            10 80 00 0c  ba        +0x30         <0x10000ae60>
    0x10000ae34:            e0 03 a8 e7  ld        [%sp + 0x8e7], %l0
    0x10000ae38:            e0 03 a8 ff  ld        [%sp + 0x8ff], %l0
    0x10000ae3c:            80 a4 20 00  cmp       %l0, 0x0
    0x10000ae40:            32 40 00 08  bne,a,pn  %icc, +0x20   <0x10000ae60>
    0x10000ae44:            e0 03 a8 e7  ld        [%sp + 0x8e7], %l0
    0x10000ae48:            40 04 1b b6  call      +0x106ed8     <0x100111d20>
    0x10000ae4c:            d0 5f 60 50  ldx       [%i5 + 0x50], %o0
    0x10000ae50:            e2 5f 60 38  ldx       [%i5 + 0x38], %l1
    0x10000ae54:            d0 5b a8 f7  ldx       [%sp + 0x8f7], %o0
    0x10000ae58:            e2 72 20 00  stx       %l1, [%o0]
    0x10000ae5c:            e0 03 a8 e7  ld        [%sp + 0x8e7], %l0
    0x10000ae60:            e4 5b a8 ef  ldx       [%sp + 0x8ef], %l2
    0x10000ae64:            e2 5b a8 c7  ldx       [%sp + 0x8c7], %l1
    0x10000ae68:            88 04 20 01  add       %l0, 0x1, %g4
    0x10000ae6c:            c8 23 a8 e7  st        %g4, [%sp + 0x8e7]
    0x10000ae70:            8a 04 a0 30  add       %l2, 0x30, %g5
    0x10000ae74:            e0 04 65 18  ld        [%l1 + 0x518], %l0
    0x10000ae78:            ca 73 a8 ef  stx       %g5, [%sp + 0x8ef]
    0x10000ae7c:            80 a1 00 10  cmp       %g4, %l0
    0x10000ae80:            26 4f fa 8b  bl,a,pt   %icc, -0x15d4 <0x1000098ac>
    0x10000ae84:            ea 5b a8 ef  ldx       [%sp + 0x8ef], %l5
    0x10000ae88:            40 04 1b ce  call      +0x106f38     <0x100111dc0>
    0x10000ae8c:            d0 5b a8 af  ldx       [%sp + 0x8af], %o0
    0x10000ae90:            40 04 1b cc  call      +0x106f30     <0x100111dc0>
    0x10000ae94:            d0 5b a8 b7  ldx       [%sp + 0x8b7], %o0
    0x10000ae98:            81 c7 e0 08  ret
    0x10000ae9c:            81 e8 20 00  restore   %g0, 0x0, %g0
__1cMoutcenterIDs6FpnGPoints_plpc_v_()
    0x10000aea0:            9d e3 bf 10  save      %sp, -0xf0, %sp
    0x10000aea4:            2d 00 04 00  sethi     %hi(0x100000), %l6
    0x10000aea8:            94 15 a0 0c  or        %l6, 0xc, %o2
    0x10000aeac:            93 2a b0 0c  sllx      %o2, 0xc, %o1
    0x10000aeb0:            a8 02 66 58  add       %o1, 0x658, %l4
    0x10000aeb4:            90 10 00 1a  mov       %i2, %o0
    0x10000aeb8:            40 04 1b ca  call      +0x106f28     <0x100111de0>
    0x10000aebc:            92 10 00 14  mov       %l4, %o1
    0x10000aec0:            02 c2 00 59  brz,pn    %o0, +0x164   <0x10000b024>
    0x10000aec4:            aa 10 00 08  mov       %o0, %l5
    0x10000aec8:            90 10 20 04  mov       0x4, %o0
    0x10000aecc:            40 04 1b a5  call      +0x106e94     <0x100111d60>
    0x10000aed0:            d2 5e 20 00  ldx       [%i0], %o1
    0x10000aed4:            ec 5e 20 00  ldx       [%i0], %l6
    0x10000aed8:            04 c5 80 50  brlez,pn  %l6, +0x140   <0x10000b018>
    0x10000aedc:            ba 10 00 08  mov       %o0, %i5
    0x10000aee0:            80 a5 a0 02  cmp       %l6, 0x2
    0x10000aee4:            b6 05 bf ff  add       %l6, -0x1, %i3
    0x10000aee8:            a2 10 20 00  clr       %l1
    0x10000aeec:            84 10 20 00  clr       %g2
    0x10000aef0:            ae 10 20 01  mov       0x1, %l7
    0x10000aef4:            f8 5e 20 10  ldx       [%i0 + 0x10], %i4
    0x10000aef8:            06 60 00 13  bl,pn     %xcc, +0x4c   <0x10000af44>
    0x10000aefc:            01 00 00 00  nop
    0x10000af00:            a4 10 00 1c  mov       %i4, %l2
    0x10000af04:            b4 05 bf fe  add       %l6, -0x2, %i2
    0x10000af08:            c1 6c a1 30  prefetch  [%l2 + 0x130], #n_reads
    0x10000af0c:            a2 04 60 02  add       %l1, 0x2, %l1
    0x10000af10:            de 5c a0 10  ldx       [%l2 + 0x10], %o7
    0x10000af14:            a4 04 a0 40  add       %l2, 0x40, %l2
    0x10000af18:            80 a4 40 1a  cmp       %l1, %i2
    0x10000af1c:            9b 2b f0 02  sllx      %o7, 0x2, %o5
    0x10000af20:            ee 23 40 08  st        %l7, [%o5 + %o0]
    0x10000af24:            d8 5c bf f0  ldx       [%l2 - 0x10], %o4
    0x10000af28:            97 2b 30 02  sllx      %o4, 0x2, %o3
    0x10000af2c:            04 6f ff f7  ble,pt    %xcc, -0x24   <0x10000af08>
    0x10000af30:            ee 22 c0 08  st        %l7, [%o3 + %o0]
    0x10000af34:            80 a4 40 1b  cmp       %l1, %i3
    0x10000af38:            84 24 80 1c  sub       %l2, %i4, %g2
    0x10000af3c:            14 60 00 06  bg,pn     %xcc, +0x18   <0x10000af54>
    0x10000af40:            01 00 00 00  nop
    0x10000af44:            90 00 80 1c  add       %g2, %i4, %o0
    0x10000af48:            c8 5a 20 10  ldx       [%o0 + 0x10], %g4
    0x10000af4c:            87 29 30 02  sllx      %g4, 0x2, %g3
    0x10000af50:            ee 20 c0 1d  st        %l7, [%g3 + %i5]
    0x10000af54:            a0 10 20 00  clr       %l0
    0x10000af58:            da 07 60 00  ld        [%i5], %o5
    0x10000af5c:            a2 10 20 00  clr       %l1
    0x10000af60:            80 a3 60 00  cmp       %o5, 0x0
    0x10000af64:            02 40 00 26  be,pn     %icc, +0x98   <0x10000affc>
    0x10000af68:            90 10 00 15  mov       %l5, %o0
    0x10000af6c:            92 05 20 14  add       %l4, 0x14, %o1
    0x10000af70:            40 04 1b a4  call      +0x106e90     <0x100111e00>
    0x10000af74:            d4 5e 60 00  ldx       [%i1], %o2
    0x10000af78:            e6 5e 20 10  ldx       [%i0 + 0x10], %l3
    0x10000af7c:            90 10 00 15  mov       %l5, %o0
    0x10000af80:            92 05 20 18  add       %l4, 0x18, %o1
    0x10000af84:            c1 04 c0 11  ld        [%l3 + %l1], %f0
    0x10000af88:            89 a0 19 20  fstod     %f0, %d4
    0x10000af8c:            c9 3b a8 df  std       %d4, [%sp + 0x8df]
    0x10000af90:            40 04 1b 9c  call      +0x106e70     <0x100111e00>
    0x10000af94:            d4 5b a8 df  ldx       [%sp + 0x8df], %o2
    0x10000af98:            de 06 20 08  ld        [%i0 + 0x8], %o7
    0x10000af9c:            80 a3 e0 00  cmp       %o7, 0x0
    0x10000afa0:            04 40 00 13  ble,pn    %icc, +0x4c   <0x10000afec>
    0x10000afa4:            b8 10 20 00  clr       %i4
    0x10000afa8:            c2 5e 20 10  ldx       [%i0 + 0x10], %g1
    0x10000afac:            b6 10 20 00  clr       %i3
    0x10000afb0:            b4 04 40 01  add       %l1, %g1, %i2
    0x10000afb4:            ee 5e a0 08  ldx       [%i2 + 0x8], %l7
    0x10000afb8:            90 10 00 15  mov       %l5, %o0
    0x10000afbc:            92 05 20 1d  add       %l4, 0x1d, %o1
    0x10000afc0:            c1 05 c0 1b  ld        [%l7 + %i3], %f0
    0x10000afc4:            b8 07 20 01  add       %i4, 0x1, %i4
    0x10000afc8:            b6 06 e0 04  add       %i3, 0x4, %i3
    0x10000afcc:            85 a0 19 20  fstod     %f0, %d2
    0x10000afd0:            c5 3b a8 bf  std       %d2, [%sp + 0x8bf]
    0x10000afd4:            40 04 1b 8b  call      +0x106e2c     <0x100111e00>
    0x10000afd8:            d4 5b a8 bf  ldx       [%sp + 0x8bf], %o2
    0x10000afdc:            e4 06 20 08  ld        [%i0 + 0x8], %l2
    0x10000afe0:            80 a7 00 12  cmp       %i4, %l2
    0x10000afe4:            26 4f ff f3  bl,a,pt   %icc, -0x34   <0x10000afb0>
    0x10000afe8:            c2 5e 20 10  ldx       [%i0 + 0x10], %g1
    0x10000afec:            92 10 00 15  mov       %l5, %o1
    0x10000aff0:            40 04 1b 8c  call      +0x106e30     <0x100111e20>
    0x10000aff4:            90 05 20 22  add       %l4, 0x22, %o0
    0x10000aff8:            ec 5e 20 00  ldx       [%i0], %l6
    0x10000affc:            a0 04 20 01  add       %l0, 0x1, %l0
    0x10000b000:            80 a4 00 16  cmp       %l0, %l6
    0x10000b004:            ba 07 60 04  add       %i5, 0x4, %i5
    0x10000b008:            b2 06 60 08  add       %i1, 0x8, %i1
    0x10000b00c:            a2 04 60 20  add       %l1, 0x20, %l1
    0x10000b010:            26 6f ff d4  bl,a,pt   %xcc, -0xb0   <0x10000af60>
    0x10000b014:            da 07 60 00  ld        [%i5], %o5
    0x10000b018:            b0 10 00 15  mov       %l5, %i0
    0x10000b01c:            40 04 1b 89  call      +0x106e24     <0x100111e40>
    0x10000b020:            81 e8 20 00  restore   %g0, 0x0, %g0
    0x10000b024:            3b 00 04 00  sethi     %hi(0x100000), %i5
    0x10000b028:            98 17 60 0c  or        %i5, 0xc, %o4
    0x10000b02c:            11 00 04 00  sethi     %hi(0x100000), %o0
    0x10000b030:            97 2b 30 0c  sllx      %o4, 0xc, %o3
    0x10000b034:            8a 12 21 12  or        %o0, 0x112, %g5
    0x10000b038:            92 02 e6 5a  add       %o3, 0x65a, %o1
    0x10000b03c:            89 29 70 0c  sllx      %g5, 0xc, %g4
    0x10000b040:            94 10 00 1a  mov       %i2, %o2
    0x10000b044:            40 04 1b 6f  call      +0x106dbc     <0x100111e00>
    0x10000b048:            90 01 26 70  add       %g4, 0x670, %o0
    0x10000b04c:            40 04 1b 15  call      +0x106c54     <0x100111ca0>
    0x10000b050:            90 10 20 01  mov       0x1, %o0
    0x10000b054:            10 bf ff 9e  ba        -0x188        <0x10000aecc>
    0x10000b058:            90 10 20 04  mov       0x4, %o0
    0x10000b05c:            00 00 00 00  illtrap   0x0
    0x10000b060:            3f 80 00 00  fbo,a     +0x0          <0x10000b060>
__1cNstreamCluster6FpnHPStream_llillpc_v_()
    0x10000b064:            9d e3 be e0  save      %sp, -0x120, %sp
    0x10000b068:            ad 3e e0 00  sra       %i3, 0x0, %l6
    0x10000b06c:            ae 4f 00 16  mulx      %i4, %l6, %l7
    0x10000b070:            ec 73 a8 c7  stx       %l6, [%sp + 0x8c7]
    0x10000b074:            ac 4f 40 16  mulx      %i5, %l6, %l6
    0x10000b078:            91 2d f0 02  sllx      %l7, 0x2, %o0
    0x10000b07c:            40 04 1b 21  call      +0x106c84     <0x100111d00>
    0x10000b080:            fa 73 a8 bf  stx       %i5, [%sp + 0x8bf]
    0x10000b084:            aa 10 00 08  mov       %o0, %l5
    0x10000b088:            d0 73 a8 b7  stx       %o0, [%sp + 0x8b7]
    0x10000b08c:            40 04 1b 1d  call      +0x106c74     <0x100111d00>
    0x10000b090:            91 2d b0 02  sllx      %l6, 0x2, %o0
    0x10000b094:            a2 10 00 08  mov       %o0, %l1
    0x10000b098:            40 04 1b 1a  call      +0x106c68     <0x100111d00>
    0x10000b09c:            91 2d b0 03  sllx      %l6, 0x3, %o0
    0x10000b0a0:            02 c5 40 e0  brz,pn    %l5, +0x380   <0x10000b420>
    0x10000b0a4:            d0 73 a8 af  stx       %o0, [%sp + 0x8af]
    0x10000b0a8:            f6 27 a7 e7  st        %i3, [%fp + 0x7e7]
    0x10000b0ac:            91 2f 30 05  sllx      %i4, 0x5, %o0
    0x10000b0b0:            40 04 1b 14  call      +0x106c50     <0x100111d00>
    0x10000b0b4:            f8 77 a7 df  stx       %i4, [%fp + 0x7df]
    0x10000b0b8:            04 c7 00 28  brlez,pn  %i4, +0xa0    <0x10000b158>
    0x10000b0bc:            d0 77 a7 ef  stx       %o0, [%fp + 0x7ef]
    0x10000b0c0:            8a 02 20 08  add       %o0, 0x8, %g5
    0x10000b0c4:            80 a7 20 05  cmp       %i4, 0x5
    0x10000b0c8:            96 07 3f ff  add       %i4, -0x1, %o3
    0x10000b0cc:            94 10 20 00  clr       %o2
    0x10000b0d0:            e8 5b a8 c7  ldx       [%sp + 0x8c7], %l4
    0x10000b0d4:            88 10 00 15  mov       %l5, %g4
    0x10000b0d8:            91 2d 30 02  sllx      %l4, 0x2, %o0
    0x10000b0dc:            06 60 00 18  bl,pn     %xcc, +0x60   <0x10000b13c>
    0x10000b0e0:            01 00 00 00  nop
    0x10000b0e4:            94 10 20 01  mov       0x1, %o2
    0x10000b0e8:            92 05 40 08  add       %l5, %o0, %o1
    0x10000b0ec:            9a 07 3f fc  add       %i4, -0x4, %o5
    0x10000b0f0:            ea 71 60 00  stx       %l5, [%g5]
    0x10000b0f4:            8a 01 60 20  add       %g5, 0x20, %g5
    0x10000b0f8:            ed 69 61 40  prefetch  [%g5 + 0x140], #n_writes_strong
    0x10000b0fc:            d2 71 60 00  stx       %o1, [%g5]
    0x10000b100:            a6 02 40 08  add       %o1, %o0, %l3
    0x10000b104:            94 02 a0 04  add       %o2, 0x4, %o2
    0x10000b108:            e6 71 60 20  stx       %l3, [%g5 + 0x20]
    0x10000b10c:            a8 04 c0 08  add       %l3, %o0, %l4
    0x10000b110:            80 a2 80 0d  cmp       %o2, %o5
    0x10000b114:            e8 71 60 40  stx       %l4, [%g5 + 0x40]
    0x10000b118:            aa 05 00 08  add       %l4, %o0, %l5
    0x10000b11c:            8a 01 60 80  add       %g5, 0x80, %g5
    0x10000b120:            ea 71 7f e0  stx       %l5, [%g5 - 0x20]
    0x10000b124:            04 6f ff f5  ble,pt    %xcc, -0x2c   <0x10000b0f8>
    0x10000b128:            92 05 40 08  add       %l5, %o0, %o1
    0x10000b12c:            80 a2 80 0b  cmp       %o2, %o3
    0x10000b130:            88 10 00 09  mov       %o1, %g4
    0x10000b134:            14 60 00 09  bg,pn     %xcc, +0x24   <0x10000b158>
    0x10000b138:            01 00 00 00  nop
    0x10000b13c:            94 02 a0 01  add       %o2, 0x1, %o2
    0x10000b140:            80 a2 80 0b  cmp       %o2, %o3
    0x10000b144:            c8 71 60 00  stx       %g4, [%g5]
    0x10000b148:            88 01 00 08  add       %g4, %o0, %g4
    0x10000b14c:            8a 01 60 20  add       %g5, 0x20, %g5
    0x10000b150:            04 6f ff fc  ble,pt    %xcc, -0x10   <0x10000b140>
    0x10000b154:            94 02 a0 01  add       %o2, 0x1, %o2
    0x10000b158:            f6 27 a7 cf  st        %i3, [%fp + 0x7cf]
    0x10000b15c:            40 04 1a e9  call      +0x106ba4     <0x100111d00>
    0x10000b160:            91 2f 70 05  sllx      %i5, 0x5, %o0
    0x10000b164:            d0 77 a7 d7  stx       %o0, [%fp + 0x7d7]
    0x10000b168:            04 c7 40 2d  brlez,pn  %i5, +0xb4    <0x10000b21c>
    0x10000b16c:            c0 77 a7 c7  clrx      [%fp + 0x7c7]
    0x10000b170:            1b 00 04 00  sethi     %hi(0x100000), %o5
    0x10000b174:            98 13 60 0b  or        %o5, 0xb, %o4
    0x10000b178:            97 2b 30 0c  sllx      %o4, 0xc, %o3
    0x10000b17c:            80 a7 60 03  cmp       %i5, 0x3
    0x10000b180:            a6 10 00 1d  mov       %i5, %l3
    0x10000b184:            a4 10 00 08  mov       %o0, %l2
    0x10000b188:            88 07 7f ff  add       %i5, -0x1, %g4
    0x10000b18c:            f6 5b a8 c7  ldx       [%sp + 0x8c7], %i3
    0x10000b190:            84 10 20 00  clr       %g2
    0x10000b194:            c1 02 e0 60  ld        [%o3 + 0x60], %f0
    0x10000b198:            87 2e f0 02  sllx      %i3, 0x2, %g3
    0x10000b19c:            06 60 00 18  bl,pn     %xcc, +0x60   <0x10000b1fc>
    0x10000b1a0:            01 00 00 00  nop
    0x10000b1a4:            84 10 20 01  mov       0x1, %g2
    0x10000b1a8:            98 04 ff fe  add       %l3, -0x2, %o4
    0x10000b1ac:            c1 22 20 00  st        %f0, [%o0]
    0x10000b1b0:            82 04 40 03  add       %l1, %g3, %g1
    0x10000b1b4:            e2 72 20 08  stx       %l1, [%o0 + 0x8]
    0x10000b1b8:            a4 02 20 20  add       %o0, 0x20, %l2
    0x10000b1bc:            ed 6c a0 a0  prefetch  [%l2 + 0xa0], #n_writes_strong
    0x10000b1c0:            ed 6c a0 a8  prefetch  [%l2 + 0xa8], #n_writes_strong
    0x10000b1c4:            c1 24 a0 00  st        %f0, [%l2]
    0x10000b1c8:            84 00 a0 02  add       %g2, 0x2, %g2
    0x10000b1cc:            a4 04 a0 40  add       %l2, 0x40, %l2
    0x10000b1d0:            c2 74 bf c8  stx       %g1, [%l2 - 0x38]
    0x10000b1d4:            ba 00 40 03  add       %g1, %g3, %i5
    0x10000b1d8:            80 a0 80 0c  cmp       %g2, %o4
    0x10000b1dc:            c1 24 bf e0  st        %f0, [%l2 - 0x20]
    0x10000b1e0:            fa 74 bf e8  stx       %i5, [%l2 - 0x18]
    0x10000b1e4:            04 6f ff f6  ble,pt    %xcc, -0x28   <0x10000b1bc>
    0x10000b1e8:            82 07 40 03  add       %i5, %g3, %g1
    0x10000b1ec:            80 a0 80 04  cmp       %g2, %g4
    0x10000b1f0:            a2 10 00 01  mov       %g1, %l1
    0x10000b1f4:            14 60 00 0a  bg,pn     %xcc, +0x28   <0x10000b21c>
    0x10000b1f8:            01 00 00 00  nop
    0x10000b1fc:            84 00 a0 01  add       %g2, 0x1, %g2
    0x10000b200:            80 a0 80 04  cmp       %g2, %g4
    0x10000b204:            e2 74 a0 08  stx       %l1, [%l2 + 0x8]
    0x10000b208:            a2 04 40 03  add       %l1, %g3, %l1
    0x10000b20c:            c1 24 a0 00  st        %f0, [%l2]
    0x10000b210:            a4 04 a0 20  add       %l2, 0x20, %l2
    0x10000b214:            04 6f ff fb  ble,pt    %xcc, -0x14   <0x10000b200>
    0x10000b218:            84 00 a0 01  add       %g2, 0x1, %g2
    0x10000b21c:            23 00 04 00  sethi     %hi(0x100000), %l1
    0x10000b220:            27 00 04 00  sethi     %hi(0x100000), %l3
    0x10000b224:            fa 5e 20 00  ldx       [%i0], %i5
    0x10000b228:            a4 14 61 12  or        %l1, 0x112, %l2
    0x10000b22c:            a8 14 e0 0c  or        %l3, 0xc, %l4
    0x10000b230:            ab 2d 30 0c  sllx      %l4, 0xc, %l5
    0x10000b234:            a1 2c b0 0c  sllx      %l2, 0xc, %l0
    0x10000b238:            e8 5f 60 20  ldx       [%i5 + 0x20], %l4
    0x10000b23c:            a4 05 66 9d  add       %l5, 0x69d, %l2
    0x10000b240:            ea 5f 60 10  ldx       [%i5 + 0x10], %l5
    0x10000b244:            e6 5f 60 18  ldx       [%i5 + 0x18], %l3
    0x10000b248:            a2 04 25 10  add       %l0, 0x510, %l1
    0x10000b24c:            ae 10 20 00  clr       %l7
    0x10000b250:            d2 5b a8 b7  ldx       [%sp + 0x8b7], %o1
    0x10000b254:            ad 37 20 00  srl       %i4, 0x0, %l6
    0x10000b258:            90 10 00 18  mov       %i0, %o0
    0x10000b25c:            97 3f 20 00  sra       %i4, 0x0, %o3
    0x10000b260:            37 00 04 00  sethi     %hi(0x100000), %i3
    0x10000b264:            9f c5 40 00  jmpl      %l5, %o7
    0x10000b268:            d4 5b a8 c7  ldx       [%sp + 0x8c7], %o2
    0x10000b26c:            84 16 e1 12  or        %i3, 0x112, %g2
    0x10000b270:            83 28 b0 0c  sllx      %g2, 0xc, %g1
    0x10000b274:            ba 10 00 08  mov       %o0, %i5
    0x10000b278:            b6 00 66 70  add       %g1, 0x670, %i3
    0x10000b27c:            92 10 00 12  mov       %l2, %o1
    0x10000b280:            90 10 00 1b  mov       %i3, %o0
    0x10000b284:            40 04 1a df  call      +0x106b7c     <0x100111e00>
    0x10000b288:            94 10 00 1d  mov       %i5, %o2
    0x10000b28c:            9f c4 c0 00  jmpl      %l3, %o7
    0x10000b290:            90 10 00 18  mov       %i0, %o0
    0x10000b294:            80 90 00 08  tst       %o0
    0x10000b298:            12 40 00 6f  bne,pn    %icc, +0x1bc  <0x10000b454>
    0x10000b29c:            80 a7 40 16  cmp       %i5, %l6
    0x10000b2a0:            1a 60 00 08  bcc,pn    %xcc, +0x20   <0x10000b2c0>
    0x10000b2a4:            90 10 00 1d  mov       %i5, %o0
    0x10000b2a8:            9f c5 00 00  jmpl      %l4, %o7
    0x10000b2ac:            90 10 00 18  mov       %i0, %o0
    0x10000b2b0:            80 90 00 08  tst       %o0
    0x10000b2b4:            02 40 00 68  be,pn     %icc, +0x1a0  <0x10000b454>
    0x10000b2b8:            01 00 00 00  nop
    0x10000b2bc:            90 10 00 1d  mov       %i5, %o0
    0x10000b2c0:            04 c7 40 17  brlez,pn  %i5, +0x5c    <0x10000b31c>
    0x10000b2c4:            fa 77 a7 df  stx       %i5, [%fp + 0x7df]
    0x10000b2c8:            15 00 04 00  sethi     %hi(0x100000), %o2
    0x10000b2cc:            92 12 a0 0b  or        %o2, 0xb, %o1
    0x10000b2d0:            91 2a 70 0c  sllx      %o1, 0xc, %o0
    0x10000b2d4:            c1 02 20 60  ld        [%o0 + 0x60], %f0
    0x10000b2d8:            92 10 20 00  clr       %o1
    0x10000b2dc:            de 5f a7 ef  ldx       [%fp + 0x7ef], %o7
    0x10000b2e0:            94 10 20 00  clr       %o2
    0x10000b2e4:            c1 23 c0 0a  st        %f0, [%o7 + %o2]
    0x10000b2e8:            d0 5f a7 df  ldx       [%fp + 0x7df], %o0
    0x10000b2ec:            92 02 60 01  add       %o1, 0x1, %o1
    0x10000b2f0:            80 a2 40 08  cmp       %o1, %o0
    0x10000b2f4:            16 60 00 0a  bge,pn    %xcc, +0x28   <0x10000b31c>
    0x10000b2f8:            94 02 a0 20  add       %o2, 0x20, %o2
    0x10000b2fc:            d6 5f a7 ef  ldx       [%fp + 0x7ef], %o3
    0x10000b300:            92 02 60 01  add       %o1, 0x1, %o1
    0x10000b304:            c1 22 c0 0a  st        %f0, [%o3 + %o2]
    0x10000b308:            d0 5f a7 df  ldx       [%fp + 0x7df], %o0
    0x10000b30c:            94 02 a0 20  add       %o2, 0x20, %o2
    0x10000b310:            80 a2 40 08  cmp       %o1, %o0
    0x10000b314:            26 6f ff f4  bl,a,pt   %xcc, -0x30   <0x10000b2e4>
    0x10000b318:            de 5f a7 ef  ldx       [%fp + 0x7ef], %o7
    0x10000b31c:            40 04 1a 79  call      +0x1069e4     <0x100111d00>
    0x10000b320:            01 00 00 00  nop
    0x10000b324:            92 10 20 01  mov       0x1, %o1
    0x10000b328:            d0 74 7f f0  stx       %o0, [%l1 - 0x10]
    0x10000b32c:            40 04 1a 8d  call      +0x106a34     <0x100111d60>
    0x10000b330:            d0 5f a7 df  ldx       [%fp + 0x7df], %o0
    0x10000b334:            c2 5f a7 df  ldx       [%fp + 0x7df], %g1
    0x10000b338:            d0 74 7f f8  stx       %o0, [%l1 - 0x8]
    0x10000b33c:            40 04 1a 71  call      +0x1069c4     <0x100111d00>
    0x10000b340:            91 28 70 02  sllx      %g1, 0x2, %o0
    0x10000b344:            96 07 a7 bf  add       %fp, 0x7bf, %o3
    0x10000b348:            94 10 00 1a  mov       %i2, %o2
    0x10000b34c:            92 10 00 19  mov       %i1, %o1
    0x10000b350:            d0 74 25 10  stx       %o0, [%l0 + 0x510]
    0x10000b354:            7f ff f9 36  call      -0x1b28       <0x10000982c>
    0x10000b358:            90 07 a7 df  add       %fp, 0x7df, %o0
    0x10000b35c:            7f ff ee 8d  call      -0x45cc       <0x100006d90>
    0x10000b360:            90 07 a7 df  add       %fp, 0x7df, %o0
    0x10000b364:            de 5f a7 c7  ldx       [%fp + 0x7c7], %o7
    0x10000b368:            da 5f a7 bf  ldx       [%fp + 0x7bf], %o5
    0x10000b36c:            98 03 40 0f  add       %o5, %o7, %o4
    0x10000b370:            de 5b a8 bf  ldx       [%sp + 0x8bf], %o7
    0x10000b374:            80 a3 00 0f  cmp       %o4, %o7
    0x10000b378:            14 60 00 41  bg,pn     %xcc, +0x104  <0x10000b47c>
    0x10000b37c:            96 10 00 17  mov       %l7, %o3
    0x10000b380:            d4 5b a8 af  ldx       [%sp + 0x8af], %o2
    0x10000b384:            92 07 a7 c7  add       %fp, 0x7c7, %o1
    0x10000b388:            7f ff ee c3  call      -0x44f4       <0x100006e94>
    0x10000b38c:            90 07 a7 df  add       %fp, 0x7df, %o0
    0x10000b390:            40 04 1a 64  call      +0x106990     <0x100111d20>
    0x10000b394:            d0 5c 7f f8  ldx       [%l1 - 0x8], %o0
    0x10000b398:            40 04 1a 62  call      +0x106988     <0x100111d20>
    0x10000b39c:            d0 5c 7f f0  ldx       [%l1 - 0x10], %o0
    0x10000b3a0:            40 04 1a 60  call      +0x106980     <0x100111d20>
    0x10000b3a4:            d0 5c 25 10  ldx       [%l0 + 0x510], %o0
    0x10000b3a8:            ae 05 c0 1d  add       %l7, %i5, %l7
    0x10000b3ac:            9f c5 00 00  jmpl      %l4, %o7
    0x10000b3b0:            90 10 00 18  mov       %i0, %o0
    0x10000b3b4:            80 90 00 08  tst       %o0
    0x10000b3b8:            22 4f ff a8  be,a,pt   %icc, -0x160  <0x10000b258>
    0x10000b3bc:            d2 5b a8 b7  ldx       [%sp + 0x8b7], %o1
    0x10000b3c0:            40 04 1a 50  call      +0x106940     <0x100111d00>
    0x10000b3c4:            d0 5f a7 c7  ldx       [%fp + 0x7c7], %o0
    0x10000b3c8:            92 10 20 01  mov       0x1, %o1
    0x10000b3cc:            d0 74 7f f0  stx       %o0, [%l1 - 0x10]
    0x10000b3d0:            40 04 1a 64  call      +0x106990     <0x100111d60>
    0x10000b3d4:            d0 5f a7 c7  ldx       [%fp + 0x7c7], %o0
    0x10000b3d8:            f0 5f a7 c7  ldx       [%fp + 0x7c7], %i0
    0x10000b3dc:            d0 74 7f f8  stx       %o0, [%l1 - 0x8]
    0x10000b3e0:            40 04 1a 48  call      +0x106920     <0x100111d00>
    0x10000b3e4:            91 2e 30 02  sllx      %i0, 0x2, %o0
    0x10000b3e8:            94 10 00 1a  mov       %i2, %o2
    0x10000b3ec:            92 10 00 19  mov       %i1, %o1
    0x10000b3f0:            96 07 a7 bf  add       %fp, 0x7bf, %o3
    0x10000b3f4:            d0 74 25 10  stx       %o0, [%l0 + 0x510]
    0x10000b3f8:            7f ff f9 0d  call      -0x1bcc       <0x10000982c>
    0x10000b3fc:            90 07 a7 c7  add       %fp, 0x7c7, %o0
    0x10000b400:            7f ff ee 64  call      -0x4670       <0x100006d90>
    0x10000b404:            90 07 a7 c7  add       %fp, 0x7c7, %o0
    0x10000b408:            d4 5f a8 af  ldx       [%fp + 0x8af], %o2
    0x10000b40c:            d2 5b a8 af  ldx       [%sp + 0x8af], %o1
    0x10000b410:            7f ff fe a4  call      -0x570        <0x10000aea0>
    0x10000b414:            90 07 a7 c7  add       %fp, 0x7c7, %o0
    0x10000b418:            81 c7 e0 08  ret
    0x10000b41c:            81 e8 20 00  restore   %g0, 0x0, %g0
    0x10000b420:            21 00 04 00  sethi     %hi(0x100000), %l0
    0x10000b424:            1f 00 04 00  sethi     %hi(0x100000), %o7
    0x10000b428:            ae 14 21 12  or        %l0, 0x112, %l7
    0x10000b42c:            9a 13 e0 0c  or        %o7, 0xc, %o5
    0x10000b430:            ad 2d f0 0c  sllx      %l7, 0xc, %l6
    0x10000b434:            99 2b 70 0c  sllx      %o5, 0xc, %o4
    0x10000b438:            92 05 a6 70  add       %l6, 0x670, %o1
    0x10000b43c:            40 04 1a 79  call      +0x1069e4     <0x100111e20>
    0x10000b440:            90 03 26 7d  add       %o4, 0x67d, %o0
    0x10000b444:            40 04 1a 17  call      +0x10685c     <0x100111ca0>
    0x10000b448:            90 10 20 01  mov       0x1, %o0
    0x10000b44c:            10 bf ff 18  ba        -0x3a0        <0x10000b0ac>
    0x10000b450:            f6 27 a7 e7  st        %i3, [%fp + 0x7e7]
    0x10000b454:            09 00 04 00  sethi     %hi(0x100000), %g4
    0x10000b458:            8a 11 20 0c  or        %g4, 0xc, %g5
    0x10000b45c:            87 29 70 0c  sllx      %g5, 0xc, %g3
    0x10000b460:            90 00 e6 ad  add       %g3, 0x6ad, %o0
    0x10000b464:            40 04 1a 6f  call      +0x1069bc     <0x100111e20>
    0x10000b468:            92 10 00 1b  mov       %i3, %o1
    0x10000b46c:            40 04 1a 0d  call      +0x106834     <0x100111ca0>
    0x10000b470:            90 10 20 01  mov       0x1, %o0
    0x10000b474:            10 bf ff 93  ba        -0x1b4        <0x10000b2c0>
    0x10000b478:            90 10 00 1d  mov       %i5, %o0
    0x10000b47c:            0b 00 04 00  sethi     %hi(0x100000), %g5
    0x10000b480:            86 11 60 0c  or        %g5, 0xc, %g3
    0x10000b484:            85 28 f0 0c  sllx      %g3, 0xc, %g2
    0x10000b488:            92 10 00 1b  mov       %i3, %o1
    0x10000b48c:            40 04 1a 65  call      +0x106994     <0x100111e20>
    0x10000b490:            90 00 a6 c2  add       %g2, 0x6c2, %o0
    0x10000b494:            40 04 1a 03  call      +0x10680c     <0x100111ca0>
    0x10000b498:            90 10 20 01  mov       0x1, %o0
    0x10000b49c:            10 bf ff b9  ba        -0x11c        <0x10000b380>
    0x10000b4a0:            96 10 00 17  mov       %l7, %o3
    0x10000b4a4:            00 00 00 00  illtrap   0x0
    0x10000b4a8:            00 00 00 00  illtrap   0x0
    0x10000b4ac:            00 00 00 00  illtrap   0x0
    0x10000b4b0:            00 00 00 00  illtrap   0x0
    0x10000b4b4:            00 00 00 00  illtrap   0x0
    0x10000b4b8:            00 00 00 00  illtrap   0x0
    0x10000b4bc:            00 00 00 00  illtrap   0x0
main()
    0x10000b4c0:            9d e3 be a0  save      %sp, -0x160, %sp
    0x10000b4c4:            84 10 00 18  mov       %i0, %g2
    0x10000b4c8:            c4 23 a9 37  st        %g2, [%sp + 0x937]
    0x10000b4cc:            86 10 00 19  mov       %i1, %g3
    0x10000b4d0:            c6 73 a9 2f  stx       %g3, [%sp + 0x92f]
    0x10000b4d4:            10 80 00 02  ba        +0x8          <0x10000b4dc>
    0x10000b4d8:            01 00 00 00  nop
    0x10000b4dc:            84 10 24 00  mov       0x400, %g2
    0x10000b4e0:            90 10 00 02  mov       %g2, %o0
    0x10000b4e4:            40 04 1a 2f  call      +0x1068bc     <0x100111da0>
    0x10000b4e8:            01 00 00 00  nop
    0x10000b4ec:            86 10 00 08  mov       %o0, %g3
    0x10000b4f0:            c6 73 a9 3f  stx       %g3, [%sp + 0x93f]
    0x10000b4f4:            c8 5b a9 3f  ldx       [%sp + 0x93f], %g4
    0x10000b4f8:            c8 73 a9 27  stx       %g4, [%sp + 0x927]
    0x10000b4fc:            8a 10 24 00  mov       0x400, %g5
    0x10000b500:            90 10 00 05  mov       %g5, %o0
    0x10000b504:            40 04 1a 27  call      +0x10689c     <0x100111da0>
    0x10000b508:            01 00 00 00  nop
    0x10000b50c:            92 10 00 08  mov       %o0, %o1
    0x10000b510:            d2 73 a9 47  stx       %o1, [%sp + 0x947]
    0x10000b514:            d4 5b a9 47  ldx       [%sp + 0x947], %o2
    0x10000b518:            d4 73 a9 1f  stx       %o2, [%sp + 0x91f]
    0x10000b51c:            17 00 04 00  sethi     %hi(0x100000), %o3
    0x10000b520:            98 12 e1 12  or        %o3, 0x112, %o4
    0x10000b524:            9b 2b 30 0c  sllx      %o4, 0xc, %o5
    0x10000b528:            9e 03 66 70  add       %o5, 0x670, %o7
    0x10000b52c:            a0 10 00 0f  mov       %o7, %l0
    0x10000b530:            23 00 04 00  sethi     %hi(0x100000), %l1
    0x10000b534:            a4 14 60 0c  or        %l1, 0xc, %l2
    0x10000b538:            a3 2c b0 0c  sllx      %l2, 0xc, %l1
    0x10000b53c:            a4 04 66 e3  add       %l1, 0x6e3, %l2
    0x10000b540:            a2 10 00 12  mov       %l2, %l1
    0x10000b544:            90 10 00 10  mov       %l0, %o0
    0x10000b548:            92 10 00 11  mov       %l1, %o1
    0x10000b54c:            40 04 1a 2d  call      +0x1068b4     <0x100111e00>
    0x10000b550:            01 00 00 00  nop
    0x10000b554:            90 10 00 00  clr       %o0
    0x10000b558:            40 04 1a 42  call      +0x106908     <0x100111e60>
    0x10000b55c:            01 00 00 00  nop
    0x10000b560:            e4 03 a9 37  ld        [%sp + 0x937], %l2
    0x10000b564:            80 a4 a0 0b  cmp       %l2, 0xb
    0x10000b568:            06 40 00 04  bl,pn     %icc, +0x10   <0x10000b578>
    0x10000b56c:            01 00 00 00  nop
    0x10000b570:            10 80 00 c3  ba        +0x30c        <0x10000b87c>
    0x10000b574:            01 00 00 00  nop
    0x10000b578:            c4 5b a9 2f  ldx       [%sp + 0x92f], %g2
    0x10000b57c:            c6 58 a0 00  ldx       [%g2], %g3
    0x10000b580:            09 00 04 00  sethi     %hi(0x100000), %g4
    0x10000b584:            8a 11 21 12  or        %g4, 0x112, %g5
    0x10000b588:            89 29 70 0c  sllx      %g5, 0xc, %g4
    0x10000b58c:            8a 01 26 70  add       %g4, 0x670, %g5
    0x10000b590:            88 10 00 05  mov       %g5, %g4
    0x10000b594:            0b 00 04 00  sethi     %hi(0x100000), %g5
    0x10000b598:            9e 11 60 0c  or        %g5, 0xc, %o7
    0x10000b59c:            a1 2b f0 0c  sllx      %o7, 0xc, %l0
    0x10000b5a0:            a2 04 26 fb  add       %l0, 0x6fb, %l1
    0x10000b5a4:            a4 10 00 11  mov       %l1, %l2
    0x10000b5a8:            94 10 00 03  mov       %g3, %o2
    0x10000b5ac:            90 10 00 04  mov       %g4, %o0
    0x10000b5b0:            92 10 00 12  mov       %l2, %o1
    0x10000b5b4:            40 04 1a 13  call      +0x10684c     <0x100111e00>
    0x10000b5b8:            01 00 00 00  nop
    0x10000b5bc:            27 00 04 00  sethi     %hi(0x100000), %l3
    0x10000b5c0:            a8 14 e1 12  or        %l3, 0x112, %l4
    0x10000b5c4:            ab 2d 30 0c  sllx      %l4, 0xc, %l5
    0x10000b5c8:            ac 05 66 70  add       %l5, 0x670, %l6
    0x10000b5cc:            ae 10 00 16  mov       %l6, %l7
    0x10000b5d0:            05 00 04 00  sethi     %hi(0x100000), %g2
    0x10000b5d4:            86 10 a0 0c  or        %g2, 0xc, %g3
    0x10000b5d8:            89 28 f0 0c  sllx      %g3, 0xc, %g4
    0x10000b5dc:            8a 01 27 3b  add       %g4, 0x73b, %g5
    0x10000b5e0:            90 10 00 05  mov       %g5, %o0
    0x10000b5e4:            d0 73 a9 47  stx       %o0, [%sp + 0x947]
    0x10000b5e8:            90 10 00 17  mov       %l7, %o0
    0x10000b5ec:            d2 5b a9 47  ldx       [%sp + 0x947], %o1
    0x10000b5f0:            40 04 1a 04  call      +0x106810     <0x100111e00>
    0x10000b5f4:            01 00 00 00  nop
    0x10000b5f8:            15 00 04 00  sethi     %hi(0x100000), %o2
    0x10000b5fc:            96 12 a1 12  or        %o2, 0x112, %o3
    0x10000b600:            99 2a f0 0c  sllx      %o3, 0xc, %o4
    0x10000b604:            9a 03 26 70  add       %o4, 0x670, %o5
    0x10000b608:            9e 10 00 0d  mov       %o5, %o7
    0x10000b60c:            21 00 04 00  sethi     %hi(0x100000), %l0
    0x10000b610:            a2 14 20 0c  or        %l0, 0xc, %l1
    0x10000b614:            a1 2c 70 0c  sllx      %l1, 0xc, %l0
    0x10000b618:            a2 04 27 6a  add       %l0, 0x76a, %l1
    0x10000b61c:            a0 10 00 11  mov       %l1, %l0
    0x10000b620:            90 10 00 0f  mov       %o7, %o0
    0x10000b624:            92 10 00 10  mov       %l0, %o1
    0x10000b628:            40 04 19 f6  call      +0x1067d8     <0x100111e00>
    0x10000b62c:            01 00 00 00  nop
    0x10000b630:            23 00 04 00  sethi     %hi(0x100000), %l1
    0x10000b634:            a4 14 61 12  or        %l1, 0x112, %l2
    0x10000b638:            a7 2c b0 0c  sllx      %l2, 0xc, %l3
    0x10000b63c:            a8 04 e6 70  add       %l3, 0x670, %l4
    0x10000b640:            aa 10 00 14  mov       %l4, %l5
    0x10000b644:            2d 00 04 00  sethi     %hi(0x100000), %l6
    0x10000b648:            ae 15 a0 0c  or        %l6, 0xc, %l7
    0x10000b64c:            ad 2d f0 0c  sllx      %l7, 0xc, %l6
    0x10000b650:            ae 05 a7 99  add       %l6, 0x799, %l7
    0x10000b654:            ac 10 00 17  mov       %l7, %l6
    0x10000b658:            90 10 00 15  mov       %l5, %o0
    0x10000b65c:            92 10 00 16  mov       %l6, %o1
    0x10000b660:            40 04 19 e8  call      +0x1067a0     <0x100111e00>
    0x10000b664:            01 00 00 00  nop
    0x10000b668:            2f 00 04 00  sethi     %hi(0x100000), %l7
    0x10000b66c:            84 15 e1 12  or        %l7, 0x112, %g2
    0x10000b670:            87 28 b0 0c  sllx      %g2, 0xc, %g3
    0x10000b674:            88 00 e6 70  add       %g3, 0x670, %g4
    0x10000b678:            8a 10 00 04  mov       %g4, %g5
    0x10000b67c:            11 00 04 00  sethi     %hi(0x100000), %o0
    0x10000b680:            92 12 20 0c  or        %o0, 0xc, %o1
    0x10000b684:            95 2a 70 0c  sllx      %o1, 0xc, %o2
    0x10000b688:            96 02 a7 c6  add       %o2, 0x7c6, %o3
    0x10000b68c:            98 10 00 0b  mov       %o3, %o4
    0x10000b690:            90 10 00 05  mov       %g5, %o0
    0x10000b694:            92 10 00 0c  mov       %o4, %o1
    0x10000b698:            40 04 19 da  call      +0x106768     <0x100111e00>
    0x10000b69c:            01 00 00 00  nop
    0x10000b6a0:            1b 00 04 00  sethi     %hi(0x100000), %o5
    0x10000b6a4:            9e 13 61 12  or        %o5, 0x112, %o7
    0x10000b6a8:            a1 2b f0 0c  sllx      %o7, 0xc, %l0
    0x10000b6ac:            a2 04 26 70  add       %l0, 0x670, %l1
    0x10000b6b0:            a4 10 00 11  mov       %l1, %l2
    0x10000b6b4:            27 00 04 00  sethi     %hi(0x100000), %l3
    0x10000b6b8:            a8 14 e0 0c  or        %l3, 0xc, %l4
    0x10000b6bc:            a7 2d 30 0c  sllx      %l4, 0xc, %l3
    0x10000b6c0:            a8 04 e7 ec  add       %l3, 0x7ec, %l4
    0x10000b6c4:            a6 10 00 14  mov       %l4, %l3
    0x10000b6c8:            90 10 00 12  mov       %l2, %o0
    0x10000b6cc:            92 10 00 13  mov       %l3, %o1
    0x10000b6d0:            40 04 19 cc  call      +0x106730     <0x100111e00>
    0x10000b6d4:            01 00 00 00  nop
    0x10000b6d8:            29 00 04 00  sethi     %hi(0x100000), %l4
    0x10000b6dc:            aa 15 21 12  or        %l4, 0x112, %l5
    0x10000b6e0:            ad 2d 70 0c  sllx      %l5, 0xc, %l6
    0x10000b6e4:            ae 05 a6 70  add       %l6, 0x670, %l7
    0x10000b6e8:            84 10 00 17  mov       %l7, %g2
    0x10000b6ec:            07 00 04 00  sethi     %hi(0x100000), %g3
    0x10000b6f0:            88 10 e0 0c  or        %g3, 0xc, %g4
    0x10000b6f4:            87 29 30 0c  sllx      %g4, 0xc, %g3
    0x10000b6f8:            88 00 e8 25  add       %g3, 0x825, %g4
    0x10000b6fc:            86 10 00 04  mov       %g4, %g3
    0x10000b700:            90 10 00 02  mov       %g2, %o0
    0x10000b704:            92 10 00 03  mov       %g3, %o1
    0x10000b708:            40 04 19 be  call      +0x1066f8     <0x100111e00>
    0x10000b70c:            01 00 00 00  nop
    0x10000b710:            09 00 04 00  sethi     %hi(0x100000), %g4
    0x10000b714:            8a 11 21 12  or        %g4, 0x112, %g5
    0x10000b718:            91 29 70 0c  sllx      %g5, 0xc, %o0
    0x10000b71c:            92 02 26 70  add       %o0, 0x670, %o1
    0x10000b720:            94 10 00 09  mov       %o1, %o2
    0x10000b724:            17 00 04 00  sethi     %hi(0x100000), %o3
    0x10000b728:            98 12 e0 0c  or        %o3, 0xc, %o4
    0x10000b72c:            97 2b 30 0c  sllx      %o4, 0xc, %o3
    0x10000b730:            98 02 e8 5c  add       %o3, 0x85c, %o4
    0x10000b734:            96 10 00 0c  mov       %o4, %o3
    0x10000b738:            90 10 00 0a  mov       %o2, %o0
    0x10000b73c:            92 10 00 0b  mov       %o3, %o1
    0x10000b740:            40 04 19 b0  call      +0x1066c0     <0x100111e00>
    0x10000b744:            01 00 00 00  nop
    0x10000b748:            19 00 04 00  sethi     %hi(0x100000), %o4
    0x10000b74c:            9a 13 21 12  or        %o4, 0x112, %o5
    0x10000b750:            9f 2b 70 0c  sllx      %o5, 0xc, %o7
    0x10000b754:            a0 03 e6 70  add       %o7, 0x670, %l0
    0x10000b758:            a2 10 00 10  mov       %l0, %l1
    0x10000b75c:            25 00 04 00  sethi     %hi(0x100000), %l2
    0x10000b760:            a6 14 a0 0c  or        %l2, 0xc, %l3
    0x10000b764:            a5 2c f0 0c  sllx      %l3, 0xc, %l2
    0x10000b768:            a6 04 a8 81  add       %l2, 0x881, %l3
    0x10000b76c:            a4 10 00 13  mov       %l3, %l2
    0x10000b770:            90 10 00 11  mov       %l1, %o0
    0x10000b774:            92 10 00 12  mov       %l2, %o1
    0x10000b778:            40 04 19 a2  call      +0x106688     <0x100111e00>
    0x10000b77c:            01 00 00 00  nop
    0x10000b780:            27 00 04 00  sethi     %hi(0x100000), %l3
    0x10000b784:            a8 14 e1 12  or        %l3, 0x112, %l4
    0x10000b788:            ab 2d 30 0c  sllx      %l4, 0xc, %l5
    0x10000b78c:            ac 05 66 70  add       %l5, 0x670, %l6
    0x10000b790:            ae 10 00 16  mov       %l6, %l7
    0x10000b794:            05 00 04 00  sethi     %hi(0x100000), %g2
    0x10000b798:            86 10 a0 0c  or        %g2, 0xc, %g3
    0x10000b79c:            89 28 f0 0c  sllx      %g3, 0xc, %g4
    0x10000b7a0:            8a 01 28 9d  add       %g4, 0x89d, %g5
    0x10000b7a4:            90 10 00 05  mov       %g5, %o0
    0x10000b7a8:            d0 73 a9 3f  stx       %o0, [%sp + 0x93f]
    0x10000b7ac:            90 10 00 17  mov       %l7, %o0
    0x10000b7b0:            d2 5b a9 3f  ldx       [%sp + 0x93f], %o1
    0x10000b7b4:            40 04 19 93  call      +0x10664c     <0x100111e00>
    0x10000b7b8:            01 00 00 00  nop
    0x10000b7bc:            15 00 04 00  sethi     %hi(0x100000), %o2
    0x10000b7c0:            96 12 a1 12  or        %o2, 0x112, %o3
    0x10000b7c4:            99 2a f0 0c  sllx      %o3, 0xc, %o4
    0x10000b7c8:            9a 03 26 70  add       %o4, 0x670, %o5
    0x10000b7cc:            9e 10 00 0d  mov       %o5, %o7
    0x10000b7d0:            21 00 04 00  sethi     %hi(0x100000), %l0
    0x10000b7d4:            a2 14 20 0c  or        %l0, 0xc, %l1
    0x10000b7d8:            a1 2c 70 0c  sllx      %l1, 0xc, %l0
    0x10000b7dc:            a2 04 28 c6  add       %l0, 0x8c6, %l1
    0x10000b7e0:            a0 10 00 11  mov       %l1, %l0
    0x10000b7e4:            90 10 00 0f  mov       %o7, %o0
    0x10000b7e8:            92 10 00 10  mov       %l0, %o1
    0x10000b7ec:            40 04 19 85  call      +0x106614     <0x100111e00>
    0x10000b7f0:            01 00 00 00  nop
    0x10000b7f4:            23 00 04 00  sethi     %hi(0x100000), %l1
    0x10000b7f8:            a4 14 61 12  or        %l1, 0x112, %l2
    0x10000b7fc:            a7 2c b0 0c  sllx      %l2, 0xc, %l3
    0x10000b800:            a8 04 e6 70  add       %l3, 0x670, %l4
    0x10000b804:            aa 10 00 14  mov       %l4, %l5
    0x10000b808:            2d 00 04 00  sethi     %hi(0x100000), %l6
    0x10000b80c:            ae 15 a0 0c  or        %l6, 0xc, %l7
    0x10000b810:            ad 2d f0 0c  sllx      %l7, 0xc, %l6
    0x10000b814:            ae 05 a8 fb  add       %l6, 0x8fb, %l7
    0x10000b818:            ac 10 00 17  mov       %l7, %l6
    0x10000b81c:            90 10 00 15  mov       %l5, %o0
    0x10000b820:            92 10 00 16  mov       %l6, %o1
    0x10000b824:            40 04 19 77  call      +0x1065dc     <0x100111e00>
    0x10000b828:            01 00 00 00  nop
    0x10000b82c:            2f 00 04 00  sethi     %hi(0x100000), %l7
    0x10000b830:            84 15 e1 12  or        %l7, 0x112, %g2
    0x10000b834:            87 28 b0 0c  sllx      %g2, 0xc, %g3
    0x10000b838:            88 00 e6 70  add       %g3, 0x670, %g4
    0x10000b83c:            8a 10 00 04  mov       %g4, %g5
    0x10000b840:            11 00 04 00  sethi     %hi(0x100000), %o0
    0x10000b844:            92 12 20 0c  or        %o0, 0xc, %o1
    0x10000b848:            95 2a 70 0c  sllx      %o1, 0xc, %o2
    0x10000b84c:            96 02 a8 fd  add       %o2, 0x8fd, %o3
    0x10000b850:            98 10 00 0b  mov       %o3, %o4
    0x10000b854:            90 10 00 05  mov       %g5, %o0
    0x10000b858:            92 10 00 0c  mov       %o4, %o1
    0x10000b85c:            40 04 19 69  call      +0x1065a4     <0x100111e00>
    0x10000b860:            01 00 00 00  nop
    0x10000b864:            9a 10 20 01  mov       0x1, %o5
    0x10000b868:            90 10 00 0d  mov       %o5, %o0
    0x10000b86c:            40 04 19 0d  call      +0x106434     <0x100111ca0>
    0x10000b870:            01 00 00 00  nop
    0x10000b874:            10 80 00 02  ba        +0x8          <0x10000b87c>
    0x10000b878:            01 00 00 00  nop
    0x10000b87c:            c4 5b a9 2f  ldx       [%sp + 0x92f], %g2
    0x10000b880:            c6 58 a0 08  ldx       [%g2 + 0x8], %g3
    0x10000b884:            90 10 00 03  mov       %g3, %o0
    0x10000b888:            40 04 19 7e  call      +0x1065f8     <0x100111e80>
    0x10000b88c:            01 00 00 00  nop
    0x10000b890:            88 10 00 08  mov       %o0, %g4
    0x10000b894:            8b 39 20 00  sra       %g4, 0x0, %g5
    0x10000b898:            ca 73 a9 17  stx       %g5, [%sp + 0x917]
    0x10000b89c:            d2 5b a9 2f  ldx       [%sp + 0x92f], %o1
    0x10000b8a0:            d4 5a 60 10  ldx       [%o1 + 0x10], %o2
    0x10000b8a4:            90 10 00 0a  mov       %o2, %o0
    0x10000b8a8:            40 04 19 76  call      +0x1065d8     <0x100111e80>
    0x10000b8ac:            01 00 00 00  nop
    0x10000b8b0:            96 10 00 08  mov       %o0, %o3
    0x10000b8b4:            99 3a e0 00  sra       %o3, 0x0, %o4
    0x10000b8b8:            d8 73 a9 0f  stx       %o4, [%sp + 0x90f]
    0x10000b8bc:            da 5b a9 2f  ldx       [%sp + 0x92f], %o5
    0x10000b8c0:            de 5b 60 18  ldx       [%o5 + 0x18], %o7
    0x10000b8c4:            90 10 00 0f  mov       %o7, %o0
    0x10000b8c8:            40 04 19 6e  call      +0x1065b8     <0x100111e80>
    0x10000b8cc:            01 00 00 00  nop
    0x10000b8d0:            a0 10 00 08  mov       %o0, %l0
    0x10000b8d4:            e0 23 a9 07  st        %l0, [%sp + 0x907]
    0x10000b8d8:            e2 5b a9 2f  ldx       [%sp + 0x92f], %l1
    0x10000b8dc:            e4 5c 60 20  ldx       [%l1 + 0x20], %l2
    0x10000b8e0:            90 10 00 12  mov       %l2, %o0
    0x10000b8e4:            40 04 19 67  call      +0x10659c     <0x100111e80>
    0x10000b8e8:            01 00 00 00  nop
    0x10000b8ec:            a6 10 00 08  mov       %o0, %l3
    0x10000b8f0:            a9 3c e0 00  sra       %l3, 0x0, %l4
    0x10000b8f4:            e8 73 a8 ff  stx       %l4, [%sp + 0x8ff]
    0x10000b8f8:            ea 5b a9 2f  ldx       [%sp + 0x92f], %l5
    0x10000b8fc:            ec 5d 60 28  ldx       [%l5 + 0x28], %l6
    0x10000b900:            90 10 00 16  mov       %l6, %o0
    0x10000b904:            40 04 19 5f  call      +0x10657c     <0x100111e80>
    0x10000b908:            01 00 00 00  nop
    0x10000b90c:            ae 10 00 08  mov       %o0, %l7
    0x10000b910:            85 3d e0 00  sra       %l7, 0x0, %g2
    0x10000b914:            c4 73 a8 f7  stx       %g2, [%sp + 0x8f7]
    0x10000b918:            c6 5b a9 2f  ldx       [%sp + 0x92f], %g3
    0x10000b91c:            c8 58 e0 30  ldx       [%g3 + 0x30], %g4
    0x10000b920:            90 10 00 04  mov       %g4, %o0
    0x10000b924:            40 04 19 57  call      +0x10655c     <0x100111e80>
    0x10000b928:            01 00 00 00  nop
    0x10000b92c:            8a 10 00 08  mov       %o0, %g5
    0x10000b930:            93 39 60 00  sra       %g5, 0x0, %o1
    0x10000b934:            d2 73 a8 ef  stx       %o1, [%sp + 0x8ef]
    0x10000b938:            d4 5b a9 2f  ldx       [%sp + 0x92f], %o2
    0x10000b93c:            d6 5a a0 38  ldx       [%o2 + 0x38], %o3
    0x10000b940:            d8 5b a9 1f  ldx       [%sp + 0x91f], %o4
    0x10000b944:            92 10 00 0b  mov       %o3, %o1
    0x10000b948:            90 10 00 0c  mov       %o4, %o0
    0x10000b94c:            40 04 19 55  call      +0x106554     <0x100111ea0>
    0x10000b950:            01 00 00 00  nop
    0x10000b954:            da 5b a9 2f  ldx       [%sp + 0x92f], %o5
    0x10000b958:            de 5b 60 40  ldx       [%o5 + 0x40], %o7
    0x10000b95c:            e0 5b a9 27  ldx       [%sp + 0x927], %l0
    0x10000b960:            92 10 00 0f  mov       %o7, %o1
    0x10000b964:            90 10 00 10  mov       %l0, %o0
    0x10000b968:            40 04 19 4e  call      +0x106538     <0x100111ea0>
    0x10000b96c:            01 00 00 00  nop
    0x10000b970:            e2 5b a9 2f  ldx       [%sp + 0x92f], %l1
    0x10000b974:            e4 5c 60 48  ldx       [%l1 + 0x48], %l2
    0x10000b978:            90 10 00 12  mov       %l2, %o0
    0x10000b97c:            40 04 19 41  call      +0x106504     <0x100111e80>
    0x10000b980:            01 00 00 00  nop
    0x10000b984:            a6 10 00 08  mov       %o0, %l3
    0x10000b988:            29 00 04 00  sethi     %hi(0x100000), %l4
    0x10000b98c:            aa 15 21 12  or        %l4, 0x112, %l5
    0x10000b990:            a9 2d 70 0c  sllx      %l5, 0xc, %l4
    0x10000b994:            aa 05 25 18  add       %l4, 0x518, %l5
    0x10000b998:            e6 25 60 00  st        %l3, [%l5]
    0x10000b99c:            ec 5b a9 2f  ldx       [%sp + 0x92f], %l6
    0x10000b9a0:            ee 5d a0 50  ldx       [%l6 + 0x50], %l7
    0x10000b9a4:            90 10 00 17  mov       %l7, %o0
    0x10000b9a8:            40 04 19 36  call      +0x1064d8     <0x100111e80>
    0x10000b9ac:            01 00 00 00  nop
    0x10000b9b0:            84 10 00 08  mov       %o0, %g2
    0x10000b9b4:            07 00 04 00  sethi     %hi(0x100000), %g3
    0x10000b9b8:            88 10 e1 12  or        %g3, 0x112, %g4
    0x10000b9bc:            87 29 30 0c  sllx      %g4, 0xc, %g3
    0x10000b9c0:            88 00 e5 1c  add       %g3, 0x51c, %g4
    0x10000b9c4:            c4 21 20 00  st        %g2, [%g4]
    0x10000b9c8:            8a 10 20 01  mov       0x1, %g5
    0x10000b9cc:            90 10 00 05  mov       %g5, %o0
    0x10000b9d0:            40 04 19 3c  call      +0x1064f0     <0x100111ec0>
    0x10000b9d4:            01 00 00 00  nop
    0x10000b9d8:            d0 5b a8 ff  ldx       [%sp + 0x8ff], %o0
    0x10000b9dc:            80 a2 20 00  cmp       %o0, 0x0
    0x10000b9e0:            14 60 00 04  bg,pn     %xcc, +0x10   <0x10000b9f0>
    0x10000b9e4:            01 00 00 00  nop
    0x10000b9e8:            10 80 00 26  ba        +0x98         <0x10000ba80>
    0x10000b9ec:            01 00 00 00  nop
    0x10000b9f0:            84 10 20 10  mov       0x10, %g2
    0x10000b9f4:            90 10 00 02  mov       %g2, %o0
    0x10000b9f8:            40 04 19 3a  call      +0x1064e8     <0x100111ee0>
    0x10000b9fc:            01 00 00 00  nop
    0x10000ba00:            86 10 00 08  mov       %o0, %g3
    0x10000ba04:            c6 73 a9 3f  stx       %g3, [%sp + 0x93f]
    0x10000ba08:            c8 5b a9 3f  ldx       [%sp + 0x93f], %g4
    0x10000ba0c:            c8 73 a9 47  stx       %g4, [%sp + 0x947]
    0x10000ba10:            ca 5b a8 ff  ldx       [%sp + 0x8ff], %g5
    0x10000ba14:            ca 73 a9 4f  stx       %g5, [%sp + 0x94f]
    0x10000ba18:            13 00 00 00  sethi     %hi(0x0), %o1
    0x10000ba1c:            15 00 04 49  sethi     %hi(0x112400), %o2
    0x10000ba20:            96 12 60 01  or        %o1, 0x1, %o3
    0x10000ba24:            99 2a f0 20  sllx      %o3, 0x20, %o4
    0x10000ba28:            96 13 00 0a  or        %o4, %o2, %o3
    0x10000ba2c:            98 02 e0 98  add       %o3, 0x98, %o4
    0x10000ba30:            9a 10 00 0c  mov       %o4, %o5
    0x10000ba34:            de 5b a9 47  ldx       [%sp + 0x947], %o7
    0x10000ba38:            da 73 e0 00  stx       %o5, [%o7]
    0x10000ba3c:            21 00 00 00  sethi     %hi(0x0), %l0
    0x10000ba40:            23 00 04 49  sethi     %hi(0x112400), %l1
    0x10000ba44:            a4 14 20 01  or        %l0, 0x1, %l2
    0x10000ba48:            a7 2c b0 20  sllx      %l2, 0x20, %l3
    0x10000ba4c:            a4 14 c0 11  or        %l3, %l1, %l2
    0x10000ba50:            a6 04 a0 98  add       %l2, 0x98, %l3
    0x10000ba54:            a8 10 00 13  mov       %l3, %l4
    0x10000ba58:            ea 5b a9 47  ldx       [%sp + 0x947], %l5
    0x10000ba5c:            e8 75 60 00  stx       %l4, [%l5]
    0x10000ba60:            ec 5b a9 47  ldx       [%sp + 0x947], %l6
    0x10000ba64:            ae 05 a0 08  add       %l6, 0x8, %l7
    0x10000ba68:            c4 5b a9 4f  ldx       [%sp + 0x94f], %g2
    0x10000ba6c:            c4 75 e0 00  stx       %g2, [%l7]
    0x10000ba70:            c6 5b a9 3f  ldx       [%sp + 0x93f], %g3
    0x10000ba74:            c6 73 a8 e7  stx       %g3, [%sp + 0x8e7]
    0x10000ba78:            10 80 00 54  ba        +0x150        <0x10000bbc8>
    0x10000ba7c:            01 00 00 00  nop
    0x10000ba80:            84 10 20 10  mov       0x10, %g2
    0x10000ba84:            90 10 00 02  mov       %g2, %o0
    0x10000ba88:            40 04 19 16  call      +0x106458     <0x100111ee0>
    0x10000ba8c:            01 00 00 00  nop
    0x10000ba90:            86 10 00 08  mov       %o0, %g3
    0x10000ba94:            c6 73 a8 df  stx       %g3, [%sp + 0x8df]
    0x10000ba98:            c8 5b a8 df  ldx       [%sp + 0x8df], %g4
    0x10000ba9c:            c8 73 a8 d7  stx       %g4, [%sp + 0x8d7]
    0x10000baa0:            ca 5b a9 1f  ldx       [%sp + 0x91f], %g5
    0x10000baa4:            ca 73 a8 cf  stx       %g5, [%sp + 0x8cf]
    0x10000baa8:            13 00 00 00  sethi     %hi(0x0), %o1
    0x10000baac:            15 00 04 49  sethi     %hi(0x112400), %o2
    0x10000bab0:            96 12 60 01  or        %o1, 0x1, %o3
    0x10000bab4:            99 2a f0 20  sllx      %o3, 0x20, %o4
    0x10000bab8:            96 13 00 0a  or        %o4, %o2, %o3
    0x10000babc:            98 02 e0 c8  add       %o3, 0xc8, %o4
    0x10000bac0:            9a 10 00 0c  mov       %o4, %o5
    0x10000bac4:            de 5b a8 d7  ldx       [%sp + 0x8d7], %o7
    0x10000bac8:            da 73 e0 00  stx       %o5, [%o7]
    0x10000bacc:            21 00 00 00  sethi     %hi(0x0), %l0
    0x10000bad0:            23 00 04 49  sethi     %hi(0x112400), %l1
    0x10000bad4:            a4 14 20 01  or        %l0, 0x1, %l2
    0x10000bad8:            a7 2c b0 20  sllx      %l2, 0x20, %l3
    0x10000badc:            a4 14 c0 11  or        %l3, %l1, %l2
    0x10000bae0:            a6 04 a0 c8  add       %l2, 0xc8, %l3
    0x10000bae4:            a8 10 00 13  mov       %l3, %l4
    0x10000bae8:            ea 5b a8 d7  ldx       [%sp + 0x8d7], %l5
    0x10000baec:            e8 75 60 00  stx       %l4, [%l5]
    0x10000baf0:            ec 5b a8 cf  ldx       [%sp + 0x8cf], %l6
    0x10000baf4:            2f 00 04 00  sethi     %hi(0x100000), %l7
    0x10000baf8:            84 15 e0 0c  or        %l7, 0xc, %g2
    0x10000bafc:            87 28 b0 0c  sllx      %g2, 0xc, %g3
    0x10000bb00:            88 00 e9 4a  add       %g3, 0x94a, %g4
    0x10000bb04:            8a 10 00 04  mov       %g4, %g5
    0x10000bb08:            90 10 00 16  mov       %l6, %o0
    0x10000bb0c:            92 10 00 05  mov       %g5, %o1
    0x10000bb10:            40 04 18 b4  call      +0x1062d0     <0x100111de0>
    0x10000bb14:            01 00 00 00  nop
    0x10000bb18:            92 10 00 08  mov       %o0, %o1
    0x10000bb1c:            d2 73 a8 c7  stx       %o1, [%sp + 0x8c7]
    0x10000bb20:            10 80 00 02  ba        +0x8          <0x10000bb28>
    0x10000bb24:            01 00 00 00  nop
    0x10000bb28:            c4 5b a8 d7  ldx       [%sp + 0x8d7], %g2
    0x10000bb2c:            86 00 a0 08  add       %g2, 0x8, %g3
    0x10000bb30:            c8 5b a8 c7  ldx       [%sp + 0x8c7], %g4
    0x10000bb34:            c8 70 e0 00  stx       %g4, [%g3]
    0x10000bb38:            ca 5b a8 d7  ldx       [%sp + 0x8d7], %g5
    0x10000bb3c:            9e 01 60 08  add       %g5, 0x8, %o7
    0x10000bb40:            e0 5b e0 00  ldx       [%o7], %l0
    0x10000bb44:            80 a4 00 00  cmp       %l0, %g0
    0x10000bb48:            02 60 00 04  be,pn     %xcc, +0x10   <0x10000bb58>
    0x10000bb4c:            01 00 00 00  nop
    0x10000bb50:            10 80 00 1a  ba        +0x68         <0x10000bbb8>
    0x10000bb54:            01 00 00 00  nop
    0x10000bb58:            05 00 04 00  sethi     %hi(0x100000), %g2
    0x10000bb5c:            86 10 a1 12  or        %g2, 0x112, %g3
    0x10000bb60:            89 28 f0 0c  sllx      %g3, 0xc, %g4
    0x10000bb64:            8a 01 26 70  add       %g4, 0x670, %g5
    0x10000bb68:            9e 10 00 05  mov       %g5, %o7
    0x10000bb6c:            21 00 04 00  sethi     %hi(0x100000), %l0
    0x10000bb70:            a2 14 20 0c  or        %l0, 0xc, %l1
    0x10000bb74:            a1 2c 70 0c  sllx      %l1, 0xc, %l0
    0x10000bb78:            a2 04 29 4d  add       %l0, 0x94d, %l1
    0x10000bb7c:            a0 10 00 11  mov       %l1, %l0
    0x10000bb80:            e2 5b a8 cf  ldx       [%sp + 0x8cf], %l1
    0x10000bb84:            90 10 00 0f  mov       %o7, %o0
    0x10000bb88:            92 10 00 10  mov       %l0, %o1
    0x10000bb8c:            94 10 00 11  mov       %l1, %o2
    0x10000bb90:            40 04 18 9c  call      +0x106270     <0x100111e00>
    0x10000bb94:            01 00 00 00  nop
    0x10000bb98:            10 80 00 02  ba        +0x8          <0x10000bba0>
    0x10000bb9c:            01 00 00 00  nop
    0x10000bba0:            84 10 20 01  mov       0x1, %g2
    0x10000bba4:            90 10 00 02  mov       %g2, %o0
    0x10000bba8:            40 04 18 3e  call      +0x1060f8     <0x100111ca0>
    0x10000bbac:            01 00 00 00  nop
    0x10000bbb0:            10 80 00 02  ba        +0x8          <0x10000bbb8>
    0x10000bbb4:            01 00 00 00  nop
    0x10000bbb8:            c4 5b a8 df  ldx       [%sp + 0x8df], %g2
    0x10000bbbc:            c4 73 a8 e7  stx       %g2, [%sp + 0x8e7]
    0x10000bbc0:            10 80 00 02  ba        +0x8          <0x10000bbc8>
    0x10000bbc4:            01 00 00 00  nop
    0x10000bbc8:            01 00 00 01  sethi     %hi(0x400), %g0
    0x10000bbcc:            c4 5b a9 27  ldx       [%sp + 0x927], %g2
    0x10000bbd0:            c4 73 a8 af  stx       %g2, [%sp + 0x8af]
    0x10000bbd4:            c6 5b a8 e7  ldx       [%sp + 0x8e7], %g3
    0x10000bbd8:            c8 5b a9 17  ldx       [%sp + 0x917], %g4
    0x10000bbdc:            ca 5b a9 0f  ldx       [%sp + 0x90f], %g5
    0x10000bbe0:            de 03 a9 07  ld        [%sp + 0x907], %o7
    0x10000bbe4:            a1 3b e0 00  sra       %o7, 0x0, %l0
    0x10000bbe8:            e2 5b a8 f7  ldx       [%sp + 0x8f7], %l1
    0x10000bbec:            e4 5b a8 ef  ldx       [%sp + 0x8ef], %l2
    0x10000bbf0:            90 10 00 03  mov       %g3, %o0
    0x10000bbf4:            92 10 00 04  mov       %g4, %o1
    0x10000bbf8:            94 10 00 05  mov       %g5, %o2
    0x10000bbfc:            96 10 00 10  mov       %l0, %o3
    0x10000bc00:            98 10 00 11  mov       %l1, %o4
    0x10000bc04:            9a 10 00 12  mov       %l2, %o5
    0x10000bc08:            7f ff fd 17  call      -0xba4        <0x10000b064>
    0x10000bc0c:            01 00 00 00  nop
    0x10000bc10:            01 00 00 02  sethi     %hi(0x800), %g0
    0x10000bc14:            c4 5b a8 e7  ldx       [%sp + 0x8e7], %g2
    0x10000bc18:            c4 73 a8 bf  stx       %g2, [%sp + 0x8bf]
    0x10000bc1c:            c6 5b a8 bf  ldx       [%sp + 0x8bf], %g3
    0x10000bc20:            80 a0 c0 00  cmp       %g3, %g0
    0x10000bc24:            02 60 00 0f  be,pn     %xcc, +0x3c   <0x10000bc60>
    0x10000bc28:            01 00 00 00  nop
    0x10000bc2c:            10 80 00 02  ba        +0x8          <0x10000bc34>
    0x10000bc30:            01 00 00 00  nop
    0x10000bc34:            c4 5b a8 bf  ldx       [%sp + 0x8bf], %g2
    0x10000bc38:            c6 58 a0 00  ldx       [%g2], %g3
    0x10000bc3c:            c8 58 e0 28  ldx       [%g3 + 0x28], %g4
    0x10000bc40:            ca 5b a8 bf  ldx       [%sp + 0x8bf], %g5
    0x10000bc44:            90 10 00 05  mov       %g5, %o0
    0x10000bc48:            9e 10 20 01  mov       0x1, %o7
    0x10000bc4c:            92 10 00 0f  mov       %o7, %o1
    0x10000bc50:            9f c1 00 00  jmpl      %g4, %o7
    0x10000bc54:            01 00 00 00  nop
    0x10000bc58:            10 80 00 02  ba        +0x8          <0x10000bc60>
    0x10000bc5c:            01 00 00 00  nop
    0x10000bc60:            c0 23 a8 b7  clr       [%sp + 0x8b7]
    0x10000bc64:            10 80 00 10  ba        +0x40         <0x10000bca4>
    0x10000bc68:            01 00 00 00  nop
    0x10000bc6c:            c4 5b a8 d7  ldx       [%sp + 0x8d7], %g2
    0x10000bc70:            90 10 00 02  mov       %g2, %o0
    0x10000bc74:            40 00 00 3e  call      +0xf8         <0x10000bd6c>
    0x10000bc78:            01 00 00 00  nop
    0x10000bc7c:            10 80 00 02  ba        +0x8          <0x10000bc84>
    0x10000bc80:            01 00 00 00  nop
    0x10000bc84:            c4 5b a8 df  ldx       [%sp + 0x8df], %g2
    0x10000bc88:            90 10 00 02  mov       %g2, %o0
    0x10000bc8c:            40 04 18 9d  call      +0x106274     <0x100111f00>
    0x10000bc90:            01 00 00 00  nop
    0x10000bc94:            40 04 18 a3  call      +0x10628c     <0x100111f20>
    0x10000bc98:            01 00 00 00  nop
    0x10000bc9c:            10 80 00 02  ba        +0x8          <0x10000bca4>
    0x10000bca0:            01 00 00 00  nop
    0x10000bca4:            c4 03 a8 b7  ld        [%sp + 0x8b7], %g2
    0x10000bca8:            87 38 a0 00  sra       %g2, 0x0, %g3
    0x10000bcac:            b0 10 00 03  mov       %g3, %i0
    0x10000bcb0:            81 c7 e0 08  ret
    0x10000bcb4:            81 e8 00 00  restore
    0x10000bcb8:            00 00 00 00  illtrap   0x0
    0x10000bcbc:            00 00 00 00  illtrap   0x0
    0x10000bcc0:            00 00 00 00  illtrap   0x0
    0x10000bcc4:            00 00 00 00  illtrap   0x0
    0x10000bcc8:            00 00 00 00  illtrap   0x0
    0x10000bccc:            00 00 00 00  illtrap   0x0
__SLIP.DELETER__B()
    0x10000bcd0:            80 8a 60 01  btst      0x1, %o1
    0x10000bcd4:            02 40 00 04  be,pn     %icc, +0x10   <0x10000bce4>
    0x10000bcd8:            82 10 00 0f  mov       %o7, %g1
    0x10000bcdc:            40 04 18 89  call      +0x106224     <0x100111f00>
    0x10000bce0:            9e 10 00 01  mov       %g1, %o7
    0x10000bce4:            81 c3 e0 08  retl
    0x10000bce8:            01 00 00 00  nop
__SLIP.DELETER__D()
    0x10000bcec:            9d e3 bf 50  save      %sp, -0xb0, %sp
    0x10000bcf0:            3b 00 04 00  sethi     %hi(0x100000), %i5
    0x10000bcf4:            ba 17 61 12  or        %i5, 0x112, %i5
    0x10000bcf8:            39 00 04 00  sethi     %hi(0x100000), %i4
    0x10000bcfc:            b5 2f 70 0c  sllx      %i5, 0xc, %i2
    0x10000bd00:            b6 17 20 0c  or        %i4, 0xc, %i3
    0x10000bd04:            92 06 a6 70  add       %i2, 0x670, %o1
    0x10000bd08:            af 2e f0 0c  sllx      %i3, 0xc, %l7
    0x10000bd0c:            40 04 18 45  call      +0x106114     <0x100111e20>
    0x10000bd10:            90 05 e9 65  add       %l7, 0x965, %o0
    0x10000bd14:            40 04 18 4b  call      +0x10612c     <0x100111e40>
    0x10000bd18:            d0 5e 20 08  ldx       [%i0 + 0x8], %o0
    0x10000bd1c:            80 8e 60 01  btst      0x1, %i1
    0x10000bd20:            02 40 00 04  be,pn     %icc, +0x10   <0x10000bd30>
    0x10000bd24:            01 00 00 00  nop
    0x10000bd28:            40 04 18 76  call      +0x1061d8     <0x100111f00>
    0x10000bd2c:            81 e8 20 00  restore   %g0, 0x0, %g0
    0x10000bd30:            81 c7 e0 08  ret
    0x10000bd34:            81 e8 20 00  restore   %g0, 0x0, %g0
    0x10000bd38:            00 00 00 00  illtrap   0x0
    0x10000bd3c:            00 00 00 00  illtrap   0x0
    0x10000bd40:            00 00 00 00  illtrap   0x0
    0x10000bd44:            00 00 00 00  illtrap   0x0
    0x10000bd48:            00 00 00 00  illtrap   0x0
    0x10000bd4c:            00 00 00 00  illtrap   0x0
__SLIP.DELETER__C()
    0x10000bd50:            80 8a 60 01  btst      0x1, %o1
    0x10000bd54:            02 40 00 04  be,pn     %icc, +0x10   <0x10000bd64>
    0x10000bd58:            82 10 00 0f  mov       %o7, %g1
    0x10000bd5c:            40 04 18 69  call      +0x1061a4     <0x100111f00>
    0x10000bd60:            9e 10 00 01  mov       %g1, %o7
    0x10000bd64:            81 c3 e0 08  retl
    0x10000bd68:            01 00 00 00  nop
__1cHPStream2T5B6M_v_()
    0x10000bd6c:            1b 00 00 00  sethi     %hi(0x0), %o5
    0x10000bd70:            9a 13 60 01  or        %o5, 0x1, %o5
    0x10000bd74:            17 00 04 49  sethi     %hi(0x112400), %o3
    0x10000bd78:            99 2b 70 20  sllx      %o5, 0x20, %o4
    0x10000bd7c:            94 13 00 0b  or        %o4, %o3, %o2
    0x10000bd80:            92 02 a0 68  add       %o2, 0x68, %o1
    0x10000bd84:            81 c3 e0 08  retl
    0x10000bd88:            d2 72 20 00  stx       %o1, [%o0]
    0x10000bd8c:            00 00 00 00  illtrap   0x0
    0x10000bd90:            00 00 00 00  illtrap   0x0
    0x10000bd94:            00 00 00 00  illtrap   0x0
    0x10000bd98:            00 00 00 00  illtrap   0x0
    0x10000bd9c:            00 00 00 00  illtrap   0x0
    0x10000bda0:            00 00 00 00  illtrap   0x0
    0x10000bda4:            00 00 00 00  illtrap   0x0
__1cHPStream2T6M_v_()
    0x10000bda8:            81 c3 e0 08  retl
    0x10000bdac:            01 00 00 00  nop
    0x10000bdb0:            00 00 00 00  illtrap   0x0
    0x10000bdb4:            00 00 00 00  illtrap   0x0
    0x10000bdb8:            00 00 00 00  illtrap   0x0
    0x10000bdbc:            00 00 00 00  illtrap   0x0
    0x10000bdc0:            00 00 00 00  illtrap   0x0
    0x10000bdc4:            00 00 00 00  illtrap   0x0
__1cKFileStreamEfeof6M_i_()
    0x10000bdc8:            82 10 00 0f  mov       %o7, %g1
    0x10000bdcc:            d0 5a 20 08  ldx       [%o0 + 0x8], %o0
    0x10000bdd0:            40 04 18 5c  call      +0x106170     <0x100111f40>
    0x10000bdd4:            9e 10 00 01  mov       %g1, %o7
    0x10000bdd8:            00 00 00 00  illtrap   0x0
    0x10000bddc:            00 00 00 00  illtrap   0x0
    0x10000bde0:            00 00 00 00  illtrap   0x0
    0x10000bde4:            00 00 00 00  illtrap   0x0
    0x10000bde8:            00 00 00 00  illtrap   0x0
    0x10000bdec:            00 00 00 00  illtrap   0x0
__1cKFileStreamGferror6M_i_()
    0x10000bdf0:            82 10 00 0f  mov       %o7, %g1
    0x10000bdf4:            d0 5a 20 08  ldx       [%o0 + 0x8], %o0
    0x10000bdf8:            40 04 18 5a  call      +0x106168     <0x100111f60>
    0x10000bdfc:            9e 10 00 01  mov       %g1, %o7
__1cKFileStreamEread6Mpfii_L_()
    0x10000be00:            9a 10 00 08  mov       %o0, %o5
    0x10000be04:            99 3a a0 00  sra       %o2, 0x0, %o4
    0x10000be08:            90 10 00 09  mov       %o1, %o0
    0x10000be0c:            95 3a e0 00  sra       %o3, 0x0, %o2
    0x10000be10:            93 2b 30 02  sllx      %o4, 0x2, %o1
    0x10000be14:            82 10 00 0f  mov       %o7, %g1
    0x10000be18:            d6 5b 60 08  ldx       [%o5 + 0x8], %o3
    0x10000be1c:            40 04 18 59  call      +0x106164     <0x100111f80>
    0x10000be20:            9e 10 00 01  mov       %g1, %o7
    0x10000be24:            00 00 00 00  illtrap   0x0
    0x10000be28:            00 00 00 00  illtrap   0x0
    0x10000be2c:            00 00 00 00  illtrap   0x0
    0x10000be30:            00 00 00 00  illtrap   0x0
    0x10000be34:            00 00 00 00  illtrap   0x0
    0x10000be38:            00 00 00 00  illtrap   0x0
    0x10000be3c:            00 00 00 00  illtrap   0x0
__1cJSimStreamEfeof6M_i_()
    0x10000be40:            da 5a 20 08  ldx       [%o0 + 0x8], %o5
    0x10000be44:            90 10 20 00  clr       %o0
    0x10000be48:            91 7b 68 01  movrlez   %o5, 0x1, %o0
    0x10000be4c:            81 c3 e0 08  retl
    0x10000be50:            01 00 00 00  nop
    0x10000be54:            00 00 00 00  illtrap   0x0
    0x10000be58:            00 00 00 00  illtrap   0x0
    0x10000be5c:            00 00 00 00  illtrap   0x0
    0x10000be60:            00 00 00 00  illtrap   0x0
    0x10000be64:            00 00 00 00  illtrap   0x0
    0x10000be68:            00 00 00 00  illtrap   0x0
    0x10000be6c:            00 00 00 00  illtrap   0x0
__1cJSimStreamGferror6M_i_()
    0x10000be70:            81 c3 e0 08  retl
    0x10000be74:            90 10 20 00  clr       %o0
    0x10000be78:            30 00 00 00  illtrap   0x0
    0x10000be7c:            00 00 00 00  illtrap   0x0
    0x10000be80:            00 00 00 00  illtrap   0x0
    0x10000be84:            00 00 00 00  illtrap   0x0
    0x10000be88:            00 00 00 00  illtrap   0x0
    0x10000be8c:            00 00 00 00  illtrap   0x0
    0x10000be90:            00 00 00 00  illtrap   0x0
    0x10000be94:            00 00 00 00  illtrap   0x0
__1cJSimStreamEread6Mpfii_L_()
    0x10000be98:            9d e3 bf 30  save      %sp, -0xd0, %sp
    0x10000be9c:            b6 90 00 1b  orcc      %g0, %i3, %i3
    0x10000bea0:            04 40 00 24  ble,pn    %icc, +0x90   <0x10000bf30>
    0x10000bea4:            a4 10 20 00  clr       %l2
    0x10000bea8:            ea 5e 20 08  ldx       [%i0 + 0x8], %l5
    0x10000beac:            04 c5 40 21  brlez,pn  %l5, +0x84    <0x10000bf30>
    0x10000beb0:            3b 00 04 00  sethi     %hi(0x100000), %i5
    0x10000beb4:            ba 17 60 0b  or        %i5, 0xb, %i5
    0x10000beb8:            b9 3e a0 00  sra       %i2, 0x0, %i4
    0x10000bebc:            a1 2f 70 0c  sllx      %i5, 0xc, %l0
    0x10000bec0:            a3 2f 30 02  sllx      %i4, 0x2, %l1
    0x10000bec4:            a8 06 bf ff  add       %i2, -0x1, %l4
    0x10000bec8:            a6 10 20 00  clr       %l3
    0x10000becc:            80 a6 a0 00  cmp       %i2, 0x0
    0x10000bed0:            04 40 00 0f  ble,pn    %icc, +0x3c   <0x10000bf0c>
    0x10000bed4:            ac 10 20 00  clr       %l6
    0x10000bed8:            ae 10 00 19  mov       %i1, %l7
    0x10000bedc:            40 04 17 81  call      +0x105e04     <0x100111ce0>
    0x10000bee0:            ac 05 a0 01  add       %l6, 0x1, %l6
    0x10000bee4:            d0 73 a8 bf  stx       %o0, [%sp + 0x8bf]
    0x10000bee8:            cd 1b a8 bf  ldd       [%sp + 0x8bf], %d6
    0x10000beec:            c1 04 2e 78  ld        [%l0 + 0xe78], %f0
    0x10000bef0:            80 a5 80 14  cmp       %l6, %l4
    0x10000bef4:            85 a0 10 86  fxtos     %d6, %f2
    0x10000bef8:            89 a0 89 20  fmuls     %f2, %f0, %f4
    0x10000befc:            c9 25 e0 00  st        %f4, [%l7]
    0x10000bf00:            04 4f ff f7  ble,pt    %icc, -0x24   <0x10000bedc>
    0x10000bf04:            ae 05 e0 04  add       %l7, 0x4, %l7
    0x10000bf08:            ea 5e 20 08  ldx       [%i0 + 0x8], %l5
    0x10000bf0c:            a6 04 e0 01  add       %l3, 0x1, %l3
    0x10000bf10:            80 a4 c0 1b  cmp       %l3, %i3
    0x10000bf14:            aa 05 7f ff  add       %l5, -0x1, %l5
    0x10000bf18:            a4 04 a0 01  add       %l2, 0x1, %l2
    0x10000bf1c:            16 40 00 05  bge,pn    %icc, +0x14   <0x10000bf30>
    0x10000bf20:            ea 76 20 08  stx       %l5, [%i0 + 0x8]
    0x10000bf24:            b2 06 40 11  add       %i1, %l1, %i1
    0x10000bf28:            0c fd 7f ea  brgz,pt   %l5, -0x58    <0x10000bed0>
    0x10000bf2c:            80 a6 a0 00  cmp       %i2, 0x0
    0x10000bf30:            81 c7 e0 08  ret
    0x10000bf34:            91 ec a0 00  restore   %l2, 0x0, %o0
    0x10000bf38:            00 00 00 00  illtrap   0x0
    0x10000bf3c:            00 00 00 00  illtrap   0x0
    0x10000bf40:            3f f0 00 00  0x3ff00000
    0x10000bf44:            00 00 00 00  illtrap   0x0
    0x10000bf48:            00 00 00 00  illtrap   0x0
    0x10000bf4c:            00 00 00 00  illtrap   0x0
    0x10000bf50:            3f d5 55 55  0x3fd55555
    0x10000bf54:            55 55 5e 83  call      +0x55557a0c   <0x155563960>
    0x10000bf58:            bf e0 00 00  save      %g0, %g0, %i7
    0x10000bf5c:            00 00 00 00  illtrap   0x0
    0x10000bf60:            bf cf ff ff  return    %i7 - 0x1
    0x10000bf64:            ff ff b8 40  0xffffb840
    0x10000bf68:            3f c9 99 99  0x3fc99999
    0x10000bf6c:            98 21 55 69  sub       %g5, %o1, %o4
    0x10000bf70:            3f c2 49 2d  0x3fc2492d
    0x10000bf74:            1b 23 30 10  sethi     %hi(0x8cc04000), %o5
    0x10000bf78:            bf c5 55 55  jmpl      %l5 + %l5, %i7
    0x10000bf7c:            48 ce e8 eb  call      +0x233ba3ac   <0x1233c6328>
    0x10000bf80:            3f bc 58 8d  fbo,a     -0xe9dcc      <0xfff221b4>
    0x10000bf84:            3a 22 3f b0  illtrap   0x223fb0
    0x10000bf88:            bf c0 00 9d  jmpl      %i5, %i7
    0x10000bf8c:            10 58 b3 ef  0x1058b3ef
    0x10000bf90:            bf b6 69 ae  0xbfb669ae
    0x10000bf94:            7e 3d aa 5c  call      -0x7095690    <0xf8f76904>
    0x10000bf98:            3f e5 55 55  0x3fe55555
    0x10000bf9c:            55 51 00 a9  call      +0x554402a4   <0x15544c240>
    0x10000bfa0:            3f d9 99 b4  0x3fd999b4
    0x10000bfa4:            4b fc c4 82  call      +0x2ff31208   <0x12ff3d1ac>
    0x10000bfa8:            43 f0 00 00  call      +0xfc00000    <0x10fc0bfa8>
    0x10000bfac:            00 00 00 00  illtrap   0x0
    0x10000bfb0:            00 00 00 00  illtrap   0x0
    0x10000bfb4:            00 00 00 00  illtrap   0x0
    0x10000bfb8:            00 00 00 00  illtrap   0x0
    0x10000bfbc:            00 00 00 00  illtrap   0x0
log()
    0x10000bfc0:            9d e3 bf 40  save      %sp, -0xc0, %sp
    0x10000bfc4:            c1 23 a8 af  st        %f0, [%sp + 0x8af]
    0x10000bfc8:            3b 00 00 00  sethi     %hi(0x0), %i5
    0x10000bfcc:            33 00 00 07  sethi     %hi(0x1c00), %i1
    0x10000bfd0:            c3 23 a8 b3  st        %f1, [%sp + 0x8b3]
    0x10000bfd4:            b6 17 60 01  or        %i5, 0x1, %i3
    0x10000bfd8:            35 00 00 2f  sethi     %hi(0xbc00), %i2
    0x10000bfdc:            b1 2e f0 20  sllx      %i3, 0x20, %i0
    0x10000bfe0:            aa 06 63 f8  add       %i1, 0x3f8, %l5
    0x10000bfe4:            b6 16 00 1a  or        %i0, %i2, %i3
    0x10000bfe8:            81 41 40 00  rd        %pc, %g0
    0x10000bfec:            f8 03 a8 af  ld        [%sp + 0x8af], %i4
    0x10000bff0:            af 3f 20 0c  sra       %i4, 0xc, %l7
    0x10000bff4:            ac 05 e0 10  add       %l7, 0x10, %l6
    0x10000bff8:            a9 3d a0 05  sra       %l6, 0x5, %l4
    0x10000bffc:            80 a5 00 15  cmp       %l4, %l5
    0x10000c000:            12 40 00 3b  bne,pn    %icc, +0xec   <0x10000c0ec>
    0x10000c004:            ba 06 e3 48  add       %i3, 0x348, %i5
    0x10000c008:            ec 03 a8 b3  ld        [%sp + 0x8b3], %l6
    0x10000c00c:            cd 1f 7f f8  ldd       [%i5 - 0x8], %d6
    0x10000c010:            2b 30 04 00  sethi     %hi(0xc0100000), %l5
    0x10000c014:            a0 07 00 15  add       %i4, %l5, %l0
    0x10000c018:            80 94 00 16  orcc      %l0, %l6, %g0
    0x10000c01c:            12 40 00 05  bne,pn    %icc, +0x14   <0x10000c030>
    0x10000c020:            9d a0 08 c6  fsubd     %d0, %d6, %d14
    0x10000c024:            c1 1e e3 48  ldd       [%i3 + 0x348], %d0
    0x10000c028:            81 c7 e0 08  ret
    0x10000c02c:            81 e8 20 00  restore   %g0, 0x0, %g0
    0x10000c030:            fd 1f 60 08  ldd       [%i5 + 0x8], %d30
    0x10000c034:            82 07 20 20  add       %i4, 0x20, %g1
    0x10000c038:            2f 00 3f f0  sethi     %hi(0xffc000), %l7
    0x10000c03c:            95 a3 89 4e  fmuld     %d14, %d14, %d10
    0x10000c040:            9f 38 60 06  sra       %g1, 0x6, %o7
    0x10000c044:            80 a3 c0 17  cmp       %o7, %l7
    0x10000c048:            12 40 00 0c  bne,pn    %icc, +0x30   <0x10000c078>
    0x10000c04c:            99 a3 89 5e  fmuld     %d14, %d30, %d12
    0x10000c050:            f5 1f 60 10  ldd       [%i5 + 0x10], %d26
    0x10000c054:            b9 a2 89 4a  fmuld     %d10, %d10, %d28
    0x10000c058:            e5 1f 60 18  ldd       [%i5 + 0x18], %d18
    0x10000c05c:            99 a3 08 5a  faddd     %d12, %d26, %d12
    0x10000c060:            89 a7 09 52  fmuld     %d28, %d18, %d4
    0x10000c064:            bf a2 89 4c  fmuld     %d10, %d12, %d62
    0x10000c068:            95 a7 c8 44  faddd     %d62, %d4, %d10
    0x10000c06c:            81 a3 88 4a  faddd     %d14, %d10, %d0
    0x10000c070:            81 c7 e0 08  ret
    0x10000c074:            81 e8 20 00  restore   %g0, 0x0, %g0
    0x10000c078:            f5 1f 60 38  ldd       [%i5 + 0x38], %d26
    0x10000c07c:            a5 a2 89 4a  fmuld     %d10, %d10, %d18
    0x10000c080:            fd 1f 60 28  ldd       [%i5 + 0x28], %d30
    0x10000c084:            f9 1f 60 40  ldd       [%i5 + 0x40], %d28
    0x10000c088:            89 a3 89 5a  fmuld     %d14, %d26, %d4
    0x10000c08c:            cd 1f 60 30  ldd       [%i5 + 0x30], %d6
    0x10000c090:            b1 a3 89 5e  fmuld     %d14, %d30, %d24
    0x10000c094:            ff 1f 60 20  ldd       [%i5 + 0x20], %d62
    0x10000c098:            ed 1f 60 10  ldd       [%i5 + 0x10], %d22
    0x10000c09c:            a1 a4 89 4a  fmuld     %d18, %d10, %d16
    0x10000c0a0:            d1 1f 60 18  ldd       [%i5 + 0x18], %d8
    0x10000c0a4:            b5 a1 08 5c  faddd     %d4, %d28, %d26
    0x10000c0a8:            85 a3 89 5f  fmuld     %d14, %d62, %d2
    0x10000c0ac:            e9 1f 60 48  ldd       [%i5 + 0x48], %d20
    0x10000c0b0:            89 a6 08 46  faddd     %d24, %d6, %d4
    0x10000c0b4:            99 a3 08 56  faddd     %d12, %d22, %d12
    0x10000c0b8:            8d a4 89 54  fmuld     %d18, %d20, %d6
    0x10000c0bc:            b9 a2 89 5a  fmuld     %d10, %d26, %d28
    0x10000c0c0:            bf a0 88 48  faddd     %d2, %d8, %d62
    0x10000c0c4:            bd a2 89 4c  fmuld     %d10, %d12, %d30
    0x10000c0c8:            b1 a1 08 5c  faddd     %d4, %d28, %d24
    0x10000c0cc:            95 a4 89 5f  fmuld     %d18, %d62, %d10
    0x10000c0d0:            ad a6 08 46  faddd     %d24, %d6, %d22
    0x10000c0d4:            85 a7 88 4a  faddd     %d30, %d10, %d2
    0x10000c0d8:            91 a4 09 56  fmuld     %d16, %d22, %d8
    0x10000c0dc:            a9 a0 88 48  faddd     %d2, %d8, %d20
    0x10000c0e0:            81 a3 88 54  faddd     %d14, %d20, %d0
    0x10000c0e4:            81 c7 e0 08  ret
    0x10000c0e8:            81 e8 20 00  restore   %g0, 0x0, %g0
    0x10000c0ec:            9f 3f 20 14  sra       %i4, 0x14, %o7
    0x10000c0f0:            82 10 24 07  mov       0x407, %g1
    0x10000c0f4:            ae 03 fc 08  add       %o7, -0x3f8, %l7
    0x10000c0f8:            82 20 40 0f  sub       %g1, %o7, %g1
    0x10000c0fc:            80 95 c0 01  orcc      %l7, %g1, %g0
    0x10000c100:            06 40 00 1f  bl,pn     %icc, +0x7c   <0x10000c17c>
    0x10000c104:            35 00 00 00  sethi     %hi(0x0), %i2
    0x10000c108:            f5 1f 60 50  ldd       [%i5 + 0x50], %d26
    0x10000c10c:            fd 1f 60 58  ldd       [%i5 + 0x58], %d30
    0x10000c110:            b0 16 a0 01  or        %i2, 0x1, %i0
    0x10000c114:            0b 30 20 00  sethi     %hi(0xc0800000), %g5
    0x10000c118:            bb 2e 30 20  sllx      %i0, 0x20, %i5
    0x10000c11c:            b8 07 00 05  add       %i4, %g5, %i4
    0x10000c120:            19 00 00 36  sethi     %hi(0xd800), %o4
    0x10000c124:            93 3f 20 0a  sra       %i4, 0xa, %o1
    0x10000c128:            88 17 40 0c  or        %i5, %o4, %g4
    0x10000c12c:            b2 0a 7f f0  and       %o1, -0x10, %i1
    0x10000c130:            96 01 23 68  add       %g4, 0x368, %o3
    0x10000c134:            d9 1e 40 0b  ldd       [%i1 + %o3], %d12
    0x10000c138:            a6 06 40 0b  add       %i1, %o3, %l3
    0x10000c13c:            e9 1c e0 08  ldd       [%l3 + 0x8], %d20
    0x10000c140:            9d a0 08 4c  faddd     %d0, %d12, %d14
    0x10000c144:            a5 a0 08 cc  fsubd     %d0, %d12, %d18
    0x10000c148:            bf a4 89 ce  fdivd     %d18, %d14, %d62
    0x10000c14c:            b1 a7 c9 5f  fmuld     %d62, %d62, %d24
    0x10000c150:            ad a7 c8 5f  faddd     %d62, %d62, %d22
    0x10000c154:            b9 a7 c9 5e  fmuld     %d62, %d30, %d28
    0x10000c158:            a1 a7 c9 5a  fmuld     %d62, %d26, %d16
    0x10000c15c:            89 a6 09 5c  fmuld     %d24, %d28, %d4
    0x10000c160:            8d a6 09 50  fmuld     %d24, %d16, %d6
    0x10000c164:            91 a6 09 44  fmuld     %d24, %d4, %d8
    0x10000c168:            85 a5 88 46  faddd     %d22, %d6, %d2
    0x10000c16c:            95 a0 88 48  faddd     %d2, %d8, %d10
    0x10000c170:            81 a5 08 4a  faddd     %d20, %d10, %d0
    0x10000c174:            81 c7 e0 08  ret
    0x10000c178:            81 e8 20 00  restore   %g0, 0x0, %g0
    0x10000c17c:            15 00 04 00  sethi     %hi(0x100000), %o2
    0x10000c180:            29 00 08 00  sethi     %hi(0x200000), %l4
    0x10000c184:            90 07 00 0a  add       %i4, %o2, %o0
    0x10000c188:            80 a2 00 14  cmp       %o0, %l4
    0x10000c18c:            16 40 00 3f  bge,pn    %icc, +0xfc   <0x10000c288>
    0x10000c190:            80 a3 e7 ff  cmp       %o7, 0x7ff
    0x10000c194:            36 40 00 9b  bge,a,pn  %icc, +0x26c  <0x10000c400>
    0x10000c198:            81 a0 09 40  fmuld     %d0, %d0, %d0
    0x10000c19c:            e0 03 a8 b3  ld        [%sp + 0x8b3], %l0
    0x10000c1a0:            a5 2f 20 01  sll       %i4, 0x1, %l2
    0x10000c1a4:            80 94 80 10  orcc      %l2, %l0, %g0
    0x10000c1a8:            12 40 00 07  bne,pn    %icc, +0x1c   <0x10000c1c4>
    0x10000c1ac:            d1 1f 7f f8  ldd       [%i5 - 0x8], %d8
    0x10000c1b0:            85 a0 09 40  fmuld     %d0, %d0, %d2
    0x10000c1b4:            95 a0 00 c8  fnegd     %d8, %d10
    0x10000c1b8:            81 a2 89 c2  fdivd     %d10, %d2, %d0
    0x10000c1bc:            81 c7 e0 08  ret
    0x10000c1c0:            81 e8 20 00  restore   %g0, 0x0, %g0
    0x10000c1c4:            80 a7 20 00  cmp       %i4, 0x0
    0x10000c1c8:            16 40 00 06  bge,pn    %icc, +0x18   <0x10000c1e0>
    0x10000c1cc:            cd 1e e3 48  ldd       [%i3 + 0x348], %d6
    0x10000c1d0:            89 a0 09 46  fmuld     %d0, %d6, %d4
    0x10000c1d4:            81 a1 09 c6  fdivd     %d4, %d6, %d0
    0x10000c1d8:            81 c7 e0 08  ret
    0x10000c1dc:            81 e8 20 00  restore   %g0, 0x0, %g0
    0x10000c1e0:            e9 1f 60 60  ldd       [%i5 + 0x60], %d20
    0x10000c1e4:            39 00 00 00  sethi     %hi(0x0), %i4
    0x10000c1e8:            19 00 00 35  sethi     %hi(0xd400), %o4
    0x10000c1ec:            b8 17 20 01  or        %i4, 0x1, %i4
    0x10000c1f0:            35 00 00 00  sethi     %hi(0x0), %i2
    0x10000c1f4:            b9 2f 30 20  sllx      %i4, 0x20, %i4
    0x10000c1f8:            b6 10 24 3f  mov       0x43f, %i3
    0x10000c1fc:            81 a0 09 54  fmuld     %d0, %d20, %d0
    0x10000c200:            c1 23 a8 af  st        %f0, [%sp + 0x8af]
    0x10000c204:            b8 17 00 0c  or        %i4, %o4, %i4
    0x10000c208:            98 16 a0 01  or        %i2, 0x1, %o4
    0x10000c20c:            92 07 23 28  add       %i4, 0x328, %o1
    0x10000c210:            ab 2b 30 20  sllx      %o4, 0x20, %l5
    0x10000c214:            35 00 00 34  sethi     %hi(0xd000), %i2
    0x10000c218:            98 15 40 1a  or        %l5, %i2, %o4
    0x10000c21c:            a6 03 23 28  add       %o4, 0x328, %l3
    0x10000c220:            9c 03 a0 00  add       %sp, 0x0, %sp
    0x10000c224:            9c 03 a0 00  add       %sp, 0x0, %sp
    0x10000c228:            9c 03 a0 00  add       %sp, 0x0, %sp
    0x10000c22c:            9c 03 a0 00  add       %sp, 0x0, %sp
    0x10000c230:            9c 03 a0 00  add       %sp, 0x0, %sp
    0x10000c234:            f8 03 a8 af  ld        [%sp + 0x8af], %i4
    0x10000c238:            97 3f 20 14  sra       %i4, 0x14, %o3
    0x10000c23c:            b4 26 c0 0b  sub       %i3, %o3, %i2
    0x10000c240:            ab 3e a0 00  sra       %i2, 0x0, %l5
    0x10000c244:            94 0e a0 1f  and       %i2, 0x1f, %o2
    0x10000c248:            96 0d 7f e0  and       %l5, -0x20, %o3
    0x10000c24c:            a9 2a a0 02  sll       %o2, 0x2, %l4
    0x10000c250:            f9 1a 40 0b  ldd       [%o1 + %o3], %d28
    0x10000c254:            99 3d 20 00  sra       %l4, 0x0, %o4
    0x10000c258:            aa 02 c0 09  add       %o3, %o1, %l5
    0x10000c25c:            b7 2b 30 03  sllx      %o4, 0x3, %i3
    0x10000c260:            80 a6 a3 ff  cmp       %i2, 0x3ff
    0x10000c264:            b0 06 c0 13  add       %i3, %l3, %i0
    0x10000c268:            a1 a0 09 5c  fmuld     %d0, %d28, %d16
    0x10000c26c:            32 40 00 3c  bne,a,pn  %icc, +0xf0   <0x10000c35c>
    0x10000c270:            fd 1e 20 18  ldd       [%i0 + 0x18], %d30
    0x10000c274:            ed 1f 60 60  ldd       [%i5 + 0x60], %d22
    0x10000c278:            ff 1e 20 18  ldd       [%i0 + 0x18], %d62
    0x10000c27c:            bd a7 c9 56  fmuld     %d62, %d22, %d30
    0x10000c280:            10 80 00 38  ba        +0xe0         <0x10000c360>
    0x10000c284:            27 00 03 ff  sethi     %hi(0xffc00), %l3
    0x10000c288:            80 a3 e3 ff  cmp       %o7, 0x3ff
    0x10000c28c:            16 40 00 1c  bge,pn    %icc, +0x70   <0x10000c2fc>
    0x10000c290:            2b 00 00 00  sethi     %hi(0x0), %l5
    0x10000c294:            b6 15 60 01  or        %l5, 0x1, %i3
    0x10000c298:            96 10 23 ff  mov       0x3ff, %o3
    0x10000c29c:            a6 22 c0 0f  sub       %o3, %o7, %l3
    0x10000c2a0:            29 00 00 35  sethi     %hi(0xd400), %l4
    0x10000c2a4:            95 2e f0 20  sllx      %i3, 0x20, %o2
    0x10000c2a8:            13 00 00 00  sethi     %hi(0x0), %o1
    0x10000c2ac:            a1 3c e0 00  sra       %l3, 0x0, %l0
    0x10000c2b0:            90 0c e0 1f  and       %l3, 0x1f, %o0
    0x10000c2b4:            a4 12 80 14  or        %o2, %l4, %l2
    0x10000c2b8:            8a 12 60 01  or        %o1, 0x1, %g5
    0x10000c2bc:            a2 0c 3f e0  and       %l0, -0x20, %l1
    0x10000c2c0:            9a 04 a3 28  add       %l2, 0x328, %o5
    0x10000c2c4:            b1 2a 20 02  sll       %o0, 0x2, %i0
    0x10000c2c8:            33 00 00 34  sethi     %hi(0xd000), %i1
    0x10000c2cc:            f1 1c 40 0d  ldd       [%l1 + %o5], %d24
    0x10000c2d0:            89 29 70 20  sllx      %g5, 0x20, %g4
    0x10000c2d4:            83 3e 20 00  sra       %i0, 0x0, %g1
    0x10000c2d8:            ae 11 00 19  or        %g4, %i1, %l7
    0x10000c2dc:            ad 28 70 03  sllx      %g1, 0x3, %l6
    0x10000c2e0:            9e 05 e3 28  add       %l7, 0x328, %o7
    0x10000c2e4:            a1 a0 09 58  fmuld     %d0, %d24, %d16
    0x10000c2e8:            aa 04 40 0d  add       %l1, %o5, %l5
    0x10000c2ec:            b0 05 80 0f  add       %l6, %o7, %i0
    0x10000c2f0:            fd 1e 20 18  ldd       [%i0 + 0x18], %d30
    0x10000c2f4:            10 80 00 1b  ba        +0x6c         <0x10000c360>
    0x10000c2f8:            27 00 03 ff  sethi     %hi(0xffc00), %l3
    0x10000c2fc:            33 00 00 00  sethi     %hi(0x0), %i1
    0x10000c300:            b6 03 fc 01  add       %o7, -0x3ff, %i3
    0x10000c304:            b0 16 60 01  or        %i1, 0x1, %i0
    0x10000c308:            2d 00 00 33  sethi     %hi(0xcc00), %l6
    0x10000c30c:            af 2e 30 20  sllx      %i0, 0x20, %l7
    0x10000c310:            35 00 00 00  sethi     %hi(0x0), %i2
    0x10000c314:            aa 15 c0 16  or        %l7, %l6, %l5
    0x10000c318:            a4 16 a0 01  or        %i2, 0x1, %l2
    0x10000c31c:            a9 3e e0 00  sra       %i3, 0x0, %l4
    0x10000c320:            a6 0e e0 1f  and       %i3, 0x1f, %l3
    0x10000c324:            9a 05 63 28  add       %l5, 0x328, %o5
    0x10000c328:            a2 0d 3f e0  and       %l4, -0x20, %l1
    0x10000c32c:            b1 2c e0 02  sll       %l3, 0x2, %i0
    0x10000c330:            2f 00 00 32  sethi     %hi(0xc800), %l7
    0x10000c334:            e1 1c 40 0d  ldd       [%l1 + %o5], %d16
    0x10000c338:            b3 2c b0 20  sllx      %l2, 0x20, %i1
    0x10000c33c:            9f 3e 20 00  sra       %i0, 0x0, %o7
    0x10000c340:            ac 16 40 17  or        %i1, %l7, %l6
    0x10000c344:            b5 2b f0 03  sllx      %o7, 0x3, %i2
    0x10000c348:            98 05 a3 28  add       %l6, 0x328, %o4
    0x10000c34c:            a1 a0 09 50  fmuld     %d0, %d16, %d16
    0x10000c350:            aa 04 40 0d  add       %l1, %o5, %l5
    0x10000c354:            b0 06 80 0c  add       %i2, %o4, %i0
    0x10000c358:            fd 1e 20 18  ldd       [%i0 + 0x18], %d30
    0x10000c35c:            27 00 03 ff  sethi     %hi(0xffc00), %l3
    0x10000c360:            a2 04 e3 ff  add       %l3, 0x3ff, %l1
    0x10000c364:            25 00 00 00  sethi     %hi(0x0), %l2
    0x10000c368:            c5 1e 20 10  ldd       [%i0 + 0x10], %d2
    0x10000c36c:            b8 0f 00 11  and       %i4, %l1, %i4
    0x10000c370:            9e 14 a0 01  or        %l2, 0x1, %o7
    0x10000c374:            c9 1d 60 10  ldd       [%l5 + 0x10], %d4
    0x10000c378:            9b 37 20 0e  srl       %i4, 0xe, %o5
    0x10000c37c:            17 00 00 36  sethi     %hi(0xd800), %o3
    0x10000c380:            d1 1d 60 08  ldd       [%l5 + 0x8], %d8
    0x10000c384:            94 13 61 c0  or        %o5, 0x1c0, %o2
    0x10000c388:            99 2b f0 20  sllx      %o7, 0x20, %o4
    0x10000c38c:            cd 1e 20 08  ldd       [%i0 + 0x8], %d6
    0x10000c390:            a1 2a a0 01  sll       %o2, 0x1, %l0
    0x10000c394:            92 13 00 0b  or        %o4, %o3, %o1
    0x10000c398:            a9 a1 08 42  faddd     %d4, %d2, %d20
    0x10000c39c:            f1 1f 60 58  ldd       [%i5 + 0x58], %d24
    0x10000c3a0:            91 34 20 00  srl       %l0, 0x0, %o0
    0x10000c3a4:            8a 02 63 68  add       %o1, 0x368, %g5
    0x10000c3a8:            ed 1f 60 50  ldd       [%i5 + 0x50], %d22
    0x10000c3ac:            89 2a 30 03  sllx      %o0, 0x3, %g4
    0x10000c3b0:            99 a2 08 46  faddd     %d8, %d6, %d12
    0x10000c3b4:            c5 19 40 04  ldd       [%g5 + %g4], %d2
    0x10000c3b8:            82 01 00 05  add       %g4, %g5, %g1
    0x10000c3bc:            d5 18 60 08  ldd       [%g1 + 0x8], %d10
    0x10000c3c0:            9d a7 89 42  fmuld     %d30, %d2, %d14
    0x10000c3c4:            a5 a3 08 4a  faddd     %d12, %d10, %d18
    0x10000c3c8:            b5 a4 08 4e  faddd     %d16, %d14, %d26
    0x10000c3cc:            a1 a4 08 ce  fsubd     %d16, %d14, %d16
    0x10000c3d0:            bf a4 09 da  fdivd     %d16, %d26, %d62
    0x10000c3d4:            91 a7 c9 5f  fmuld     %d62, %d62, %d8
    0x10000c3d8:            bd a7 c8 5f  faddd     %d62, %d62, %d30
    0x10000c3dc:            b9 a7 c9 58  fmuld     %d62, %d24, %d28
    0x10000c3e0:            89 a7 c9 56  fmuld     %d62, %d22, %d4
    0x10000c3e4:            95 a5 08 5e  faddd     %d20, %d30, %d10
    0x10000c3e8:            8d a7 09 48  fmuld     %d28, %d8, %d6
    0x10000c3ec:            85 a1 09 48  fmuld     %d4, %d8, %d2
    0x10000c3f0:            99 a2 09 46  fmuld     %d8, %d6, %d12
    0x10000c3f4:            9d a2 88 42  faddd     %d10, %d2, %d14
    0x10000c3f8:            b5 a3 88 4c  faddd     %d14, %d12, %d26
    0x10000c3fc:            81 a4 88 5a  faddd     %d18, %d26, %d0
    0x10000c400:            81 c7 e0 08  ret
    0x10000c404:            81 e8 20 00  restore   %g0, 0x0, %g0

section .init
_init()
    0x10000c408:            9d e3 bf 50  save      %sp, -0xb0, %sp
    0x10000c40c:            01 00 00 00  nop
    0x10000c410:            40 00 00 1c  call      +0x70         <0x10000c480>
    0x10000c414:            01 00 00 00  nop
    0x10000c418:            9d e3 bf 50  save      %sp, -0xb0, %sp
    0x10000c41c:            40 00 00 02  call      +0x8          <0x10000c424>
    0x10000c420:            01 00 00 00  nop
    0x10000c424:            d0 5b e0 24  ldx       [%o7 + 0x24], %o0
    0x10000c428:            90 03 c0 08  add       %o7, %o0, %o0
    0x10000c42c:            ee 5a 3f f8  ldx       [%o0 - 0x8], %l7
    0x10000c430:            9f c5 c0 00  jmpl      %l7, %o7
    0x10000c434:            01 00 00 00  nop
    0x10000c438:            81 c7 e0 08  ret
    0x10000c43c:            81 e8 00 00  restore
    0x10000c440:            00 00 00 00  illtrap   0x0
    0x10000c444:            00 10 5f bc  illtrap   0x105fbc
    0x10000c448:            9d e3 bf 50  save      %sp, -0xb0, %sp
    0x10000c44c:            40 00 00 02  call      +0x8          <0x10000c454>
    0x10000c450:            01 00 00 00  nop
    0x10000c454:            d0 5b e0 24  ldx       [%o7 + 0x24], %o0
    0x10000c458:            90 03 c0 08  add       %o7, %o0, %o0
    0x10000c45c:            ee 5a 3f e8  ldx       [%o0 - 0x18], %l7
    0x10000c460:            9f c5 c0 00  jmpl      %l7, %o7
    0x10000c464:            01 00 00 00  nop
    0x10000c468:            81 c7 e0 08  ret
    0x10000c46c:            81 e8 00 00  restore
    0x10000c470:            00 00 00 00  illtrap   0x0
    0x10000c474:            00 10 5f 8c  illtrap   0x105f8c
    0x10000c478:            00 00 00 00  illtrap   0x0
    0x10000c47c:            00 10 5f c8  illtrap   0x105fc8
    0x10000c480:            d0 5b e0 68  ldx       [%o7 + 0x68], %o0
    0x10000c484:            90 03 c0 08  add       %o7, %o0, %o0
    0x10000c488:            e0 5a 3f f0  ldx       [%o0 - 0x10], %l0
    0x10000c48c:            e2 5a 3f e0  ldx       [%o0 - 0x20], %l1
    0x10000c490:            e8 5a 3f c8  ldx       [%o0 - 0x38], %l4
    0x10000c494:            e4 5a 3f d8  ldx       [%o0 - 0x28], %l2
    0x10000c498:            e6 5a 3f d0  ldx       [%o0 - 0x30], %l3
    0x10000c49c:            ea 5a 3f c0  ldx       [%o0 - 0x40], %l5
    0x10000c4a0:            80 a4 00 00  cmp       %l0, %g0
    0x10000c4a4:            02 80 00 0c  be        +0x30         <0x10000c4d4>
    0x10000c4a8:            01 00 00 00  nop
    0x10000c4ac:            9f c4 00 00  jmpl      %l0, %o7
    0x10000c4b0:            01 00 00 00  nop
    0x10000c4b4:            80 a4 80 00  cmp       %l2, %g0
    0x10000c4b8:            02 80 00 07  be        +0x1c         <0x10000c4d4>
    0x10000c4bc:            01 00 00 00  nop
    0x10000c4c0:            80 a5 40 00  cmp       %l5, %g0
    0x10000c4c4:            02 80 00 04  be        +0x10         <0x10000c4d4>
    0x10000c4c8:            01 00 00 00  nop
    0x10000c4cc:            9f c5 40 00  jmpl      %l5, %o7
    0x10000c4d0:            90 14 c0 00  or        %l3, %g0, %o0
    0x10000c4d4:            80 a4 40 00  cmp       %l1, %g0
    0x10000c4d8:            02 80 00 0c  be        +0x30         <0x10000c508>
    0x10000c4dc:            01 00 00 00  nop
    0x10000c4e0:            9f c4 40 00  jmpl      %l1, %o7
    0x10000c4e4:            01 00 00 00  nop
    0x10000c4e8:            80 a4 80 00  cmp       %l2, %g0
    0x10000c4ec:            02 80 00 07  be        +0x1c         <0x10000c508>
    0x10000c4f0:            01 00 00 00  nop
    0x10000c4f4:            80 a5 40 00  cmp       %l5, %g0
    0x10000c4f8:            02 80 00 04  be        +0x10         <0x10000c508>
    0x10000c4fc:            01 00 00 00  nop
    0x10000c500:            9f c5 40 00  jmpl      %l5, %o7
    0x10000c504:            90 15 00 00  or        %l4, %g0, %o0
    0x10000c508:            81 c7 e0 08  ret
    0x10000c50c:            81 e8 00 00  restore

section .fini
_fini()
    0x10000c510:            9d e3 bf 50  save      %sp, -0xb0, %sp
    0x10000c514:            01 00 00 00  nop
    0x10000c518:            40 00 00 06  call      +0x18         <0x10000c530>
    0x10000c51c:            01 00 00 00  nop
    0x10000c520:            00 00 00 00  illtrap   0x0
    0x10000c524:            00 10 5e f8  illtrap   0x105ef8
    0x10000c528:            00 00 00 00  illtrap   0x0
    0x10000c52c:            00 10 5e c0  illtrap   0x105ec0
    0x10000c530:            d0 5b e0 08  ldx       [%o7 + 0x8], %o0
    0x10000c534:            90 03 c0 08  add       %o7, %o0, %o0
    0x10000c538:            ee 5b e0 10  ldx       [%o7 + 0x10], %l7
    0x10000c53c:            ae 03 c0 17  add       %o7, %l7, %l7
    0x10000c540:            e0 5a 3f f8  ldx       [%o0 - 0x8], %l0
    0x10000c544:            80 a4 00 00  cmp       %l0, %g0
    0x10000c548:            02 80 00 05  be        +0x14         <0x10000c55c>
    0x10000c54c:            01 00 00 00  nop
    0x10000c550:            d2 5a 20 08  ldx       [%o0 + 0x8], %o1
    0x10000c554:            9f c4 00 00  jmpl      %l0, %o7
    0x10000c558:            d0 5a 00 00  ldx       [%o0], %o0
    0x10000c55c:            e6 5d ff f8  ldx       [%l7 - 0x8], %l3
    0x10000c560:            e4 5d ff d8  ldx       [%l7 - 0x28], %l2
    0x10000c564:            e0 5d ff e8  ldx       [%l7 - 0x18], %l0
    0x10000c568:            80 a4 80 00  cmp       %l2, %g0
    0x10000c56c:            12 80 00 0c  bne       +0x30         <0x10000c59c>
    0x10000c570:            01 00 00 00  nop
    0x10000c574:            80 a4 c0 00  cmp       %l3, %g0
    0x10000c578:            02 80 00 04  be        +0x10         <0x10000c588>
    0x10000c57c:            01 00 00 00  nop
    0x10000c580:            9f c4 c0 00  jmpl      %l3, %o7
    0x10000c584:            90 15 c0 00  or        %l7, %g0, %o0
    0x10000c588:            80 a4 00 00  cmp       %l0, %g0
    0x10000c58c:            02 80 00 04  be        +0x10         <0x10000c59c>
    0x10000c590:            01 00 00 00  nop
    0x10000c594:            9f c4 00 00  jmpl      %l0, %o7
    0x10000c598:            01 00 00 00  nop
    0x10000c59c:            81 c7 e0 08  ret
    0x10000c5a0:            81 e8 00 00  restore
