disassembly for sobel


section .text
_start()
    0x1000012c0:            bc 10 20 00  clr       %fp
    0x1000012c4:            e0 5b a8 7f  ldx       [%sp + 0x87f], %l0
    0x1000012c8:            1b 00 00 00  sethi     %hi(0x0), %o5
    0x1000012cc:            9a 13 60 01  or        %o5, 0x1, %o5
    0x1000012d0:            9b 2b 70 20  sllx      %o5, 0x20, %o5
    0x1000012d4:            13 00 04 40  sethi     %hi(0x110000), %o1
    0x1000012d8:            92 12 40 0d  or        %o1, %o5, %o1
    0x1000012dc:            e0 22 60 f8  st        %l0, [%o1 + 0xf8]
    0x1000012e0:            a2 03 a8 87  add       %sp, 0x887, %l1
    0x1000012e4:            1b 00 00 00  sethi     %hi(0x0), %o5
    0x1000012e8:            9a 13 60 01  or        %o5, 0x1, %o5
    0x1000012ec:            9b 2b 70 20  sllx      %o5, 0x20, %o5
    0x1000012f0:            13 00 04 40  sethi     %hi(0x110000), %o1
    0x1000012f4:            92 12 40 0d  or        %o1, %o5, %o1
    0x1000012f8:            e2 72 60 f0  stx       %l1, [%o1 + 0xf0]
    0x1000012fc:            1b 00 00 00  sethi     %hi(0x0), %o5
    0x100001300:            9a 13 60 01  or        %o5, 0x1, %o5
    0x100001304:            9b 2b 70 20  sllx      %o5, 0x20, %o5
    0x100001308:            13 00 04 40  sethi     %hi(0x110000), %o1
    0x10000130c:            92 12 40 0d  or        %o1, %o5, %o1
    0x100001310:            e2 72 60 88  stx       %l1, [%o1 + 0x88]
    0x100001314:            a5 2c 20 03  sll       %l0, 0x3, %l2
    0x100001318:            a4 04 a0 08  add       %l2, 0x8, %l2
    0x10000131c:            a4 04 40 12  add       %l1, %l2, %l2
    0x100001320:            1b 00 00 00  sethi     %hi(0x0), %o5
    0x100001324:            9a 13 60 01  or        %o5, 0x1, %o5
    0x100001328:            9b 2b 70 20  sllx      %o5, 0x20, %o5
    0x10000132c:            27 00 04 40  sethi     %hi(0x110000), %l3
    0x100001330:            a6 14 c0 0d  or        %l3, %o5, %l3
    0x100001334:            e8 5c e0 60  ldx       [%l3 + 0x60], %l4
    0x100001338:            80 a5 20 00  cmp       %l4, 0x0
    0x10000133c:            12 80 00 03  bne       +0xc          <0x100001348>
    0x100001340:            01 00 00 00  nop
    0x100001344:            e4 74 e0 60  stx       %l2, [%l3 + 0x60]
    0x100001348:            2b 00 00 00  sethi     %hi(0x0), %l5
    0x10000134c:            aa 15 60 01  or        %l5, 0x1, %l5
    0x100001350:            80 90 00 15  tst       %l5
    0x100001354:            02 80 00 15  be        +0x54         <0x1000013a8>
    0x100001358:            01 00 00 00  nop
    0x10000135c:            1b 00 00 00  sethi     %hi(0x0), %o5
    0x100001360:            9a 13 60 01  or        %o5, 0x1, %o5
    0x100001364:            9b 2b 70 20  sllx      %o5, 0x20, %o5
    0x100001368:            29 00 04 40  sethi     %hi(0x110000), %l4
    0x10000136c:            a8 15 00 0d  or        %l4, %o5, %l4
    0x100001370:            ad 2d 60 02  sll       %l5, 0x2, %l6
    0x100001374:            c1 2d 20 80  stx       %fsr, [%l4 + 0x80]
    0x100001378:            ae 0d a3 00  and       %l6, 0x300, %l7
    0x10000137c:            ac 0d 60 3f  and       %l5, 0x3f, %l6
    0x100001380:            ac 15 80 17  or        %l6, %l7, %l6
    0x100001384:            ab 2d a0 16  sll       %l6, 0x16, %l5
    0x100001388:            ec 05 20 80  ld        [%l4 + 0x80], %l6
    0x10000138c:            ae 20 00 17  neg       %l7
    0x100001390:            af 3d e0 1f  sra       %l7, 0x1f, %l7
    0x100001394:            af 2d e0 1e  sll       %l7, 0x1e, %l7
    0x100001398:            ac 2d 80 17  andn      %l6, %l7, %l6
    0x10000139c:            ac 15 80 15  or        %l6, %l5, %l6
    0x1000013a0:            ec 25 20 80  st        %l6, [%l4 + 0x80]
    0x1000013a4:            c1 0d 20 80  ldx       [%l4 + 0x80], %fsr
    0x1000013a8:            9c 23 a0 30  sub       %sp, 0x30, %sp
    0x1000013ac:            80 90 00 01  tst       %g1
    0x1000013b0:            02 80 00 04  be        +0x10         <0x1000013c0>
    0x1000013b4:            01 00 00 00  nop
    0x1000013b8:            40 04 39 b2  call      +0x10e6c8     <0x10010fa80>
    0x1000013bc:            90 10 00 01  mov       %g1, %o0
    0x1000013c0:            1b 00 00 00  sethi     %hi(0x0), %o5
    0x1000013c4:            9a 13 60 01  or        %o5, 0x1, %o5
    0x1000013c8:            9b 2b 70 20  sllx      %o5, 0x20, %o5
    0x1000013cc:            11 00 00 0b  sethi     %hi(0x2c00), %o0
    0x1000013d0:            90 12 00 0d  or        %o0, %o5, %o0
    0x1000013d4:            40 04 39 ab  call      +0x10e6ac     <0x10010fa80>
    0x1000013d8:            90 12 22 d8  or        %o0, 0x2d8, %o0
    0x1000013dc:            13 00 00 00  sethi     %hi(0x0), %o1
    0x1000013e0:            92 12 60 01  or        %o1, 0x1, %o1
    0x1000013e4:            93 2a 70 20  sllx      %o1, 0x20, %o1
    0x1000013e8:            11 00 04 40  sethi     %hi(0x110000), %o0
    0x1000013ec:            90 12 00 09  or        %o0, %o1, %o0
    0x1000013f0:            d0 5a 20 90  ldx       [%o0 + 0x90], %o0
    0x1000013f4:            80 90 00 08  tst       %o0
    0x1000013f8:            12 80 00 0d  bne       +0x34         <0x10000142c>
    0x1000013fc:            01 00 00 00  nop
    0x100001400:            13 00 00 00  sethi     %hi(0x0), %o1
    0x100001404:            92 12 60 01  or        %o1, 0x1, %o1
    0x100001408:            93 2a 70 20  sllx      %o1, 0x20, %o1
    0x10000140c:            11 00 04 40  sethi     %hi(0x110000), %o0
    0x100001410:            90 12 00 09  or        %o0, %o1, %o0
    0x100001414:            d0 5a 20 98  ldx       [%o0 + 0x98], %o0
    0x100001418:            80 90 00 08  tst       %o0
    0x10000141c:            02 80 00 04  be        +0x10         <0x10000142c>
    0x100001420:            01 00 00 00  nop
    0x100001424:            40 04 39 97  call      +0x10e65c     <0x10010fa80>
    0x100001428:            01 00 00 00  nop
    0x10000142c:            40 00 06 69  call      +0x19a4       <0x100002dd0>
    0x100001430:            01 00 00 00  nop
    0x100001434:            90 10 00 10  mov       %l0, %o0
    0x100001438:            92 10 00 11  mov       %l1, %o1
    0x10000143c:            40 00 02 c5  call      +0xb14        <0x100001f50>
    0x100001440:            94 10 00 12  mov       %l2, %o2
    0x100001444:            40 04 39 97  call      +0x10e65c     <0x10010faa0>
    0x100001448:            01 00 00 00  nop
    0x10000144c:            40 04 39 9d  call      +0x10e674     <0x10010fac0>
    0x100001450:            01 00 00 00  nop
    0x100001454:            00 00 00 00  illtrap   0x0
__1cPload_image_file6Fpc_v_()
    0x100001458:            9d e3 be 40  save      %sp, -0x1c0, %sp
    0x10000145c:            3b 00 04 00  sethi     %hi(0x100000), %i5
    0x100001460:            ba 17 60 02  or        %i5, 0x2, %i5
    0x100001464:            b9 2f 70 0c  sllx      %i5, 0xc, %i4
    0x100001468:            90 10 00 18  mov       %i0, %o0
    0x10000146c:            b6 07 2f 7c  add       %i4, 0xf7c, %i3
    0x100001470:            40 04 39 9c  call      +0x10e670     <0x10010fae0>
    0x100001474:            92 10 00 1b  mov       %i3, %o1
    0x100001478:            02 c2 00 75  brz,pn    %o0, +0x1d4   <0x10000164c>
    0x10000147c:            a2 10 00 08  mov       %o0, %l1
    0x100001480:            94 10 00 11  mov       %l1, %o2
    0x100001484:            92 10 21 00  mov       0x100, %o1
    0x100001488:            40 04 39 9e  call      +0x10e678     <0x10010fb00>
    0x10000148c:            90 07 a6 ff  add       %fp, 0x6ff, %o0
    0x100001490:            ca 4f a6 ff  ldsb      [%fp + 0x6ff], %g5
    0x100001494:            80 a1 60 50  cmp       %g5, 0x50
    0x100001498:            12 40 00 76  bne,pn    %icc, +0x1d8  <0x100001670>
    0x10000149c:            d2 4f a7 00  ldsb      [%fp + 0x700], %o1
    0x1000014a0:            80 a2 60 35  cmp       %o1, 0x35
    0x1000014a4:            12 40 00 73  bne,pn    %icc, +0x1cc  <0x100001670>
    0x1000014a8:            3b 00 04 00  sethi     %hi(0x100000), %i5
    0x1000014ac:            21 00 04 00  sethi     %hi(0x100000), %l0
    0x1000014b0:            9e 17 63 10  or        %i5, 0x310, %o7
    0x1000014b4:            9a 14 23 10  or        %l0, 0x310, %o5
    0x1000014b8:            bb 2b f0 0c  sllx      %o7, 0xc, %i5
    0x1000014bc:            a1 2b 70 0c  sllx      %o5, 0xc, %l0
    0x1000014c0:            c0 27 60 fc  clr       [%i5 + 0xfc]
    0x1000014c4:            b4 07 60 fc  add       %i5, 0xfc, %i2
    0x1000014c8:            c0 24 21 04  clr       [%l0 + 0x104]
    0x1000014cc:            b8 04 21 04  add       %l0, 0x104, %i4
    0x1000014d0:            94 10 00 11  mov       %l1, %o2
    0x1000014d4:            92 10 21 00  mov       0x100, %o1
    0x1000014d8:            40 04 39 8a  call      +0x10e628     <0x10010fb00>
    0x1000014dc:            90 07 a6 ff  add       %fp, 0x6ff, %o0
    0x1000014e0:            e4 4f a6 ff  ldsb      [%fp + 0x6ff], %l2
    0x1000014e4:            80 a4 a0 23  cmp       %l2, 0x23
    0x1000014e8:            12 40 00 04  bne,pn    %icc, +0x10   <0x1000014f8>
    0x1000014ec:            e6 07 60 fc  ld        [%i5 + 0xfc], %l3
    0x1000014f0:            10 80 00 0c  ba        +0x30         <0x100001520>
    0x1000014f4:            80 a4 e0 00  cmp       %l3, 0x0
    0x1000014f8:            2d 00 04 00  sethi     %hi(0x100000), %l6
    0x1000014fc:            aa 15 a0 02  or        %l6, 0x2, %l5
    0x100001500:            a9 2d 70 0c  sllx      %l5, 0xc, %l4
    0x100001504:            90 07 a6 ff  add       %fp, 0x6ff, %o0
    0x100001508:            92 05 2f c3  add       %l4, 0xfc3, %o1
    0x10000150c:            96 10 00 1c  mov       %i4, %o3
    0x100001510:            40 04 39 84  call      +0x10e610     <0x10010fb20>
    0x100001514:            94 10 00 1a  mov       %i2, %o2
    0x100001518:            e6 07 60 fc  ld        [%i5 + 0xfc], %l3
    0x10000151c:            80 a4 e0 00  cmp       %l3, 0x0
    0x100001520:            02 47 ff ec  be,pn     %icc, -0x50   <0x1000014d0>
    0x100001524:            ee 04 21 04  ld        [%l0 + 0x104], %l7
    0x100001528:            80 a5 e0 00  cmp       %l7, 0x0
    0x10000152c:            02 4f ff ea  be,pt     %icc, -0x58   <0x1000014d4>
    0x100001530:            94 10 00 11  mov       %l1, %o2
    0x100001534:            c0 27 a6 fb  clr       [%fp + 0x6fb]
    0x100001538:            94 10 00 11  mov       %l1, %o2
    0x10000153c:            92 10 21 00  mov       0x100, %o1
    0x100001540:            40 04 39 70  call      +0x10e5c0     <0x10010fb00>
    0x100001544:            90 07 a6 ff  add       %fp, 0x6ff, %o0
    0x100001548:            f0 4f a6 ff  ldsb      [%fp + 0x6ff], %i0
    0x10000154c:            80 a6 20 23  cmp       %i0, 0x23
    0x100001550:            12 40 00 05  bne,pn    %icc, +0x14   <0x100001564>
    0x100001554:            94 07 a6 fb  add       %fp, 0x6fb, %o2
    0x100001558:            f2 07 a6 fb  ld        [%fp + 0x6fb], %i1
    0x10000155c:            10 80 00 07  ba        +0x1c         <0x100001578>
    0x100001560:            80 a6 60 00  cmp       %i1, 0x0
    0x100001564:            90 07 a6 ff  add       %fp, 0x6ff, %o0
    0x100001568:            40 04 39 6e  call      +0x10e5b8     <0x10010fb20>
    0x10000156c:            92 06 e0 4d  add       %i3, 0x4d, %o1
    0x100001570:            f2 07 a6 fb  ld        [%fp + 0x6fb], %i1
    0x100001574:            80 a6 60 00  cmp       %i1, 0x0
    0x100001578:            02 4f ff f1  be,pt     %icc, -0x3c   <0x10000153c>
    0x10000157c:            94 10 00 11  mov       %l1, %o2
    0x100001580:            c2 04 21 04  ld        [%l0 + 0x104], %g1
    0x100001584:            f8 07 60 fc  ld        [%i5 + 0xfc], %i4
    0x100001588:            90 06 e0 50  add       %i3, 0x50, %o0
    0x10000158c:            95 38 60 00  sra       %g1, 0x0, %o2
    0x100001590:            40 04 39 6c  call      +0x10e5b0     <0x10010fb40>
    0x100001594:            93 3f 20 00  sra       %i4, 0x0, %o1
    0x100001598:            f4 07 a6 fb  ld        [%fp + 0x6fb], %i2
    0x10000159c:            90 06 e0 76  add       %i3, 0x76, %o0
    0x1000015a0:            40 04 39 68  call      +0x10e5a0     <0x10010fb40>
    0x1000015a4:            93 3e a0 00  sra       %i2, 0x0, %o1
    0x1000015a8:            d0 07 60 fc  ld        [%i5 + 0xfc], %o0
    0x1000015ac:            80 a2 24 00  cmp       %o0, 0x400
    0x1000015b0:            14 40 00 39  bg,pn     %icc, +0xe4   <0x100001694>
    0x1000015b4:            c4 04 21 04  ld        [%l0 + 0x104], %g2
    0x1000015b8:            80 a0 a4 00  cmp       %g2, 0x400
    0x1000015bc:            14 40 00 36  bg,pn     %icc, +0xd8   <0x100001694>
    0x1000015c0:            01 00 00 00  nop
    0x1000015c4:            d8 07 a6 fb  ld        [%fp + 0x6fb], %o4
    0x1000015c8:            80 a3 20 ff  cmp       %o4, 0xff
    0x1000015cc:            12 40 00 43  bne,pn    %icc, +0x10c  <0x1000016d8>
    0x1000015d0:            e6 04 21 04  ld        [%l0 + 0x104], %l3
    0x1000015d4:            80 a4 e0 00  cmp       %l3, 0x0
    0x1000015d8:            04 40 00 19  ble,pn    %icc, +0x64   <0x10000163c>
    0x1000015dc:            37 00 04 00  sethi     %hi(0x100000), %i3
    0x1000015e0:            b4 16 e1 10  or        %i3, 0x110, %i2
    0x1000015e4:            b3 2e b0 0c  sllx      %i2, 0xc, %i1
    0x1000015e8:            aa 06 60 fc  add       %i1, 0xfc, %l5
    0x1000015ec:            a8 10 20 00  clr       %l4
    0x1000015f0:            80 a2 20 00  cmp       %o0, 0x0
    0x1000015f4:            04 40 00 0c  ble,pn    %icc, +0x30   <0x100001624>
    0x1000015f8:            ac 10 20 00  clr       %l6
    0x1000015fc:            ae 10 00 15  mov       %l5, %l7
    0x100001600:            90 10 00 11  mov       %l1, %o0
    0x100001604:            40 04 39 57  call      +0x10e55c     <0x10010fb60>
    0x100001608:            ac 05 a0 01  add       %l6, 0x1, %l6
    0x10000160c:            d0 2d e0 00  stb       %o0, [%l7]
    0x100001610:            d0 07 60 fc  ld        [%i5 + 0xfc], %o0
    0x100001614:            ae 05 e0 01  add       %l7, 0x1, %l7
    0x100001618:            80 a5 80 08  cmp       %l6, %o0
    0x10000161c:            26 4f ff fa  bl,a,pt   %icc, -0x18   <0x100001604>
    0x100001620:            90 10 00 11  mov       %l1, %o0
    0x100001624:            f0 04 21 04  ld        [%l0 + 0x104], %i0
    0x100001628:            a8 05 20 01  add       %l4, 0x1, %l4
    0x10000162c:            aa 05 64 00  add       %l5, 0x400, %l5
    0x100001630:            80 a5 00 18  cmp       %l4, %i0
    0x100001634:            06 4f ff f0  bl,pt     %icc, -0x40   <0x1000015f4>
    0x100001638:            80 a2 20 00  cmp       %o0, 0x0
    0x10000163c:            40 04 39 51  call      +0x10e544     <0x10010fb80>
    0x100001640:            90 10 00 11  mov       %l1, %o0
    0x100001644:            81 c7 e0 08  ret
    0x100001648:            81 e8 20 00  restore   %g0, 0x0, %g0
    0x10000164c:            09 00 04 00  sethi     %hi(0x100000), %g4
    0x100001650:            86 11 20 02  or        %g4, 0x2, %g3
    0x100001654:            85 28 f0 0c  sllx      %g3, 0xc, %g2
    0x100001658:            40 04 39 3a  call      +0x10e4e8     <0x10010fb40>
    0x10000165c:            90 00 af 7f  add       %g2, 0xf7f, %o0
    0x100001660:            40 04 39 10  call      +0x10e440     <0x10010faa0>
    0x100001664:            90 10 20 01  mov       0x1, %o0
    0x100001668:            10 bf ff 87  ba        -0x1e4        <0x100001484>
    0x10000166c:            94 10 00 11  mov       %l1, %o2
    0x100001670:            19 00 04 00  sethi     %hi(0x100000), %o4
    0x100001674:            96 13 20 02  or        %o4, 0x2, %o3
    0x100001678:            95 2a f0 0c  sllx      %o3, 0xc, %o2
    0x10000167c:            40 04 39 31  call      +0x10e4c4     <0x10010fb40>
    0x100001680:            90 02 af 9e  add       %o2, 0xf9e, %o0
    0x100001684:            40 04 39 07  call      +0x10e41c     <0x10010faa0>
    0x100001688:            90 10 20 01  mov       0x1, %o0
    0x10000168c:            10 bf ff 88  ba        -0x1e0        <0x1000014ac>
    0x100001690:            3b 00 04 00  sethi     %hi(0x100000), %i5
    0x100001694:            17 00 04 00  sethi     %hi(0x100000), %o3
    0x100001698:            94 12 e0 03  or        %o3, 0x3, %o2
    0x10000169c:            93 2a b0 0c  sllx      %o2, 0xc, %o1
    0x1000016a0:            90 02 60 0c  add       %o1, 0xc, %o0
    0x1000016a4:            94 10 24 00  mov       0x400, %o2
    0x1000016a8:            40 04 39 26  call      +0x10e498     <0x10010fb40>
    0x1000016ac:            92 10 24 00  mov       0x400, %o1
    0x1000016b0:            0b 00 04 00  sethi     %hi(0x100000), %g5
    0x1000016b4:            88 11 60 03  or        %g5, 0x3, %g4
    0x1000016b8:            87 29 30 0c  sllx      %g4, 0xc, %g3
    0x1000016bc:            40 04 39 21  call      +0x10e484     <0x10010fb40>
    0x1000016c0:            90 00 e0 2e  add       %g3, 0x2e, %o0
    0x1000016c4:            40 04 38 f7  call      +0x10e3dc     <0x10010faa0>
    0x1000016c8:            90 10 20 01  mov       0x1, %o0
    0x1000016cc:            d0 07 60 fc  ld        [%i5 + 0xfc], %o0
    0x1000016d0:            10 bf ff be  ba        -0x108        <0x1000015c8>
    0x1000016d4:            d8 07 a6 fb  ld        [%fp + 0x6fb], %o4
    0x1000016d8:            25 00 04 00  sethi     %hi(0x100000), %l2
    0x1000016dc:            9e 14 a0 03  or        %l2, 0x3, %o7
    0x1000016e0:            9b 2b f0 0c  sllx      %o7, 0xc, %o5
    0x1000016e4:            40 04 39 17  call      +0x10e45c     <0x10010fb40>
    0x1000016e8:            90 03 60 50  add       %o5, 0x50, %o0
    0x1000016ec:            40 04 38 ed  call      +0x10e3b4     <0x10010faa0>
    0x1000016f0:            90 10 20 01  mov       0x1, %o0
    0x1000016f4:            d0 07 60 fc  ld        [%i5 + 0xfc], %o0
    0x1000016f8:            10 bf ff b7  ba        -0x124        <0x1000015d4>
    0x1000016fc:            e6 04 21 04  ld        [%l0 + 0x104], %l3
__1cPsave_image_file6Fpc_v_()
    0x100001700:            9d e3 bf 50  save      %sp, -0xb0, %sp
    0x100001704:            3b 00 04 00  sethi     %hi(0x100000), %i5
    0x100001708:            ba 17 60 03  or        %i5, 0x3, %i5
    0x10000170c:            90 10 00 18  mov       %i0, %o0
    0x100001710:            b9 2f 70 0c  sllx      %i5, 0xc, %i4
    0x100001714:            b6 07 20 7c  add       %i4, 0x7c, %i3
    0x100001718:            33 00 04 00  sethi     %hi(0x100000), %i1
    0x10000171c:            ae 16 63 10  or        %i1, 0x310, %l7
    0x100001720:            bb 2d f0 0c  sllx      %l7, 0xc, %i5
    0x100001724:            35 00 04 00  sethi     %hi(0x100000), %i2
    0x100001728:            ac 16 a3 10  or        %i2, 0x310, %l6
    0x10000172c:            b9 2d b0 0c  sllx      %l6, 0xc, %i4
    0x100001730:            40 04 38 ec  call      +0x10e3b0     <0x10010fae0>
    0x100001734:            92 10 00 1b  mov       %i3, %o1
    0x100001738:            b0 10 00 08  mov       %o0, %i0
    0x10000173c:            90 06 e0 03  add       %i3, 0x3, %o0
    0x100001740:            40 04 39 18  call      +0x10e460     <0x10010fba0>
    0x100001744:            92 10 00 18  mov       %i0, %o1
    0x100001748:            90 06 e0 07  add       %i3, 0x7, %o0
    0x10000174c:            40 04 39 15  call      +0x10e454     <0x10010fba0>
    0x100001750:            92 10 00 18  mov       %i0, %o1
    0x100001754:            92 06 e0 26  add       %i3, 0x26, %o1
    0x100001758:            90 10 00 18  mov       %i0, %o0
    0x10000175c:            ea 07 61 08  ld        [%i5 + 0x108], %l5
    0x100001760:            e8 07 21 00  ld        [%i4 + 0x100], %l4
    0x100001764:            97 3d 60 00  sra       %l5, 0x0, %o3
    0x100001768:            40 04 39 16  call      +0x10e458     <0x10010fbc0>
    0x10000176c:            95 3d 20 00  sra       %l4, 0x0, %o2
    0x100001770:            94 10 20 ff  mov       0xff, %o2
    0x100001774:            92 06 e0 2d  add       %i3, 0x2d, %o1
    0x100001778:            40 04 39 12  call      +0x10e448     <0x10010fbc0>
    0x10000177c:            90 10 00 18  mov       %i0, %o0
    0x100001780:            e6 07 61 08  ld        [%i5 + 0x108], %l3
    0x100001784:            80 a4 e0 00  cmp       %l3, 0x0
    0x100001788:            04 40 00 1a  ble,pn    %icc, +0x68   <0x1000017f0>
    0x10000178c:            25 00 04 00  sethi     %hi(0x100000), %l2
    0x100001790:            a2 14 a2 10  or        %l2, 0x210, %l1
    0x100001794:            a1 2c 70 0c  sllx      %l1, 0xc, %l0
    0x100001798:            da 07 21 00  ld        [%i4 + 0x100], %o5
    0x10000179c:            ae 04 20 fc  add       %l0, 0xfc, %l7
    0x1000017a0:            ac 10 20 00  clr       %l6
    0x1000017a4:            80 a3 60 00  cmp       %o5, 0x0
    0x1000017a8:            04 40 00 0c  ble,pn    %icc, +0x30   <0x1000017d8>
    0x1000017ac:            b2 10 20 00  clr       %i1
    0x1000017b0:            b4 10 00 17  mov       %l7, %i2
    0x1000017b4:            92 10 00 18  mov       %i0, %o1
    0x1000017b8:            b2 06 60 01  add       %i1, 0x1, %i1
    0x1000017bc:            40 04 39 09  call      +0x10e424     <0x10010fbe0>
    0x1000017c0:            d0 0e a0 00  ldub      [%i2], %o0
    0x1000017c4:            da 07 21 00  ld        [%i4 + 0x100], %o5
    0x1000017c8:            b4 06 a0 01  add       %i2, 0x1, %i2
    0x1000017cc:            80 a6 40 0d  cmp       %i1, %o5
    0x1000017d0:            06 4f ff fa  bl,pt     %icc, -0x18   <0x1000017b8>
    0x1000017d4:            92 10 00 18  mov       %i0, %o1
    0x1000017d8:            de 07 61 08  ld        [%i5 + 0x108], %o7
    0x1000017dc:            ac 05 a0 01  add       %l6, 0x1, %l6
    0x1000017e0:            ae 05 e4 00  add       %l7, 0x400, %l7
    0x1000017e4:            80 a5 80 0f  cmp       %l6, %o7
    0x1000017e8:            06 4f ff f0  bl,pt     %icc, -0x40   <0x1000017a8>
    0x1000017ec:            80 a3 60 00  cmp       %o5, 0x0
    0x1000017f0:            40 04 38 e4  call      +0x10e390     <0x10010fb80>
    0x1000017f4:            81 e8 20 00  restore   %g0, 0x0, %g0
    0x1000017f8:            40 00 00 00  call      +0x0          <0x1000017f8>
    0x1000017fc:            00 00 00 00  illtrap   0x0
    0x100001800:            40 6f e0 00  call      +0x1bf8000    <0x101bf9800>
    0x100001804:            00 00 00 00  illtrap   0x0
    0x100001808:            00 00 00 00  illtrap   0x0
    0x10000180c:            00 00 00 00  illtrap   0x0
__1cNkernel_filter6FCCCCCCCCCpaDCpC_v_()
    0x100001810:            9d e3 be a0  save      %sp, -0x160, %sp
    0x100001814:            3b 00 04 00  sethi     %hi(0x100000), %i5
    0x100001818:            ba 17 61 10  or        %i5, 0x110, %i5
    0x10000181c:            b7 2f 70 0c  sllx      %i5, 0xc, %i3
    0x100001820:            e2 5f a8 c7  ldx       [%fp + 0x8c7], %l1
    0x100001824:            ae 06 e0 a0  add       %i3, 0xa0, %l7
    0x100001828:            b0 07 a7 bf  add       %fp, 0x7bf, %i0
    0x10000182c:            f8 5f a8 cf  ldx       [%fp + 0x8cf], %i4
    0x100001830:            b4 10 20 20  mov       0x20, %i2
    0x100001834:            f2 05 c0 1a  ld        [%l7 + %i2], %i1
    0x100001838:            b4 a6 a0 04  subcc     %i2, 0x4, %i2
    0x10000183c:            16 4f ff fe  bge,pt    %icc, -0x8    <0x100001834>
    0x100001840:            f2 26 00 1a  st        %i1, [%i0 + %i2]
    0x100001844:            ac 07 a7 9b  add       %fp, 0x79b, %l6
    0x100001848:            aa 05 e0 24  add       %l7, 0x24, %l5
    0x10000184c:            a6 10 20 20  mov       0x20, %l3
    0x100001850:            e8 05 40 13  ld        [%l5 + %l3], %l4
    0x100001854:            a6 a4 e0 04  subcc     %l3, 0x4, %l3
    0x100001858:            16 4f ff fe  bge,pt    %icc, -0x8    <0x100001850>
    0x10000185c:            e8 25 80 13  st        %l4, [%l6 + %l3]
    0x100001860:            d8 0c 60 00  ldub      [%l1], %o4
    0x100001864:            e4 07 a7 bb  ld        [%fp + 0x7bb], %l2
    0x100001868:            da 07 a7 97  ld        [%fp + 0x797], %o5
    0x10000186c:            d4 07 a7 bf  ld        [%fp + 0x7bf], %o2
    0x100001870:            a0 5c 80 0c  smul      %l2, %o4, %l0
    0x100001874:            96 5b 40 0c  smul      %o5, %o4, %o3
    0x100001878:            d2 07 a7 9b  ld        [%fp + 0x79b], %o1
    0x10000187c:            fa 07 a7 c3  ld        [%fp + 0x7c3], %i5
    0x100001880:            e6 07 a7 c7  ld        [%fp + 0x7c7], %l3
    0x100001884:            e8 07 a7 a3  ld        [%fp + 0x7a3], %l4
    0x100001888:            e0 23 a8 db  st        %l0, [%sp + 0x8db]
    0x10000188c:            c1 03 a8 db  ld        [%sp + 0x8db], %f0
    0x100001890:            d6 23 a8 d7  st        %o3, [%sp + 0x8d7]
    0x100001894:            d0 0c 60 01  ldub      [%l1 + 0x1], %o0
    0x100001898:            d1 03 a8 d7  ld        [%sp + 0x8d7], %f8
    0x10000189c:            e0 07 a7 9f  ld        [%fp + 0x79f], %l0
    0x1000018a0:            8a 5a 80 08  smul      %o2, %o0, %g5
    0x1000018a4:            88 5a 40 08  smul      %o1, %o0, %g4
    0x1000018a8:            ca 23 a8 db  st        %g5, [%sp + 0x8db]
    0x1000018ac:            c8 23 a8 d7  st        %g4, [%sp + 0x8d7]
    0x1000018b0:            f0 0c 60 02  ldub      [%l1 + 0x2], %i0
    0x1000018b4:            c5 03 a8 d7  ld        [%sp + 0x8d7], %f2
    0x1000018b8:            d5 03 a8 db  ld        [%sp + 0x8db], %f10
    0x1000018bc:            b2 5f 40 18  smul      %i5, %i0, %i1
    0x1000018c0:            9e 5c 00 18  smul      %l0, %i0, %o7
    0x1000018c4:            de 23 a8 d7  st        %o7, [%sp + 0x8d7]
    0x1000018c8:            c9 03 a8 d7  ld        [%sp + 0x8d7], %f4
    0x1000018cc:            f2 23 a8 db  st        %i1, [%sp + 0x8db]
    0x1000018d0:            da 0c 60 03  ldub      [%l1 + 0x3], %o5
    0x1000018d4:            d9 03 a8 db  ld        [%sp + 0x8db], %f12
    0x1000018d8:            ea 07 a7 cb  ld        [%fp + 0x7cb], %l5
    0x1000018dc:            98 5c c0 0d  smul      %l3, %o5, %o4
    0x1000018e0:            96 5d 00 0d  smul      %l4, %o5, %o3
    0x1000018e4:            d8 23 a8 db  st        %o4, [%sp + 0x8db]
    0x1000018e8:            d6 23 a8 d7  st        %o3, [%sp + 0x8d7]
    0x1000018ec:            d4 0c 60 04  ldub      [%l1 + 0x4], %o2
    0x1000018f0:            c6 07 a7 a7  ld        [%fp + 0x7a7], %g3
    0x1000018f4:            cd 03 a8 d7  ld        [%sp + 0x8d7], %f6
    0x1000018f8:            92 5d 40 0a  smul      %l5, %o2, %o1
    0x1000018fc:            90 58 c0 0a  smul      %g3, %o2, %o0
    0x100001900:            dd 03 a8 db  ld        [%sp + 0x8db], %f14
    0x100001904:            d0 23 a8 d7  st        %o0, [%sp + 0x8d7]
    0x100001908:            d2 23 a8 db  st        %o1, [%sp + 0x8db]
    0x10000190c:            ca 0c 60 05  ldub      [%l1 + 0x5], %g5
    0x100001910:            ec 07 a7 cf  ld        [%fp + 0x7cf], %l6
    0x100001914:            f4 07 a7 ab  ld        [%fp + 0x7ab], %i2
    0x100001918:            e5 03 a8 d7  ld        [%sp + 0x8d7], %f18
    0x10000191c:            88 5d 80 05  smul      %l6, %g5, %g4
    0x100001920:            b0 5e 80 05  smul      %i2, %g5, %i0
    0x100001924:            e1 03 a8 db  ld        [%sp + 0x8db], %f16
    0x100001928:            f0 23 a8 d7  st        %i0, [%sp + 0x8d7]
    0x10000192c:            c8 23 a8 db  st        %g4, [%sp + 0x8db]
    0x100001930:            de 0c 60 06  ldub      [%l1 + 0x6], %o7
    0x100001934:            ee 07 a7 d3  ld        [%fp + 0x7d3], %l7
    0x100001938:            f6 07 a7 af  ld        [%fp + 0x7af], %i3
    0x10000193c:            ed 03 a8 d7  ld        [%sp + 0x8d7], %f22
    0x100001940:            b2 5d c0 0f  smul      %l7, %o7, %i1
    0x100001944:            a4 5e c0 0f  smul      %i3, %o7, %l2
    0x100001948:            e9 03 a8 db  ld        [%sp + 0x8db], %f20
    0x10000194c:            e4 23 a8 d7  st        %l2, [%sp + 0x8d7]
    0x100001950:            f2 23 a8 db  st        %i1, [%sp + 0x8db]
    0x100001954:            da 0c 60 07  ldub      [%l1 + 0x7], %o5
    0x100001958:            c2 07 a7 d7  ld        [%fp + 0x7d7], %g1
    0x10000195c:            fa 07 a7 b3  ld        [%fp + 0x7b3], %i5
    0x100001960:            f5 03 a8 d7  ld        [%sp + 0x8d7], %f26
    0x100001964:            98 58 40 0d  smul      %g1, %o5, %o4
    0x100001968:            96 5f 40 0d  smul      %i5, %o5, %o3
    0x10000196c:            83 a0 19 00  fitod     %f0, %d32
    0x100001970:            8b a0 19 08  fitod     %f8, %d36
    0x100001974:            27 00 04 00  sethi     %hi(0x100000), %l3
    0x100001978:            a8 14 e0 01  or        %l3, 0x1, %l4
    0x10000197c:            ad 2d 30 0c  sllx      %l4, 0xc, %l6
    0x100001980:            c7 1d a8 08  ldd       [%l6 + 0x808], %d34
    0x100001984:            cf 1d a8 08  ldd       [%l6 + 0x808], %d38
    0x100001988:            af a0 19 0a  fitod     %f10, %d54
    0x10000198c:            93 a0 c8 41  faddd     %d34, %d32, %d40
    0x100001990:            b3 a1 c8 45  faddd     %d38, %d36, %d56
    0x100001994:            ab a0 19 02  fitod     %f2, %d52
    0x100001998:            a7 a0 19 0c  fitod     %f12, %d50
    0x10000199c:            a3 a0 19 04  fitod     %f4, %d48
    0x1000019a0:            f1 03 a8 db  ld        [%sp + 0x8db], %f24
    0x1000019a4:            b7 a2 48 57  faddd     %d40, %d54, %d58
    0x1000019a8:            9f a0 19 0e  fitod     %f14, %d46
    0x1000019ac:            bb a6 48 55  faddd     %d56, %d52, %d60
    0x1000019b0:            9b a0 19 06  fitod     %f6, %d44
    0x1000019b4:            d6 23 a8 d7  st        %o3, [%sp + 0x8d7]
    0x1000019b8:            d8 23 a8 db  st        %o4, [%sp + 0x8db]
    0x1000019bc:            bf a6 c8 53  faddd     %d58, %d50, %d62
    0x1000019c0:            97 a0 19 10  fitod     %f16, %d42
    0x1000019c4:            83 a7 48 51  faddd     %d60, %d48, %d32
    0x1000019c8:            8f a0 19 12  fitod     %f18, %d38
    0x1000019cc:            e2 0c 60 08  ldub      [%l1 + 0x8], %l1
    0x1000019d0:            c4 07 a7 db  ld        [%fp + 0x7db], %g2
    0x1000019d4:            87 a7 c8 4f  faddd     %d62, %d46, %d34
    0x1000019d8:            b3 a0 19 14  fitod     %f20, %d56
    0x1000019dc:            8b a0 48 4d  faddd     %d32, %d44, %d36
    0x1000019e0:            aa 58 80 11  smul      %g2, %l1, %l5
    0x1000019e4:            93 a0 c8 4b  faddd     %d34, %d42, %d40
    0x1000019e8:            bb a1 48 47  faddd     %d36, %d38, %d60
    0x1000019ec:            af a0 19 16  fitod     %f22, %d54
    0x1000019f0:            e0 07 a7 b7  ld        [%fp + 0x7b7], %l0
    0x1000019f4:            ab a0 19 18  fitod     %f24, %d52
    0x1000019f8:            b7 a0 19 1a  fitod     %f26, %d58
    0x1000019fc:            a2 5c 00 11  smul      %l0, %l1, %l1
    0x100001a00:            a3 a2 48 59  faddd     %d40, %d56, %d48
    0x100001a04:            9f a7 48 57  faddd     %d60, %d54, %d46
    0x100001a08:            f9 03 a8 db  ld        [%sp + 0x8db], %f28
    0x100001a0c:            fd 03 a8 d7  ld        [%sp + 0x8d7], %f30
    0x100001a10:            e2 23 a8 d7  st        %l1, [%sp + 0x8d7]
    0x100001a14:            ea 23 a8 db  st        %l5, [%sp + 0x8db]
    0x100001a18:            bf a4 48 55  faddd     %d48, %d52, %d62
    0x100001a1c:            83 a3 c8 5b  faddd     %d46, %d58, %d32
    0x100001a20:            a7 a0 19 1c  fitod     %f28, %d50
    0x100001a24:            9b a0 19 1e  fitod     %f30, %d44
    0x100001a28:            c7 03 a8 d7  ld        [%sp + 0x8d7], %f3
    0x100001a2c:            c3 03 a8 db  ld        [%sp + 0x8db], %f1
    0x100001a30:            2b 00 04 00  sethi     %hi(0x100000), %l5
    0x100001a34:            8f a0 19 03  fitod     %f3, %d38
    0x100001a38:            87 a7 c8 53  faddd     %d62, %d50, %d34
    0x100001a3c:            8b a0 48 4d  faddd     %d32, %d44, %d36
    0x100001a40:            97 a0 19 01  fitod     %f1, %d42
    0x100001a44:            a2 15 60 01  or        %l5, 0x1, %l1
    0x100001a48:            ab 2c 70 0c  sllx      %l1, 0xc, %l5
    0x100001a4c:            c5 1d 67 f8  ldd       [%l5 + 0x7f8], %d2
    0x100001a50:            ae 05 a8 08  add       %l6, 0x808, %l7
    0x100001a54:            93 a1 48 47  faddd     %d36, %d38, %d40
    0x100001a58:            81 a0 c8 4b  faddd     %d34, %d42, %d0
    0x100001a5c:            40 00 02 71  call      +0x9c4        <0x100002420>
    0x100001a60:            d3 3b a8 cf  std       %d40, [%sp + 0x8cf]
    0x100001a64:            d3 1b a8 cf  ldd       [%sp + 0x8cf], %d40
    0x100001a68:            c5 1d 67 f8  ldd       [%l5 + 0x7f8], %d2
    0x100001a6c:            bb a0 00 40  fmovd     %d0, %d60
    0x100001a70:            81 a0 00 49  fmovd     %d40, %d0
    0x100001a74:            40 00 02 6b  call      +0x9ac        <0x100002420>
    0x100001a78:            fb 3b a8 c7  std       %d60, [%sp + 0x8c7]
    0x100001a7c:            fb 1b a8 c7  ldd       [%sp + 0x8c7], %d60
    0x100001a80:            f3 1d ff f8  ldd       [%l7 - 0x8], %d56
    0x100001a84:            e3 1d a8 08  ldd       [%l6 + 0x808], %d48
    0x100001a88:            af a7 48 40  faddd     %d60, %d0, %d54
    0x100001a8c:            83 a0 05 57  fsqrtd    %d54, %d32
    0x100001a90:            81 ae 4a c1  fcmped    %fcc0, %d56, %d32
    0x100001a94:            83 a9 00 59  fmovdl    %fcc0, %d56, %d32
    0x100001a98:            83 ac 4a c1  fcmped    %fcc1, %d48, %d32
    0x100001a9c:            83 a9 88 51  fmovdg    %fcc1, %d48, %d32
    0x100001aa0:            ab a6 48 c1  fsubd     %d56, %d32, %d52
    0x100001aa4:            8b a0 1a 55  fdtoi     %d52, %f5
    0x100001aa8:            cb 23 a8 bf  st        %f5, [%sp + 0x8bf]
    0x100001aac:            c2 0b a8 c2  ldub      [%sp + 0x8c2], %g1
    0x100001ab0:            c2 2f 20 00  stb       %g1, [%i4]
    0x100001ab4:            81 c7 e0 08  ret
    0x100001ab8:            81 e8 20 00  restore   %g0, 0x0, %g0
    0x100001abc:            00 00 00 00  illtrap   0x0
    0x100001ac0:            00 00 00 00  illtrap   0x0
    0x100001ac4:            00 00 00 00  illtrap   0x0
    0x100001ac8:            00 00 00 00  illtrap   0x0
    0x100001acc:            00 00 00 00  illtrap   0x0
    0x100001ad0:            00 00 00 00  illtrap   0x0
    0x100001ad4:            00 00 00 00  illtrap   0x0
__1cPsobel_filtering6F_v_()
    0x100001ad8:            9d e3 bf 00  save      %sp, -0x100, %sp
    0x100001adc:            10 80 00 02  ba        +0x8          <0x100001ae4>
    0x100001ae0:            01 00 00 00  nop
    0x100001ae4:            c0 23 a8 fb  clr       [%sp + 0x8fb]
    0x100001ae8:            c0 23 a8 f7  clr       [%sp + 0x8f7]
    0x100001aec:            05 00 04 00  sethi     %hi(0x100000), %g2
    0x100001af0:            86 10 a3 10  or        %g2, 0x310, %g3
    0x100001af4:            89 28 f0 0c  sllx      %g3, 0xc, %g4
    0x100001af8:            8a 01 20 fc  add       %g4, 0xfc, %g5
    0x100001afc:            de 01 60 00  ld        [%g5], %o7
    0x100001b00:            21 00 04 00  sethi     %hi(0x100000), %l0
    0x100001b04:            a2 14 23 10  or        %l0, 0x310, %l1
    0x100001b08:            a1 2c 70 0c  sllx      %l1, 0xc, %l0
    0x100001b0c:            a2 04 21 00  add       %l0, 0x100, %l1
    0x100001b10:            de 24 60 00  st        %o7, [%l1]
    0x100001b14:            25 00 04 00  sethi     %hi(0x100000), %l2
    0x100001b18:            a6 14 a3 10  or        %l2, 0x310, %l3
    0x100001b1c:            a9 2c f0 0c  sllx      %l3, 0xc, %l4
    0x100001b20:            aa 05 21 04  add       %l4, 0x104, %l5
    0x100001b24:            ec 05 60 00  ld        [%l5], %l6
    0x100001b28:            2f 00 04 00  sethi     %hi(0x100000), %l7
    0x100001b2c:            84 15 e3 10  or        %l7, 0x310, %g2
    0x100001b30:            87 28 b0 0c  sllx      %g2, 0xc, %g3
    0x100001b34:            88 00 e1 08  add       %g3, 0x108, %g4
    0x100001b38:            ec 21 20 00  st        %l6, [%g4]
    0x100001b3c:            c0 23 a8 f3  clr       [%sp + 0x8f3]
    0x100001b40:            0b 00 04 00  sethi     %hi(0x100000), %g5
    0x100001b44:            9e 11 63 10  or        %g5, 0x310, %o7
    0x100001b48:            a1 2b f0 0c  sllx      %o7, 0xc, %l0
    0x100001b4c:            a2 04 21 08  add       %l0, 0x108, %l1
    0x100001b50:            e4 04 60 00  ld        [%l1], %l2
    0x100001b54:            e6 03 a8 f3  ld        [%sp + 0x8f3], %l3
    0x100001b58:            80 a4 c0 12  cmp       %l3, %l2
    0x100001b5c:            06 40 00 04  bl,pn     %icc, +0x10   <0x100001b6c>
    0x100001b60:            01 00 00 00  nop
    0x100001b64:            10 80 00 3a  ba        +0xe8         <0x100001c4c>
    0x100001b68:            01 00 00 00  nop
    0x100001b6c:            10 80 00 02  ba        +0x8          <0x100001b74>
    0x100001b70:            01 00 00 00  nop
    0x100001b74:            c0 23 a8 ef  clr       [%sp + 0x8ef]
    0x100001b78:            05 00 04 00  sethi     %hi(0x100000), %g2
    0x100001b7c:            86 10 a3 10  or        %g2, 0x310, %g3
    0x100001b80:            89 28 f0 0c  sllx      %g3, 0xc, %g4
    0x100001b84:            8a 01 21 00  add       %g4, 0x100, %g5
    0x100001b88:            de 01 60 00  ld        [%g5], %o7
    0x100001b8c:            e0 03 a8 ef  ld        [%sp + 0x8ef], %l0
    0x100001b90:            80 a4 00 0f  cmp       %l0, %o7
    0x100001b94:            06 40 00 04  bl,pn     %icc, +0x10   <0x100001ba4>
    0x100001b98:            01 00 00 00  nop
    0x100001b9c:            10 80 00 1e  ba        +0x78         <0x100001c14>
    0x100001ba0:            01 00 00 00  nop
    0x100001ba4:            10 80 00 02  ba        +0x8          <0x100001bac>
    0x100001ba8:            01 00 00 00  nop
    0x100001bac:            c4 03 a8 ef  ld        [%sp + 0x8ef], %g2
    0x100001bb0:            87 38 a0 00  sra       %g2, 0x0, %g3
    0x100001bb4:            c8 03 a8 f3  ld        [%sp + 0x8f3], %g4
    0x100001bb8:            8b 39 20 00  sra       %g4, 0x0, %g5
    0x100001bbc:            89 29 70 0a  sllx      %g5, 0xa, %g4
    0x100001bc0:            8a 00 c0 04  add       %g3, %g4, %g5
    0x100001bc4:            1f 00 04 00  sethi     %hi(0x100000), %o7
    0x100001bc8:            a0 13 e2 10  or        %o7, 0x210, %l0
    0x100001bcc:            a3 2c 30 0c  sllx      %l0, 0xc, %l1
    0x100001bd0:            a4 04 60 fc  add       %l1, 0xfc, %l2
    0x100001bd4:            a6 10 00 12  mov       %l2, %l3
    0x100001bd8:            c0 29 40 13  clrb      [%g5 + %l3]
    0x100001bdc:            e8 03 a8 ef  ld        [%sp + 0x8ef], %l4
    0x100001be0:            aa 05 20 01  add       %l4, 0x1, %l5
    0x100001be4:            ea 23 a8 ef  st        %l5, [%sp + 0x8ef]
    0x100001be8:            2d 00 04 00  sethi     %hi(0x100000), %l6
    0x100001bec:            ae 15 a3 10  or        %l6, 0x310, %l7
    0x100001bf0:            85 2d f0 0c  sllx      %l7, 0xc, %g2
    0x100001bf4:            86 00 a1 00  add       %g2, 0x100, %g3
    0x100001bf8:            c8 00 e0 00  ld        [%g3], %g4
    0x100001bfc:            ca 03 a8 ef  ld        [%sp + 0x8ef], %g5
    0x100001c00:            80 a1 40 04  cmp       %g5, %g4
    0x100001c04:            06 47 ff ea  bl,pn     %icc, -0x58   <0x100001bac>
    0x100001c08:            01 00 00 00  nop
    0x100001c0c:            10 80 00 02  ba        +0x8          <0x100001c14>
    0x100001c10:            01 00 00 00  nop
    0x100001c14:            c4 03 a8 f3  ld        [%sp + 0x8f3], %g2
    0x100001c18:            86 00 a0 01  add       %g2, 0x1, %g3
    0x100001c1c:            c6 23 a8 f3  st        %g3, [%sp + 0x8f3]
    0x100001c20:            09 00 04 00  sethi     %hi(0x100000), %g4
    0x100001c24:            8a 11 23 10  or        %g4, 0x310, %g5
    0x100001c28:            9f 29 70 0c  sllx      %g5, 0xc, %o7
    0x100001c2c:            a0 03 e1 08  add       %o7, 0x108, %l0
    0x100001c30:            e2 04 20 00  ld        [%l0], %l1
    0x100001c34:            e4 03 a8 f3  ld        [%sp + 0x8f3], %l2
    0x100001c38:            80 a4 80 11  cmp       %l2, %l1
    0x100001c3c:            06 47 ff ce  bl,pn     %icc, -0xc8   <0x100001b74>
    0x100001c40:            01 00 00 00  nop
    0x100001c44:            10 80 00 02  ba        +0x8          <0x100001c4c>
    0x100001c48:            01 00 00 00  nop
    0x100001c4c:            01 00 00 01  sethi     %hi(0x400), %g0
    0x100001c50:            84 10 20 01  mov       0x1, %g2
    0x100001c54:            c4 23 a8 f3  st        %g2, [%sp + 0x8f3]
    0x100001c58:            07 00 04 00  sethi     %hi(0x100000), %g3
    0x100001c5c:            88 10 e3 10  or        %g3, 0x310, %g4
    0x100001c60:            8b 29 30 0c  sllx      %g4, 0xc, %g5
    0x100001c64:            9e 01 61 04  add       %g5, 0x104, %o7
    0x100001c68:            e0 03 e0 00  ld        [%o7], %l0
    0x100001c6c:            a2 04 3f ff  add       %l0, -0x1, %l1
    0x100001c70:            e4 03 a8 f3  ld        [%sp + 0x8f3], %l2
    0x100001c74:            80 a4 80 11  cmp       %l2, %l1
    0x100001c78:            06 40 00 04  bl,pn     %icc, +0x10   <0x100001c88>
    0x100001c7c:            01 00 00 00  nop
    0x100001c80:            10 80 00 a8  ba        +0x2a0        <0x100001f20>
    0x100001c84:            01 00 00 00  nop
    0x100001c88:            10 80 00 02  ba        +0x8          <0x100001c90>
    0x100001c8c:            01 00 00 00  nop
    0x100001c90:            84 10 20 01  mov       0x1, %g2
    0x100001c94:            c4 23 a8 ef  st        %g2, [%sp + 0x8ef]
    0x100001c98:            07 00 04 00  sethi     %hi(0x100000), %g3
    0x100001c9c:            88 10 e3 10  or        %g3, 0x310, %g4
    0x100001ca0:            8b 29 30 0c  sllx      %g4, 0xc, %g5
    0x100001ca4:            9e 01 60 fc  add       %g5, 0xfc, %o7
    0x100001ca8:            e0 03 e0 00  ld        [%o7], %l0
    0x100001cac:            a2 04 3f ff  add       %l0, -0x1, %l1
    0x100001cb0:            e4 03 a8 ef  ld        [%sp + 0x8ef], %l2
    0x100001cb4:            80 a4 80 11  cmp       %l2, %l1
    0x100001cb8:            06 40 00 04  bl,pn     %icc, +0x10   <0x100001cc8>
    0x100001cbc:            01 00 00 00  nop
    0x100001cc0:            10 80 00 89  ba        +0x224        <0x100001ee4>
    0x100001cc4:            01 00 00 00  nop
    0x100001cc8:            10 80 00 02  ba        +0x8          <0x100001cd0>
    0x100001ccc:            01 00 00 00  nop
    0x100001cd0:            c0 23 a8 fb  clr       [%sp + 0x8fb]
    0x100001cd4:            c0 23 a8 f7  clr       [%sp + 0x8f7]
    0x100001cd8:            84 10 3f ff  mov       -0x1, %g2
    0x100001cdc:            c4 23 a8 eb  st        %g2, [%sp + 0x8eb]
    0x100001ce0:            c6 03 a8 eb  ld        [%sp + 0x8eb], %g3
    0x100001ce4:            80 a0 e0 01  cmp       %g3, 0x1
    0x100001ce8:            04 40 00 04  ble,pn    %icc, +0x10   <0x100001cf8>
    0x100001cec:            01 00 00 00  nop
    0x100001cf0:            10 80 00 40  ba        +0x100        <0x100001df0>
    0x100001cf4:            01 00 00 00  nop
    0x100001cf8:            10 80 00 02  ba        +0x8          <0x100001d00>
    0x100001cfc:            01 00 00 00  nop
    0x100001d00:            84 10 3f ff  mov       -0x1, %g2
    0x100001d04:            c4 23 a8 e7  st        %g2, [%sp + 0x8e7]
    0x100001d08:            c6 03 a8 e7  ld        [%sp + 0x8e7], %g3
    0x100001d0c:            80 a0 e0 01  cmp       %g3, 0x1
    0x100001d10:            04 40 00 04  ble,pn    %icc, +0x10   <0x100001d20>
    0x100001d14:            01 00 00 00  nop
    0x100001d18:            10 80 00 29  ba        +0xa4         <0x100001dbc>
    0x100001d1c:            01 00 00 00  nop
    0x100001d20:            10 80 00 02  ba        +0x8          <0x100001d28>
    0x100001d24:            01 00 00 00  nop
    0x100001d28:            c4 03 a8 ef  ld        [%sp + 0x8ef], %g2
    0x100001d2c:            c6 03 a8 e7  ld        [%sp + 0x8e7], %g3
    0x100001d30:            88 00 80 03  add       %g2, %g3, %g4
    0x100001d34:            8b 39 20 00  sra       %g4, 0x0, %g5
    0x100001d38:            de 03 a8 f3  ld        [%sp + 0x8f3], %o7
    0x100001d3c:            e0 03 a8 eb  ld        [%sp + 0x8eb], %l0
    0x100001d40:            a2 03 c0 10  add       %o7, %l0, %l1
    0x100001d44:            a5 3c 60 00  sra       %l1, 0x0, %l2
    0x100001d48:            a7 2c b0 0a  sllx      %l2, 0xa, %l3
    0x100001d4c:            a8 01 40 13  add       %g5, %l3, %l4
    0x100001d50:            2b 00 04 00  sethi     %hi(0x100000), %l5
    0x100001d54:            ac 15 61 10  or        %l5, 0x110, %l6
    0x100001d58:            ab 2d b0 0c  sllx      %l6, 0xc, %l5
    0x100001d5c:            ac 05 60 fc  add       %l5, 0xfc, %l6
    0x100001d60:            aa 10 00 16  mov       %l6, %l5
    0x100001d64:            ec 0d 00 15  ldub      [%l4 + %l5], %l6
    0x100001d68:            ee 03 a8 fb  ld        [%sp + 0x8fb], %l7
    0x100001d6c:            85 3d e0 00  sra       %l7, 0x0, %g2
    0x100001d70:            87 28 b0 02  sllx      %g2, 0x2, %g3
    0x100001d74:            88 20 c0 02  sub       %g3, %g2, %g4
    0x100001d78:            ca 03 a8 f7  ld        [%sp + 0x8f7], %g5
    0x100001d7c:            9f 39 60 00  sra       %g5, 0x0, %o7
    0x100001d80:            a0 03 c0 04  add       %o7, %g4, %l0
    0x100001d84:            a2 03 a8 db  add       %sp, 0x8db, %l1
    0x100001d88:            ec 2c 00 11  stb       %l6, [%l0 + %l1]
    0x100001d8c:            e4 03 a8 f7  ld        [%sp + 0x8f7], %l2
    0x100001d90:            a6 04 a0 01  add       %l2, 0x1, %l3
    0x100001d94:            e6 23 a8 f7  st        %l3, [%sp + 0x8f7]
    0x100001d98:            e8 03 a8 e7  ld        [%sp + 0x8e7], %l4
    0x100001d9c:            aa 05 20 01  add       %l4, 0x1, %l5
    0x100001da0:            ea 23 a8 e7  st        %l5, [%sp + 0x8e7]
    0x100001da4:            ec 03 a8 e7  ld        [%sp + 0x8e7], %l6
    0x100001da8:            80 a5 a0 01  cmp       %l6, 0x1
    0x100001dac:            04 47 ff df  ble,pn    %icc, -0x84   <0x100001d28>
    0x100001db0:            01 00 00 00  nop
    0x100001db4:            10 80 00 02  ba        +0x8          <0x100001dbc>
    0x100001db8:            01 00 00 00  nop
    0x100001dbc:            c4 03 a8 fb  ld        [%sp + 0x8fb], %g2
    0x100001dc0:            86 00 a0 01  add       %g2, 0x1, %g3
    0x100001dc4:            c6 23 a8 fb  st        %g3, [%sp + 0x8fb]
    0x100001dc8:            c0 23 a8 f7  clr       [%sp + 0x8f7]
    0x100001dcc:            c8 03 a8 eb  ld        [%sp + 0x8eb], %g4
    0x100001dd0:            8a 01 20 01  add       %g4, 0x1, %g5
    0x100001dd4:            ca 23 a8 eb  st        %g5, [%sp + 0x8eb]
    0x100001dd8:            de 03 a8 eb  ld        [%sp + 0x8eb], %o7
    0x100001ddc:            80 a3 e0 01  cmp       %o7, 0x1
    0x100001de0:            04 47 ff c8  ble,pn    %icc, -0xe0   <0x100001d00>
    0x100001de4:            01 00 00 00  nop
    0x100001de8:            10 80 00 02  ba        +0x8          <0x100001df0>
    0x100001dec:            01 00 00 00  nop
    0x100001df0:            c4 0b a8 e1  ldub      [%sp + 0x8e1], %g2
    0x100001df4:            87 30 a0 00  srl       %g2, 0x0, %g3
    0x100001df8:            c6 73 a8 af  stx       %g3, [%sp + 0x8af]
    0x100001dfc:            c8 0b a8 e2  ldub      [%sp + 0x8e2], %g4
    0x100001e00:            8b 31 20 00  srl       %g4, 0x0, %g5
    0x100001e04:            ca 73 a8 b7  stx       %g5, [%sp + 0x8b7]
    0x100001e08:            de 0b a8 e3  ldub      [%sp + 0x8e3], %o7
    0x100001e0c:            a1 33 e0 00  srl       %o7, 0x0, %l0
    0x100001e10:            e0 73 a8 bf  stx       %l0, [%sp + 0x8bf]
    0x100001e14:            a2 03 a8 db  add       %sp, 0x8db, %l1
    0x100001e18:            e2 73 a8 c7  stx       %l1, [%sp + 0x8c7]
    0x100001e1c:            a4 03 a8 d7  add       %sp, 0x8d7, %l2
    0x100001e20:            e4 73 a8 cf  stx       %l2, [%sp + 0x8cf]
    0x100001e24:            e6 0b a8 db  ldub      [%sp + 0x8db], %l3
    0x100001e28:            a9 34 e0 00  srl       %l3, 0x0, %l4
    0x100001e2c:            ea 0b a8 dc  ldub      [%sp + 0x8dc], %l5
    0x100001e30:            ad 35 60 00  srl       %l5, 0x0, %l6
    0x100001e34:            ea 0b a8 dd  ldub      [%sp + 0x8dd], %l5
    0x100001e38:            af 35 60 00  srl       %l5, 0x0, %l7
    0x100001e3c:            ea 0b a8 de  ldub      [%sp + 0x8de], %l5
    0x100001e40:            85 35 60 00  srl       %l5, 0x0, %g2
    0x100001e44:            ea 0b a8 df  ldub      [%sp + 0x8df], %l5
    0x100001e48:            87 35 60 00  srl       %l5, 0x0, %g3
    0x100001e4c:            ea 0b a8 e0  ldub      [%sp + 0x8e0], %l5
    0x100001e50:            89 35 60 00  srl       %l5, 0x0, %g4
    0x100001e54:            90 10 00 14  mov       %l4, %o0
    0x100001e58:            92 10 00 16  mov       %l6, %o1
    0x100001e5c:            94 10 00 17  mov       %l7, %o2
    0x100001e60:            96 10 00 02  mov       %g2, %o3
    0x100001e64:            98 10 00 03  mov       %g3, %o4
    0x100001e68:            9a 10 00 04  mov       %g4, %o5
    0x100001e6c:            7f ff fe 69  call      -0x65c        <0x100001810>
    0x100001e70:            01 00 00 00  nop
    0x100001e74:            ca 03 a8 ef  ld        [%sp + 0x8ef], %g5
    0x100001e78:            91 39 60 00  sra       %g5, 0x0, %o0
    0x100001e7c:            d2 03 a8 f3  ld        [%sp + 0x8f3], %o1
    0x100001e80:            95 3a 60 00  sra       %o1, 0x0, %o2
    0x100001e84:            93 2a b0 0a  sllx      %o2, 0xa, %o1
    0x100001e88:            94 02 00 09  add       %o0, %o1, %o2
    0x100001e8c:            d6 0b a8 d7  ldub      [%sp + 0x8d7], %o3
    0x100001e90:            19 00 04 00  sethi     %hi(0x100000), %o4
    0x100001e94:            9a 13 22 10  or        %o4, 0x210, %o5
    0x100001e98:            99 2b 70 0c  sllx      %o5, 0xc, %o4
    0x100001e9c:            9a 03 20 fc  add       %o4, 0xfc, %o5
    0x100001ea0:            98 10 00 0d  mov       %o5, %o4
    0x100001ea4:            d6 2a 80 0c  stb       %o3, [%o2 + %o4]
    0x100001ea8:            da 03 a8 ef  ld        [%sp + 0x8ef], %o5
    0x100001eac:            9e 03 60 01  add       %o5, 0x1, %o7
    0x100001eb0:            de 23 a8 ef  st        %o7, [%sp + 0x8ef]
    0x100001eb4:            21 00 04 00  sethi     %hi(0x100000), %l0
    0x100001eb8:            a2 14 23 10  or        %l0, 0x310, %l1
    0x100001ebc:            a5 2c 70 0c  sllx      %l1, 0xc, %l2
    0x100001ec0:            a6 04 a0 fc  add       %l2, 0xfc, %l3
    0x100001ec4:            e8 04 e0 00  ld        [%l3], %l4
    0x100001ec8:            aa 05 3f ff  add       %l4, -0x1, %l5
    0x100001ecc:            ec 03 a8 ef  ld        [%sp + 0x8ef], %l6
    0x100001ed0:            80 a5 80 15  cmp       %l6, %l5
    0x100001ed4:            06 47 ff 7f  bl,pn     %icc, -0x204  <0x100001cd0>
    0x100001ed8:            01 00 00 00  nop
    0x100001edc:            10 80 00 02  ba        +0x8          <0x100001ee4>
    0x100001ee0:            01 00 00 00  nop
    0x100001ee4:            c4 03 a8 f3  ld        [%sp + 0x8f3], %g2
    0x100001ee8:            86 00 a0 01  add       %g2, 0x1, %g3
    0x100001eec:            c6 23 a8 f3  st        %g3, [%sp + 0x8f3]
    0x100001ef0:            09 00 04 00  sethi     %hi(0x100000), %g4
    0x100001ef4:            8a 11 23 10  or        %g4, 0x310, %g5
    0x100001ef8:            9f 29 70 0c  sllx      %g5, 0xc, %o7
    0x100001efc:            a0 03 e1 04  add       %o7, 0x104, %l0
    0x100001f00:            e2 04 20 00  ld        [%l0], %l1
    0x100001f04:            a4 04 7f ff  add       %l1, -0x1, %l2
    0x100001f08:            e6 03 a8 f3  ld        [%sp + 0x8f3], %l3
    0x100001f0c:            80 a4 c0 12  cmp       %l3, %l2
    0x100001f10:            06 47 ff 60  bl,pn     %icc, -0x280  <0x100001c90>
    0x100001f14:            01 00 00 00  nop
    0x100001f18:            10 80 00 02  ba        +0x8          <0x100001f20>
    0x100001f1c:            01 00 00 00  nop
    0x100001f20:            01 00 00 02  sethi     %hi(0x800), %g0
    0x100001f24:            10 80 00 02  ba        +0x8          <0x100001f2c>
    0x100001f28:            01 00 00 00  nop
    0x100001f2c:            81 c7 e0 08  ret
    0x100001f30:            81 e8 00 00  restore
    0x100001f34:            00 00 00 00  illtrap   0x0
    0x100001f38:            00 00 00 00  illtrap   0x0
    0x100001f3c:            00 00 00 00  illtrap   0x0
    0x100001f40:            00 00 00 00  illtrap   0x0
    0x100001f44:            00 00 00 00  illtrap   0x0
    0x100001f48:            00 00 00 00  illtrap   0x0
    0x100001f4c:            00 00 00 00  illtrap   0x0
main()
    0x100001f50:            9d e3 be 40  save      %sp, -0x1c0, %sp
    0x100001f54:            ba 06 3f fe  add       %i0, -0x2, %i5
    0x100001f58:            80 a7 60 01  cmp       %i5, 0x1
    0x100001f5c:            18 40 00 c7  bgu,pn    %icc, +0x31c  <0x100002278>
    0x100001f60:            80 a6 20 02  cmp       %i0, 0x2
    0x100001f64:            12 40 00 09  bne,pn    %icc, +0x24   <0x100001f88>
    0x100001f68:            80 a6 20 03  cmp       %i0, 0x3
    0x100001f6c:            27 00 04 00  sethi     %hi(0x100000), %l3
    0x100001f70:            90 14 e0 03  or        %l3, 0x3, %o0
    0x100001f74:            b1 2a 30 0c  sllx      %o0, 0xc, %i0
    0x100001f78:            a6 06 20 d3  add       %i0, 0xd3, %l3
    0x100001f7c:            d0 5e 60 08  ldx       [%i1 + 0x8], %o0
    0x100001f80:            10 80 00 07  ba        +0x1c         <0x100001f9c>
    0x100001f84:            3b 00 04 00  sethi     %hi(0x100000), %i5
    0x100001f88:            12 40 00 05  bne,pn    %icc, +0x14   <0x100001f9c>
    0x100001f8c:            3b 00 04 00  sethi     %hi(0x100000), %i5
    0x100001f90:            d0 5e 60 08  ldx       [%i1 + 0x8], %o0
    0x100001f94:            e6 5e 60 10  ldx       [%i1 + 0x10], %l3
    0x100001f98:            3b 00 04 00  sethi     %hi(0x100000), %i5
    0x100001f9c:            a8 17 60 02  or        %i5, 0x2, %l4
    0x100001fa0:            93 2d 30 0c  sllx      %l4, 0xc, %o1
    0x100001fa4:            ba 02 6f 7c  add       %o1, 0xf7c, %i5
    0x100001fa8:            40 04 36 ce  call      +0x10db38     <0x10010fae0>
    0x100001fac:            92 10 00 1d  mov       %i5, %o1
    0x100001fb0:            02 c2 00 bc  brz,pn    %o0, +0x2f0   <0x1000022a0>
    0x100001fb4:            a8 10 00 08  mov       %o0, %l4
    0x100001fb8:            94 10 00 14  mov       %l4, %o2
    0x100001fbc:            92 10 21 00  mov       0x100, %o1
    0x100001fc0:            40 04 36 d0  call      +0x10db40     <0x10010fb00>
    0x100001fc4:            90 07 a6 ff  add       %fp, 0x6ff, %o0
    0x100001fc8:            d6 4f a6 ff  ldsb      [%fp + 0x6ff], %o3
    0x100001fcc:            80 a2 e0 50  cmp       %o3, 0x50
    0x100001fd0:            12 40 00 bd  bne,pn    %icc, +0x2f4  <0x1000022c4>
    0x100001fd4:            d8 4f a7 00  ldsb      [%fp + 0x700], %o4
    0x100001fd8:            80 a3 20 35  cmp       %o4, 0x35
    0x100001fdc:            12 40 00 ba  bne,pn    %icc, +0x2e8  <0x1000022c4>
    0x100001fe0:            35 00 04 00  sethi     %hi(0x100000), %i2
    0x100001fe4:            39 00 04 00  sethi     %hi(0x100000), %i4
    0x100001fe8:            aa 16 a3 10  or        %i2, 0x310, %l5
    0x100001fec:            82 17 23 10  or        %i4, 0x310, %g1
    0x100001ff0:            b9 2d 70 0c  sllx      %l5, 0xc, %i4
    0x100001ff4:            ab 28 70 0c  sllx      %g1, 0xc, %l5
    0x100001ff8:            c0 27 20 fc  clr       [%i4 + 0xfc]
    0x100001ffc:            a2 07 20 fc  add       %i4, 0xfc, %l1
    0x100002000:            c0 25 61 04  clr       [%l5 + 0x104]
    0x100002004:            b6 05 61 04  add       %l5, 0x104, %i3
    0x100002008:            94 10 00 14  mov       %l4, %o2
    0x10000200c:            92 10 21 00  mov       0x100, %o1
    0x100002010:            40 04 36 bc  call      +0x10daf0     <0x10010fb00>
    0x100002014:            90 07 a6 ff  add       %fp, 0x6ff, %o0
    0x100002018:            c4 4f a6 ff  ldsb      [%fp + 0x6ff], %g2
    0x10000201c:            80 a0 a0 23  cmp       %g2, 0x23
    0x100002020:            12 40 00 04  bne,pn    %icc, +0x10   <0x100002030>
    0x100002024:            c6 07 20 fc  ld        [%i4 + 0xfc], %g3
    0x100002028:            10 80 00 0c  ba        +0x30         <0x100002058>
    0x10000202c:            80 a0 e0 00  cmp       %g3, 0x0
    0x100002030:            2d 00 04 00  sethi     %hi(0x100000), %l6
    0x100002034:            8a 15 a0 02  or        %l6, 0x2, %g5
    0x100002038:            89 29 70 0c  sllx      %g5, 0xc, %g4
    0x10000203c:            92 01 2f c3  add       %g4, 0xfc3, %o1
    0x100002040:            90 07 a6 ff  add       %fp, 0x6ff, %o0
    0x100002044:            96 10 00 1b  mov       %i3, %o3
    0x100002048:            40 04 36 b6  call      +0x10dad8     <0x10010fb20>
    0x10000204c:            94 10 00 11  mov       %l1, %o2
    0x100002050:            c6 07 20 fc  ld        [%i4 + 0xfc], %g3
    0x100002054:            80 a0 e0 00  cmp       %g3, 0x0
    0x100002058:            02 47 ff ec  be,pn     %icc, -0x50   <0x100002008>
    0x10000205c:            f0 05 61 04  ld        [%l5 + 0x104], %i0
    0x100002060:            80 a6 20 00  cmp       %i0, 0x0
    0x100002064:            02 4f ff ea  be,pt     %icc, -0x58   <0x10000200c>
    0x100002068:            94 10 00 14  mov       %l4, %o2
    0x10000206c:            c0 27 a6 fb  clr       [%fp + 0x6fb]
    0x100002070:            94 10 00 14  mov       %l4, %o2
    0x100002074:            92 10 21 00  mov       0x100, %o1
    0x100002078:            40 04 36 a2  call      +0x10da88     <0x10010fb00>
    0x10000207c:            90 07 a6 ff  add       %fp, 0x6ff, %o0
    0x100002080:            f2 4f a6 ff  ldsb      [%fp + 0x6ff], %i1
    0x100002084:            80 a6 60 23  cmp       %i1, 0x23
    0x100002088:            12 40 00 05  bne,pn    %icc, +0x14   <0x10000209c>
    0x10000208c:            94 07 a6 fb  add       %fp, 0x6fb, %o2
    0x100002090:            d0 07 a6 fb  ld        [%fp + 0x6fb], %o0
    0x100002094:            10 80 00 07  ba        +0x1c         <0x1000020b0>
    0x100002098:            80 a2 20 00  cmp       %o0, 0x0
    0x10000209c:            90 07 a6 ff  add       %fp, 0x6ff, %o0
    0x1000020a0:            40 04 36 a0  call      +0x10da80     <0x10010fb20>
    0x1000020a4:            92 07 60 4d  add       %i5, 0x4d, %o1
    0x1000020a8:            d0 07 a6 fb  ld        [%fp + 0x6fb], %o0
    0x1000020ac:            80 a2 20 00  cmp       %o0, 0x0
    0x1000020b0:            02 4f ff f1  be,pt     %icc, -0x3c   <0x100002074>
    0x1000020b4:            94 10 00 14  mov       %l4, %o2
    0x1000020b8:            ee 07 20 fc  ld        [%i4 + 0xfc], %l7
    0x1000020bc:            e4 05 61 04  ld        [%l5 + 0x104], %l2
    0x1000020c0:            90 07 60 50  add       %i5, 0x50, %o0
    0x1000020c4:            93 3d e0 00  sra       %l7, 0x0, %o1
    0x1000020c8:            40 04 36 9e  call      +0x10da78     <0x10010fb40>
    0x1000020cc:            95 3c a0 00  sra       %l2, 0x0, %o2
    0x1000020d0:            d4 07 a6 fb  ld        [%fp + 0x6fb], %o2
    0x1000020d4:            90 07 60 76  add       %i5, 0x76, %o0
    0x1000020d8:            40 04 36 9a  call      +0x10da68     <0x10010fb40>
    0x1000020dc:            93 3a a0 00  sra       %o2, 0x0, %o1
    0x1000020e0:            d2 07 20 fc  ld        [%i4 + 0xfc], %o1
    0x1000020e4:            80 a2 64 00  cmp       %o1, 0x400
    0x1000020e8:            14 40 00 80  bg,pn     %icc, +0x200  <0x1000022e8>
    0x1000020ec:            d6 05 61 04  ld        [%l5 + 0x104], %o3
    0x1000020f0:            80 a2 e4 00  cmp       %o3, 0x400
    0x1000020f4:            14 40 00 7d  bg,pn     %icc, +0x1f4  <0x1000022e8>
    0x1000020f8:            01 00 00 00  nop
    0x1000020fc:            c2 07 a6 fb  ld        [%fp + 0x6fb], %g1
    0x100002100:            80 a0 60 ff  cmp       %g1, 0xff
    0x100002104:            12 40 00 8a  bne,pn    %icc, +0x228  <0x10000232c>
    0x100002108:            ca 05 61 04  ld        [%l5 + 0x104], %g5
    0x10000210c:            80 a1 60 00  cmp       %g5, 0x0
    0x100002110:            04 40 00 19  ble,pn    %icc, +0x64   <0x100002174>
    0x100002114:            33 00 04 00  sethi     %hi(0x100000), %i1
    0x100002118:            b0 16 61 10  or        %i1, 0x110, %i0
    0x10000211c:            af 2e 30 0c  sllx      %i0, 0xc, %l7
    0x100002120:            b4 05 e0 fc  add       %l7, 0xfc, %i2
    0x100002124:            ac 10 20 00  clr       %l6
    0x100002128:            80 a2 60 00  cmp       %o1, 0x0
    0x10000212c:            04 40 00 0c  ble,pn    %icc, +0x30   <0x10000215c>
    0x100002130:            b0 10 20 00  clr       %i0
    0x100002134:            b2 10 00 1a  mov       %i2, %i1
    0x100002138:            90 10 00 14  mov       %l4, %o0
    0x10000213c:            40 04 36 89  call      +0x10da24     <0x10010fb60>
    0x100002140:            b0 06 20 01  add       %i0, 0x1, %i0
    0x100002144:            d2 07 20 fc  ld        [%i4 + 0xfc], %o1
    0x100002148:            d0 2e 60 00  stb       %o0, [%i1]
    0x10000214c:            b2 06 60 01  add       %i1, 0x1, %i1
    0x100002150:            80 a6 00 09  cmp       %i0, %o1
    0x100002154:            06 4f ff fa  bl,pt     %icc, -0x18   <0x10000213c>
    0x100002158:            90 10 00 14  mov       %l4, %o0
    0x10000215c:            d0 05 61 04  ld        [%l5 + 0x104], %o0
    0x100002160:            ac 05 a0 01  add       %l6, 0x1, %l6
    0x100002164:            b4 06 a4 00  add       %i2, 0x400, %i2
    0x100002168:            80 a5 80 08  cmp       %l6, %o0
    0x10000216c:            06 4f ff f0  bl,pt     %icc, -0x40   <0x10000212c>
    0x100002170:            80 a2 60 00  cmp       %o1, 0x0
    0x100002174:            25 00 04 00  sethi     %hi(0x100000), %l2
    0x100002178:            23 00 04 00  sethi     %hi(0x100000), %l1
    0x10000217c:            40 04 36 81  call      +0x10da04     <0x10010fb80>
    0x100002180:            90 10 00 14  mov       %l4, %o0
    0x100002184:            7f ff fe 55  call      -0x6ac        <0x100001ad8>
    0x100002188:            01 00 00 00  nop
    0x10000218c:            90 10 00 13  mov       %l3, %o0
    0x100002190:            40 04 36 54  call      +0x10d950     <0x10010fae0>
    0x100002194:            92 07 61 00  add       %i5, 0x100, %o1
    0x100002198:            a0 10 00 08  mov       %o0, %l0
    0x10000219c:            90 07 61 03  add       %i5, 0x103, %o0
    0x1000021a0:            40 04 36 80  call      +0x10da00     <0x10010fba0>
    0x1000021a4:            92 10 00 10  mov       %l0, %o1
    0x1000021a8:            90 07 61 07  add       %i5, 0x107, %o0
    0x1000021ac:            40 04 36 7d  call      +0x10d9f4     <0x10010fba0>
    0x1000021b0:            92 10 00 10  mov       %l0, %o1
    0x1000021b4:            9a 14 a3 10  or        %l2, 0x310, %o5
    0x1000021b8:            af 2b 70 0c  sllx      %o5, 0xc, %l7
    0x1000021bc:            98 14 63 10  or        %l1, 0x310, %o4
    0x1000021c0:            a5 2b 30 0c  sllx      %o4, 0xc, %l2
    0x1000021c4:            92 07 61 26  add       %i5, 0x126, %o1
    0x1000021c8:            90 10 00 10  mov       %l0, %o0
    0x1000021cc:            d6 05 e1 08  ld        [%l7 + 0x108], %o3
    0x1000021d0:            d4 04 a1 00  ld        [%l2 + 0x100], %o2
    0x1000021d4:            97 3a e0 00  sra       %o3, 0x0, %o3
    0x1000021d8:            40 04 36 7a  call      +0x10d9e8     <0x10010fbc0>
    0x1000021dc:            95 3a a0 00  sra       %o2, 0x0, %o2
    0x1000021e0:            94 10 20 ff  mov       0xff, %o2
    0x1000021e4:            92 07 61 2d  add       %i5, 0x12d, %o1
    0x1000021e8:            40 04 36 76  call      +0x10d9d8     <0x10010fbc0>
    0x1000021ec:            90 10 00 10  mov       %l0, %o0
    0x1000021f0:            d2 05 e1 08  ld        [%l7 + 0x108], %o1
    0x1000021f4:            80 a2 60 00  cmp       %o1, 0x0
    0x1000021f8:            04 40 00 1a  ble,pn    %icc, +0x68   <0x100002260>
    0x1000021fc:            39 00 04 00  sethi     %hi(0x100000), %i4
    0x100002200:            b6 17 22 10  or        %i4, 0x210, %i3
    0x100002204:            b5 2e f0 0c  sllx      %i3, 0xc, %i2
    0x100002208:            de 04 a1 00  ld        [%l2 + 0x100], %o7
    0x10000220c:            a6 06 a0 fc  add       %i2, 0xfc, %l3
    0x100002210:            b6 10 20 00  clr       %i3
    0x100002214:            80 a3 e0 00  cmp       %o7, 0x0
    0x100002218:            04 40 00 0c  ble,pn    %icc, +0x30   <0x100002248>
    0x10000221c:            a8 10 20 00  clr       %l4
    0x100002220:            aa 10 00 13  mov       %l3, %l5
    0x100002224:            92 10 00 10  mov       %l0, %o1
    0x100002228:            a8 05 20 01  add       %l4, 0x1, %l4
    0x10000222c:            40 04 36 6d  call      +0x10d9b4     <0x10010fbe0>
    0x100002230:            d0 0d 60 00  ldub      [%l5], %o0
    0x100002234:            de 04 a1 00  ld        [%l2 + 0x100], %o7
    0x100002238:            aa 05 60 01  add       %l5, 0x1, %l5
    0x10000223c:            80 a5 00 0f  cmp       %l4, %o7
    0x100002240:            06 4f ff fa  bl,pt     %icc, -0x18   <0x100002228>
    0x100002244:            92 10 00 10  mov       %l0, %o1
    0x100002248:            ec 05 e1 08  ld        [%l7 + 0x108], %l6
    0x10000224c:            b6 06 e0 01  add       %i3, 0x1, %i3
    0x100002250:            a6 04 e4 00  add       %l3, 0x400, %l3
    0x100002254:            80 a6 c0 16  cmp       %i3, %l6
    0x100002258:            06 4f ff f0  bl,pt     %icc, -0x40   <0x100002218>
    0x10000225c:            80 a3 e0 00  cmp       %o7, 0x0
    0x100002260:            40 04 36 48  call      +0x10d920     <0x10010fb80>
    0x100002264:            90 10 00 10  mov       %l0, %o0
    0x100002268:            40 04 36 36  call      +0x10d8d8     <0x10010fb40>
    0x10000226c:            90 07 61 6a  add       %i5, 0x16a, %o0
    0x100002270:            81 c7 e0 08  ret
    0x100002274:            91 e8 20 00  restore   %g0, 0x0, %o0
    0x100002278:            2d 00 04 00  sethi     %hi(0x100000), %l6
    0x10000227c:            8a 15 a0 03  or        %l6, 0x3, %g5
    0x100002280:            89 29 70 0c  sllx      %g5, 0xc, %g4
    0x100002284:            90 01 20 ad  add       %g4, 0xad, %o0
    0x100002288:            40 04 36 2e  call      +0x10d8b8     <0x10010fb40>
    0x10000228c:            d2 5e 60 00  ldx       [%i1], %o1
    0x100002290:            40 04 36 04  call      +0x10d810     <0x10010faa0>
    0x100002294:            90 10 20 01  mov       0x1, %o0
    0x100002298:            10 bf ff 41  ba        -0x2fc        <0x100001f9c>
    0x10000229c:            3b 00 04 00  sethi     %hi(0x100000), %i5
    0x1000022a0:            2f 00 04 00  sethi     %hi(0x100000), %l7
    0x1000022a4:            a4 15 e0 02  or        %l7, 0x2, %l2
    0x1000022a8:            95 2c b0 0c  sllx      %l2, 0xc, %o2
    0x1000022ac:            40 04 36 25  call      +0x10d894     <0x10010fb40>
    0x1000022b0:            90 02 af 7f  add       %o2, 0xf7f, %o0
    0x1000022b4:            40 04 35 fb  call      +0x10d7ec     <0x10010faa0>
    0x1000022b8:            90 10 20 01  mov       0x1, %o0
    0x1000022bc:            10 bf ff 40  ba        -0x300        <0x100001fbc>
    0x1000022c0:            94 10 00 14  mov       %l4, %o2
    0x1000022c4:            1f 00 04 00  sethi     %hi(0x100000), %o7
    0x1000022c8:            9a 13 e0 02  or        %o7, 0x2, %o5
    0x1000022cc:            a1 2b 70 0c  sllx      %o5, 0xc, %l0
    0x1000022d0:            40 04 36 1c  call      +0x10d870     <0x10010fb40>
    0x1000022d4:            90 04 2f 9e  add       %l0, 0xf9e, %o0
    0x1000022d8:            40 04 35 f2  call      +0x10d7c8     <0x10010faa0>
    0x1000022dc:            90 10 20 01  mov       0x1, %o0
    0x1000022e0:            10 bf ff 41  ba        -0x2fc        <0x100001fe4>
    0x1000022e4:            35 00 04 00  sethi     %hi(0x100000), %i2
    0x1000022e8:            37 00 04 00  sethi     %hi(0x100000), %i3
    0x1000022ec:            9e 16 e0 03  or        %i3, 0x3, %o7
    0x1000022f0:            a3 2b f0 0c  sllx      %o7, 0xc, %l1
    0x1000022f4:            90 04 60 0c  add       %l1, 0xc, %o0
    0x1000022f8:            94 10 24 00  mov       0x400, %o2
    0x1000022fc:            40 04 36 11  call      +0x10d844     <0x10010fb40>
    0x100002300:            92 10 24 00  mov       0x400, %o1
    0x100002304:            1b 00 04 00  sethi     %hi(0x100000), %o5
    0x100002308:            a0 13 60 03  or        %o5, 0x3, %l0
    0x10000230c:            99 2c 30 0c  sllx      %l0, 0xc, %o4
    0x100002310:            40 04 36 0c  call      +0x10d830     <0x10010fb40>
    0x100002314:            90 03 20 2e  add       %o4, 0x2e, %o0
    0x100002318:            40 04 35 e2  call      +0x10d788     <0x10010faa0>
    0x10000231c:            90 10 20 01  mov       0x1, %o0
    0x100002320:            d2 07 20 fc  ld        [%i4 + 0xfc], %o1
    0x100002324:            10 bf ff 77  ba        -0x224        <0x100002100>
    0x100002328:            c2 07 a6 fb  ld        [%fp + 0x6fb], %g1
    0x10000232c:            09 00 04 00  sethi     %hi(0x100000), %g4
    0x100002330:            86 11 20 03  or        %g4, 0x3, %g3
    0x100002334:            85 28 f0 0c  sllx      %g3, 0xc, %g2
    0x100002338:            40 04 36 02  call      +0x10d808     <0x10010fb40>
    0x10000233c:            90 00 a0 50  add       %g2, 0x50, %o0
    0x100002340:            40 04 35 d8  call      +0x10d760     <0x10010faa0>
    0x100002344:            90 10 20 01  mov       0x1, %o0
    0x100002348:            d2 07 20 fc  ld        [%i4 + 0xfc], %o1
    0x10000234c:            10 bf ff 70  ba        -0x240        <0x10000210c>
    0x100002350:            ca 05 61 04  ld        [%l5 + 0x104], %g5
    0x100002354:            00 00 00 00  illtrap   0x0
    0x100002358:            00 00 00 00  illtrap   0x0
    0x10000235c:            00 00 00 00  illtrap   0x0
    0x100002360:            3f f0 00 00  0x3ff00000
    0x100002364:            00 00 00 00  illtrap   0x0
    0x100002368:            bf 9b 4f 14  wrhpr     %o5, %l4, %hstick_cmpr
    0x10000236c:            84 d2 d8 0a  umulcc    %o3, %o2, %g2
    0x100002370:            c0 08 85 55  ldub      [%g2 + %l5], %g0
    0x100002374:            8e d5 8b 2e  umulcc    %l6, %sp, %g7
    0x100002378:            40 0d 45 9a  call      +0x351668     <0x1003539e0>
    0x10000237c:            7b 39 73 bd  call      -0x131a310c   <0xece5f270>
    0x100002380:            3f f5 57 fb  0x3ff557fb
    0x100002384:            33 6e 60 b5  fbe,a,pt  %fcc2, -0x67d2c <0xfff9a658>
    0x100002388:            40 0c 69 c8  call      +0x31a720     <0x10031caa8>
    0x10000238c:            4a 7e 1b b4  call      +0x29f86ed0   <0x129f8925c>
    0x100002390:            00 00 00 00  illtrap   0x0
    0x100002394:            00 00 00 00  illtrap   0x0
    0x100002398:            43 50 00 00  call      +0xd400000    <0x10d402398>
    0x10000239c:            00 00 00 00  illtrap   0x0
    0x1000023a0:            7e 37 e4 3c  call      -0x7206f10    <0xf8dfb490>
    0x1000023a4:            88 00 75 9c  add       %g1, -0xa64, %g4
    0x1000023a8:            01 a5 6e 1f  fbn       -0x6a4784     <0xff95dc24>
    0x1000023ac:            c2 f8 f3 59  swapa     [%g3 - 0xca7] %asi, %g1
    0x1000023b0:            3f f7 15 40  0x3ff71540
    0x1000023b4:            00 00 00 00  illtrap   0x0
    0x1000023b8:            3e dd 94 ae  0x3edd94ae
    0x1000023bc:            0b f8 5d df  0x0bf85ddf
    0x1000023c0:            3f a7 a3 2f  fbo,a     -0x617344     <0xff9eb07c>
    0x1000023c4:            e0 75 ca 5a  stx       %l0, [%l7 + %i2]
    0x1000023c8:            bf ff 92 a3  fumsubs   %f30, %f3, %f9, %f31
    0x1000023cc:            01 1e 43 46  sethi     %hi(0x790d1800), %g0
    0x1000023d0:            3f c5 c0 24  0x3fc5c024
    0x1000023d4:            96 7b 1b 5a  sdiv      %o4, %i2, %o3
    0x1000023d8:            40 0e 6f 26  call      +0x39bc98     <0x10039e070>
    0x1000023dc:            d0 91 d4 ac  lduha     [%g7 + %o4] 0xa5, %o0
    0x1000023e0:            40 80 00 00  call      +0x2000000    <0x1020023e0>
    0x1000023e4:            00 00 00 00  illtrap   0x0
    0x1000023e8:            3f 60 00 00  fbo,a,pn  %fcc2, +0x0    <0x1000023e8>
    0x1000023ec:            00 00 00 00  illtrap   0x0
    0x1000023f0:            3f 52 34 6a  fbo,a,pn  %fcc1, +0x8d1a8 <0x10008f598>
    0x1000023f4:            a2 07 34 8e  add       %i4, -0xb72, %l1
    0x1000023f8:            40 38 f9 f6  call      +0xe3e7d8     <0x100e40bd0>
    0x1000023fc:            fe 86 40 ad  lduwa     [%i1 + %o5] 0x05, %i7
    0x100002400:            40 21 4f f5  call      +0x853fd4     <0x1008563d4>
    0x100002404:            9f fb 1c 43  fumaddd   %d12, %d34, %d14, %d46
    0x100002408:            40 38 f9 f7  call      +0xe3e7dc     <0x100e40be4>
    0x10000240c:            48 a4 bb 6e  call      +0x2292edb8   <0x1229311c4>
    0x100002410:            39 b0 00 00  fbuge,a   -0x400000     <0xffc02410>
    0x100002414:            00 00 00 00  illtrap   0x0
    0x100002418:            00 00 00 00  illtrap   0x0
    0x10000241c:            00 00 00 00  illtrap   0x0
pow()
    0x100002420:            9d e3 bf 00  save      %sp, -0x100, %sp
    0x100002424:            c1 23 a8 af  st        %f0, [%sp + 0x8af]
    0x100002428:            3b 00 00 00  sethi     %hi(0x0), %i5
    0x10000242c:            89 a0 00 40  fmovd     %d0, %d4
    0x100002430:            31 00 00 08  sethi     %hi(0x2000), %i0
    0x100002434:            c5 23 a8 d7  st        %f2, [%sp + 0x8d7]
    0x100002438:            b8 17 60 01  or        %i5, 0x1, %i4
    0x10000243c:            c7 23 a8 db  st        %f3, [%sp + 0x8db]
    0x100002440:            b7 2f 30 20  sllx      %i4, 0x20, %i3
    0x100002444:            c3 23 a8 b3  st        %f1, [%sp + 0x8b3]
    0x100002448:            81 41 40 00  rd        %pc, %g0
    0x10000244c:            e4 03 a8 d7  ld        [%sp + 0x8d7], %l2
    0x100002450:            ea 03 a8 db  ld        [%sp + 0x8db], %l5
    0x100002454:            f2 03 a8 af  ld        [%sp + 0x8af], %i1
    0x100002458:            d6 03 a8 b3  ld        [%sp + 0x8b3], %o3
    0x10000245c:            80 96 40 0b  orcc      %i1, %o3, %g0
    0x100002460:            02 40 02 43  be,pn     %icc, +0x90c  <0x100002d6c>
    0x100002464:            a2 16 c0 18  or        %i3, %i0, %l1
    0x100002468:            27 1f ff ff  sethi     %hi(0x7ffffc00), %l3
    0x10000246c:            35 20 03 ff  sethi     %hi(0x800ffc00), %i2
    0x100002470:            90 04 e3 ff  add       %l3, 0x3ff, %o0
    0x100002474:            8a 06 a3 ff  add       %i2, 0x3ff, %g5
    0x100002478:            b4 0e 40 08  and       %i1, %o0, %i2
    0x10000247c:            1b 30 04 00  sethi     %hi(0xc0100000), %o5
    0x100002480:            98 0e 80 05  and       %i2, %g5, %o4
    0x100002484:            a6 06 80 0d  add       %i2, %o5, %l3
    0x100002488:            b9 3b 20 09  sra       %o4, 0x9, %i4
    0x10000248c:            29 00 00 00  sethi     %hi(0x0), %l4
    0x100002490:            89 3c e0 14  sra       %l3, 0x14, %g4
    0x100002494:            af 3b 20 0b  sra       %o4, 0xb, %l7
    0x100002498:            b6 0f 3f fc  and       %i4, -0x4, %i3
    0x10000249c:            99 29 20 14  sll       %g4, 0x14, %o4
    0x1000024a0:            a8 15 20 01  or        %l4, 0x1, %l4
    0x1000024a4:            b8 26 80 0c  sub       %i2, %o4, %i4
    0x1000024a8:            f8 23 a8 b7  st        %i4, [%sp + 0x8b7]
    0x1000024ac:            03 00 00 0c  sethi     %hi(0x3000), %g1
    0x1000024b0:            a9 2d 30 20  sllx      %l4, 0x20, %l4
    0x1000024b4:            cb 23 a8 bb  st        %f5, [%sp + 0x8bb]
    0x1000024b8:            b6 05 c0 1b  add       %l7, %i3, %i3
    0x1000024bc:            98 15 00 01  or        %l4, %g1, %o4
    0x1000024c0:            b9 3e e0 00  sra       %i3, 0x0, %i4
    0x1000024c4:            ac 03 21 c0  add       %o4, 0x1c0, %l6
    0x1000024c8:            a9 2f 30 03  sllx      %i4, 0x3, %l4
    0x1000024cc:            a0 04 63 60  add       %l1, 0x360, %l0
    0x1000024d0:            d9 1d 00 16  ldd       [%l4 + %l6], %d12
    0x1000024d4:            b0 05 00 16  add       %l4, %l6, %i0
    0x1000024d8:            13 00 04 00  sethi     %hi(0x100000), %o1
    0x1000024dc:            d1 1e 20 08  ldd       [%i0 + 0x8], %d8
    0x1000024e0:            a8 0c 80 08  and       %l2, %o0, %l4
    0x1000024e4:            e1 1e 20 10  ldd       [%i0 + 0x10], %d16
    0x1000024e8:            ba 05 00 09  add       %l4, %o1, %i5
    0x1000024ec:            fb 1c 20 10  ldd       [%l0 + 0x10], %d60
    0x1000024f0:            83 3f 60 14  sra       %i5, 0x14, %g1
    0x1000024f4:            f9 1c 20 20  ldd       [%l0 + 0x20], %d28
    0x1000024f8:            80 80 7c 40  addcc     %g1, -0x3c0, %g0
    0x1000024fc:            cd 1b a8 b7  ldd       [%sp + 0x8b7], %d6
    0x100002500:            f5 1c 20 08  ldd       [%l0 + 0x8], %d26
    0x100002504:            f1 1c 20 18  ldd       [%l0 + 0x18], %d24
    0x100002508:            a5 a1 88 cc  fsubd     %d6, %d12, %d18
    0x10000250c:            ed 1c 20 28  ldd       [%l0 + 0x28], %d22
    0x100002510:            a5 a4 89 48  fmuld     %d18, %d8, %d18
    0x100002514:            a1 a4 88 d0  fsubd     %d18, %d16, %d16
    0x100002518:            bd a4 08 5d  faddd     %d16, %d60, %d30
    0x10000251c:            9d a4 09 50  fmuld     %d16, %d16, %d14
    0x100002520:            95 a4 08 5c  faddd     %d16, %d28, %d10
    0x100002524:            b7 a4 09 5e  fmuld     %d16, %d30, %d58
    0x100002528:            99 a3 89 5a  fmuld     %d14, %d26, %d12
    0x10000252c:            a9 a4 09 4a  fmuld     %d16, %d10, %d20
    0x100002530:            bf a6 c8 58  faddd     %d58, %d24, %d62
    0x100002534:            8d a5 08 56  faddd     %d20, %d22, %d6
    0x100002538:            91 a3 09 5f  fmuld     %d12, %d62, %d8
    0x10000253c:            bb a2 09 46  fmuld     %d8, %d6, %d60
    0x100002540:            0c 40 01 9f  bneg,pn   %icc, +0x67c  <0x100002bbc>
    0x100002544:            81 a0 00 42  fmovd     %d2, %d0
    0x100002548:            b6 05 00 0d  add       %l4, %o5, %i3
    0x10000254c:            80 96 c0 15  orcc      %i3, %l5, %g0
    0x100002550:            02 40 01 9b  be,pn     %icc, +0x66c  <0x100002bbc>
    0x100002554:            dd 1c 63 60  ldd       [%l1 + 0x360], %d14
    0x100002558:            15 00 08 00  sethi     %hi(0x200000), %o2
    0x10000255c:            9e 06 40 09  add       %i1, %o1, %o7
    0x100002560:            80 a3 c0 0a  cmp       %o7, %o2
    0x100002564:            06 40 00 05  bl,pn     %icc, +0x14   <0x100002578>
    0x100002568:            dd 3b a8 bf  std       %d14, [%sp + 0x8bf]
    0x10000256c:            b8 10 20 00  clr       %i4
    0x100002570:            10 80 00 96  ba        +0x258        <0x1000027c8>
    0x100002574:            98 10 20 d4  mov       0xd4, %o4
    0x100002578:            b8 20 00 0b  neg       %o3, %i4
    0x10000257c:            15 1f fc 00  sethi     %hi(0x7ff00000), %o2
    0x100002580:            98 12 c0 1c  or        %o3, %i4, %o4
    0x100002584:            83 33 20 1f  srl       %o4, 0x1f, %g1
    0x100002588:            ba 16 80 01  or        %i2, %g1, %i5
    0x10000258c:            80 a7 40 0a  cmp       %i5, %o2
    0x100002590:            08 40 00 05  bleu,pn   %icc, +0x14   <0x1000025a4>
    0x100002594:            80 a6 60 00  cmp       %i1, 0x0
    0x100002598:            81 a1 09 44  fmuld     %d4, %d4, %d0
    0x10000259c:            81 c7 e0 08  ret
    0x1000025a0:            81 e8 20 00  restore   %g0, 0x0, %g0
    0x1000025a4:            06 40 00 04  bl,pn     %icc, +0x10   <0x1000025b4>
    0x1000025a8:            b8 10 20 00  clr       %i4
    0x1000025ac:            10 80 00 2f  ba        +0xbc         <0x100002668>
    0x1000025b0:            80 96 80 0b  orcc      %i2, %o3, %g0
    0x1000025b4:            b7 3d 20 14  sra       %l4, 0x14, %i3
    0x1000025b8:            80 a6 e4 34  cmp       %i3, 0x434
    0x1000025bc:            06 40 00 04  bl,pn     %icc, +0x10   <0x1000025cc>
    0x1000025c0:            b8 10 20 02  mov       0x2, %i4
    0x1000025c4:            10 80 00 23  ba        +0x8c         <0x100002650>
    0x1000025c8:            89 a0 01 44  fabsd     %d4, %d4
    0x1000025cc:            9e 86 fc 01  addcc     %i3, -0x3ff, %o7
    0x1000025d0:            1c 40 00 04  bpos,pn   %icc, +0x10   <0x1000025e0>
    0x1000025d4:            b8 10 20 00  clr       %i4
    0x1000025d8:            10 80 00 1e  ba        +0x78         <0x100002650>
    0x1000025dc:            89 a0 01 44  fabsd     %d4, %d4
    0x1000025e0:            80 a3 e0 14  cmp       %o7, 0x14
    0x1000025e4:            04 40 00 0c  ble,pn    %icc, +0x30   <0x100002614>
    0x1000025e8:            b6 10 20 34  mov       0x34, %i3
    0x1000025ec:            9e 26 c0 0f  sub       %i3, %o7, %o7
    0x1000025f0:            ba 10 20 02  mov       0x2, %i5
    0x1000025f4:            b9 35 40 0f  srl       %l5, %o7, %i4
    0x1000025f8:            99 2f 00 0f  sll       %i4, %o7, %o4
    0x1000025fc:            82 0f 20 01  and       %i4, 0x1, %g1
    0x100002600:            80 a3 00 15  cmp       %o4, %l5
    0x100002604:            b8 27 40 01  sub       %i5, %g1, %i4
    0x100002608:            b9 66 40 00  movne     %icc, %g0, %i4
    0x10000260c:            10 80 00 11  ba        +0x44         <0x100002650>
    0x100002610:            89 a0 01 44  fabsd     %d4, %d4
    0x100002614:            80 a5 60 00  cmp       %l5, 0x0
    0x100002618:            02 40 00 04  be,pn     %icc, +0x10   <0x100002628>
    0x10000261c:            b8 10 20 00  clr       %i4
    0x100002620:            10 80 00 0c  ba        +0x30         <0x100002650>
    0x100002624:            89 a0 01 44  fabsd     %d4, %d4
    0x100002628:            b6 10 20 14  mov       0x14, %i3
    0x10000262c:            ba 10 20 02  mov       0x2, %i5
    0x100002630:            89 a0 01 44  fabsd     %d4, %d4
    0x100002634:            9e 26 c0 0f  sub       %i3, %o7, %o7
    0x100002638:            b9 3d 00 0f  sra       %l4, %o7, %i4
    0x10000263c:            99 2f 00 0f  sll       %i4, %o7, %o4
    0x100002640:            82 0f 20 01  and       %i4, 0x1, %g1
    0x100002644:            80 a3 00 14  cmp       %o4, %l4
    0x100002648:            b8 27 40 01  sub       %i5, %g1, %i4
    0x10000264c:            b9 66 40 00  movne     %icc, %g0, %i4
    0x100002650:            1f 0f fc 00  sethi     %hi(0x3ff00000), %o7
    0x100002654:            bb 2f 20 1f  sll       %i4, 0x1f, %i5
    0x100002658:            98 17 40 0f  or        %i5, %o7, %o4
    0x10000265c:            d8 23 a8 bf  st        %o4, [%sp + 0x8bf]
    0x100002660:            80 96 80 0b  orcc      %i2, %o3, %g0
    0x100002664:            dd 1b a8 bf  ldd       [%sp + 0x8bf], %d14
    0x100002668:            12 40 00 0b  bne,pn    %icc, +0x2c   <0x100002694>
    0x10000266c:            80 a4 a0 00  cmp       %l2, 0x0
    0x100002670:            06 40 00 05  bl,pn     %icc, +0x14   <0x100002684>
    0x100002674:            fd 1c 20 30  ldd       [%l0 + 0x30], %d30
    0x100002678:            81 a3 89 5e  fmuld     %d14, %d30, %d0
    0x10000267c:            81 c7 e0 08  ret
    0x100002680:            81 e8 20 00  restore   %g0, 0x0, %g0
    0x100002684:            f5 1c 20 30  ldd       [%l0 + 0x30], %d26
    0x100002688:            81 a3 89 da  fdivd     %d14, %d26, %d0
    0x10000268c:            81 c7 e0 08  ret
    0x100002690:            81 e8 20 00  restore   %g0, 0x0, %g0
    0x100002694:            80 a6 80 0a  cmp       %i2, %o2
    0x100002698:            12 40 00 0a  bne,pn    %icc, +0x28   <0x1000026c0>
    0x10000269c:            80 a4 a0 00  cmp       %l2, 0x0
    0x1000026a0:            26 40 00 05  bl,a,pn   %icc, +0x14   <0x1000026b4>
    0x1000026a4:            e1 1c 20 30  ldd       [%l0 + 0x30], %d16
    0x1000026a8:            81 a1 09 4e  fmuld     %d4, %d14, %d0
    0x1000026ac:            81 c7 e0 08  ret
    0x1000026b0:            81 e8 20 00  restore   %g0, 0x0, %g0
    0x1000026b4:            81 a3 89 50  fmuld     %d14, %d16, %d0
    0x1000026b8:            81 c7 e0 08  ret
    0x1000026bc:            81 e8 20 00  restore   %g0, 0x0, %g0
    0x1000026c0:            b7 3e 60 1f  sra       %i1, 0x1f, %i3
    0x1000026c4:            96 06 e0 01  add       %i3, 0x1, %o3
    0x1000026c8:            80 92 c0 1c  orcc      %o3, %i4, %g0
    0x1000026cc:            12 40 00 06  bne,pn    %icc, +0x18   <0x1000026e4>
    0x1000026d0:            80 a6 80 09  cmp       %i2, %o1
    0x1000026d4:            a5 a1 08 c4  fsubd     %d4, %d4, %d18
    0x1000026d8:            81 a4 89 d2  fdivd     %d18, %d18, %d0
    0x1000026dc:            81 c7 e0 08  ret
    0x1000026e0:            81 e8 20 00  restore   %g0, 0x0, %g0
    0x1000026e4:            16 40 00 39  bge,pn    %icc, +0xe4   <0x1000027c8>
    0x1000026e8:            98 10 20 d4  mov       0xd4, %o4
    0x1000026ec:            35 30 08 00  sethi     %hi(0xc0200000), %i2
    0x1000026f0:            b2 04 80 1a  add       %l2, %i2, %i1
    0x1000026f4:            98 16 40 1b  or        %i1, %i3, %o4
    0x1000026f8:            80 93 00 15  orcc      %o4, %l5, %g0
    0x1000026fc:            32 40 00 05  bne,a,pn  %icc, +0x14   <0x100002710>
    0x100002700:            f7 1c 20 38  ldd       [%l0 + 0x38], %d58
    0x100002704:            81 a0 05 44  fsqrtd    %d4, %d0
    0x100002708:            81 c7 e0 08  ret
    0x10000270c:            81 e8 20 00  restore   %g0, 0x0, %g0
    0x100002710:            89 a1 09 5b  fmuld     %d4, %d58, %d4
    0x100002714:            c9 23 a8 af  st        %f4, [%sp + 0x8af]
    0x100002718:            98 10 20 d4  mov       0xd4, %o4
    0x10000271c:            f9 1c 20 10  ldd       [%l0 + 0x10], %d28
    0x100002720:            f5 1c 20 20  ldd       [%l0 + 0x20], %d26
    0x100002724:            f1 1c 20 08  ldd       [%l0 + 0x8], %d24
    0x100002728:            ed 1c 20 18  ldd       [%l0 + 0x18], %d22
    0x10000272c:            e9 1c 20 28  ldd       [%l0 + 0x28], %d20
    0x100002730:            9c 03 a0 00  add       %sp, 0x0, %sp
    0x100002734:            9c 03 a0 00  add       %sp, 0x0, %sp
    0x100002738:            9c 03 a0 00  add       %sp, 0x0, %sp
    0x10000273c:            9c 03 a0 00  add       %sp, 0x0, %sp
    0x100002740:            f2 03 a8 af  ld        [%sp + 0x8af], %i1
    0x100002744:            b4 0e 40 08  and       %i1, %o0, %i2
    0x100002748:            ae 0e 80 05  and       %i2, %g5, %l7
    0x10000274c:            a6 06 80 0d  add       %i2, %o5, %l3
    0x100002750:            b1 3d e0 09  sra       %l7, 0x9, %i0
    0x100002754:            89 3c e0 14  sra       %l3, 0x14, %g4
    0x100002758:            92 0e 3f fc  and       %i0, -0x4, %o1
    0x10000275c:            af 3d e0 0b  sra       %l7, 0xb, %l7
    0x100002760:            9f 29 20 14  sll       %g4, 0x14, %o7
    0x100002764:            90 05 c0 09  add       %l7, %o1, %o0
    0x100002768:            9a 26 80 0f  sub       %i2, %o7, %o5
    0x10000276c:            da 23 a8 b7  st        %o5, [%sp + 0x8b7]
    0x100002770:            8b 3a 20 00  sra       %o0, 0x0, %g5
    0x100002774:            cb 23 a8 bb  st        %f5, [%sp + 0x8bb]
    0x100002778:            83 29 70 03  sllx      %g5, 0x3, %g1
    0x10000277c:            88 01 3f ca  add       %g4, -0x36, %g4
    0x100002780:            e1 1d 80 01  ldd       [%l6 + %g1], %d16
    0x100002784:            b0 00 40 16  add       %g1, %l6, %i0
    0x100002788:            cd 1e 20 08  ldd       [%i0 + 0x8], %d6
    0x10000278c:            fb 1e 20 10  ldd       [%i0 + 0x10], %d60
    0x100002790:            d9 1b a8 b7  ldd       [%sp + 0x8b7], %d12
    0x100002794:            91 a3 08 d0  fsubd     %d12, %d16, %d8
    0x100002798:            a5 a2 09 46  fmuld     %d8, %d6, %d18
    0x10000279c:            a1 a4 88 dd  fsubd     %d18, %d60, %d16
    0x1000027a0:            bd a4 08 5c  faddd     %d16, %d28, %d30
    0x1000027a4:            b7 a4 09 50  fmuld     %d16, %d16, %d58
    0x1000027a8:            95 a4 08 5a  faddd     %d16, %d26, %d10
    0x1000027ac:            bf a4 09 5e  fmuld     %d16, %d30, %d62
    0x1000027b0:            99 a4 09 4a  fmuld     %d16, %d10, %d12
    0x1000027b4:            91 a6 c9 58  fmuld     %d58, %d24, %d8
    0x1000027b8:            8d a7 c8 56  faddd     %d62, %d22, %d6
    0x1000027bc:            bb a3 08 54  faddd     %d12, %d20, %d60
    0x1000027c0:            b9 a2 09 46  fmuld     %d8, %d6, %d28
    0x1000027c4:            bb a7 09 5d  fmuld     %d28, %d60, %d60
    0x1000027c8:            17 10 3c 00  sethi     %hi(0x40f00000), %o3
    0x1000027cc:            b6 23 00 17  sub       %o4, %l7, %i3
    0x1000027d0:            95 36 f0 3f  srlx      %i3, 0x3f, %o2
    0x1000027d4:            80 a5 00 0b  cmp       %l4, %o3
    0x1000027d8:            06 40 00 67  bl,pn     %icc, +0x19c  <0x100002974>
    0x1000027dc:            ba 01 00 0a  add       %g4, %o2, %i5
    0x1000027e0:            80 a7 60 00  cmp       %i5, 0x0
    0x1000027e4:            12 40 00 58  bne,pn    %icc, +0x160  <0x100002944>
    0x1000027e8:            03 10 fc 00  sethi     %hi(0x43f00000), %g1
    0x1000027ec:            80 a5 00 01  cmp       %l4, %g1
    0x1000027f0:            16 40 00 55  bge,pn    %icc, +0x154  <0x100002944>
    0x1000027f4:            1f 30 04 17  sethi     %hi(0xc0105c00), %o7
    0x1000027f8:            11 00 00 22  sethi     %hi(0x8800), %o0
    0x1000027fc:            9a 03 e1 25  add       %o7, 0x125, %o5
    0x100002800:            8a 02 23 b7  add       %o0, 0x3b7, %g5
    0x100002804:            88 06 80 0d  add       %i2, %o5, %g4
    0x100002808:            80 a1 00 05  cmp       %g4, %g5
    0x10000280c:            18 40 00 4e  bgu,pn    %icc, +0x138  <0x100002944>
    0x100002810:            a8 06 a0 40  add       %i2, 0x40, %l4
    0x100002814:            13 0f fc 00  sethi     %hi(0x3ff00000), %o1
    0x100002818:            a4 0d 3f 80  and       %l4, -0x80, %l2
    0x10000281c:            80 a4 80 09  cmp       %l2, %o1
    0x100002820:            12 40 00 1c  bne,pn    %icc, +0x70   <0x100002890>
    0x100002824:            f5 1c 20 60  ldd       [%l0 + 0x60], %d26
    0x100002828:            cd 1c 63 60  ldd       [%l1 + 0x360], %d6
    0x10000282c:            d5 1c 20 50  ldd       [%l0 + 0x50], %d10
    0x100002830:            d1 1c 20 58  ldd       [%l0 + 0x58], %d8
    0x100002834:            a9 a1 08 c6  fsubd     %d4, %d6, %d20
    0x100002838:            fd 1c 20 70  ldd       [%l0 + 0x70], %d30
    0x10000283c:            e5 1c 20 68  ldd       [%l0 + 0x68], %d18
    0x100002840:            ed 1c 20 78  ldd       [%l0 + 0x78], %d22
    0x100002844:            bb a5 09 4a  fmuld     %d20, %d10, %d60
    0x100002848:            fb 3b a8 df  std       %d60, [%sp + 0x8df]
    0x10000284c:            b7 a5 09 48  fmuld     %d20, %d8, %d58
    0x100002850:            c0 23 a8 e3  clr       [%sp + 0x8e3]
    0x100002854:            b1 a7 48 5b  faddd     %d60, %d58, %d24
    0x100002858:            99 a6 08 5e  faddd     %d24, %d30, %d12
    0x10000285c:            a1 a6 09 58  fmuld     %d24, %d24, %d16
    0x100002860:            d5 1b a8 df  ldd       [%sp + 0x8df], %d10
    0x100002864:            b9 a6 08 52  faddd     %d24, %d18, %d28
    0x100002868:            8d a4 09 5a  fmuld     %d16, %d26, %d6
    0x10000286c:            bf a2 88 dd  fsubd     %d10, %d60, %d62
    0x100002870:            91 a6 09 4c  fmuld     %d24, %d12, %d8
    0x100002874:            bd a1 89 5c  fmuld     %d6, %d28, %d30
    0x100002878:            a9 a7 c8 db  fsubd     %d62, %d58, %d20
    0x10000287c:            bb a2 08 56  faddd     %d8, %d22, %d60
    0x100002880:            a5 a7 89 5d  fmuld     %d30, %d60, %d18
    0x100002884:            bf a4 88 d4  fsubd     %d18, %d20, %d62
    0x100002888:            10 80 00 65  ba        +0x194        <0x100002a1c>
    0x10000288c:            ed 1c 20 80  ldd       [%l0 + 0x80], %d22
    0x100002890:            1b 3f c0 10  sethi     %hi(0xff004000), %o5
    0x100002894:            89 3e a0 06  sra       %i2, 0x6, %g4
    0x100002898:            f7 1c 20 70  ldd       [%l0 + 0x70], %d58
    0x10000289c:            8a 03 61 75  add       %o5, 0x175, %g5
    0x1000028a0:            23 00 00 00  sethi     %hi(0x0), %l1
    0x1000028a4:            fd 1c 20 68  ldd       [%l0 + 0x68], %d30
    0x1000028a8:            98 01 00 05  add       %g4, %g5, %o4
    0x1000028ac:            82 14 60 01  or        %l1, 0x1, %g1
    0x1000028b0:            e9 1c 20 78  ldd       [%l0 + 0x78], %d20
    0x1000028b4:            b3 2b 20 02  sll       %o4, 0x2, %i1
    0x1000028b8:            37 00 00 20  sethi     %hi(0x8000), %i3
    0x1000028bc:            97 28 70 20  sllx      %g1, 0x20, %o3
    0x1000028c0:            94 03 00 19  add       %o4, %i1, %o2
    0x1000028c4:            ba 12 c0 1b  or        %o3, %i3, %i5
    0x1000028c8:            af 3a a0 00  sra       %o2, 0x0, %l7
    0x1000028cc:            b0 07 61 c0  add       %i5, 0x1c0, %i0
    0x1000028d0:            ad 2d f0 03  sllx      %l7, 0x3, %l6
    0x1000028d4:            d9 1d 80 18  ldd       [%l6 + %i0], %d12
    0x1000028d8:            aa 05 80 18  add       %l6, %i0, %l5
    0x1000028dc:            fb 1d 60 08  ldd       [%l5 + 0x8], %d60
    0x1000028e0:            e5 1d 60 10  ldd       [%l5 + 0x10], %d18
    0x1000028e4:            8d a1 08 cc  fsubd     %d4, %d12, %d6
    0x1000028e8:            f9 1d 60 18  ldd       [%l5 + 0x18], %d28
    0x1000028ec:            e1 1d 60 20  ldd       [%l5 + 0x20], %d16
    0x1000028f0:            ad a1 89 5d  fmuld     %d6, %d60, %d22
    0x1000028f4:            b1 a5 88 d2  fsubd     %d22, %d18, %d24
    0x1000028f8:            91 a7 08 56  faddd     %d28, %d22, %d8
    0x1000028fc:            d1 3b a8 df  std       %d8, [%sp + 0x8df]
    0x100002900:            c0 23 a8 e3  clr       [%sp + 0x8e3]
    0x100002904:            99 a6 08 5b  faddd     %d24, %d58, %d12
    0x100002908:            bf a6 09 58  fmuld     %d24, %d24, %d62
    0x10000290c:            91 a6 08 5e  faddd     %d24, %d30, %d8
    0x100002910:            bd a7 c9 5a  fmuld     %d62, %d26, %d30
    0x100002914:            bb a6 09 4c  fmuld     %d24, %d12, %d60
    0x100002918:            d5 1b a8 df  ldd       [%sp + 0x8df], %d10
    0x10000291c:            b5 a7 89 48  fmuld     %d30, %d8, %d26
    0x100002920:            8d a2 88 dc  fsubd     %d10, %d28, %d6
    0x100002924:            b9 a7 48 54  faddd     %d60, %d20, %d28
    0x100002928:            b7 a5 88 c6  fsubd     %d22, %d6, %d58
    0x10000292c:            bf a6 89 5c  fmuld     %d26, %d28, %d62
    0x100002930:            99 a4 88 db  fsubd     %d18, %d58, %d12
    0x100002934:            b1 a4 08 5f  faddd     %d16, %d62, %d24
    0x100002938:            bf a6 08 cc  fsubd     %d24, %d12, %d62
    0x10000293c:            10 80 00 38  ba        +0xe0         <0x100002a1c>
    0x100002940:            ed 1c 20 80  ldd       [%l0 + 0x80], %d22
    0x100002944:            80 9c c0 12  xorcc     %l3, %l2, %g0
    0x100002948:            06 40 00 06  bl,pn     %icc, +0x18   <0x100002960>
    0x10000294c:            d5 1c 20 40  ldd       [%l0 + 0x40], %d10
    0x100002950:            9d a2 89 4e  fmuld     %d10, %d14, %d14
    0x100002954:            81 a3 89 4a  fmuld     %d14, %d10, %d0
    0x100002958:            81 c7 e0 08  ret
    0x10000295c:            81 e8 20 00  restore   %g0, 0x0, %g0
    0x100002960:            d5 1c 20 48  ldd       [%l0 + 0x48], %d10
    0x100002964:            9d a2 89 4e  fmuld     %d10, %d14, %d14
    0x100002968:            81 a3 89 4a  fmuld     %d14, %d10, %d0
    0x10000296c:            81 c7 e0 08  ret
    0x100002970:            81 e8 20 00  restore   %g0, 0x0, %g0
    0x100002974:            fa 23 a8 ef  st        %i5, [%sp + 0x8ef]
    0x100002978:            80 a5 60 00  cmp       %l5, 0x0
    0x10000297c:            d5 1e 20 20  ldd       [%i0 + 0x20], %d10
    0x100002980:            f9 1e 20 18  ldd       [%i0 + 0x18], %d28
    0x100002984:            bd a7 48 4a  faddd     %d60, %d10, %d30
    0x100002988:            c5 03 a8 ef  ld        [%sp + 0x8ef], %f2
    0x10000298c:            bf a0 19 02  fitod     %f2, %d62
    0x100002990:            12 40 00 11  bne,pn    %icc, +0x44   <0x1000029d4>
    0x100002994:            95 a7 c8 5c  faddd     %d62, %d28, %d10
    0x100002998:            11 10 00 00  sethi     %hi(0x40000000), %o0
    0x10000299c:            80 a4 80 08  cmp       %l2, %o0
    0x1000029a0:            12 40 00 05  bne,pn    %icc, +0x14   <0x1000029b4>
    0x1000029a4:            1f 0f f8 00  sethi     %hi(0x3fe00000), %o7
    0x1000029a8:            81 a1 09 44  fmuld     %d4, %d4, %d0
    0x1000029ac:            81 c7 e0 08  ret
    0x1000029b0:            81 e8 20 00  restore   %g0, 0x0, %g0
    0x1000029b4:            80 a4 80 0f  cmp       %l2, %o7
    0x1000029b8:            12 40 00 07  bne,pn    %icc, +0x1c   <0x1000029d4>
    0x1000029bc:            80 a6 60 00  cmp       %i1, 0x0
    0x1000029c0:            04 40 00 06  ble,pn    %icc, +0x18   <0x1000029d8>
    0x1000029c4:            27 10 14 00  sethi     %hi(0x40500000), %l3
    0x1000029c8:            81 a0 05 44  fsqrtd    %d4, %d0
    0x1000029cc:            81 c7 e0 08  ret
    0x1000029d0:            81 e8 20 00  restore   %g0, 0x0, %g0
    0x1000029d4:            27 10 14 00  sethi     %hi(0x40500000), %l3
    0x1000029d8:            80 a5 00 13  cmp       %l4, %l3
    0x1000029dc:            36 40 00 05  bge,a,pn  %icc, +0x14   <0x1000029f0>
    0x1000029e0:            8d a2 88 52  faddd     %d10, %d18, %d6
    0x1000029e4:            bf a7 88 50  faddd     %d30, %d16, %d62
    0x1000029e8:            10 80 00 0d  ba        +0x34         <0x100002a1c>
    0x1000029ec:            ed 1c 20 80  ldd       [%l0 + 0x80], %d22
    0x1000029f0:            cd 3b a8 e7  std       %d6, [%sp + 0x8e7]
    0x1000029f4:            c0 23 a8 eb  clr       [%sp + 0x8eb]
    0x1000029f8:            f1 1e 20 10  ldd       [%i0 + 0x10], %d24
    0x1000029fc:            81 41 40 00  rd        %pc, %g0
    0x100002a00:            d1 1b a8 e7  ldd       [%sp + 0x8e7], %d8
    0x100002a04:            a1 a2 08 ca  fsubd     %d8, %d10, %d16
    0x100002a08:            95 a0 00 48  fmovd     %d8, %d10
    0x100002a0c:            a5 a4 88 d0  fsubd     %d18, %d16, %d18
    0x100002a10:            ad a6 08 d2  fsubd     %d24, %d18, %d22
    0x100002a14:            bf a7 88 d6  fsubd     %d30, %d22, %d62
    0x100002a18:            ed 1c 20 80  ldd       [%l0 + 0x80], %d22
    0x100002a1c:            c1 3b a8 ef  std       %d0, [%sp + 0x8ef]
    0x100002a20:            b7 a2 88 5f  faddd     %d10, %d62, %d58
    0x100002a24:            bb a0 09 56  fmuld     %d0, %d22, %d60
    0x100002a28:            25 00 00 00  sethi     %hi(0x0), %l2
    0x100002a2c:            c0 23 a8 f3  clr       [%sp + 0x8f3]
    0x100002a30:            b9 a0 09 5f  fmuld     %d0, %d62, %d28
    0x100002a34:            a2 14 a0 01  or        %l2, 0x1, %l1
    0x100002a38:            17 00 00 36  sethi     %hi(0xd800), %o3
    0x100002a3c:            f5 1c 20 88  ldd       [%l0 + 0x88], %d26
    0x100002a40:            99 2c 70 20  sllx      %l1, 0x20, %o4
    0x100002a44:            bb 2f 20 1f  sll       %i4, 0x1f, %i5
    0x100002a48:            94 13 00 0b  or        %o4, %o3, %o2
    0x100002a4c:            f1 1c 20 90  ldd       [%l0 + 0x90], %d24
    0x100002a50:            33 0f fc 00  sethi     %hi(0x3ff00000), %i1
    0x100002a54:            8d a6 c9 5d  fmuld     %d58, %d60, %d6
    0x100002a58:            b8 02 a1 40  add       %o2, 0x140, %i4
    0x100002a5c:            e9 1c 20 a0  ldd       [%l0 + 0xa0], %d20
    0x100002a60:            8a 10 23 ff  mov       0x3ff, %g5
    0x100002a64:            e5 1c 20 98  ldd       [%l0 + 0x98], %d18
    0x100002a68:            e1 1c 20 a8  ldd       [%l0 + 0xa8], %d16
    0x100002a6c:            9c 03 a0 00  add       %sp, 0x0, %sp
    0x100002a70:            9c 03 a0 00  add       %sp, 0x0, %sp
    0x100002a74:            9c 03 a0 00  add       %sp, 0x0, %sp
    0x100002a78:            ff 1b a8 ef  ldd       [%sp + 0x8ef], %d62
    0x100002a7c:            bd a0 08 df  fsubd     %d0, %d62, %d30
    0x100002a80:            ad a7 c9 4a  fmuld     %d62, %d10, %d22
    0x100002a84:            81 a0 1a 46  fdtoi     %d6, %f0
    0x100002a88:            c1 23 a8 f7  st        %f0, [%sp + 0x8f7]
    0x100002a8c:            91 a7 89 4a  fmuld     %d30, %d10, %d8
    0x100002a90:            95 a0 19 00  fitod     %f0, %d10
    0x100002a94:            bb a2 08 5c  faddd     %d8, %d28, %d60
    0x100002a98:            bf a2 89 5a  fmuld     %d10, %d26, %d62
    0x100002a9c:            9c 03 a0 00  add       %sp, 0x0, %sp
    0x100002aa0:            9c 03 a0 00  add       %sp, 0x0, %sp
    0x100002aa4:            9c 03 a0 00  add       %sp, 0x0, %sp
    0x100002aa8:            9c 03 a0 00  add       %sp, 0x0, %sp
    0x100002aac:            9c 03 a0 00  add       %sp, 0x0, %sp
    0x100002ab0:            d2 03 a8 f7  ld        [%sp + 0x8f7], %o1
    0x100002ab4:            90 0a 61 ff  and       %o1, 0x1ff, %o0
    0x100002ab8:            a5 3a 60 09  sra       %o1, 0x9, %l2
    0x100002abc:            bd a7 c8 d6  fsubd     %d62, %d22, %d30
    0x100002ac0:            89 2a 20 01  sll       %o0, 0x1, %g4
    0x100002ac4:            93 2c a0 14  sll       %l2, 0x14, %o1
    0x100002ac8:            83 39 20 00  sra       %g4, 0x0, %g1
    0x100002acc:            ae 02 40 19  add       %o1, %i1, %l7
    0x100002ad0:            b7 28 70 03  sllx      %g1, 0x3, %i3
    0x100002ad4:            ac 15 c0 1d  or        %l7, %i5, %l6
    0x100002ad8:            d9 1e c0 1c  ldd       [%i3 + %i4], %d12
    0x100002adc:            b0 06 c0 1c  add       %i3, %i4, %i0
    0x100002ae0:            b4 21 40 12  sub       %g5, %l2, %i2
    0x100002ae4:            95 a7 48 de  fsubd     %d60, %d30, %d10
    0x100002ae8:            f5 1e 20 08  ldd       [%i0 + 0x8], %d26
    0x100002aec:            a8 04 a3 fd  add       %l2, 0x3fd, %l4
    0x100002af0:            ab 2d b0 20  sllx      %l6, 0x20, %l5
    0x100002af4:            ea 73 a8 cf  stx       %l5, [%sp + 0x8cf]
    0x100002af8:            80 96 80 14  orcc      %i2, %l4, %g0
    0x100002afc:            b7 a3 09 58  fmuld     %d12, %d24, %d58
    0x100002b00:            91 a2 88 54  faddd     %d10, %d20, %d8
    0x100002b04:            8d a2 89 4a  fmuld     %d10, %d10, %d6
    0x100002b08:            b9 a6 c9 4a  fmuld     %d58, %d10, %d28
    0x100002b0c:            ad a1 88 52  faddd     %d6, %d18, %d22
    0x100002b10:            b1 a2 89 48  fmuld     %d10, %d8, %d24
    0x100002b14:            bd a7 09 56  fmuld     %d28, %d22, %d30
    0x100002b18:            bf a6 08 50  faddd     %d24, %d16, %d62
    0x100002b1c:            bb a7 89 5f  fmuld     %d30, %d62, %d60
    0x100002b20:            a9 a6 88 dd  fsubd     %d26, %d60, %d20
    0x100002b24:            b7 a3 08 d4  fsubd     %d12, %d20, %d58
    0x100002b28:            16 40 00 20  bge,pn    %icc, +0x80   <0x100002ba8>
    0x100002b2c:            f7 3b a8 c7  std       %d58, [%sp + 0x8c7]
    0x100002b30:            da 03 a8 c7  ld        [%sp + 0x8c7], %o5
    0x100002b34:            a7 3b 60 14  sra       %o5, 0x14, %l3
    0x100002b38:            9e 04 c0 12  add       %l3, %l2, %o7
    0x100002b3c:            80 a3 e0 00  cmp       %o7, 0x0
    0x100002b40:            14 40 00 10  bg,pn     %icc, +0x40   <0x100002b80>
    0x100002b44:            80 a3 ff ca  cmp       %o7, -0x36
    0x100002b48:            14 40 00 06  bg,pn     %icc, +0x18   <0x100002b60>
    0x100002b4c:            e5 1c 20 48  ldd       [%l0 + 0x48], %d18
    0x100002b50:            a9 a3 89 52  fmuld     %d14, %d18, %d20
    0x100002b54:            e9 3b a8 c7  std       %d20, [%sp + 0x8c7]
    0x100002b58:            10 80 00 15  ba        +0x54         <0x100002bac>
    0x100002b5c:            91 a0 00 52  fmovd     %d18, %d8
    0x100002b60:            e1 1c 20 b0  ldd       [%l0 + 0xb0], %d16
    0x100002b64:            ac 04 a0 64  add       %l2, 0x64, %l6
    0x100002b68:            ab 2d a0 14  sll       %l6, 0x14, %l5
    0x100002b6c:            a8 03 40 15  add       %o5, %l5, %l4
    0x100002b70:            e8 23 a8 c7  st        %l4, [%sp + 0x8c7]
    0x100002b74:            9d a3 89 50  fmuld     %d14, %d16, %d14
    0x100002b78:            10 80 00 0d  ba        +0x34         <0x100002bac>
    0x100002b7c:            91 a0 00 4e  fmovd     %d14, %d8
    0x100002b80:            80 a3 e7 ff  cmp       %o7, 0x7ff
    0x100002b84:            06 40 00 06  bl,pn     %icc, +0x18   <0x100002b9c>
    0x100002b88:            d5 1c 20 40  ldd       [%l0 + 0x40], %d10
    0x100002b8c:            99 a3 89 4a  fmuld     %d14, %d10, %d12
    0x100002b90:            d9 3b a8 c7  std       %d12, [%sp + 0x8c7]
    0x100002b94:            10 80 00 06  ba        +0x18         <0x100002bac>
    0x100002b98:            91 a0 00 4a  fmovd     %d10, %d8
    0x100002b9c:            dd 3b a8 cf  std       %d14, [%sp + 0x8cf]
    0x100002ba0:            ae 03 40 09  add       %o5, %o1, %l7
    0x100002ba4:            ee 23 a8 c7  st        %l7, [%sp + 0x8c7]
    0x100002ba8:            d1 1b a8 cf  ldd       [%sp + 0x8cf], %d8
    0x100002bac:            cd 1b a8 c7  ldd       [%sp + 0x8c7], %d6
    0x100002bb0:            81 a2 09 46  fmuld     %d8, %d6, %d0
    0x100002bb4:            81 c7 e0 08  ret
    0x100002bb8:            81 e8 20 00  restore   %g0, 0x0, %g0
    0x100002bbc:            80 95 00 15  orcc      %l4, %l5, %g0
    0x100002bc0:            22 40 00 82  be,a,pn   %icc, +0x208  <0x100002dc8>
    0x100002bc4:            c1 1c 63 60  ldd       [%l1 + 0x360], %d0
    0x100002bc8:            39 00 00 00  sethi     %hi(0x0), %i4
    0x100002bcc:            98 17 20 01  or        %i4, 0x1, %o4
    0x100002bd0:            b6 06 40 0d  add       %i1, %o5, %i3
    0x100002bd4:            39 00 04 40  sethi     %hi(0x110000), %i4
    0x100002bd8:            99 2b 30 20  sllx      %o4, 0x20, %o4
    0x100002bdc:            80 96 c0 0b  orcc      %i3, %o3, %g0
    0x100002be0:            12 40 00 09  bne,pn    %icc, +0x24   <0x100002c04>
    0x100002be4:            98 13 00 1c  or        %o4, %i4, %o4
    0x100002be8:            f6 03 20 e8  ld        [%o4 + 0xe8], %i3
    0x100002bec:            80 8e e0 80  btst      0x80, %i3
    0x100002bf0:            02 40 00 06  be,pn     %icc, +0x18   <0x100002c08>
    0x100002bf4:            37 0f fc 00  sethi     %hi(0x3ff00000), %i3
    0x100002bf8:            c1 1c 63 60  ldd       [%l1 + 0x360], %d0
    0x100002bfc:            81 c7 e0 08  ret
    0x100002c00:            81 e8 20 00  restore   %g0, 0x0, %g0
    0x100002c04:            37 0f fc 00  sethi     %hi(0x3ff00000), %i3
    0x100002c08:            80 a5 00 1b  cmp       %l4, %i3
    0x100002c0c:            12 40 00 0b  bne,pn    %icc, +0x2c   <0x100002c38>
    0x100002c10:            80 a4 a0 00  cmp       %l2, 0x0
    0x100002c14:            06 40 00 05  bl,pn     %icc, +0x14   <0x100002c28>
    0x100002c18:            e9 1c 63 60  ldd       [%l1 + 0x360], %d20
    0x100002c1c:            81 a1 09 54  fmuld     %d4, %d20, %d0
    0x100002c20:            81 c7 e0 08  ret
    0x100002c24:            81 e8 20 00  restore   %g0, 0x0, %g0
    0x100002c28:            ff 1c 63 60  ldd       [%l1 + 0x360], %d62
    0x100002c2c:            81 a7 c9 c4  fdivd     %d62, %d4, %d0
    0x100002c30:            81 c7 e0 08  ret
    0x100002c34:            81 e8 20 00  restore   %g0, 0x0, %g0
    0x100002c38:            9a 20 00 0b  neg       %o3, %o5
    0x100002c3c:            13 1f fc 00  sethi     %hi(0x7ff00000), %o1
    0x100002c40:            88 12 c0 0d  or        %o3, %o5, %g4
    0x100002c44:            8b 31 20 1f  srl       %g4, 0x1f, %g5
    0x100002c48:            90 16 80 05  or        %i2, %g5, %o0
    0x100002c4c:            80 a2 00 09  cmp       %o0, %o1
    0x100002c50:            38 40 00 5e  bgu,a,pn  %icc, +0x178  <0x100002dc8>
    0x100002c54:            81 a1 09 42  fmuld     %d4, %d2, %d0
    0x100002c58:            b0 20 00 15  neg       %l5, %i0
    0x100002c5c:            aa 15 40 18  or        %l5, %i0, %l5
    0x100002c60:            ad 35 60 1f  srl       %l5, 0x1f, %l6
    0x100002c64:            ae 15 00 16  or        %l4, %l6, %l7
    0x100002c68:            80 a5 c0 09  cmp       %l7, %o1
    0x100002c6c:            08 48 00 05  bleu,pt   %icc, +0x14   <0x100002c80>
    0x100002c70:            80 a5 00 09  cmp       %l4, %o1
    0x100002c74:            81 a1 09 42  fmuld     %d4, %d2, %d0
    0x100002c78:            81 c7 e0 08  ret
    0x100002c7c:            81 e8 20 00  restore   %g0, 0x0, %g0
    0x100002c80:            12 40 00 18  bne,pn    %icc, +0x60   <0x100002ce0>
    0x100002c84:            80 94 c0 0b  orcc      %l3, %o3, %g0
    0x100002c88:            12 40 00 09  bne,pn    %icc, +0x24   <0x100002cac>
    0x100002c8c:            80 a4 a0 00  cmp       %l2, 0x0
    0x100002c90:            e0 03 20 e8  ld        [%o4 + 0xe8], %l0
    0x100002c94:            80 8c 20 80  btst      0x80, %l0
    0x100002c98:            22 40 00 4c  be,a,pn   %icc, +0x130  <0x100002dc8>
    0x100002c9c:            81 a0 88 c2  fsubd     %d2, %d2, %d0
    0x100002ca0:            c1 1c 63 60  ldd       [%l1 + 0x360], %d0
    0x100002ca4:            81 c7 e0 08  ret
    0x100002ca8:            81 e8 20 00  restore   %g0, 0x0, %g0
    0x100002cac:            04 40 00 06  ble,pn    %icc, +0x18   <0x100002cc4>
    0x100002cb0:            80 a6 80 1b  cmp       %i2, %i3
    0x100002cb4:            26 40 00 02  bl,a,pn   %icc, +0x8    <0x100002cbc>
    0x100002cb8:            c1 1c 20 30  ldd       [%l0 + 0x30], %d0
    0x100002cbc:            81 c7 e0 08  ret
    0x100002cc0:            81 e8 20 00  restore   %g0, 0x0, %g0
    0x100002cc4:            06 40 00 04  bl,pn     %icc, +0x10   <0x100002cd4>
    0x100002cc8:            c1 1c 20 30  ldd       [%l0 + 0x30], %d0
    0x100002ccc:            81 c7 e0 08  ret
    0x100002cd0:            81 e8 20 00  restore   %g0, 0x0, %g0
    0x100002cd4:            81 a0 00 c2  fnegd     %d2, %d0
    0x100002cd8:            81 c7 e0 08  ret
    0x100002cdc:            81 e8 20 00  restore   %g0, 0x0, %g0
    0x100002ce0:            80 96 80 0b  orcc      %i2, %o3, %g0
    0x100002ce4:            12 40 00 0b  bne,pn    %icc, +0x2c   <0x100002d10>
    0x100002ce8:            80 a4 a0 00  cmp       %l2, 0x0
    0x100002cec:            06 40 00 04  bl,pn     %icc, +0x10   <0x100002cfc>
    0x100002cf0:            c1 1c 20 30  ldd       [%l0 + 0x30], %d0
    0x100002cf4:            81 c7 e0 08  ret
    0x100002cf8:            81 e8 20 00  restore   %g0, 0x0, %g0
    0x100002cfc:            ed 1c 63 60  ldd       [%l1 + 0x360], %d22
    0x100002d00:            f7 1c 20 30  ldd       [%l0 + 0x30], %d58
    0x100002d04:            81 a5 89 db  fdivd     %d22, %d58, %d0
    0x100002d08:            81 c7 e0 08  ret
    0x100002d0c:            81 e8 20 00  restore   %g0, 0x0, %g0
    0x100002d10:            80 a6 80 09  cmp       %i2, %o1
    0x100002d14:            12 40 00 09  bne,pn    %icc, +0x24   <0x100002d38>
    0x100002d18:            80 a4 a0 00  cmp       %l2, 0x0
    0x100002d1c:            26 40 00 05  bl,a,pn   %icc, +0x14   <0x100002d30>
    0x100002d20:            c1 1c 20 30  ldd       [%l0 + 0x30], %d0
    0x100002d24:            81 a1 09 44  fmuld     %d4, %d4, %d0
    0x100002d28:            81 c7 e0 08  ret
    0x100002d2c:            81 e8 20 00  restore   %g0, 0x0, %g0
    0x100002d30:            81 c7 e0 08  ret
    0x100002d34:            81 e8 20 00  restore   %g0, 0x0, %g0
    0x100002d38:            80 a6 60 00  cmp       %i1, 0x0
    0x100002d3c:            36 40 00 06  bge,a,pn  %icc, +0x18   <0x100002d54>
    0x100002d40:            95 a0 00 c2  fnegd     %d2, %d10
    0x100002d44:            b1 a1 08 c4  fsubd     %d4, %d4, %d24
    0x100002d48:            81 a6 09 d8  fdivd     %d24, %d24, %d0
    0x100002d4c:            81 c7 e0 08  ret
    0x100002d50:            81 e8 20 00  restore   %g0, 0x0, %g0
    0x100002d54:            dd 1c 63 60  ldd       [%l1 + 0x360], %d14
    0x100002d58:            80 a6 80 1b  cmp       %i2, %i3
    0x100002d5c:            95 aa e0 42  fmovdge   %icc, %d2, %d10
    0x100002d60:            81 a2 88 4e  faddd     %d10, %d14, %d0
    0x100002d64:            81 c7 e0 08  ret
    0x100002d68:            81 e8 20 00  restore   %g0, 0x0, %g0
    0x100002d6c:            37 1f ff ff  sethi     %hi(0x7ffffc00), %i3
    0x100002d70:            96 06 e3 ff  add       %i3, 0x3ff, %o3
    0x100002d74:            94 0c 80 0b  and       %l2, %o3, %o2
    0x100002d78:            80 92 80 15  orcc      %o2, %l5, %g0
    0x100002d7c:            12 40 00 04  bne,pn    %icc, +0x10   <0x100002d8c>
    0x100002d80:            c1 1c 63 60  ldd       [%l1 + 0x360], %d0
    0x100002d84:            81 c7 e0 08  ret
    0x100002d88:            81 e8 20 00  restore   %g0, 0x0, %g0
    0x100002d8c:            a2 20 00 15  neg       %l5, %l1
    0x100002d90:            33 1f fc 00  sethi     %hi(0x7ff00000), %i1
    0x100002d94:            96 15 40 11  or        %l5, %l1, %o3
    0x100002d98:            a7 32 e0 1f  srl       %o3, 0x1f, %l3
    0x100002d9c:            b4 12 80 13  or        %o2, %l3, %i2
    0x100002da0:            80 a6 80 19  cmp       %i2, %i1
    0x100002da4:            08 40 00 05  bleu,pn   %icc, +0x14   <0x100002db8>
    0x100002da8:            80 a4 a0 00  cmp       %l2, 0x0
    0x100002dac:            81 a0 89 42  fmuld     %d2, %d2, %d0
    0x100002db0:            81 c7 e0 08  ret
    0x100002db4:            81 e8 20 00  restore   %g0, 0x0, %g0
    0x100002db8:            16 40 00 03  bge,pn    %icc, +0xc    <0x100002dc4>
    0x100002dbc:            b9 a0 00 c2  fnegd     %d2, %d28
    0x100002dc0:            89 a7 09 c4  fdivd     %d28, %d4, %d4
    0x100002dc4:            81 a0 00 44  fmovd     %d4, %d0
    0x100002dc8:            81 c7 e0 08  ret
    0x100002dcc:            81 e8 20 00  restore   %g0, 0x0, %g0

section .init
_init()
    0x100002dd0:            9d e3 bf 50  save      %sp, -0xb0, %sp
    0x100002dd4:            01 00 00 00  nop
    0x100002dd8:            40 00 00 1c  call      +0x70         <0x100002e48>
    0x100002ddc:            01 00 00 00  nop
    0x100002de0:            9d e3 bf 50  save      %sp, -0xb0, %sp
    0x100002de4:            40 00 00 02  call      +0x8          <0x100002dec>
    0x100002de8:            01 00 00 00  nop
    0x100002dec:            d0 5b e0 24  ldx       [%o7 + 0x24], %o0
    0x100002df0:            90 03 c0 08  add       %o7, %o0, %o0
    0x100002df4:            ee 5a 3f f8  ldx       [%o0 - 0x8], %l7
    0x100002df8:            9f c5 c0 00  jmpl      %l7, %o7
    0x100002dfc:            01 00 00 00  nop
    0x100002e00:            81 c7 e0 08  ret
    0x100002e04:            81 e8 00 00  restore
    0x100002e08:            00 00 00 00  illtrap   0x0
    0x100002e0c:            00 10 d2 34  illtrap   0x10d234
    0x100002e10:            9d e3 bf 50  save      %sp, -0xb0, %sp
    0x100002e14:            40 00 00 02  call      +0x8          <0x100002e1c>
    0x100002e18:            01 00 00 00  nop
    0x100002e1c:            d0 5b e0 24  ldx       [%o7 + 0x24], %o0
    0x100002e20:            90 03 c0 08  add       %o7, %o0, %o0
    0x100002e24:            ee 5a 3f e8  ldx       [%o0 - 0x18], %l7
    0x100002e28:            9f c5 c0 00  jmpl      %l7, %o7
    0x100002e2c:            01 00 00 00  nop
    0x100002e30:            81 c7 e0 08  ret
    0x100002e34:            81 e8 00 00  restore
    0x100002e38:            00 00 00 00  illtrap   0x0
    0x100002e3c:            00 10 d2 04  illtrap   0x10d204
    0x100002e40:            00 00 00 00  illtrap   0x0
    0x100002e44:            00 10 d2 40  illtrap   0x10d240
    0x100002e48:            d0 5b e0 68  ldx       [%o7 + 0x68], %o0
    0x100002e4c:            90 03 c0 08  add       %o7, %o0, %o0
    0x100002e50:            e0 5a 3f f0  ldx       [%o0 - 0x10], %l0
    0x100002e54:            e2 5a 3f e0  ldx       [%o0 - 0x20], %l1
    0x100002e58:            e8 5a 3f c8  ldx       [%o0 - 0x38], %l4
    0x100002e5c:            e4 5a 3f d8  ldx       [%o0 - 0x28], %l2
    0x100002e60:            e6 5a 3f d0  ldx       [%o0 - 0x30], %l3
    0x100002e64:            ea 5a 3f c0  ldx       [%o0 - 0x40], %l5
    0x100002e68:            80 a4 00 00  cmp       %l0, %g0
    0x100002e6c:            02 80 00 0c  be        +0x30         <0x100002e9c>
    0x100002e70:            01 00 00 00  nop
    0x100002e74:            9f c4 00 00  jmpl      %l0, %o7
    0x100002e78:            01 00 00 00  nop
    0x100002e7c:            80 a4 80 00  cmp       %l2, %g0
    0x100002e80:            02 80 00 07  be        +0x1c         <0x100002e9c>
    0x100002e84:            01 00 00 00  nop
    0x100002e88:            80 a5 40 00  cmp       %l5, %g0
    0x100002e8c:            02 80 00 04  be        +0x10         <0x100002e9c>
    0x100002e90:            01 00 00 00  nop
    0x100002e94:            9f c5 40 00  jmpl      %l5, %o7
    0x100002e98:            90 14 c0 00  or        %l3, %g0, %o0
    0x100002e9c:            80 a4 40 00  cmp       %l1, %g0
    0x100002ea0:            02 80 00 0c  be        +0x30         <0x100002ed0>
    0x100002ea4:            01 00 00 00  nop
    0x100002ea8:            9f c4 40 00  jmpl      %l1, %o7
    0x100002eac:            01 00 00 00  nop
    0x100002eb0:            80 a4 80 00  cmp       %l2, %g0
    0x100002eb4:            02 80 00 07  be        +0x1c         <0x100002ed0>
    0x100002eb8:            01 00 00 00  nop
    0x100002ebc:            80 a5 40 00  cmp       %l5, %g0
    0x100002ec0:            02 80 00 04  be        +0x10         <0x100002ed0>
    0x100002ec4:            01 00 00 00  nop
    0x100002ec8:            9f c5 40 00  jmpl      %l5, %o7
    0x100002ecc:            90 15 00 00  or        %l4, %g0, %o0
    0x100002ed0:            81 c7 e0 08  ret
    0x100002ed4:            81 e8 00 00  restore

section .fini
_fini()
    0x100002ed8:            9d e3 bf 50  save      %sp, -0xb0, %sp
    0x100002edc:            01 00 00 00  nop
    0x100002ee0:            40 00 00 06  call      +0x18         <0x100002ef8>
    0x100002ee4:            01 00 00 00  nop
    0x100002ee8:            00 00 00 00  illtrap   0x0
    0x100002eec:            00 10 d1 70  illtrap   0x10d170
    0x100002ef0:            00 00 00 00  illtrap   0x0
    0x100002ef4:            00 10 d1 38  illtrap   0x10d138
    0x100002ef8:            d0 5b e0 08  ldx       [%o7 + 0x8], %o0
    0x100002efc:            90 03 c0 08  add       %o7, %o0, %o0
    0x100002f00:            ee 5b e0 10  ldx       [%o7 + 0x10], %l7
    0x100002f04:            ae 03 c0 17  add       %o7, %l7, %l7
    0x100002f08:            e0 5a 3f f8  ldx       [%o0 - 0x8], %l0
    0x100002f0c:            80 a4 00 00  cmp       %l0, %g0
    0x100002f10:            02 80 00 05  be        +0x14         <0x100002f24>
    0x100002f14:            01 00 00 00  nop
    0x100002f18:            d2 5a 20 08  ldx       [%o0 + 0x8], %o1
    0x100002f1c:            9f c4 00 00  jmpl      %l0, %o7
    0x100002f20:            d0 5a 00 00  ldx       [%o0], %o0
    0x100002f24:            e6 5d ff f8  ldx       [%l7 - 0x8], %l3
    0x100002f28:            e4 5d ff d8  ldx       [%l7 - 0x28], %l2
    0x100002f2c:            e0 5d ff e8  ldx       [%l7 - 0x18], %l0
    0x100002f30:            80 a4 80 00  cmp       %l2, %g0
    0x100002f34:            12 80 00 0c  bne       +0x30         <0x100002f64>
    0x100002f38:            01 00 00 00  nop
    0x100002f3c:            80 a4 c0 00  cmp       %l3, %g0
    0x100002f40:            02 80 00 04  be        +0x10         <0x100002f50>
    0x100002f44:            01 00 00 00  nop
    0x100002f48:            9f c4 c0 00  jmpl      %l3, %o7
    0x100002f4c:            90 15 c0 00  or        %l7, %g0, %o0
    0x100002f50:            80 a4 00 00  cmp       %l0, %g0
    0x100002f54:            02 80 00 04  be        +0x10         <0x100002f64>
    0x100002f58:            01 00 00 00  nop
    0x100002f5c:            9f c4 00 00  jmpl      %l0, %o7
    0x100002f60:            01 00 00 00  nop
    0x100002f64:            81 c7 e0 08  ret
    0x100002f68:            81 e8 00 00  restore
