disassembly for FFT


section .text
_start()
    0x100001bc0:            bc 10 20 00  clr       %fp
    0x100001bc4:            e0 5b a8 7f  ldx       [%sp + 0x87f], %l0
    0x100001bc8:            1b 00 00 00  sethi     %hi(0x0), %o5
    0x100001bcc:            9a 13 60 01  or        %o5, 0x1, %o5
    0x100001bd0:            9b 2b 70 20  sllx      %o5, 0x20, %o5
    0x100001bd4:            13 00 04 48  sethi     %hi(0x112000), %o1
    0x100001bd8:            92 12 40 0d  or        %o1, %o5, %o1
    0x100001bdc:            e0 22 61 70  st        %l0, [%o1 + 0x170]
    0x100001be0:            a2 03 a8 87  add       %sp, 0x887, %l1
    0x100001be4:            1b 00 00 00  sethi     %hi(0x0), %o5
    0x100001be8:            9a 13 60 01  or        %o5, 0x1, %o5
    0x100001bec:            9b 2b 70 20  sllx      %o5, 0x20, %o5
    0x100001bf0:            13 00 04 48  sethi     %hi(0x112000), %o1
    0x100001bf4:            92 12 40 0d  or        %o1, %o5, %o1
    0x100001bf8:            e2 72 61 68  stx       %l1, [%o1 + 0x168]
    0x100001bfc:            1b 00 00 00  sethi     %hi(0x0), %o5
    0x100001c00:            9a 13 60 01  or        %o5, 0x1, %o5
    0x100001c04:            9b 2b 70 20  sllx      %o5, 0x20, %o5
    0x100001c08:            13 00 04 45  sethi     %hi(0x111400), %o1
    0x100001c0c:            92 12 40 0d  or        %o1, %o5, %o1
    0x100001c10:            e2 72 60 60  stx       %l1, [%o1 + 0x60]
    0x100001c14:            a5 2c 20 03  sll       %l0, 0x3, %l2
    0x100001c18:            a4 04 a0 08  add       %l2, 0x8, %l2
    0x100001c1c:            a4 04 40 12  add       %l1, %l2, %l2
    0x100001c20:            1b 00 00 00  sethi     %hi(0x0), %o5
    0x100001c24:            9a 13 60 01  or        %o5, 0x1, %o5
    0x100001c28:            9b 2b 70 20  sllx      %o5, 0x20, %o5
    0x100001c2c:            27 00 04 45  sethi     %hi(0x111400), %l3
    0x100001c30:            a6 14 c0 0d  or        %l3, %o5, %l3
    0x100001c34:            e8 5c e0 38  ldx       [%l3 + 0x38], %l4
    0x100001c38:            80 a5 20 00  cmp       %l4, 0x0
    0x100001c3c:            12 80 00 03  bne       +0xc          <0x100001c48>
    0x100001c40:            01 00 00 00  nop
    0x100001c44:            e4 74 e0 38  stx       %l2, [%l3 + 0x38]
    0x100001c48:            2b 00 00 00  sethi     %hi(0x0), %l5
    0x100001c4c:            aa 15 60 01  or        %l5, 0x1, %l5
    0x100001c50:            80 90 00 15  tst       %l5
    0x100001c54:            02 80 00 15  be        +0x54         <0x100001ca8>
    0x100001c58:            01 00 00 00  nop
    0x100001c5c:            1b 00 00 00  sethi     %hi(0x0), %o5
    0x100001c60:            9a 13 60 01  or        %o5, 0x1, %o5
    0x100001c64:            9b 2b 70 20  sllx      %o5, 0x20, %o5
    0x100001c68:            29 00 04 45  sethi     %hi(0x111400), %l4
    0x100001c6c:            a8 15 00 0d  or        %l4, %o5, %l4
    0x100001c70:            ad 2d 60 02  sll       %l5, 0x2, %l6
    0x100001c74:            c1 2d 20 58  stx       %fsr, [%l4 + 0x58]
    0x100001c78:            ae 0d a3 00  and       %l6, 0x300, %l7
    0x100001c7c:            ac 0d 60 3f  and       %l5, 0x3f, %l6
    0x100001c80:            ac 15 80 17  or        %l6, %l7, %l6
    0x100001c84:            ab 2d a0 16  sll       %l6, 0x16, %l5
    0x100001c88:            ec 05 20 58  ld        [%l4 + 0x58], %l6
    0x100001c8c:            ae 20 00 17  neg       %l7
    0x100001c90:            af 3d e0 1f  sra       %l7, 0x1f, %l7
    0x100001c94:            af 2d e0 1e  sll       %l7, 0x1e, %l7
    0x100001c98:            ac 2d 80 17  andn      %l6, %l7, %l6
    0x100001c9c:            ac 15 80 15  or        %l6, %l5, %l6
    0x100001ca0:            ec 25 20 58  st        %l6, [%l4 + 0x58]
    0x100001ca4:            c1 0d 20 58  ldx       [%l4 + 0x58], %fsr
    0x100001ca8:            9c 23 a0 30  sub       %sp, 0x30, %sp
    0x100001cac:            80 90 00 01  tst       %g1
    0x100001cb0:            02 80 00 04  be        +0x10         <0x100001cc0>
    0x100001cb4:            01 00 00 00  nop
    0x100001cb8:            40 04 3c 72  call      +0x10f1c8     <0x100110e80>
    0x100001cbc:            90 10 00 01  mov       %g1, %o0
    0x100001cc0:            1b 00 00 00  sethi     %hi(0x0), %o5
    0x100001cc4:            9a 13 60 01  or        %o5, 0x1, %o5
    0x100001cc8:            9b 2b 70 20  sllx      %o5, 0x20, %o5
    0x100001ccc:            11 00 00 33  sethi     %hi(0xcc00), %o0
    0x100001cd0:            90 12 00 0d  or        %o0, %o5, %o0
    0x100001cd4:            40 04 3c 6b  call      +0x10f1ac     <0x100110e80>
    0x100001cd8:            90 12 21 00  or        %o0, 0x100, %o0
    0x100001cdc:            13 00 00 00  sethi     %hi(0x0), %o1
    0x100001ce0:            92 12 60 01  or        %o1, 0x1, %o1
    0x100001ce4:            93 2a 70 20  sllx      %o1, 0x20, %o1
    0x100001ce8:            11 00 04 45  sethi     %hi(0x111400), %o0
    0x100001cec:            90 12 00 09  or        %o0, %o1, %o0
    0x100001cf0:            d0 5a 20 68  ldx       [%o0 + 0x68], %o0
    0x100001cf4:            80 90 00 08  tst       %o0
    0x100001cf8:            12 80 00 0d  bne       +0x34         <0x100001d2c>
    0x100001cfc:            01 00 00 00  nop
    0x100001d00:            13 00 00 00  sethi     %hi(0x0), %o1
    0x100001d04:            92 12 60 01  or        %o1, 0x1, %o1
    0x100001d08:            93 2a 70 20  sllx      %o1, 0x20, %o1
    0x100001d0c:            11 00 04 45  sethi     %hi(0x111400), %o0
    0x100001d10:            90 12 00 09  or        %o0, %o1, %o0
    0x100001d14:            d0 5a 20 70  ldx       [%o0 + 0x70], %o0
    0x100001d18:            80 90 00 08  tst       %o0
    0x100001d1c:            02 80 00 04  be        +0x10         <0x100001d2c>
    0x100001d20:            01 00 00 00  nop
    0x100001d24:            40 04 3c 57  call      +0x10f15c     <0x100110e80>
    0x100001d28:            01 00 00 00  nop
    0x100001d2c:            40 00 2b f1  call      +0xafc4       <0x10000ccf0>
    0x100001d30:            01 00 00 00  nop
    0x100001d34:            90 10 00 10  mov       %l0, %o0
    0x100001d38:            92 10 00 11  mov       %l1, %o1
    0x100001d3c:            40 00 00 1f  call      +0x7c         <0x100001db8>
    0x100001d40:            94 10 00 12  mov       %l2, %o2
    0x100001d44:            40 04 3c 57  call      +0x10f15c     <0x100110ea0>
    0x100001d48:            01 00 00 00  nop
    0x100001d4c:            40 04 3c 5d  call      +0x10f174     <0x100110ec0>
    0x100001d50:            01 00 00 00  nop
    0x100001d54:            00 00 00 00  illtrap   0x0
    0x100001d58:            00 00 15 14  illtrap   0x1514
    0x100001d5c:            00 00 02 60  illtrap   0x260
    0x100001d60:            00 00 02 60  illtrap   0x260
    0x100001d64:            00 00 02 60  illtrap   0x260
    0x100001d68:            00 00 01 d0  illtrap   0x1d0
    0x100001d6c:            00 00 01 74  illtrap   0x174
    0x100001d70:            00 00 01 9c  illtrap   0x19c
    0x100001d74:            00 00 02 40  illtrap   0x240
    0x100001d78:            00 00 01 38  illtrap   0x138
    0x100001d7c:            00 00 02 60  illtrap   0x260
    0x100001d80:            00 00 02 60  illtrap   0x260
    0x100001d84:            00 00 01 f8  illtrap   0x1f8
    0x100001d88:            00 00 02 20  illtrap   0x220
    0x100001d8c:            00 00 00 01  illtrap   0x1
    0x100001d90:            3f f0 00 00  0x3ff00000
    0x100001d94:            00 00 00 00  illtrap   0x0
    0x100001d98:            3f 50 62 4d  fbo,a,pn  %fcc1, +0x18934 <0x10001a6cc>
    0x100001d9c:            d2 f1 a9 fc  stxa      %o1, [%g6 + 0x9fc] %asi
    0x100001da0:            00 00 00 00  illtrap   0x0
    0x100001da4:            00 00 00 00  illtrap   0x0
    0x100001da8:            00 00 00 00  illtrap   0x0
    0x100001dac:            00 00 00 00  illtrap   0x0
    0x100001db0:            40 19 21 ff  call      +0x6487fc     <0x10064a5ac>
    0x100001db4:            2e 48 e8 a7  bvs,a,pt  %icc, +0x3a29c <0x10003c050>
main()
    0x100001db8:            9d e3 bb 20  save      %sp, -0x4e0, %sp
    0x100001dbc:            90 07 a7 ef  add       %fp, 0x7ef, %o0
    0x100001dc0:            92 10 20 00  clr       %o1
    0x100001dc4:            af 3e 20 00  sra       %i0, 0x0, %l7
    0x100001dc8:            23 00 04 00  sethi     %hi(0x100000), %l1
    0x100001dcc:            25 00 04 00  sethi     %hi(0x100000), %l2
    0x100001dd0:            b4 14 61 12  or        %l1, 0x112, %i2
    0x100001dd4:            40 04 3c 43  call      +0x10f10c     <0x100110ee0>
    0x100001dd8:            b5 2e b0 0c  sllx      %i2, 0xc, %i2
    0x100001ddc:            07 00 04 00  sethi     %hi(0x100000), %g3
    0x100001de0:            84 10 e0 10  or        %g3, 0x10, %g2
    0x100001de4:            a1 28 b0 0c  sllx      %g2, 0xc, %l0
    0x100001de8:            b8 04 23 d8  add       %l0, 0x3d8, %i4
    0x100001dec:            94 10 00 1c  mov       %i4, %o2
    0x100001df0:            92 10 00 19  mov       %i1, %o1
    0x100001df4:            90 10 00 17  mov       %l7, %o0
    0x100001df8:            da 5f a7 ef  ldx       [%fp + 0x7ef], %o5
    0x100001dfc:            d6 5f a7 f7  ldx       [%fp + 0x7f7], %o3
    0x100001e00:            f8 73 a8 af  stx       %i4, [%sp + 0x8af]
    0x100001e04:            83 2b 70 05  sllx      %o5, 0x5, %g1
    0x100001e08:            a6 23 40 01  sub       %o5, %g1, %l3
    0x100001e0c:            ad 2c f0 09  sllx      %l3, 0x9, %l6
    0x100001e10:            a8 25 80 0d  sub       %l6, %o5, %l4
    0x100001e14:            ab 2d 30 06  sllx      %l4, 0x6, %l5
    0x100001e18:            9e 25 40 14  sub       %l5, %l4, %o7
    0x100001e1c:            98 23 40 0f  sub       %o5, %o7, %o4
    0x100001e20:            b8 02 c0 0c  add       %o3, %o4, %i4
    0x100001e24:            40 04 3c 37  call      +0x10f0dc     <0x100110f00>
    0x100001e28:            f8 73 a8 bf  stx       %i4, [%sp + 0x8bf]
    0x100001e2c:            13 00 04 00  sethi     %hi(0x100000), %o1
    0x100001e30:            8a 12 61 11  or        %o1, 0x111, %g5
    0x100001e34:            b1 29 70 0c  sllx      %g5, 0xc, %i0
    0x100001e38:            94 14 a1 11  or        %l2, 0x111, %o2
    0x100001e3c:            39 00 04 00  sethi     %hi(0x100000), %i4
    0x100001e40:            80 a2 3f ff  cmp       %o0, -0x1
    0x100001e44:            88 17 21 11  or        %i4, 0x111, %g4
    0x100001e48:            b7 2a b0 0c  sllx      %o2, 0xc, %i3
    0x100001e4c:            f0 73 a8 b7  stx       %i0, [%sp + 0x8b7]
    0x100001e50:            02 40 00 64  be,pn     %icc, +0x190  <0x100001fe0>
    0x100001e54:            ab 29 30 0c  sllx      %g4, 0xc, %l5
    0x100001e58:            88 22 20 68  sub       %o0, 0x68, %g4
    0x100001e5c:            97 31 20 00  srl       %g4, 0x0, %o3
    0x100001e60:            80 a2 e0 0c  cmp       %o3, 0xc
    0x100001e64:            18 40 00 55  bgu,pn    %icc, +0x154  <0x100001fb8>
    0x100001e68:            b9 2a e0 02  sll       %o3, 0x2, %i4
    0x100001e6c:            25 00 04 00  sethi     %hi(0x100000), %l2
    0x100001e70:            94 14 a0 01  or        %l2, 0x1, %o2
    0x100001e74:            91 2a b0 0c  sllx      %o2, 0xc, %o0
    0x100001e78:            88 02 2d 58  add       %o0, 0xd58, %g4
    0x100001e7c:            13 00 04 00  sethi     %hi(0x100000), %o1
    0x100001e80:            8a 12 61 12  or        %o1, 0x112, %g5
    0x100001e84:            fa 47 00 04  ldsw      [%i4 + %g4], %i5
    0x100001e88:            81 c7 40 04  jmp       %i5 + %g4
    0x100001e8c:            a9 29 70 0c  sllx      %g5, 0xc, %l4
    0x100001e90:            40 04 3c 24  call      +0x10f090     <0x100110f20>
    0x100001e94:            d0 5d 21 80  ldx       [%l4 + 0x180], %o0
    0x100001e98:            19 00 04 00  sethi     %hi(0x100000), %o4
    0x100001e9c:            ac 13 21 11  or        %o4, 0x111, %l6
    0x100001ea0:            80 a2 20 01  cmp       %o0, 0x1
    0x100001ea4:            b1 2d b0 0c  sllx      %l6, 0xc, %i0
    0x100001ea8:            06 40 04 c0  bl,pn     %icc, +0x1300 <0x1000031a8>
    0x100001eac:            d0 26 24 78  st        %o0, [%i0 + 0x478]
    0x100001eb0:            40 00 1f a4  call      +0x7e90       <0x100009d40>
    0x100001eb4:            01 00 00 00  nop
    0x100001eb8:            80 a2 3f ff  cmp       %o0, -0x1
    0x100001ebc:            02 40 04 c8  be,pn     %icc, +0x1320 <0x1000031dc>
    0x100001ec0:            01 00 00 00  nop
    0x100001ec4:            10 80 00 3e  ba        +0xf8         <0x100001fbc>
    0x100001ec8:            13 00 04 00  sethi     %hi(0x100000), %o1
    0x100001ecc:            40 04 3c 15  call      +0x10f054     <0x100110f20>
    0x100001ed0:            d0 5d 21 80  ldx       [%l4 + 0x180], %o0
    0x100001ed4:            bb 32 20 1f  srl       %o0, 0x1f, %i5
    0x100001ed8:            a0 02 00 1d  add       %o0, %i5, %l0
    0x100001edc:            9a 0c 3f fe  and       %l0, -0x2, %o5
    0x100001ee0:            80 a3 40 08  cmp       %o5, %o0
    0x100001ee4:            12 40 04 c7  bne,pn    %icc, +0x131c <0x100003200>
    0x100001ee8:            d0 25 64 7c  st        %o0, [%l5 + 0x47c]
    0x100001eec:            10 80 00 34  ba        +0xd0         <0x100001fbc>
    0x100001ef0:            13 00 04 00  sethi     %hi(0x100000), %o1
    0x100001ef4:            40 04 3c 0b  call      +0x10f02c     <0x100110f20>
    0x100001ef8:            d0 5d 21 80  ldx       [%l4 + 0x180], %o0
    0x100001efc:            d0 26 e4 ec  st        %o0, [%i3 + 0x4ec]
    0x100001f00:            31 00 04 00  sethi     %hi(0x100000), %i0
    0x100001f04:            84 16 21 11  or        %i0, 0x111, %g2
    0x100001f08:            c6 06 e4 ec  ld        [%i3 + 0x4ec], %g3
    0x100001f0c:            b9 28 b0 0c  sllx      %g2, 0xc, %i4
    0x100001f10:            d0 27 24 e8  st        %o0, [%i4 + 0x4e8]
    0x100001f14:            80 a0 e0 01  cmp       %g3, 0x1
    0x100001f18:            06 40 04 c3  bl,pn     %icc, +0x130c <0x100003224>
    0x100001f1c:            01 00 00 00  nop
    0x100001f20:            10 80 00 27  ba        +0x9c         <0x100001fbc>
    0x100001f24:            13 00 04 00  sethi     %hi(0x100000), %o1
    0x100001f28:            40 04 3b fe  call      +0x10eff8     <0x100110f20>
    0x100001f2c:            d0 5d 21 80  ldx       [%l4 + 0x180], %o0
    0x100001f30:            09 00 04 00  sethi     %hi(0x100000), %g4
    0x100001f34:            96 11 21 11  or        %g4, 0x111, %o3
    0x100001f38:            90 90 00 08  orcc      %g0, %o0, %o0
    0x100001f3c:            95 2a f0 0c  sllx      %o3, 0xc, %o2
    0x100001f40:            06 40 04 c2  bl,pn     %icc, +0x1308 <0x100003248>
    0x100001f44:            d0 22 a4 f0  st        %o0, [%o2 + 0x4f0]
    0x100001f48:            10 80 00 1d  ba        +0x74         <0x100001fbc>
    0x100001f4c:            13 00 04 00  sethi     %hi(0x100000), %o1
    0x100001f50:            1f 00 04 00  sethi     %hi(0x100000), %o7
    0x100001f54:            a2 13 e1 11  or        %o7, 0x111, %l1
    0x100001f58:            9b 2c 70 0c  sllx      %l1, 0xc, %o5
    0x100001f5c:            e6 03 64 88  ld        [%o5 + 0x488], %l3
    0x100001f60:            ba 20 00 13  neg       %l3, %i5
    0x100001f64:            a1 37 70 3f  srlx      %i5, 0x3f, %l0
    0x100001f68:            82 1c 20 01  xor       %l0, 0x1, %g1
    0x100001f6c:            c2 23 64 88  st        %g1, [%o5 + 0x488]
    0x100001f70:            10 80 00 13  ba        +0x4c         <0x100001fbc>
    0x100001f74:            13 00 04 00  sethi     %hi(0x100000), %o1
    0x100001f78:            de 5b a8 b7  ldx       [%sp + 0x8b7], %o7
    0x100001f7c:            f0 03 e4 80  ld        [%o7 + 0x480], %i0
    0x100001f80:            84 20 00 18  neg       %i0, %g2
    0x100001f84:            b9 30 b0 3f  srlx      %g2, 0x3f, %i4
    0x100001f88:            86 1f 20 01  xor       %i4, 0x1, %g3
    0x100001f8c:            c6 23 e4 80  st        %g3, [%o7 + 0x480]
    0x100001f90:            10 80 00 0b  ba        +0x2c         <0x100001fbc>
    0x100001f94:            13 00 04 00  sethi     %hi(0x100000), %o1
    0x100001f98:            11 00 04 00  sethi     %hi(0x100000), %o0
    0x100001f9c:            88 12 21 11  or        %o0, 0x111, %g4
    0x100001fa0:            99 29 30 0c  sllx      %g4, 0xc, %o4
    0x100001fa4:            d6 03 24 84  ld        [%o4 + 0x484], %o3
    0x100001fa8:            94 20 00 0b  neg       %o3, %o2
    0x100001fac:            a9 32 b0 3f  srlx      %o2, 0x3f, %l4
    0x100001fb0:            ac 1d 20 01  xor       %l4, 0x1, %l6
    0x100001fb4:            ec 23 24 84  st        %l6, [%o4 + 0x484]
    0x100001fb8:            13 00 04 00  sethi     %hi(0x100000), %o1
    0x100001fbc:            8a 12 60 10  or        %o1, 0x10, %g5
    0x100001fc0:            a5 29 70 0c  sllx      %g5, 0xc, %l2
    0x100001fc4:            94 04 a6 80  add       %l2, 0x680, %o2
    0x100001fc8:            92 10 00 19  mov       %i1, %o1
    0x100001fcc:            40 04 3b cd  call      +0x10ef34     <0x100110f00>
    0x100001fd0:            90 10 00 17  mov       %l7, %o0
    0x100001fd4:            80 a2 3f ff  cmp       %o0, -0x1
    0x100001fd8:            12 4f ff a1  bne,pt    %icc, -0x17c  <0x100001e5c>
    0x100001fdc:            88 22 20 68  sub       %o0, 0x68, %g4
    0x100001fe0:            ec 05 64 7c  ld        [%l5 + 0x47c], %l6
    0x100001fe4:            a6 10 20 01  mov       0x1, %l3
    0x100001fe8:            15 00 04 00  sethi     %hi(0x100000), %o2
    0x100001fec:            99 35 a0 1f  srl       %l6, 0x1f, %o4
    0x100001ff0:            b0 05 80 0c  add       %l6, %o4, %i0
    0x100001ff4:            85 3e 20 01  sra       %i0, 0x1, %g2
    0x100001ff8:            a3 2c c0 02  sll       %l3, %g2, %l1
    0x100001ffc:            e2 26 a0 c0  st        %l1, [%i2 + 0xc0]
    0x100002000:            a8 12 a1 11  or        %o2, 0x111, %l4
    0x100002004:            a9 2d 30 0c  sllx      %l4, 0xc, %l4
    0x100002008:            de 05 24 78  ld        [%l4 + 0x478], %o7
    0x10000200c:            e8 73 a8 cf  stx       %l4, [%sp + 0x8cf]
    0x100002010:            87 3c 60 1f  sra       %l1, 0x1f, %g3
    0x100002014:            81 80 e0 00  wr        %g3, 0x0, %y
    0x100002018:            a2 fc 40 0f  sdivcc    %l1, %o7, %l1
    0x10000201c:            a1 2c c0 16  sll       %l3, %l6, %l0
    0x100002020:            1e 40 00 03  bvc,pn    %icc, +0xc    <0x10000202c>
    0x100002024:            27 00 04 00  sethi     %hi(0x100000), %l3
    0x100002028:            23 20 00 00  sethi     %hi(0x80000000), %l1
    0x10000202c:            ba 14 e1 11  or        %l3, 0x111, %i5
    0x100002030:            a5 2f 70 0c  sllx      %i5, 0xc, %l2
    0x100002034:            1b 00 04 00  sethi     %hi(0x100000), %o5
    0x100002038:            82 13 61 12  or        %o5, 0x112, %g1
    0x10000203c:            e0 24 a6 a0  st        %l0, [%l2 + 0x6a0]
    0x100002040:            e4 73 a8 df  stx       %l2, [%sp + 0x8df]
    0x100002044:            a5 28 70 0c  sllx      %g1, 0xc, %l2
    0x100002048:            80 a4 60 00  cmp       %l1, 0x0
    0x10000204c:            e2 24 a1 78  st        %l1, [%l2 + 0x178]
    0x100002050:            02 40 04 d0  be,pn     %icc, +0x1340 <0x100003390>
    0x100002054:            21 00 04 00  sethi     %hi(0x100000), %l0
    0x100002058:            1f 00 04 00  sethi     %hi(0x100000), %o7
    0x10000205c:            ba 13 e1 11  or        %o7, 0x111, %i5
    0x100002060:            83 2f 70 0c  sllx      %i5, 0xc, %g1
    0x100002064:            9a 14 21 12  or        %l0, 0x112, %o5
    0x100002068:            d2 00 64 f0  ld        [%g1 + 0x4f0], %o1
    0x10000206c:            82 10 20 01  mov       0x1, %g1
    0x100002070:            af 2b 70 0c  sllx      %o5, 0xc, %l7
    0x100002074:            8b 28 40 09  sll       %g1, %o1, %g5
    0x100002078:            b3 39 60 00  sra       %g5, 0x0, %i1
    0x10000207c:            80 a6 60 10  cmp       %i1, 0x10
    0x100002080:            1a 60 00 19  bcc,pn    %xcc, +0x64   <0x1000020e4>
    0x100002084:            ca 25 e1 5c  st        %g5, [%l7 + 0x15c]
    0x100002088:            ea 5b a8 af  ldx       [%sp + 0x8af], %l5
    0x10000208c:            92 10 20 10  mov       0x10, %o1
    0x100002090:            40 04 3b ac  call      +0x10eeb0     <0x100110f40>
    0x100002094:            90 05 62 b8  add       %l5, 0x2b8, %o0
    0x100002098:            40 04 3b aa  call      +0x10eea8     <0x100110f40>
    0x10000209c:            90 05 62 f0  add       %l5, 0x2f0, %o0
    0x1000020a0:            40 04 3b a8  call      +0x10eea0     <0x100110f40>
    0x1000020a4:            90 05 63 20  add       %l5, 0x320, %o0
    0x1000020a8:            d4 05 e1 5c  ld        [%l7 + 0x15c], %o2
    0x1000020ac:            e2 04 a1 78  ld        [%l2 + 0x178], %l1
    0x1000020b0:            a8 10 20 10  mov       0x10, %l4
    0x1000020b4:            b3 3a a0 00  sra       %o2, 0x0, %i1
    0x1000020b8:            84 6d 00 19  udivx     %l4, %i1, %g2
    0x1000020bc:            19 00 04 00  sethi     %hi(0x100000), %o4
    0x1000020c0:            aa 13 21 11  or        %o4, 0x111, %l5
    0x1000020c4:            ad 2d 70 0c  sllx      %l5, 0xc, %l6
    0x1000020c8:            c6 05 a4 e8  ld        [%l6 + 0x4e8], %g3
    0x1000020cc:            b1 38 e0 1f  sra       %g3, 0x1f, %i0
    0x1000020d0:            81 86 20 00  wr        %i0, 0x0, %y
    0x1000020d4:            a6 f8 c0 02  sdivcc    %g3, %g2, %l3
    0x1000020d8:            2e 48 00 02  bvs,a,pt  %icc, +0x8    <0x1000020e0>
    0x1000020dc:            27 20 00 00  sethi     %hi(0x80000000), %l3
    0x1000020e0:            e6 26 e4 ec  st        %l3, [%i3 + 0x4ec]
    0x1000020e4:            03 00 04 00  sethi     %hi(0x100000), %g1
    0x1000020e8:            a1 36 70 04  srlx      %i1, 0x4, %l0
    0x1000020ec:            92 10 61 12  or        %g1, 0x112, %o1
    0x1000020f0:            80 a6 60 10  cmp       %i1, 0x10
    0x1000020f4:            b3 2a 70 0c  sllx      %o1, 0xc, %i1
    0x1000020f8:            91 3c 60 00  sra       %l1, 0x0, %o0
    0x1000020fc:            b9 3c 20 00  sra       %l0, 0x0, %i4
    0x100002100:            9a 10 20 01  mov       0x1, %o5
    0x100002104:            b9 65 10 0d  movleu    %xcc, %o5, %i4
    0x100002108:            ca 06 a0 c0  ld        [%i2 + 0xc0], %g5
    0x10000210c:            21 00 00 04  sethi     %hi(0x1000), %l0
    0x100002110:            f2 73 a8 c7  stx       %i1, [%sp + 0x8c7]
    0x100002114:            af 29 60 01  sll       %g5, 0x1, %l7
    0x100002118:            b2 4d c0 11  mulx      %l7, %l1, %i1
    0x10000211c:            a3 3e 60 00  sra       %i1, 0x0, %l1
    0x100002120:            97 2c 70 03  sllx      %l1, 0x3, %o3
    0x100002124:            80 a2 c0 10  cmp       %o3, %l0
    0x100002128:            0a 60 00 14  bcs,pn    %xcc, +0x50   <0x100002178>
    0x10000212c:            89 2a 30 04  sllx      %o0, 0x4, %g4
    0x100002130:            a9 2f 20 01  sll       %i4, 0x1, %l4
    0x100002134:            99 3d 20 00  sra       %l4, 0x0, %o4
    0x100002138:            ab 2b 30 03  sllx      %o4, 0x3, %l5
    0x10000213c:            b6 4d 40 08  mulx      %l5, %o0, %i3
    0x100002140:            ad 36 f0 0c  srlx      %i3, 0xc, %l6
    0x100002144:            b1 3d a0 00  sra       %l6, 0x0, %i0
    0x100002148:            85 2e 20 0c  sll       %i0, 0xc, %g2
    0x10000214c:            86 06 20 01  add       %i0, 0x1, %g3
    0x100002150:            f0 5b a8 c7  ldx       [%sp + 0x8c7], %i0
    0x100002154:            9f 38 a0 00  sra       %g2, 0x0, %o7
    0x100002158:            a7 28 e0 0c  sll       %g3, 0xc, %l3
    0x10000215c:            a5 3c e0 00  sra       %l3, 0x0, %l2
    0x100002160:            80 a3 c0 1b  cmp       %o7, %i3
    0x100002164:            9f 66 50 12  movne     %xcc, %l2, %o7
    0x100002168:            ba 6b c0 04  udivx     %o7, %g4, %i5
    0x10000216c:            fa 26 21 74  st        %i5, [%i0 + 0x174]
    0x100002170:            10 80 00 0b  ba        +0x2c         <0x10000219c>
    0x100002174:            90 10 20 80  mov       0x80, %o0
    0x100002178:            c4 5b a8 c7  ldx       [%sp + 0x8c7], %g2
    0x10000217c:            94 24 00 0b  sub       %l0, %o3, %o2
    0x100002180:            90 6a 80 04  udivx     %o2, %g4, %o0
    0x100002184:            97 3a 20 00  sra       %o0, 0x0, %o3
    0x100002188:            88 4a c0 04  mulx      %o3, %g4, %g4
    0x10000218c:            80 a1 00 0a  cmp       %g4, %o2
    0x100002190:            12 60 04 8a  bne,pn    %xcc, +0x1228 <0x1000033b8>
    0x100002194:            d0 20 a1 74  st        %o0, [%g2 + 0x174]
    0x100002198:            90 10 20 80  mov       0x80, %o0
    0x10000219c:            29 00 04 00  sethi     %hi(0x100000), %l4
    0x1000021a0:            40 04 3b 70  call      +0x10edc0     <0x100110f60>
    0x1000021a4:            33 00 04 00  sethi     %hi(0x100000), %i1
    0x1000021a8:            ee 5b a8 c7  ldx       [%sp + 0x8c7], %l7
    0x1000021ac:            da 06 a0 c0  ld        [%i2 + 0xc0], %o5
    0x1000021b0:            b8 16 61 12  or        %i1, 0x112, %i4
    0x1000021b4:            e2 05 e1 74  ld        [%l7 + 0x174], %l1
    0x1000021b8:            b3 2f 30 0c  sllx      %i4, 0xc, %i1
    0x1000021bc:            d0 76 61 60  stx       %o0, [%i1 + 0x160]
    0x1000021c0:            91 3c 60 00  sra       %l1, 0x0, %o0
    0x1000021c4:            83 3b 60 00  sra       %o5, 0x0, %g1
    0x1000021c8:            92 48 40 08  mulx      %g1, %o0, %o1
    0x1000021cc:            fa 5b a8 df  ldx       [%sp + 0x8df], %i5
    0x1000021d0:            ca 07 66 a0  ld        [%i5 + 0x6a0], %g5
    0x1000021d4:            96 01 40 09  add       %g5, %o1, %o3
    0x1000021d8:            95 2a e0 01  sll       %o3, 0x1, %o2
    0x1000021dc:            89 3a a0 00  sra       %o2, 0x0, %g4
    0x1000021e0:            b7 29 30 03  sllx      %g4, 0x3, %i3
    0x1000021e4:            40 04 3b 5f  call      +0x10ed7c     <0x100110f60>
    0x1000021e8:            90 06 c0 10  add       %i3, %l0, %o0
    0x1000021ec:            ea 05 e1 74  ld        [%l7 + 0x174], %l5
    0x1000021f0:            ec 06 a0 c0  ld        [%i2 + 0xc0], %l6
    0x1000021f4:            98 15 21 11  or        %l4, 0x111, %o4
    0x1000021f8:            85 3d 60 00  sra       %l5, 0x0, %g2
    0x1000021fc:            b1 3d a0 00  sra       %l6, 0x0, %i0
    0x100002200:            86 4e 00 02  mulx      %i0, %g2, %g3
    0x100002204:            89 2b 30 0c  sllx      %o4, 0xc, %g4
    0x100002208:            e4 07 66 a0  ld        [%i5 + 0x6a0], %l2
    0x10000220c:            c8 73 a8 d7  stx       %g4, [%sp + 0x8d7]
    0x100002210:            d0 71 26 a8  stx       %o0, [%g4 + 0x6a8]
    0x100002214:            a6 04 80 03  add       %l2, %g3, %l3
    0x100002218:            9f 2c e0 01  sll       %l3, 0x1, %o7
    0x10000221c:            b9 3b e0 00  sra       %o7, 0x0, %i4
    0x100002220:            a3 2f 30 03  sllx      %i4, 0x3, %l1
    0x100002224:            40 04 3b 4f  call      +0x10ed3c     <0x100110f60>
    0x100002228:            90 04 40 10  add       %l1, %l0, %o0
    0x10000222c:            1b 00 04 00  sethi     %hi(0x100000), %o5
    0x100002230:            82 13 61 12  or        %o5, 0x112, %g1
    0x100002234:            a3 28 70 0c  sllx      %g1, 0xc, %l1
    0x100002238:            d0 74 60 c8  stx       %o0, [%l1 + 0xc8]
    0x10000223c:            d0 06 a0 c0  ld        [%i2 + 0xc0], %o0
    0x100002240:            93 2a 20 01  sll       %o0, 0x1, %o1
    0x100002244:            8b 3a 60 00  sra       %o1, 0x0, %g5
    0x100002248:            40 04 3b 46  call      +0x10ed18     <0x100110f60>
    0x10000224c:            91 29 70 03  sllx      %g5, 0x3, %o0
    0x100002250:            d6 05 e1 74  ld        [%l7 + 0x174], %o3
    0x100002254:            c8 06 a0 c0  ld        [%i2 + 0xc0], %g4
    0x100002258:            fa 07 66 a0  ld        [%i5 + 0x6a0], %i5
    0x10000225c:            b7 3a e0 00  sra       %o3, 0x0, %i3
    0x100002260:            a9 39 20 00  sra       %g4, 0x0, %l4
    0x100002264:            98 4d 00 1b  mulx      %l4, %i3, %o4
    0x100002268:            2f 00 04 00  sethi     %hi(0x100000), %l7
    0x10000226c:            aa 07 40 0c  add       %i5, %o4, %l5
    0x100002270:            94 15 e1 12  or        %l7, 0x112, %o2
    0x100002274:            ad 2d 60 01  sll       %l5, 0x1, %l6
    0x100002278:            b9 2a b0 0c  sllx      %o2, 0xc, %i4
    0x10000227c:            b1 3d a0 00  sra       %l6, 0x0, %i0
    0x100002280:            85 2e 30 03  sllx      %i0, 0x3, %g2
    0x100002284:            d0 77 20 d0  stx       %o0, [%i4 + 0xd0]
    0x100002288:            40 04 3b 36  call      +0x10ecd8     <0x100110f60>
    0x10000228c:            90 00 80 10  add       %g2, %l0, %o0
    0x100002290:            ec 5b a8 cf  ldx       [%sp + 0x8cf], %l6
    0x100002294:            07 00 04 00  sethi     %hi(0x100000), %g3
    0x100002298:            a6 10 e1 12  or        %g3, 0x112, %l3
    0x10000229c:            e4 05 a4 78  ld        [%l6 + 0x478], %l2
    0x1000022a0:            87 2c f0 0c  sllx      %l3, 0xc, %g3
    0x1000022a4:            d0 70 e1 88  stx       %o0, [%g3 + 0x188]
    0x1000022a8:            9f 3c a0 00  sra       %l2, 0x0, %o7
    0x1000022ac:            91 2b f0 02  sllx      %o7, 0x2, %o0
    0x1000022b0:            c6 73 a8 e7  stx       %g3, [%sp + 0x8e7]
    0x1000022b4:            40 04 3b 2b  call      +0x10ecac     <0x100110f60>
    0x1000022b8:            01 00 00 00  nop
    0x1000022bc:            da 05 a4 78  ld        [%l6 + 0x478], %o5
    0x1000022c0:            c2 5e 61 60  ldx       [%i1 + 0x160], %g1
    0x1000022c4:            93 3b 60 00  sra       %o5, 0x0, %o1
    0x1000022c8:            d0 70 60 58  stx       %o0, [%g1 + 0x58]
    0x1000022cc:            40 04 3b 25  call      +0x10ec94     <0x100110f60>
    0x1000022d0:            91 2a 70 02  sllx      %o1, 0x2, %o0
    0x1000022d4:            ca 5e 61 60  ldx       [%i1 + 0x160], %g5
    0x1000022d8:            ae 10 00 05  mov       %g5, %l7
    0x1000022dc:            02 c5 c4 40  brz,pn    %l7, +0x1100  <0x1000033dc>
    0x1000022e0:            d0 71 60 60  stx       %o0, [%g5 + 0x60]
    0x1000022e4:            ca 5b a8 d7  ldx       [%sp + 0x8d7], %g5
    0x1000022e8:            e6 59 66 a8  ldx       [%g5 + 0x6a8], %l3
    0x1000022ec:            02 c4 c4 46  brz,pn    %l3, +0x1118  <0x100003404>
    0x1000022f0:            f0 5c 60 c8  ldx       [%l1 + 0xc8], %i0
    0x1000022f4:            02 c6 04 4d  brz,pn    %i0, +0x1134  <0x100003428>
    0x1000022f8:            e8 5f 20 d0  ldx       [%i4 + 0xd0], %l4
    0x1000022fc:            02 c5 04 54  brz,pn    %l4, +0x1150  <0x10000344c>
    0x100002300:            d2 5b a8 e7  ldx       [%sp + 0x8e7], %o1
    0x100002304:            d6 5a 61 88  ldx       [%o1 + 0x188], %o3
    0x100002308:            02 c2 c4 5a  brz,pn    %o3, +0x1168  <0x100003470>
    0x10000230c:            92 10 20 00  clr       %o1
    0x100002310:            d4 5b a8 e7  ldx       [%sp + 0x8e7], %o2
    0x100002314:            d0 5b a8 d7  ldx       [%sp + 0x8d7], %o0
    0x100002318:            c4 5c 60 c8  ldx       [%l1 + 0xc8], %g2
    0x10000231c:            ea 5a a1 88  ldx       [%o2 + 0x188], %l5
    0x100002320:            ee 5a 26 a8  ldx       [%o0 + 0x6a8], %l7
    0x100002324:            a4 00 80 10  add       %g2, %l0, %l2
    0x100002328:            b0 05 40 10  add       %l5, %l0, %i0
    0x10000232c:            86 08 af ff  and       %g2, 0xfff, %g3
    0x100002330:            ac 0d 6f ff  and       %l5, 0xfff, %l6
    0x100002334:            a0 05 c0 10  add       %l7, %l0, %l0
    0x100002338:            ba 0d ef ff  and       %l7, 0xfff, %i5
    0x10000233c:            9e 26 00 16  sub       %i0, %l6, %o7
    0x100002340:            c2 5e 61 60  ldx       [%i1 + 0x160], %g1
    0x100002344:            de 72 a1 88  stx       %o7, [%o2 + 0x188]
    0x100002348:            a6 24 80 03  sub       %l2, %g3, %l3
    0x10000234c:            e6 74 60 c8  stx       %l3, [%l1 + 0xc8]
    0x100002350:            9a 24 00 1d  sub       %l0, %i5, %o5
    0x100002354:            da 72 26 a8  stx       %o5, [%o0 + 0x6a8]
    0x100002358:            40 04 3b 0a  call      +0x10ec28     <0x100110f80>
    0x10000235c:            90 00 60 20  add       %g1, 0x20, %o0
    0x100002360:            0a c2 04 4d  brnz,pn   %o0, +0x1134  <0x100003494>
    0x100002364:            c8 5e 61 60  ldx       [%i1 + 0x160], %g4
    0x100002368:            92 10 20 00  clr       %o1
    0x10000236c:            40 04 3b 0d  call      +0x10ec34     <0x100110fa0>
    0x100002370:            90 01 20 38  add       %g4, 0x38, %o0
    0x100002374:            0a c2 04 51  brnz,pn   %o0, +0x1144  <0x1000034b8>
    0x100002378:            d4 5e 61 60  ldx       [%i1 + 0x160], %o2
    0x10000237c:            c0 72 a0 48  clrx      [%o2 + 0x48]
    0x100002380:            c0 72 a0 50  clrx      [%o2 + 0x50]
    0x100002384:            90 02 a0 08  add       %o2, 0x8, %o0
    0x100002388:            40 04 3a fe  call      +0x10ebf8     <0x100110f80>
    0x10000238c:            92 10 20 00  clr       %o1
    0x100002390:            d6 5b a8 d7  ldx       [%sp + 0x8d7], %o3
    0x100002394:            da 5e 61 60  ldx       [%i1 + 0x160], %o5
    0x100002398:            90 10 20 00  clr       %o0
    0x10000239c:            e2 5a e6 a8  ldx       [%o3 + 0x6a8], %l1
    0x1000023a0:            40 04 3b 08  call      +0x10ec20     <0x100110fc0>
    0x1000023a4:            c0 23 60 00  clr       [%o5]
    0x1000023a8:            f6 06 a0 c0  ld        [%i2 + 0xc0], %i3
    0x1000023ac:            80 a6 e0 00  cmp       %i3, 0x0
    0x1000023b0:            04 40 00 1f  ble,pn    %icc, +0x7c   <0x10000242c>
    0x1000023b4:            de 5b a8 c7  ldx       [%sp + 0x8c7], %o7
    0x1000023b8:            a4 10 20 00  clr       %l2
    0x1000023bc:            80 a6 e0 00  cmp       %i3, 0x0
    0x1000023c0:            e8 03 e1 74  ld        [%o7 + 0x174], %l4
    0x1000023c4:            9e 06 c0 14  add       %i3, %l4, %o7
    0x1000023c8:            04 40 00 15  ble,pn    %icc, +0x54   <0x10000241c>
    0x1000023cc:            bb 3c a0 00  sra       %l2, 0x0, %i5
    0x1000023d0:            b7 3b e0 00  sra       %o7, 0x0, %i3
    0x1000023d4:            b0 4f 40 1b  mulx      %i5, %i3, %i0
    0x1000023d8:            a9 2e 20 01  sll       %i0, 0x1, %l4
    0x1000023dc:            ba 10 20 00  clr       %i5
    0x1000023e0:            ba 07 60 01  add       %i5, 0x1, %i5
    0x1000023e4:            40 04 3a ff  call      +0x10ebfc     <0x100110fe0>
    0x1000023e8:            af 3d 20 00  sra       %l4, 0x0, %l7
    0x1000023ec:            a1 2d f0 03  sllx      %l7, 0x3, %l0
    0x1000023f0:            40 04 3a fc  call      +0x10ebf0     <0x100110fe0>
    0x1000023f4:            c1 3c 40 10  std       %d0, [%l1 + %l0]
    0x1000023f8:            f6 06 a0 c0  ld        [%i2 + 0xc0], %i3
    0x1000023fc:            a6 04 00 11  add       %l0, %l1, %l3
    0x100002400:            a8 05 20 02  add       %l4, 0x2, %l4
    0x100002404:            80 a7 40 1b  cmp       %i5, %i3
    0x100002408:            06 4f ff f6  bl,pt     %icc, -0x28   <0x1000023e0>
    0x10000240c:            c1 3c e0 08  std       %d0, [%l3 + 0x8]
    0x100002410:            fa 5b a8 c7  ldx       [%sp + 0x8c7], %i5
    0x100002414:            ee 07 61 74  ld        [%i5 + 0x174], %l7
    0x100002418:            9e 06 c0 17  add       %i3, %l7, %o7
    0x10000241c:            a4 04 a0 01  add       %l2, 0x1, %l2
    0x100002420:            80 a4 80 1b  cmp       %l2, %i3
    0x100002424:            06 4f ff e9  bl,pt     %icc, -0x5c   <0x1000023c8>
    0x100002428:            80 a6 e0 00  cmp       %i3, 0x0
    0x10000242c:            d0 5b a8 b7  ldx       [%sp + 0x8b7], %o0
    0x100002430:            f0 02 24 80  ld        [%o0 + 0x480], %i0
    0x100002434:            80 a6 20 00  cmp       %i0, 0x0
    0x100002438:            02 40 00 83  be,pn     %icc, +0x20c  <0x100002644>
    0x10000243c:            80 a6 e0 00  cmp       %i3, 0x0
    0x100002440:            1f 00 04 00  sethi     %hi(0x100000), %o7
    0x100002444:            9a 13 e0 01  or        %o7, 0x1, %o5
    0x100002448:            99 2b 70 0c  sllx      %o5, 0xc, %o4
    0x10000244c:            cd 1b 2d a0  ldd       [%o4 + 0xda0], %d6
    0x100002450:            04 40 00 79  ble,pn    %icc, +0x1e4  <0x100002634>
    0x100002454:            98 10 20 00  clr       %o4
    0x100002458:            e2 5b a8 c7  ldx       [%sp + 0x8c7], %l1
    0x10000245c:            e0 5b a8 d7  ldx       [%sp + 0x8d7], %l0
    0x100002460:            96 06 ff ff  add       %i3, -0x1, %o3
    0x100002464:            aa 10 20 00  clr       %l5
    0x100002468:            de 04 61 74  ld        [%l1 + 0x174], %o7
    0x10000246c:            90 10 20 00  clr       %o0
    0x100002470:            d4 5c 26 a8  ldx       [%l0 + 0x6a8], %o2
    0x100002474:            a0 03 c0 1b  add       %o7, %i3, %l0
    0x100002478:            ad 2c 20 01  sll       %l0, 0x1, %l6
    0x10000247c:            80 a6 e0 11  cmp       %i3, 0x11
    0x100002480:            a2 10 00 15  mov       %l5, %l1
    0x100002484:            06 40 00 5b  bl,pn     %icc, +0x16c  <0x1000025f0>
    0x100002488:            01 00 00 00  nop
    0x10000248c:            af 3d 60 00  sra       %l5, 0x0, %l7
    0x100002490:            bb 2d f0 03  sllx      %l7, 0x3, %i5
    0x100002494:            ff 1a 80 1d  ldd       [%o2 + %i5], %d62
    0x100002498:            86 02 80 1d  add       %o2, %i5, %g3
    0x10000249c:            d9 18 e0 08  ldd       [%g3 + 0x8], %d12
    0x1000024a0:            dd 18 e0 20  ldd       [%g3 + 0x20], %d14
    0x1000024a4:            ed 18 e0 28  ldd       [%g3 + 0x28], %d22
    0x1000024a8:            fd 18 e0 10  ldd       [%g3 + 0x10], %d30
    0x1000024ac:            f7 18 e0 18  ldd       [%g3 + 0x18], %d58
    0x1000024b0:            d5 18 e0 38  ldd       [%g3 + 0x38], %d10
    0x1000024b4:            d1 18 e0 30  ldd       [%g3 + 0x30], %d8
    0x1000024b8:            f1 18 e0 40  ldd       [%g3 + 0x40], %d24
    0x1000024bc:            e1 18 e0 48  ldd       [%g3 + 0x48], %d16
    0x1000024c0:            f5 18 e0 50  ldd       [%g3 + 0x50], %d26
    0x1000024c4:            e5 18 e0 58  ldd       [%g3 + 0x58], %d18
    0x1000024c8:            bb a7 c8 4c  faddd     %d62, %d12, %d60
    0x1000024cc:            f9 18 e0 60  ldd       [%g3 + 0x60], %d28
    0x1000024d0:            99 a3 88 56  faddd     %d14, %d22, %d12
    0x1000024d4:            e9 18 e0 68  ldd       [%g3 + 0x68], %d20
    0x1000024d8:            bf a7 88 5b  faddd     %d30, %d58, %d62
    0x1000024dc:            05 00 04 00  sethi     %hi(0x100000), %g2
    0x1000024e0:            a0 10 a0 01  or        %g2, 0x1, %l0
    0x1000024e4:            fd 18 e0 70  ldd       [%g3 + 0x70], %d30
    0x1000024e8:            9d a2 08 4a  faddd     %d8, %d10, %d14
    0x1000024ec:            b1 2c 30 0c  sllx      %l0, 0xc, %i0
    0x1000024f0:            d5 1e 2d a0  ldd       [%i0 + 0xda0], %d10
    0x1000024f4:            8d a7 c8 46  faddd     %d62, %d6, %d6
    0x1000024f8:            ed 18 e0 78  ldd       [%g3 + 0x78], %d22
    0x1000024fc:            90 10 20 09  mov       0x9, %o0
    0x100002500:            92 00 e0 90  add       %g3, 0x90, %o1
    0x100002504:            bb a7 48 4a  faddd     %d60, %d10, %d60
    0x100002508:            f7 18 e0 80  ldd       [%g3 + 0x80], %d58
    0x10000250c:            9a 06 ff f8  add       %i3, -0x8, %o5
    0x100002510:            c1 6a 61 48  prefetch  [%o1 + 0x148], #n_reads
    0x100002514:            90 02 20 08  add       %o0, 0x8, %o0
    0x100002518:            d5 1a 7f f8  ldd       [%o1 - 0x8], %d10
    0x10000251c:            92 02 60 80  add       %o1, 0x80, %o1
    0x100002520:            b1 a6 08 50  faddd     %d24, %d16, %d24
    0x100002524:            80 a2 00 0d  cmp       %o0, %o5
    0x100002528:            a2 04 60 10  add       %l1, 0x10, %l1
    0x10000252c:            d1 1a 7f 80  ldd       [%o1 - 0x80], %d8
    0x100002530:            a1 a3 08 5d  faddd     %d12, %d60, %d16
    0x100002534:            b5 a6 88 52  faddd     %d26, %d18, %d26
    0x100002538:            e5 1a 7f 88  ldd       [%o1 - 0x78], %d18
    0x10000253c:            99 a3 88 46  faddd     %d14, %d6, %d12
    0x100002540:            dd 1a 7f 90  ldd       [%o1 - 0x70], %d14
    0x100002544:            b9 a7 08 54  faddd     %d28, %d20, %d28
    0x100002548:            e9 1a 7f 98  ldd       [%o1 - 0x68], %d20
    0x10000254c:            bb a6 08 50  faddd     %d24, %d16, %d60
    0x100002550:            cd 1a 7f a0  ldd       [%o1 - 0x60], %d6
    0x100002554:            bd a7 88 56  faddd     %d30, %d22, %d30
    0x100002558:            ed 1a 7f a8  ldd       [%o1 - 0x58], %d22
    0x10000255c:            bf a6 88 4c  faddd     %d26, %d12, %d62
    0x100002560:            f1 1a 7f b0  ldd       [%o1 - 0x50], %d24
    0x100002564:            b7 a6 c8 4a  faddd     %d58, %d10, %d58
    0x100002568:            e1 1a 7f b8  ldd       [%o1 - 0x48], %d16
    0x10000256c:            bb a7 08 5d  faddd     %d28, %d60, %d60
    0x100002570:            f5 1a 7f c0  ldd       [%o1 - 0x40], %d26
    0x100002574:            95 a2 08 52  faddd     %d8, %d18, %d10
    0x100002578:            e5 1a 7f c8  ldd       [%o1 - 0x38], %d18
    0x10000257c:            91 a7 88 5f  faddd     %d30, %d62, %d8
    0x100002580:            f9 1a 7f d0  ldd       [%o1 - 0x30], %d28
    0x100002584:            99 a3 88 54  faddd     %d14, %d20, %d12
    0x100002588:            e9 1a 7f d8  ldd       [%o1 - 0x28], %d20
    0x10000258c:            bb a6 c8 5d  faddd     %d58, %d60, %d60
    0x100002590:            fd 1a 7f e0  ldd       [%o1 - 0x20], %d30
    0x100002594:            9d a1 88 56  faddd     %d6, %d22, %d14
    0x100002598:            ed 1a 7f e8  ldd       [%o1 - 0x18], %d22
    0x10000259c:            8d a2 88 48  faddd     %d10, %d8, %d6
    0x1000025a0:            04 4f ff dc  ble,pt    %icc, -0x90   <0x100002510>
    0x1000025a4:            f7 1a 7f f0  ldd       [%o1 - 0x10], %d58
    0x1000025a8:            91 a6 08 50  faddd     %d24, %d16, %d8
    0x1000025ac:            b1 a7 08 54  faddd     %d28, %d20, %d24
    0x1000025b0:            95 a3 08 5d  faddd     %d12, %d60, %d10
    0x1000025b4:            b9 a6 88 52  faddd     %d26, %d18, %d28
    0x1000025b8:            bd a7 88 56  faddd     %d30, %d22, %d30
    0x1000025bc:            bf a3 88 46  faddd     %d14, %d6, %d62
    0x1000025c0:            d9 1a 7f f8  ldd       [%o1 - 0x8], %d12
    0x1000025c4:            80 a2 00 0b  cmp       %o0, %o3
    0x1000025c8:            bb a2 08 4a  faddd     %d8, %d10, %d60
    0x1000025cc:            b7 a6 c8 4c  faddd     %d58, %d12, %d58
    0x1000025d0:            a2 04 60 12  add       %l1, 0x12, %l1
    0x1000025d4:            b5 a7 08 5f  faddd     %d28, %d62, %d26
    0x1000025d8:            ad a6 08 5d  faddd     %d24, %d60, %d22
    0x1000025dc:            a9 a7 88 5a  faddd     %d30, %d26, %d20
    0x1000025e0:            a5 a6 c8 56  faddd     %d58, %d22, %d18
    0x1000025e4:            8d a5 08 52  faddd     %d20, %d18, %d6
    0x1000025e8:            14 40 00 0e  bg,pn     %icc, +0x38   <0x100002620>
    0x1000025ec:            01 00 00 00  nop
    0x1000025f0:            93 3c 60 00  sra       %l1, 0x0, %o1
    0x1000025f4:            8b 2a 70 03  sllx      %o1, 0x3, %g5
    0x1000025f8:            e5 1a 80 05  ldd       [%o2 + %g5], %d18
    0x1000025fc:            88 01 40 0a  add       %g5, %o2, %g4
    0x100002600:            90 02 20 01  add       %o0, 0x1, %o0
    0x100002604:            99 a1 88 52  faddd     %d6, %d18, %d12
    0x100002608:            80 a2 00 0b  cmp       %o0, %o3
    0x10000260c:            d1 19 20 08  ldd       [%g4 + 0x8], %d8
    0x100002610:            a2 04 60 02  add       %l1, 0x2, %l1
    0x100002614:            8d a3 08 48  faddd     %d12, %d8, %d6
    0x100002618:            04 4f ff f7  ble,pt    %icc, -0x24   <0x1000025f4>
    0x10000261c:            93 3c 60 00  sra       %l1, 0x0, %o1
    0x100002620:            98 03 20 01  add       %o4, 0x1, %o4
    0x100002624:            80 a3 00 0b  cmp       %o4, %o3
    0x100002628:            aa 05 40 16  add       %l5, %l6, %l5
    0x10000262c:            04 4f ff 94  ble,pt    %icc, -0x1b0  <0x10000247c>
    0x100002630:            90 10 20 00  clr       %o0
    0x100002634:            05 00 04 00  sethi     %hi(0x100000), %g2
    0x100002638:            82 10 a1 11  or        %g2, 0x111, %g1
    0x10000263c:            a5 28 70 0c  sllx      %g1, 0xc, %l2
    0x100002640:            cd 3c a6 b0  std       %d6, [%l2 + 0x6b0]
    0x100002644:            11 00 04 00  sethi     %hi(0x100000), %o0
    0x100002648:            a0 12 21 11  or        %o0, 0x111, %l0
    0x10000264c:            99 2c 30 0c  sllx      %l0, 0xc, %o4
    0x100002650:            de 03 24 84  ld        [%o4 + 0x484], %o7
    0x100002654:            d8 73 a8 ef  stx       %o4, [%sp + 0x8ef]
    0x100002658:            80 a3 e0 00  cmp       %o7, 0x0
    0x10000265c:            02 40 00 05  be,pn     %icc, +0x14   <0x100002670>
    0x100002660:            da 5b a8 af  ldx       [%sp + 0x8af], %o5
    0x100002664:            40 04 3a 37  call      +0x10e8dc     <0x100110f40>
    0x100002668:            90 03 63 a0  add       %o5, 0x3a0, %o0
    0x10000266c:            f6 06 a0 c0  ld        [%i2 + 0xc0], %i3
    0x100002670:            e2 5b a8 df  ldx       [%sp + 0x8df], %l1
    0x100002674:            de 04 66 a0  ld        [%l1 + 0x6a0], %o7
    0x100002678:            80 a3 e0 01  cmp       %o7, 0x1
    0x10000267c:            04 40 00 42  ble,pn    %icc, +0x108  <0x100002784>
    0x100002680:            de 23 a8 f7  st        %o7, [%sp + 0x8f7]
    0x100002684:            23 00 04 00  sethi     %hi(0x100000), %l1
    0x100002688:            03 00 04 00  sethi     %hi(0x100000), %g1
    0x10000268c:            84 14 60 01  or        %l1, 0x1, %g2
    0x100002690:            a6 10 60 01  or        %g1, 0x1, %l3
    0x100002694:            a1 28 b0 0c  sllx      %g2, 0xc, %l0
    0x100002698:            ad 2c f0 0c  sllx      %l3, 0xc, %l6
    0x10000269c:            86 10 20 01  mov       0x1, %g3
    0x1000026a0:            e1 1d ad a0  ldd       [%l6 + 0xda0], %d16
    0x1000026a4:            a2 04 2d 90  add       %l0, 0xd90, %l1
    0x1000026a8:            e5 1c 2d 90  ldd       [%l0 + 0xd90], %d18
    0x1000026ac:            a4 10 20 00  clr       %l2
    0x1000026b0:            a6 06 ff ff  add       %i3, -0x1, %l3
    0x1000026b4:            f8 5f 20 d0  ldx       [%i4 + 0xd0], %i4
    0x1000026b8:            80 a0 e0 00  cmp       %g3, 0x0
    0x1000026bc:            04 40 00 2b  ble,pn    %icc, +0xac   <0x100002768>
    0x1000026c0:            ab 28 e0 01  sll       %g3, 0x1, %l5
    0x1000026c4:            a8 00 ff ff  add       %g3, -0x1, %l4
    0x1000026c8:            ea 23 aa 27  st        %l5, [%sp + 0xa27]
    0x1000026cc:            ad 2d 20 01  sll       %l4, 0x1, %l6
    0x1000026d0:            aa 10 00 14  mov       %l4, %l5
    0x1000026d4:            c5 03 aa 27  ld        [%sp + 0xa27], %f2
    0x1000026d8:            91 a0 00 50  fmovd     %d16, %d8
    0x1000026dc:            ae 10 20 00  clr       %l7
    0x1000026e0:            b9 a0 19 02  fitod     %f2, %d28
    0x1000026e4:            80 a5 00 13  cmp       %l4, %l3
    0x1000026e8:            14 40 00 27  bg,pn     %icc, +0x9c   <0x100002784>
    0x1000026ec:            ed 1c 2d 90  ldd       [%l0 + 0xd90], %d22
    0x1000026f0:            fb 1c 60 20  ldd       [%l1 + 0x20], %d60
    0x1000026f4:            e1 3b aa 27  std       %d16, [%sp + 0xa27]
    0x1000026f8:            8d a5 89 dc  fdivd     %d22, %d28, %d6
    0x1000026fc:            83 3d a0 00  sra       %l6, 0x0, %g1
    0x100002700:            94 07 a7 df  add       %fp, 0x7df, %o2
    0x100002704:            e5 3b aa 2f  std       %d18, [%sp + 0xa2f]
    0x100002708:            92 07 a7 e7  add       %fp, 0x7e7, %o1
    0x10000270c:            f9 3b aa 37  std       %d28, [%sp + 0xa37]
    0x100002710:            d1 3b aa 3f  std       %d8, [%sp + 0xa3f]
    0x100002714:            bf a2 09 5d  fmuld     %d8, %d60, %d62
    0x100002718:            b1 28 70 03  sllx      %g1, 0x3, %i0
    0x10000271c:            ae 05 e0 01  add       %l7, 0x1, %l7
    0x100002720:            aa 05 60 01  add       %l5, 0x1, %l5
    0x100002724:            ac 05 a0 02  add       %l6, 0x2, %l6
    0x100002728:            81 a7 c9 46  fmuld     %d62, %d6, %d0
    0x10000272c:            40 00 22 6d  call      +0x89b4       <0x10000b0e0>
    0x100002730:            ba 06 00 1c  add       %i0, %i4, %i5
    0x100002734:            e1 1f a7 e7  ldd       [%fp + 0x7e7], %d16
    0x100002738:            e5 1b aa 2f  ldd       [%sp + 0xa2f], %d18
    0x10000273c:            d1 1b aa 3f  ldd       [%sp + 0xa3f], %d8
    0x100002740:            d5 1f a7 df  ldd       [%fp + 0x7df], %d10
    0x100002744:            d5 3f 00 18  std       %d10, [%i4 + %i0]
    0x100002748:            b9 a0 00 d0  fnegd     %d16, %d28
    0x10000274c:            f9 3f 60 08  std       %d28, [%i5 + 0x8]
    0x100002750:            e1 1b aa 27  ldd       [%sp + 0xa27], %d16
    0x100002754:            80 a5 c0 14  cmp       %l7, %l4
    0x100002758:            91 a2 08 52  faddd     %d8, %d18, %d8
    0x10000275c:            f9 1b aa 37  ldd       [%sp + 0xa37], %d28
    0x100002760:            04 4f ff e2  ble,pt    %icc, -0x78   <0x1000026e8>
    0x100002764:            80 a5 40 13  cmp       %l5, %l3
    0x100002768:            a4 04 a0 01  add       %l2, 0x1, %l2
    0x10000276c:            d2 03 a8 f7  ld        [%sp + 0x8f7], %o1
    0x100002770:            94 10 20 01  mov       0x1, %o2
    0x100002774:            87 2a 80 12  sll       %o2, %l2, %g3
    0x100002778:            80 a0 c0 09  cmp       %g3, %o1
    0x10000277c:            06 4f ff d0  bl,pt     %icc, -0xc0   <0x1000026bc>
    0x100002780:            80 a0 e0 00  cmp       %g3, 0x0
    0x100002784:            80 90 00 1b  tst       %i3
    0x100002788:            04 40 00 58  ble,pn    %icc, +0x160  <0x1000028e8>
    0x10000278c:            e8 5b a8 df  ldx       [%sp + 0x8df], %l4
    0x100002790:            e4 5b a8 c7  ldx       [%sp + 0x8c7], %l2
    0x100002794:            e6 5b a8 e7  ldx       [%sp + 0x8e7], %l3
    0x100002798:            c1 05 26 a0  ld        [%l4 + 0x6a0], %f0
    0x10000279c:            f8 04 a1 74  ld        [%l2 + 0x174], %i4
    0x1000027a0:            ec 5c e1 88  ldx       [%l3 + 0x188], %l6
    0x1000027a4:            0b 00 04 00  sethi     %hi(0x100000), %g5
    0x1000027a8:            88 11 60 01  or        %g5, 0x1, %g4
    0x1000027ac:            91 29 30 0c  sllx      %g4, 0xc, %o0
    0x1000027b0:            f9 1a 2d 90  ldd       [%o0 + 0xd90], %d28
    0x1000027b4:            f5 1a 2d 90  ldd       [%o0 + 0xd90], %d26
    0x1000027b8:            ba 07 00 1b  add       %i4, %i3, %i5
    0x1000027bc:            a4 06 ff ff  add       %i3, -0x1, %l2
    0x1000027c0:            37 00 04 00  sethi     %hi(0x100000), %i3
    0x1000027c4:            b0 16 e0 01  or        %i3, 0x1, %i0
    0x1000027c8:            ae 02 2d 90  add       %o0, 0xd90, %l7
    0x1000027cc:            e5 1d e0 20  ldd       [%l7 + 0x20], %d18
    0x1000027d0:            87 2e 30 0c  sllx      %i0, 0xc, %g3
    0x1000027d4:            d5 18 ed a0  ldd       [%g3 + 0xda0], %d10
    0x1000027d8:            a1 a0 19 00  fitod     %f0, %d16
    0x1000027dc:            bb 2f 60 01  sll       %i5, 0x1, %i5
    0x1000027e0:            a2 10 20 00  clr       %l1
    0x1000027e4:            a6 10 20 00  clr       %l3
    0x1000027e8:            aa 10 20 00  clr       %l5
    0x1000027ec:            b1 a0 00 4a  fmovd     %d10, %d24
    0x1000027f0:            91 a7 09 d0  fdivd     %d28, %d16, %d8
    0x1000027f4:            bf a2 09 52  fmuld     %d8, %d18, %d62
    0x1000027f8:            b7 a0 00 4a  fmovd     %d10, %d58
    0x1000027fc:            9d a6 09 5f  fmuld     %d24, %d62, %d14
    0x100002800:            ff 3b a8 ff  std       %d62, [%sp + 0x8ff]
    0x100002804:            a0 10 00 13  mov       %l3, %l0
    0x100002808:            f1 3b a9 07  std       %d24, [%sp + 0x907]
    0x10000280c:            f5 3b a9 0f  std       %d26, [%sp + 0x90f]
    0x100002810:            dd 3b a9 17  std       %d14, [%sp + 0x917]
    0x100002814:            d5 3b a9 1f  std       %d10, [%sp + 0x91f]
    0x100002818:            81 a6 c9 4e  fmuld     %d58, %d14, %d0
    0x10000281c:            40 00 1d b9  call      +0x76e4       <0x100009f00>
    0x100002820:            f7 3b aa 27  std       %d58, [%sp + 0xa27]
    0x100002824:            f5 1b a9 0f  ldd       [%sp + 0x90f], %d26
    0x100002828:            f7 1b aa 27  ldd       [%sp + 0xa27], %d58
    0x10000282c:            ff 1b a8 ff  ldd       [%sp + 0x8ff], %d62
    0x100002830:            93 3c 20 00  sra       %l0, 0x0, %o1
    0x100002834:            f1 1b a9 07  ldd       [%sp + 0x907], %d24
    0x100002838:            aa 05 60 01  add       %l5, 0x1, %l5
    0x10000283c:            dd 1b a9 17  ldd       [%sp + 0x917], %d14
    0x100002840:            8b 2a 70 03  sllx      %o1, 0x3, %g5
    0x100002844:            c1 39 40 16  std       %d0, [%g5 + %l6]
    0x100002848:            b7 a6 c8 5a  faddd     %d58, %d26, %d58
    0x10000284c:            80 a5 40 12  cmp       %l5, %l2
    0x100002850:            d5 1b a9 1f  ldd       [%sp + 0x91f], %d10
    0x100002854:            a0 04 20 02  add       %l0, 0x2, %l0
    0x100002858:            24 4f ff ec  ble,a,pt  %icc, -0x50   <0x100002808>
    0x10000285c:            ff 3b a8 ff  std       %d62, [%sp + 0x8ff]
    0x100002860:            b8 10 20 00  clr       %i4
    0x100002864:            bd a0 00 4a  fmovd     %d10, %d30
    0x100002868:            d5 3b aa 27  std       %d10, [%sp + 0xa27]
    0x10000286c:            ae 10 00 13  mov       %l3, %l7
    0x100002870:            f1 3b a9 07  std       %d24, [%sp + 0x907]
    0x100002874:            f5 3b a9 0f  std       %d26, [%sp + 0x90f]
    0x100002878:            d5 3b a9 1f  std       %d10, [%sp + 0x91f]
    0x10000287c:            ff 3b a8 ff  std       %d62, [%sp + 0x8ff]
    0x100002880:            81 a7 89 4e  fmuld     %d30, %d14, %d0
    0x100002884:            40 00 1f df  call      +0x7f7c       <0x10000a800>
    0x100002888:            dd 3b a9 17  std       %d14, [%sp + 0x917]
    0x10000288c:            fd 1b aa 27  ldd       [%sp + 0xa27], %d30
    0x100002890:            f5 1b a9 0f  ldd       [%sp + 0x90f], %d26
    0x100002894:            99 3d e0 00  sra       %l7, 0x0, %o4
    0x100002898:            ff 1b a8 ff  ldd       [%sp + 0x8ff], %d62
    0x10000289c:            97 2b 30 03  sllx      %o4, 0x3, %o3
    0x1000028a0:            f1 1b a9 07  ldd       [%sp + 0x907], %d24
    0x1000028a4:            dd 1b a9 17  ldd       [%sp + 0x917], %d14
    0x1000028a8:            b8 07 20 01  add       %i4, 0x1, %i4
    0x1000028ac:            99 a0 00 c0  fnegd     %d0, %d12
    0x1000028b0:            94 05 80 0b  add       %l6, %o3, %o2
    0x1000028b4:            d9 3a a0 08  std       %d12, [%o2 + 0x8]
    0x1000028b8:            bd a7 88 5a  faddd     %d30, %d26, %d30
    0x1000028bc:            80 a7 00 12  cmp       %i4, %l2
    0x1000028c0:            d5 1b a9 1f  ldd       [%sp + 0x91f], %d10
    0x1000028c4:            ae 05 e0 02  add       %l7, 0x2, %l7
    0x1000028c8:            24 4f ff ea  ble,a,pt  %icc, -0x58   <0x100002870>
    0x1000028cc:            fd 3b aa 27  std       %d30, [%sp + 0xa27]
    0x1000028d0:            a2 04 60 01  add       %l1, 0x1, %l1
    0x1000028d4:            80 a4 40 12  cmp       %l1, %l2
    0x1000028d8:            a6 04 c0 1d  add       %l3, %i5, %l3
    0x1000028dc:            b1 a6 08 5a  faddd     %d24, %d26, %d24
    0x1000028e0:            04 4f ff c6  ble,pt    %icc, -0xe8   <0x1000027f8>
    0x1000028e4:            aa 10 20 00  clr       %l5
    0x1000028e8:            d6 5b a8 cf  ldx       [%sp + 0x8cf], %o3
    0x1000028ec:            f6 02 e4 78  ld        [%o3 + 0x478], %i3
    0x1000028f0:            80 86 ff ff  addcc     %i3, -0x1, %g0
    0x1000028f4:            04 40 00 1a  ble,pn    %icc, +0x68   <0x10000295c>
    0x1000028f8:            1b 00 04 00  sethi     %hi(0x100000), %o5
    0x1000028fc:            98 13 61 12  or        %o5, 0x112, %o4
    0x100002900:            25 00 04 00  sethi     %hi(0x100000), %l2
    0x100002904:            97 2b 30 0c  sllx      %o4, 0xc, %o3
    0x100002908:            94 14 a0 03  or        %l2, 0x3, %o2
    0x10000290c:            b8 02 e0 d8  add       %o3, 0xd8, %i4
    0x100002910:            93 2a b0 0c  sllx      %o2, 0xc, %o1
    0x100002914:            ba 02 65 60  add       %o1, 0x560, %i5
    0x100002918:            a2 10 20 00  clr       %l1
    0x10000291c:            96 10 20 00  clr       %o3
    0x100002920:            94 10 00 1d  mov       %i5, %o2
    0x100002924:            92 10 20 00  clr       %o1
    0x100002928:            40 04 39 b6  call      +0x10e6d8     <0x100111000>
    0x10000292c:            90 10 00 1c  mov       %i4, %o0
    0x100002930:            80 90 00 08  tst       %o0
    0x100002934:            12 40 02 ee  bne,pn    %icc, +0xbb8  <0x1000034ec>
    0x100002938:            b8 07 20 04  add       %i4, 0x4, %i4
    0x10000293c:            a2 04 60 01  add       %l1, 0x1, %l1
    0x100002940:            e0 5b a8 cf  ldx       [%sp + 0x8cf], %l0
    0x100002944:            f0 04 24 78  ld        [%l0 + 0x478], %i0
    0x100002948:            85 3e 20 00  sra       %i0, 0x0, %g2
    0x10000294c:            86 00 bf ff  add       %g2, -0x1, %g3
    0x100002950:            80 a4 40 03  cmp       %l1, %g3
    0x100002954:            06 6f ff f3  bl,pt     %xcc, -0x34   <0x100002920>
    0x100002958:            96 10 20 00  clr       %o3
    0x10000295c:            40 00 03 01  call      +0xc04        <0x100003560>
    0x100002960:            01 00 00 00  nop
    0x100002964:            e4 5b a8 cf  ldx       [%sp + 0x8cf], %l2
    0x100002968:            d8 04 a4 78  ld        [%l2 + 0x478], %o4
    0x10000296c:            aa 03 3f ff  add       %o4, -0x1, %l5
    0x100002970:            ad 3d 60 00  sra       %l5, 0x0, %l6
    0x100002974:            80 a0 00 16  cmp       %g0, %l6
    0x100002978:            1a 60 00 12  bcc,pn    %xcc, +0x48   <0x1000029c0>
    0x10000297c:            21 00 04 00  sethi     %hi(0x100000), %l0
    0x100002980:            a8 14 21 12  or        %l0, 0x112, %l4
    0x100002984:            9f 2d 30 0c  sllx      %l4, 0xc, %o7
    0x100002988:            b6 03 e0 d8  add       %o7, 0xd8, %i3
    0x10000298c:            a8 10 20 00  clr       %l4
    0x100002990:            88 10 20 00  clr       %g4
    0x100002994:            92 10 20 00  clr       %o1
    0x100002998:            40 04 39 a2  call      +0x10e688     <0x100111020>
    0x10000299c:            d0 01 00 1b  ld        [%g4 + %i3], %o0
    0x1000029a0:            0a c2 02 dc  brnz,pn   %o0, +0xb70   <0x100003510>
    0x1000029a4:            a8 05 20 01  add       %l4, 0x1, %l4
    0x1000029a8:            da 04 a4 78  ld        [%l2 + 0x478], %o5
    0x1000029ac:            92 03 7f ff  add       %o5, -0x1, %o1
    0x1000029b0:            83 3a 60 00  sra       %o1, 0x0, %g1
    0x1000029b4:            80 a5 00 01  cmp       %l4, %g1
    0x1000029b8:            0a 6f ff f7  bcs,pt    %xcc, -0x24   <0x100002994>
    0x1000029bc:            89 2d 30 02  sllx      %l4, 0x2, %g4
    0x1000029c0:            e8 5b a8 ef  ldx       [%sp + 0x8ef], %l4
    0x1000029c4:            de 05 24 84  ld        [%l4 + 0x484], %o7
    0x1000029c8:            80 a3 e0 00  cmp       %o7, 0x0
    0x1000029cc:            02 40 00 50  be,pn     %icc, +0x140  <0x100002b0c>
    0x1000029d0:            ea 5b a8 b7  ldx       [%sp + 0x8b7], %l5
    0x1000029d4:            e0 05 64 80  ld        [%l5 + 0x480], %l0
    0x1000029d8:            80 a4 20 00  cmp       %l0, 0x0
    0x1000029dc:            02 40 00 07  be,pn     %icc, +0x1c   <0x1000029f8>
    0x1000029e0:            ec 5b a8 af  ldx       [%sp + 0x8af], %l6
    0x1000029e4:            40 04 39 57  call      +0x10e55c     <0x100110f40>
    0x1000029e8:            90 05 a3 f8  add       %l6, 0x3f8, %o0
    0x1000029ec:            d6 06 a0 c0  ld        [%i2 + 0xc0], %o3
    0x1000029f0:            10 80 00 07  ba        +0x1c         <0x100002a0c>
    0x1000029f4:            80 a2 e0 00  cmp       %o3, 0x0
    0x1000029f8:            ee 5b a8 af  ldx       [%sp + 0x8af], %l7
    0x1000029fc:            40 04 39 51  call      +0x10e544     <0x100110f40>
    0x100002a00:            90 05 e4 18  add       %l7, 0x418, %o0
    0x100002a04:            d6 06 a0 c0  ld        [%i2 + 0xc0], %o3
    0x100002a08:            80 a2 e0 00  cmp       %o3, 0x0
    0x100002a0c:            04 40 00 3c  ble,pn    %icc, +0xf0   <0x100002afc>
    0x100002a10:            23 00 04 00  sethi     %hi(0x100000), %l1
    0x100002a14:            ee 5b a8 df  ldx       [%sp + 0x8df], %l7
    0x100002a18:            ec 5b a8 c7  ldx       [%sp + 0x8c7], %l6
    0x100002a1c:            86 14 60 10  or        %l1, 0x10, %g3
    0x100002a20:            c2 05 e6 a0  ld        [%l7 + 0x6a0], %g1
    0x100002a24:            85 28 f0 0c  sllx      %g3, 0xc, %g2
    0x100002a28:            e6 05 a1 74  ld        [%l6 + 0x174], %l3
    0x100002a2c:            ae 00 ad 18  add       %g2, 0xd18, %l7
    0x100002a30:            b8 00 7f ff  add       %g1, -0x1, %i4
    0x100002a34:            ea 5b a8 d7  ldx       [%sp + 0x8d7], %l5
    0x100002a38:            a0 10 20 00  clr       %l0
    0x100002a3c:            90 02 c0 13  add       %o3, %l3, %o0
    0x100002a40:            e2 5d 66 a8  ldx       [%l5 + 0x6a8], %l1
    0x100002a44:            80 a2 e0 00  cmp       %o3, 0x0
    0x100002a48:            04 40 00 29  ble,pn    %icc, +0xa4   <0x100002aec>
    0x100002a4c:            ad 3a 20 00  sra       %o0, 0x0, %l6
    0x100002a50:            aa 4c 00 16  mulx      %l0, %l6, %l5
    0x100002a54:            a7 2d 60 01  sll       %l5, 0x1, %l3
    0x100002a58:            a8 10 20 00  clr       %l4
    0x100002a5c:            bb 3c e0 00  sra       %l3, 0x0, %i5
    0x100002a60:            93 2f 70 03  sllx      %i5, 0x3, %o1
    0x100002a64:            8a 02 40 11  add       %o1, %l1, %g5
    0x100002a68:            d4 59 60 08  ldx       [%g5 + 0x8], %o2
    0x100002a6c:            d2 5c 40 09  ldx       [%l1 + %o1], %o1
    0x100002a70:            40 04 39 34  call      +0x10e4d0     <0x100110f40>
    0x100002a74:            90 10 00 17  mov       %l7, %o0
    0x100002a78:            d6 06 a0 c0  ld        [%i2 + 0xc0], %o3
    0x100002a7c:            88 4a c0 10  mulx      %o3, %l0, %g4
    0x100002a80:            94 01 00 14  add       %g4, %l4, %o2
    0x100002a84:            80 a2 80 1c  cmp       %o2, %i4
    0x100002a88:            02 40 00 08  be,pn     %icc, +0x20   <0x100002aa8>
    0x100002a8c:            9a 02 a0 01  add       %o2, 0x1, %o5
    0x100002a90:            40 04 39 6c  call      +0x10e5b0     <0x100111040>
    0x100002a94:            90 10 20 2c  mov       0x2c, %o0
    0x100002a98:            d6 06 a0 c0  ld        [%i2 + 0xc0], %o3
    0x100002a9c:            98 4a c0 10  mulx      %o3, %l0, %o4
    0x100002aa0:            94 03 00 14  add       %o4, %l4, %o2
    0x100002aa4:            9a 02 a0 01  add       %o2, 0x1, %o5
    0x100002aa8:            b1 3b 60 1f  sra       %o5, 0x1f, %i0
    0x100002aac:            aa 0e 20 07  and       %i0, 0x7, %l5
    0x100002ab0:            ac 03 40 15  add       %o5, %l5, %l6
    0x100002ab4:            9e 2d a0 07  andn      %l6, 0x7, %o7
    0x100002ab8:            80 a3 40 0f  cmp       %o5, %o7
    0x100002abc:            12 40 00 05  bne,pn    %icc, +0x14   <0x100002ad0>
    0x100002ac0:            a8 05 20 01  add       %l4, 0x1, %l4
    0x100002ac4:            40 04 39 5f  call      +0x10e57c     <0x100111040>
    0x100002ac8:            90 10 20 0a  mov       0xa, %o0
    0x100002acc:            d6 06 a0 c0  ld        [%i2 + 0xc0], %o3
    0x100002ad0:            80 a5 00 0b  cmp       %l4, %o3
    0x100002ad4:            a6 04 e0 02  add       %l3, 0x2, %l3
    0x100002ad8:            06 4f ff e2  bl,pt     %icc, -0x78   <0x100002a60>
    0x100002adc:            bb 3c e0 00  sra       %l3, 0x0, %i5
    0x100002ae0:            f6 5b a8 c7  ldx       [%sp + 0x8c7], %i3
    0x100002ae4:            d0 06 e1 74  ld        [%i3 + 0x174], %o0
    0x100002ae8:            90 02 c0 08  add       %o3, %o0, %o0
    0x100002aec:            a0 04 20 01  add       %l0, 0x1, %l0
    0x100002af0:            80 a4 00 0b  cmp       %l0, %o3
    0x100002af4:            06 4f ff d5  bl,pt     %icc, -0xac   <0x100002a48>
    0x100002af8:            80 a2 e0 00  cmp       %o3, 0x0
    0x100002afc:            40 04 39 51  call      +0x10e544     <0x100111040>
    0x100002b00:            90 10 20 0a  mov       0xa, %o0
    0x100002b04:            40 04 39 4f  call      +0x10e53c     <0x100111040>
    0x100002b08:            90 10 20 0a  mov       0xa, %o0
    0x100002b0c:            c4 5e 61 60  ldx       [%i1 + 0x160], %g2
    0x100002b10:            23 00 04 00  sethi     %hi(0x100000), %l1
    0x100002b14:            86 14 61 11  or        %l1, 0x111, %g3
    0x100002b18:            f8 58 a0 58  ldx       [%g2 + 0x58], %i4
    0x100002b1c:            a5 28 f0 0c  sllx      %g3, 0xc, %l2
    0x100002b20:            ee 04 a4 88  ld        [%l2 + 0x488], %l7
    0x100002b24:            27 00 04 00  sethi     %hi(0x100000), %l3
    0x100002b28:            d0 5f 20 00  ldx       [%i4], %o0
    0x100002b2c:            ba 14 e1 11  or        %l3, 0x111, %i5
    0x100002b30:            80 a5 e0 00  cmp       %l7, 0x0
    0x100002b34:            a3 2f 70 0c  sllx      %i5, 0xc, %l1
    0x100002b38:            02 40 00 f3  be,pn     %icc, +0x3cc  <0x100002f04>
    0x100002b3c:            d0 74 64 90  stx       %o0, [%l1 + 0x490]
    0x100002b40:            29 00 04 00  sethi     %hi(0x100000), %l4
    0x100002b44:            aa 15 21 11  or        %l4, 0x111, %l5
    0x100002b48:            2f 00 04 00  sethi     %hi(0x100000), %l7
    0x100002b4c:            21 00 04 00  sethi     %hi(0x100000), %l0
    0x100002b50:            40 04 39 3c  call      +0x10e4f0     <0x100111040>
    0x100002b54:            90 10 20 0a  mov       0xa, %o0
    0x100002b58:            fa 5b a8 af  ldx       [%sp + 0x8af], %i5
    0x100002b5c:            40 04 38 f9  call      +0x10e3e4     <0x100110f40>
    0x100002b60:            90 07 64 38  add       %i5, 0x438, %o0
    0x100002b64:            40 04 38 f7  call      +0x10e3dc     <0x100110f40>
    0x100002b68:            90 07 64 60  add       %i5, 0x460, %o0
    0x100002b6c:            40 04 38 f5  call      +0x10e3d4     <0x100110f40>
    0x100002b70:            90 07 64 98  add       %i5, 0x498, %o0
    0x100002b74:            f6 5e 61 60  ldx       [%i1 + 0x160], %i3
    0x100002b78:            90 07 64 d0  add       %i5, 0x4d0, %o0
    0x100002b7c:            ba 15 e1 11  or        %l7, 0x111, %i5
    0x100002b80:            f8 5e e0 60  ldx       [%i3 + 0x60], %i4
    0x100002b84:            e4 5e e0 58  ldx       [%i3 + 0x58], %l2
    0x100002b88:            af 2f 70 0c  sllx      %i5, 0xc, %l7
    0x100002b8c:            d2 5f 20 00  ldx       [%i4], %o1
    0x100002b90:            d4 5c a0 00  ldx       [%l2], %o2
    0x100002b94:            d2 73 aa 27  stx       %o1, [%sp + 0xa27]
    0x100002b98:            d4 73 aa 2f  stx       %o2, [%sp + 0xa2f]
    0x100002b9c:            f5 1b aa 27  ldd       [%sp + 0xa27], %d26
    0x100002ba0:            e1 1b aa 2f  ldd       [%sp + 0xa2f], %d16
    0x100002ba4:            b9 2d 70 0c  sllx      %l5, 0xc, %i4
    0x100002ba8:            a5 a0 11 1a  fxtod     %d26, %d18
    0x100002bac:            b9 a0 11 10  fxtod     %d16, %d28
    0x100002bb0:            b0 14 21 11  or        %l0, 0x111, %i0
    0x100002bb4:            bb 2e 30 0c  sllx      %i0, 0xc, %i5
    0x100002bb8:            29 00 04 00  sethi     %hi(0x100000), %l4
    0x100002bbc:            aa 15 21 11  or        %l4, 0x111, %l5
    0x100002bc0:            ab 2d 70 0c  sllx      %l5, 0xc, %l5
    0x100002bc4:            91 a7 09 d2  fdivd     %d28, %d18, %d8
    0x100002bc8:            d1 3b aa 1f  std       %d8, [%sp + 0xa1f]
    0x100002bcc:            40 04 38 dd  call      +0x10e374     <0x100110f40>
    0x100002bd0:            d6 5b aa 1f  ldx       [%sp + 0xa1f], %o3
    0x100002bd4:            e6 5e 61 60  ldx       [%i1 + 0x160], %l3
    0x100002bd8:            c2 5b a8 cf  ldx       [%sp + 0x8cf], %g1
    0x100002bdc:            1f 00 04 00  sethi     %hi(0x100000), %o7
    0x100002be0:            c4 5c e0 58  ldx       [%l3 + 0x58], %g2
    0x100002be4:            d0 00 64 78  ld        [%g1 + 0x478], %o0
    0x100002be8:            c6 5c e0 60  ldx       [%l3 + 0x60], %g3
    0x100002bec:            ec 58 a0 00  ldx       [%g2], %l6
    0x100002bf0:            ec 77 24 98  stx       %l6, [%i4 + 0x498]
    0x100002bf4:            c2 58 a0 00  ldx       [%g2], %g1
    0x100002bf8:            c2 75 e4 a0  stx       %g1, [%l7 + 0x4a0]
    0x100002bfc:            c8 58 e0 00  ldx       [%g3], %g4
    0x100002c00:            c8 77 64 a8  stx       %g4, [%i5 + 0x4a8]
    0x100002c04:            d2 58 e0 00  ldx       [%g3], %o1
    0x100002c08:            9a 13 e1 11  or        %o7, 0x111, %o5
    0x100002c0c:            a5 2b 70 0c  sllx      %o5, 0xc, %l2
    0x100002c10:            d2 74 a4 c0  stx       %o1, [%l2 + 0x4c0]
    0x100002c14:            d4 58 e0 00  ldx       [%g3], %o2
    0x100002c18:            0b 00 04 00  sethi     %hi(0x100000), %g5
    0x100002c1c:            96 11 61 11  or        %g5, 0x111, %o3
    0x100002c20:            a7 2a f0 0c  sllx      %o3, 0xc, %l3
    0x100002c24:            d4 74 e4 c8  stx       %o2, [%l3 + 0x4c8]
    0x100002c28:            d9 18 e0 00  ldd       [%g3], %d12
    0x100002c2c:            e9 18 a0 00  ldd       [%g2], %d20
    0x100002c30:            19 00 04 00  sethi     %hi(0x100000), %o4
    0x100002c34:            b6 13 21 11  or        %o4, 0x111, %i3
    0x100002c38:            2d 00 04 00  sethi     %hi(0x100000), %l6
    0x100002c3c:            a1 2e f0 0c  sllx      %i3, 0xc, %l0
    0x100002c40:            9d a0 11 0c  fxtod     %d12, %d14
    0x100002c44:            bd a0 11 14  fxtod     %d20, %d30
    0x100002c48:            b0 15 a1 11  or        %l6, 0x111, %i0
    0x100002c4c:            80 a2 20 01  cmp       %o0, 0x1
    0x100002c50:            a9 2e 30 0c  sllx      %i0, 0xc, %l4
    0x100002c54:            8d a7 89 ce  fdivd     %d30, %d14, %d6
    0x100002c58:            cd 3c 24 e0  std       %d6, [%l0 + 0x4e0]
    0x100002c5c:            cd 3d 64 d8  std       %d6, [%l5 + 0x4d8]
    0x100002c60:            04 40 00 53  ble,pn    %icc, +0x14c  <0x100002dac>
    0x100002c64:            cd 3d 24 d0  std       %d6, [%l4 + 0x4d0]
    0x100002c68:            ac 10 20 01  mov       0x1, %l6
    0x100002c6c:            cd 1d 64 d8  ldd       [%l5 + 0x4d8], %d6
    0x100002c70:            b6 10 20 08  mov       0x8, %i3
    0x100002c74:            d0 58 80 1b  ldx       [%g2 + %i3], %o0
    0x100002c78:            de 5c 64 90  ldx       [%l1 + 0x490], %o7
    0x100002c7c:            ed 1d 24 d0  ldd       [%l4 + 0x4d0], %d22
    0x100002c80:            80 a3 c0 08  cmp       %o7, %o0
    0x100002c84:            9a 10 00 0f  mov       %o7, %o5
    0x100002c88:            26 68 00 02  bl,a,pt   %xcc, +0x8    <0x100002c90>
    0x100002c8c:            9a 10 00 08  mov       %o0, %o5
    0x100002c90:            da 74 64 90  stx       %o5, [%l1 + 0x490]
    0x100002c94:            d2 58 80 1b  ldx       [%g2 + %i3], %o1
    0x100002c98:            ca 5f 24 98  ldx       [%i4 + 0x498], %g5
    0x100002c9c:            80 a1 40 09  cmp       %g5, %o1
    0x100002ca0:            88 10 00 05  mov       %g5, %g4
    0x100002ca4:            34 68 00 02  bg,a,pt   %xcc, +0x8    <0x100002cac>
    0x100002ca8:            88 10 00 09  mov       %o1, %g4
    0x100002cac:            c8 77 24 98  stx       %g4, [%i4 + 0x498]
    0x100002cb0:            d6 5e c0 03  ldx       [%i3 + %g3], %o3
    0x100002cb4:            d4 5c a4 c0  ldx       [%l2 + 0x4c0], %o2
    0x100002cb8:            80 a2 80 0b  cmp       %o2, %o3
    0x100002cbc:            82 10 00 0a  mov       %o2, %g1
    0x100002cc0:            26 68 00 02  bl,a,pt   %xcc, +0x8    <0x100002cc8>
    0x100002cc4:            82 10 00 0b  mov       %o3, %g1
    0x100002cc8:            c2 74 a4 c0  stx       %g1, [%l2 + 0x4c0]
    0x100002ccc:            f0 5c e4 c8  ldx       [%l3 + 0x4c8], %i0
    0x100002cd0:            d8 5e c0 03  ldx       [%i3 + %g3], %o4
    0x100002cd4:            90 10 00 18  mov       %i0, %o0
    0x100002cd8:            80 a6 00 0c  cmp       %i0, %o4
    0x100002cdc:            04 60 00 03  ble,pn    %xcc, +0xc    <0x100002ce8>
    0x100002ce0:            1f 00 04 00  sethi     %hi(0x100000), %o7
    0x100002ce4:            90 10 00 0c  mov       %o4, %o0
    0x100002ce8:            d0 74 e4 c8  stx       %o0, [%l3 + 0x4c8]
    0x100002cec:            d4 5e c0 03  ldx       [%i3 + %g3], %o2
    0x100002cf0:            d6 58 80 1b  ldx       [%g2 + %i3], %o3
    0x100002cf4:            d4 73 aa 27  stx       %o2, [%sp + 0xa27]
    0x100002cf8:            d6 73 aa 2f  stx       %o3, [%sp + 0xa2f]
    0x100002cfc:            d9 1b aa 27  ldd       [%sp + 0xa27], %d12
    0x100002d00:            e9 1b aa 2f  ldd       [%sp + 0xa2f], %d20
    0x100002d04:            9a 13 e0 10  or        %o7, 0x10, %o5
    0x100002d08:            9d a0 11 0c  fxtod     %d12, %d14
    0x100002d0c:            bd a0 11 14  fxtod     %d20, %d30
    0x100002d10:            93 2b 70 0c  sllx      %o5, 0xc, %o1
    0x100002d14:            90 02 68 d8  add       %o1, 0x8d8, %o0
    0x100002d18:            93 3d a0 00  sra       %l6, 0x0, %o1
    0x100002d1c:            ac 05 a0 01  add       %l6, 0x1, %l6
    0x100002d20:            91 a7 89 ce  fdivd     %d30, %d14, %d8
    0x100002d24:            d1 3b a9 3f  std       %d8, [%sp + 0x93f]
    0x100002d28:            83 aa 0a c6  fcmped    %fcc1, %d8, %d6
    0x100002d2c:            81 aa 0a d6  fcmped    %fcc0, %d8, %d22
    0x100002d30:            8d a9 08 48  fmovdl    %fcc1, %d8, %d6
    0x100002d34:            91 ab 80 56  fmovdule  %fcc0, %d22, %d8
    0x100002d38:            d8 5b a9 3f  ldx       [%sp + 0x93f], %o4
    0x100002d3c:            cd 3d 64 d8  std       %d6, [%l5 + 0x4d8]
    0x100002d40:            40 04 38 80  call      +0x10e200     <0x100110f40>
    0x100002d44:            d1 3d 24 d0  std       %d8, [%l4 + 0x4d0]
    0x100002d48:            ca 5e 61 60  ldx       [%i1 + 0x160], %g5
    0x100002d4c:            c8 5d e4 a0  ldx       [%l7 + 0x4a0], %g4
    0x100002d50:            d8 5f 64 a8  ldx       [%i5 + 0x4a8], %o4
    0x100002d54:            c4 59 60 58  ldx       [%g5 + 0x58], %g2
    0x100002d58:            c6 59 60 60  ldx       [%g5 + 0x60], %g3
    0x100002d5c:            f0 5b a8 cf  ldx       [%sp + 0x8cf], %i0
    0x100002d60:            d6 5e c0 02  ldx       [%i3 + %g2], %o3
    0x100002d64:            f7 1c 24 e0  ldd       [%l0 + 0x4e0], %d58
    0x100002d68:            d0 06 24 78  ld        [%i0 + 0x478], %o0
    0x100002d6c:            82 01 00 0b  add       %g4, %o3, %g1
    0x100002d70:            c2 75 e4 a0  stx       %g1, [%l7 + 0x4a0]
    0x100002d74:            d4 5e c0 03  ldx       [%i3 + %g3], %o2
    0x100002d78:            80 a5 80 08  cmp       %l6, %o0
    0x100002d7c:            88 03 00 0a  add       %o4, %o2, %g4
    0x100002d80:            c8 77 64 a8  stx       %g4, [%i5 + 0x4a8]
    0x100002d84:            cd 1e c0 03  ldd       [%i3 + %g3], %d6
    0x100002d88:            fb 1e c0 02  ldd       [%i3 + %g2], %d60
    0x100002d8c:            b6 06 e0 08  add       %i3, 0x8, %i3
    0x100002d90:            95 a0 11 06  fxtod     %d6, %d10
    0x100002d94:            bf a0 11 1d  fxtod     %d60, %d62
    0x100002d98:            b1 a7 c9 ca  fdivd     %d62, %d10, %d24
    0x100002d9c:            8d a6 c8 58  faddd     %d58, %d24, %d6
    0x100002da0:            cd 3c 24 e0  std       %d6, [%l0 + 0x4e0]
    0x100002da4:            26 4f ff b4  bl,a,pt   %icc, -0x130  <0x100002c74>
    0x100002da8:            cd 1d 64 d8  ldd       [%l5 + 0x4d8], %d6
    0x100002dac:            f6 5b a8 af  ldx       [%sp + 0x8af], %i3
    0x100002db0:            d0 23 aa 3f  st        %o0, [%sp + 0xa3f]
    0x100002db4:            c9 03 aa 3f  ld        [%sp + 0xa3f], %f4
    0x100002db8:            c2 73 aa 2f  stx       %g1, [%sp + 0xa2f]
    0x100002dbc:            d9 1b aa 2f  ldd       [%sp + 0xa2f], %d12
    0x100002dc0:            c8 73 aa 37  stx       %g4, [%sp + 0xa37]
    0x100002dc4:            e9 1b aa 37  ldd       [%sp + 0xa37], %d20
    0x100002dc8:            1b 00 04 00  sethi     %hi(0x100000), %o5
    0x100002dcc:            92 13 60 01  or        %o5, 0x1, %o1
    0x100002dd0:            8b 2a 70 0c  sllx      %o1, 0xc, %g5
    0x100002dd4:            fd 19 6d 90  ldd       [%g5 + 0xd90], %d30
    0x100002dd8:            90 06 e5 30  add       %i3, 0x530, %o0
    0x100002ddc:            9d a0 19 04  fitod     %f4, %d14
    0x100002de0:            ad a0 11 0c  fxtod     %d12, %d22
    0x100002de4:            bb a0 11 14  fxtod     %d20, %d60
    0x100002de8:            b7 a7 89 ce  fdivd     %d30, %d14, %d58
    0x100002dec:            95 a1 89 5b  fmuld     %d6, %d58, %d10
    0x100002df0:            d5 3b a9 9f  std       %d10, [%sp + 0x99f]
    0x100002df4:            d6 5b a9 9f  ldx       [%sp + 0x99f], %o3
    0x100002df8:            bf a5 89 5b  fmuld     %d22, %d58, %d62
    0x100002dfc:            ff 3b a9 bf  std       %d62, [%sp + 0x9bf]
    0x100002e00:            d4 5b a9 bf  ldx       [%sp + 0x9bf], %o2
    0x100002e04:            b1 a7 49 5b  fmuld     %d60, %d58, %d24
    0x100002e08:            f1 3b a9 df  std       %d24, [%sp + 0x9df]
    0x100002e0c:            40 04 38 4d  call      +0x10e134     <0x100110f40>
    0x100002e10:            d2 5b a9 df  ldx       [%sp + 0x9df], %o1
    0x100002e14:            d4 5c 64 90  ldx       [%l1 + 0x490], %o2
    0x100002e18:            d2 5c a4 c0  ldx       [%l2 + 0x4c0], %o1
    0x100002e1c:            90 06 e5 60  add       %i3, 0x560, %o0
    0x100002e20:            40 04 38 48  call      +0x10e120     <0x100110f40>
    0x100002e24:            d6 5d 24 d0  ldx       [%l4 + 0x4d0], %o3
    0x100002e28:            d4 5f 24 98  ldx       [%i4 + 0x498], %o2
    0x100002e2c:            d2 5c e4 c8  ldx       [%l3 + 0x4c8], %o1
    0x100002e30:            90 06 e5 90  add       %i3, 0x590, %o0
    0x100002e34:            40 04 38 43  call      +0x10e10c     <0x100110f40>
    0x100002e38:            d6 5d 64 d8  ldx       [%l5 + 0x4d8], %o3
    0x100002e3c:            f8 5e 61 60  ldx       [%i1 + 0x160], %i4
    0x100002e40:            c4 5b a8 bf  ldx       [%sp + 0x8bf], %g2
    0x100002e44:            90 10 20 0a  mov       0xa, %o0
    0x100002e48:            40 04 38 7e  call      +0x10e1f8     <0x100111040>
    0x100002e4c:            c4 77 20 68  stx       %g2, [%i4 + 0x68]
    0x100002e50:            40 04 38 3c  call      +0x10e0f0     <0x100110f40>
    0x100002e54:            90 06 e5 c8  add       %i3, 0x5c8, %o0
    0x100002e58:            c8 5e 61 60  ldx       [%i1 + 0x160], %g4
    0x100002e5c:            90 06 e5 f0  add       %i3, 0x5f0, %o0
    0x100002e60:            40 04 38 38  call      +0x10e0e0     <0x100110f40>
    0x100002e64:            d2 59 20 68  ldx       [%g4 + 0x68], %o1
    0x100002e68:            d6 5e 61 60  ldx       [%i1 + 0x160], %o3
    0x100002e6c:            90 06 e6 20  add       %i3, 0x620, %o0
    0x100002e70:            40 04 38 34  call      +0x10e0d0     <0x100110f40>
    0x100002e74:            d2 5a e0 78  ldx       [%o3 + 0x78], %o1
    0x100002e78:            d4 5e 61 60  ldx       [%i1 + 0x160], %o2
    0x100002e7c:            90 06 e6 50  add       %i3, 0x650, %o0
    0x100002e80:            40 04 38 30  call      +0x10e0c0     <0x100110f40>
    0x100002e84:            d2 5a a0 70  ldx       [%o2 + 0x70], %o1
    0x100002e88:            c6 5e 61 60  ldx       [%i1 + 0x160], %g3
    0x100002e8c:            90 06 e6 80  add       %i3, 0x680, %o0
    0x100002e90:            c4 58 e0 68  ldx       [%g3 + 0x68], %g2
    0x100002e94:            c2 58 e0 70  ldx       [%g3 + 0x70], %g1
    0x100002e98:            40 04 38 2a  call      +0x10e0a8     <0x100110f40>
    0x100002e9c:            92 20 40 02  sub       %g1, %g2, %o1
    0x100002ea0:            d8 5e 61 60  ldx       [%i1 + 0x160], %o4
    0x100002ea4:            90 06 e6 b0  add       %i3, 0x6b0, %o0
    0x100002ea8:            ea 5b 20 78  ldx       [%o4 + 0x78], %l5
    0x100002eac:            ec 5b 20 70  ldx       [%o4 + 0x70], %l6
    0x100002eb0:            40 04 38 24  call      +0x10e090     <0x100110f40>
    0x100002eb4:            92 25 80 15  sub       %l6, %l5, %o1
    0x100002eb8:            90 06 e6 e0  add       %i3, 0x6e0, %o0
    0x100002ebc:            40 04 38 21  call      +0x10e084     <0x100110f40>
    0x100002ec0:            d2 5c 64 90  ldx       [%l1 + 0x490], %o1
    0x100002ec4:            f0 5e 61 60  ldx       [%i1 + 0x160], %i0
    0x100002ec8:            90 06 e7 10  add       %i3, 0x710, %o0
    0x100002ecc:            f5 1c 64 90  ldd       [%l1 + 0x490], %d26
    0x100002ed0:            f6 5e 20 78  ldx       [%i0 + 0x78], %i3
    0x100002ed4:            ee 5e 20 70  ldx       [%i0 + 0x70], %l7
    0x100002ed8:            b9 a0 11 1a  fxtod     %d26, %d28
    0x100002edc:            a0 25 c0 1b  sub       %l7, %i3, %l0
    0x100002ee0:            e0 73 aa 27  stx       %l0, [%sp + 0xa27]
    0x100002ee4:            e1 1b aa 27  ldd       [%sp + 0xa27], %d16
    0x100002ee8:            a5 a0 11 10  fxtod     %d16, %d18
    0x100002eec:            91 a7 09 d2  fdivd     %d28, %d18, %d8
    0x100002ef0:            d1 3b a9 7f  std       %d8, [%sp + 0x97f]
    0x100002ef4:            40 04 38 13  call      +0x10e04c     <0x100110f40>
    0x100002ef8:            d2 5b a9 7f  ldx       [%sp + 0x97f], %o1
    0x100002efc:            40 04 38 51  call      +0x10e144     <0x100111040>
    0x100002f00:            90 10 20 0a  mov       0xa, %o0
    0x100002f04:            c6 5b a8 b7  ldx       [%sp + 0x8b7], %g3
    0x100002f08:            f2 00 e4 80  ld        [%g3 + 0x480], %i1
    0x100002f0c:            80 a6 60 00  cmp       %i1, 0x0
    0x100002f10:            02 40 01 89  be,pn     %icc, +0x624  <0x100003534>
    0x100002f14:            09 00 04 00  sethi     %hi(0x100000), %g4
    0x100002f18:            90 11 20 01  or        %g4, 0x1, %o0
    0x100002f1c:            f6 06 a0 c0  ld        [%i2 + 0xc0], %i3
    0x100002f20:            b5 2a 30 0c  sllx      %o0, 0xc, %i2
    0x100002f24:            cd 1e ad a0  ldd       [%i2 + 0xda0], %d6
    0x100002f28:            80 a6 e0 00  cmp       %i3, 0x0
    0x100002f2c:            04 40 00 78  ble,pn    %icc, +0x1e0  <0x10000310c>
    0x100002f30:            a4 10 20 00  clr       %l2
    0x100002f34:            da 5b a8 c7  ldx       [%sp + 0x8c7], %o5
    0x100002f38:            d8 5b a8 d7  ldx       [%sp + 0x8d7], %o4
    0x100002f3c:            8a 06 ff ff  add       %i3, -0x1, %g5
    0x100002f40:            a2 10 20 00  clr       %l1
    0x100002f44:            f2 03 61 74  ld        [%o5 + 0x174], %i1
    0x100002f48:            b8 10 20 00  clr       %i4
    0x100002f4c:            f4 5b 26 a8  ldx       [%o4 + 0x6a8], %i2
    0x100002f50:            9a 06 c0 19  add       %i3, %i1, %o5
    0x100002f54:            a1 2b 60 01  sll       %o5, 0x1, %l0
    0x100002f58:            96 01 60 01  add       %g5, 0x1, %o3
    0x100002f5c:            80 a2 e0 11  cmp       %o3, 0x11
    0x100002f60:            b6 10 00 11  mov       %l1, %i3
    0x100002f64:            06 40 00 59  bl,pn     %icc, +0x164  <0x1000030c8>
    0x100002f68:            01 00 00 00  nop
    0x100002f6c:            ad 3c 60 00  sra       %l1, 0x0, %l6
    0x100002f70:            b3 2d b0 03  sllx      %l6, 0x3, %i1
    0x100002f74:            f9 1e 80 19  ldd       [%i2 + %i1], %d28
    0x100002f78:            aa 06 80 19  add       %i2, %i1, %l5
    0x100002f7c:            e9 1d 60 18  ldd       [%l5 + 0x18], %d20
    0x100002f80:            ff 1d 60 10  ldd       [%l5 + 0x10], %d62
    0x100002f84:            d9 1d 60 08  ldd       [%l5 + 0x8], %d12
    0x100002f88:            fd 1d 60 28  ldd       [%l5 + 0x28], %d30
    0x100002f8c:            dd 1d 60 20  ldd       [%l5 + 0x20], %d14
    0x100002f90:            d1 1d 60 30  ldd       [%l5 + 0x30], %d8
    0x100002f94:            d5 1d 60 38  ldd       [%l5 + 0x38], %d10
    0x100002f98:            f1 1d 60 40  ldd       [%l5 + 0x40], %d24
    0x100002f9c:            e1 1d 60 48  ldd       [%l5 + 0x48], %d16
    0x100002fa0:            f5 1d 60 50  ldd       [%l5 + 0x50], %d26
    0x100002fa4:            e5 1d 60 58  ldd       [%l5 + 0x58], %d18
    0x100002fa8:            ed 1d 60 78  ldd       [%l5 + 0x78], %d22
    0x100002fac:            b7 a7 c8 54  faddd     %d62, %d20, %d58
    0x100002fb0:            e9 1d 60 68  ldd       [%l5 + 0x68], %d20
    0x100002fb4:            bb a7 08 4c  faddd     %d28, %d12, %d60
    0x100002fb8:            9b 2a 30 0c  sllx      %o0, 0xc, %o5
    0x100002fbc:            d9 1b 6d a0  ldd       [%o5 + 0xda0], %d12
    0x100002fc0:            9d a3 88 5e  faddd     %d14, %d30, %d14
    0x100002fc4:            bf a6 c8 46  faddd     %d58, %d6, %d62
    0x100002fc8:            f9 1d 60 60  ldd       [%l5 + 0x60], %d28
    0x100002fcc:            8d a2 08 4a  faddd     %d8, %d10, %d6
    0x100002fd0:            fd 1d 60 70  ldd       [%l5 + 0x70], %d30
    0x100002fd4:            b8 10 20 09  mov       0x9, %i4
    0x100002fd8:            88 05 60 90  add       %l5, 0x90, %g4
    0x100002fdc:            bb a7 48 4c  faddd     %d60, %d12, %d60
    0x100002fe0:            f7 1d 60 80  ldd       [%l5 + 0x80], %d58
    0x100002fe4:            98 21 60 07  sub       %g5, 0x7, %o4
    0x100002fe8:            c1 69 21 48  prefetch  [%g4 + 0x148], #n_reads
    0x100002fec:            b8 07 20 08  add       %i4, 0x8, %i4
    0x100002ff0:            d5 19 3f f8  ldd       [%g4 - 0x8], %d10
    0x100002ff4:            88 01 20 80  add       %g4, 0x80, %g4
    0x100002ff8:            b1 a6 08 50  faddd     %d24, %d16, %d24
    0x100002ffc:            80 a7 00 0c  cmp       %i4, %o4
    0x100003000:            b6 06 e0 10  add       %i3, 0x10, %i3
    0x100003004:            d1 19 3f 80  ldd       [%g4 - 0x80], %d8
    0x100003008:            a1 a3 88 5d  faddd     %d14, %d60, %d16
    0x10000300c:            b5 a6 88 52  faddd     %d26, %d18, %d26
    0x100003010:            e5 19 3f 88  ldd       [%g4 - 0x78], %d18
    0x100003014:            bf a1 88 5f  faddd     %d6, %d62, %d62
    0x100003018:            dd 19 3f 90  ldd       [%g4 - 0x70], %d14
    0x10000301c:            b9 a7 08 54  faddd     %d28, %d20, %d28
    0x100003020:            e9 19 3f 98  ldd       [%g4 - 0x68], %d20
    0x100003024:            bb a6 08 50  faddd     %d24, %d16, %d60
    0x100003028:            cd 19 3f a0  ldd       [%g4 - 0x60], %d6
    0x10000302c:            bd a7 88 56  faddd     %d30, %d22, %d30
    0x100003030:            ed 19 3f a8  ldd       [%g4 - 0x58], %d22
    0x100003034:            99 a6 88 5f  faddd     %d26, %d62, %d12
    0x100003038:            f1 19 3f b0  ldd       [%g4 - 0x50], %d24
    0x10000303c:            b7 a6 c8 4a  faddd     %d58, %d10, %d58
    0x100003040:            e1 19 3f b8  ldd       [%g4 - 0x48], %d16
    0x100003044:            bb a7 08 5d  faddd     %d28, %d60, %d60
    0x100003048:            f5 19 3f c0  ldd       [%g4 - 0x40], %d26
    0x10000304c:            95 a2 08 52  faddd     %d8, %d18, %d10
    0x100003050:            e5 19 3f c8  ldd       [%g4 - 0x38], %d18
    0x100003054:            bf a7 88 4c  faddd     %d30, %d12, %d62
    0x100003058:            f9 19 3f d0  ldd       [%g4 - 0x30], %d28
    0x10000305c:            9d a3 88 54  faddd     %d14, %d20, %d14
    0x100003060:            e9 19 3f d8  ldd       [%g4 - 0x28], %d20
    0x100003064:            bb a6 c8 5d  faddd     %d58, %d60, %d60
    0x100003068:            fd 19 3f e0  ldd       [%g4 - 0x20], %d30
    0x10000306c:            8d a1 88 56  faddd     %d6, %d22, %d6
    0x100003070:            ed 19 3f e8  ldd       [%g4 - 0x18], %d22
    0x100003074:            bf a2 88 5f  faddd     %d10, %d62, %d62
    0x100003078:            04 4f ff dc  ble,pt    %icc, -0x90   <0x100002fe8>
    0x10000307c:            f7 19 3f f0  ldd       [%g4 - 0x10], %d58
    0x100003080:            99 a3 88 5d  faddd     %d14, %d60, %d12
    0x100003084:            a1 a6 08 50  faddd     %d24, %d16, %d16
    0x100003088:            a9 a7 08 54  faddd     %d28, %d20, %d20
    0x10000308c:            b5 a6 88 52  faddd     %d26, %d18, %d26
    0x100003090:            b9 a1 88 5f  faddd     %d6, %d62, %d28
    0x100003094:            f1 19 3f f8  ldd       [%g4 - 0x8], %d24
    0x100003098:            bd a7 88 56  faddd     %d30, %d22, %d30
    0x10000309c:            a5 a4 08 4c  faddd     %d16, %d12, %d18
    0x1000030a0:            bb a6 c8 58  faddd     %d58, %d24, %d60
    0x1000030a4:            80 a7 00 05  cmp       %i4, %g5
    0x1000030a8:            bf a6 88 5c  faddd     %d26, %d28, %d62
    0x1000030ac:            b6 06 e0 12  add       %i3, 0x12, %i3
    0x1000030b0:            9d a5 08 52  faddd     %d20, %d18, %d14
    0x1000030b4:            b7 a7 88 5f  faddd     %d30, %d62, %d58
    0x1000030b8:            ad a7 48 4e  faddd     %d60, %d14, %d22
    0x1000030bc:            8d a6 c8 56  faddd     %d58, %d22, %d6
    0x1000030c0:            14 40 00 0e  bg,pn     %icc, +0x38   <0x1000030f8>
    0x1000030c4:            01 00 00 00  nop
    0x1000030c8:            b1 3e e0 00  sra       %i3, 0x0, %i0
    0x1000030cc:            87 2e 30 03  sllx      %i0, 0x3, %g3
    0x1000030d0:            f1 1e 80 03  ldd       [%i2 + %g3], %d24
    0x1000030d4:            84 00 c0 1a  add       %g3, %i2, %g2
    0x1000030d8:            b8 07 20 01  add       %i4, 0x1, %i4
    0x1000030dc:            a9 a1 88 58  faddd     %d6, %d24, %d20
    0x1000030e0:            80 a7 00 05  cmp       %i4, %g5
    0x1000030e4:            f5 18 a0 08  ldd       [%g2 + 0x8], %d26
    0x1000030e8:            b6 06 e0 02  add       %i3, 0x2, %i3
    0x1000030ec:            8d a5 08 5a  faddd     %d20, %d26, %d6
    0x1000030f0:            04 4f ff f7  ble,pt    %icc, -0x24   <0x1000030cc>
    0x1000030f4:            b1 3e e0 00  sra       %i3, 0x0, %i0
    0x1000030f8:            a4 04 a0 01  add       %l2, 0x1, %l2
    0x1000030fc:            80 a4 80 05  cmp       %l2, %g5
    0x100003100:            a2 04 40 10  add       %l1, %l0, %l1
    0x100003104:            04 4f ff 95  ble,pt    %icc, -0x1ac  <0x100002f58>
    0x100003108:            b8 10 20 00  clr       %i4
    0x10000310c:            f8 5b a8 af  ldx       [%sp + 0x8af], %i4
    0x100003110:            33 00 04 00  sethi     %hi(0x100000), %i1
    0x100003114:            96 16 61 11  or        %i1, 0x111, %o3
    0x100003118:            b5 2a f0 0c  sllx      %o3, 0xc, %i2
    0x10000311c:            90 07 27 48  add       %i4, 0x748, %o0
    0x100003120:            40 04 37 88  call      +0x10de20     <0x100110f40>
    0x100003124:            cd 3e a6 b8  std       %d6, [%i2 + 0x6b8]
    0x100003128:            15 00 04 00  sethi     %hi(0x100000), %o2
    0x10000312c:            90 12 a1 11  or        %o2, 0x111, %o0
    0x100003130:            b7 2a 30 0c  sllx      %o0, 0xc, %i3
    0x100003134:            f1 1e e6 b0  ldd       [%i3 + 0x6b0], %d24
    0x100003138:            fd 1e a6 b8  ldd       [%i2 + 0x6b8], %d30
    0x10000313c:            f1 3b a9 ff  std       %d24, [%sp + 0x9ff]
    0x100003140:            d4 5b a9 ff  ldx       [%sp + 0x9ff], %o2
    0x100003144:            b5 a6 08 de  fsubd     %d24, %d30, %d26
    0x100003148:            d6 5e a6 b8  ldx       [%i2 + 0x6b8], %o3
    0x10000314c:            90 07 27 70  add       %i4, 0x770, %o0
    0x100003150:            f5 3b a9 5f  std       %d26, [%sp + 0x95f]
    0x100003154:            40 04 37 7b  call      +0x10ddec     <0x100110f40>
    0x100003158:            d2 5b a9 5f  ldx       [%sp + 0x95f], %o1
    0x10000315c:            e9 1e a6 b8  ldd       [%i2 + 0x6b8], %d20
    0x100003160:            dd 1e e6 b0  ldd       [%i3 + 0x6b0], %d14
    0x100003164:            07 00 04 00  sethi     %hi(0x100000), %g3
    0x100003168:            84 10 e0 01  or        %g3, 0x1, %g2
    0x10000316c:            b7 a3 88 d4  fsubd     %d14, %d20, %d58
    0x100003170:            83 28 b0 0c  sllx      %g2, 0xc, %g1
    0x100003174:            ed 18 6d 98  ldd       [%g1 + 0xd98], %d22
    0x100003178:            bb a0 01 5b  fabsd     %d58, %d60
    0x10000317c:            85 af 4a d6  fcmped    %fcc2, %d60, %d22
    0x100003180:            19 60 00 06  fbuge,pn  %fcc2, +0x18   <0x100003198>
    0x100003184:            01 00 00 00  nop
    0x100003188:            40 04 37 6e  call      +0x10ddb8     <0x100110f40>
    0x10000318c:            90 07 27 a0  add       %i4, 0x7a0, %o0
    0x100003190:            10 80 00 e9  ba        +0x3a4        <0x100003534>
    0x100003194:            01 00 00 00  nop
    0x100003198:            40 04 37 6a  call      +0x10dda8     <0x100110f40>
    0x10000319c:            90 07 27 b0  add       %i4, 0x7b0, %o0
    0x1000031a0:            10 80 00 e5  ba        +0x394        <0x100003534>
    0x1000031a4:            01 00 00 00  nop
    0x1000031a8:            09 00 04 00  sethi     %hi(0x100000), %g4
    0x1000031ac:            96 11 21 11  or        %g4, 0x111, %o3
    0x1000031b0:            95 2a f0 0c  sllx      %o3, 0xc, %o2
    0x1000031b4:            40 00 1a d1  call      +0x6b44       <0x100009cf8>
    0x1000031b8:            90 02 a4 f8  add       %o2, 0x4f8, %o0
    0x1000031bc:            40 04 37 39  call      +0x10dce4     <0x100110ea0>
    0x1000031c0:            90 10 3f ff  mov       -0x1, %o0
    0x1000031c4:            e4 06 24 78  ld        [%i0 + 0x478], %l2
    0x1000031c8:            40 00 1a de  call      +0x6b78       <0x100009d40>
    0x1000031cc:            91 3c a0 00  sra       %l2, 0x0, %o0
    0x1000031d0:            80 a2 3f ff  cmp       %o0, -0x1
    0x1000031d4:            12 4f fb 7a  bne,pt    %icc, -0x1218 <0x100001fbc>
    0x1000031d8:            13 00 04 00  sethi     %hi(0x100000), %o1
    0x1000031dc:            03 00 04 00  sethi     %hi(0x100000), %g1
    0x1000031e0:            92 10 61 11  or        %g1, 0x111, %o1
    0x1000031e4:            8b 2a 70 0c  sllx      %o1, 0xc, %g5
    0x1000031e8:            40 00 1a c4  call      +0x6b10       <0x100009cf8>
    0x1000031ec:            90 01 65 08  add       %g5, 0x508, %o0
    0x1000031f0:            40 04 37 2c  call      +0x10dcb0     <0x100110ea0>
    0x1000031f4:            90 10 3f ff  mov       -0x1, %o0
    0x1000031f8:            10 bf fb 71  ba        -0x123c       <0x100001fbc>
    0x1000031fc:            13 00 04 00  sethi     %hi(0x100000), %o1
    0x100003200:            1f 00 04 00  sethi     %hi(0x100000), %o7
    0x100003204:            a2 13 e1 11  or        %o7, 0x111, %l1
    0x100003208:            a7 2c 70 0c  sllx      %l1, 0xc, %l3
    0x10000320c:            40 00 1a bb  call      +0x6aec       <0x100009cf8>
    0x100003210:            90 04 e5 20  add       %l3, 0x520, %o0
    0x100003214:            40 04 37 23  call      +0x10dc8c     <0x100110ea0>
    0x100003218:            90 10 3f ff  mov       -0x1, %o0
    0x10000321c:            10 bf fb 68  ba        -0x1260       <0x100001fbc>
    0x100003220:            13 00 04 00  sethi     %hi(0x100000), %o1
    0x100003224:            29 00 04 00  sethi     %hi(0x100000), %l4
    0x100003228:            98 15 21 11  or        %l4, 0x111, %o4
    0x10000322c:            ad 2b 30 0c  sllx      %o4, 0xc, %l6
    0x100003230:            40 00 1a b2  call      +0x6ac8       <0x100009cf8>
    0x100003234:            90 05 a5 30  add       %l6, 0x530, %o0
    0x100003238:            40 04 37 1a  call      +0x10dc68     <0x100110ea0>
    0x10000323c:            90 10 3f ff  mov       -0x1, %o0
    0x100003240:            10 bf fb 5f  ba        -0x1284       <0x100001fbc>
    0x100003244:            13 00 04 00  sethi     %hi(0x100000), %o1
    0x100003248:            13 00 04 00  sethi     %hi(0x100000), %o1
    0x10000324c:            8a 12 61 11  or        %o1, 0x111, %g5
    0x100003250:            a5 29 70 0c  sllx      %g5, 0xc, %l2
    0x100003254:            40 00 1a a9  call      +0x6aa4       <0x100009cf8>
    0x100003258:            90 04 a5 58  add       %l2, 0x558, %o0
    0x10000325c:            40 04 37 11  call      +0x10dc44     <0x100110ea0>
    0x100003260:            90 10 3f ff  mov       -0x1, %o0
    0x100003264:            10 bf fb 56  ba        -0x12a8       <0x100001fbc>
    0x100003268:            13 00 04 00  sethi     %hi(0x100000), %o1
    0x10000326c:            15 00 04 00  sethi     %hi(0x100000), %o2
    0x100003270:            a8 12 a0 10  or        %o2, 0x10, %l4
    0x100003274:            99 2d 30 0c  sllx      %l4, 0xc, %o4
    0x100003278:            2d 00 04 00  sethi     %hi(0x100000), %l6
    0x10000327c:            b0 15 a0 10  or        %l6, 0x10, %i0
    0x100003280:            39 00 04 00  sethi     %hi(0x100000), %i4
    0x100003284:            21 00 04 00  sethi     %hi(0x100000), %l0
    0x100003288:            2d 00 04 00  sethi     %hi(0x100000), %l6
    0x10000328c:            40 04 37 2d  call      +0x10dcb4     <0x100110f40>
    0x100003290:            90 03 23 e8  add       %o4, 0x3e8, %o0
    0x100003294:            85 2e 30 0c  sllx      %i0, 0xc, %g2
    0x100003298:            b0 15 a0 10  or        %l6, 0x10, %i0
    0x10000329c:            40 04 37 29  call      +0x10dca4     <0x100110f40>
    0x1000032a0:            90 00 a4 00  add       %g2, 0x400, %o0
    0x1000032a4:            86 17 20 10  or        %i4, 0x10, %g3
    0x1000032a8:            9f 28 f0 0c  sllx      %g3, 0xc, %o7
    0x1000032ac:            90 03 e4 10  add       %o7, 0x410, %o0
    0x1000032b0:            39 00 04 00  sethi     %hi(0x100000), %i4
    0x1000032b4:            40 04 37 23  call      +0x10dc8c     <0x100110f40>
    0x1000032b8:            23 00 04 00  sethi     %hi(0x100000), %l1
    0x1000032bc:            a6 14 60 10  or        %l1, 0x10, %l3
    0x1000032c0:            bb 2c f0 0c  sllx      %l3, 0xc, %i5
    0x1000032c4:            40 04 37 1f  call      +0x10dc7c     <0x100110f40>
    0x1000032c8:            90 07 64 58  add       %i5, 0x458, %o0
    0x1000032cc:            9a 14 20 10  or        %l0, 0x10, %o5
    0x1000032d0:            83 2b 70 0c  sllx      %o5, 0xc, %g1
    0x1000032d4:            21 00 04 00  sethi     %hi(0x100000), %l0
    0x1000032d8:            40 04 37 1a  call      +0x10dc68     <0x100110f40>
    0x1000032dc:            90 00 64 98  add       %g1, 0x498, %o0
    0x1000032e0:            13 00 04 00  sethi     %hi(0x100000), %o1
    0x1000032e4:            8a 12 60 10  or        %o1, 0x10, %g5
    0x1000032e8:            a5 29 70 0c  sllx      %g5, 0xc, %l2
    0x1000032ec:            40 04 37 15  call      +0x10dc54     <0x100110f40>
    0x1000032f0:            90 04 a4 c0  add       %l2, 0x4c0, %o0
    0x1000032f4:            11 00 04 00  sethi     %hi(0x100000), %o0
    0x1000032f8:            88 12 20 10  or        %o0, 0x10, %g4
    0x1000032fc:            97 29 30 0c  sllx      %g4, 0xc, %o3
    0x100003300:            40 04 37 10  call      +0x10dc40     <0x100110f40>
    0x100003304:            90 02 e4 f8  add       %o3, 0x4f8, %o0
    0x100003308:            15 00 04 00  sethi     %hi(0x100000), %o2
    0x10000330c:            a8 12 a0 10  or        %o2, 0x10, %l4
    0x100003310:            99 2d 30 0c  sllx      %l4, 0xc, %o4
    0x100003314:            40 04 37 0b  call      +0x10dc2c     <0x100110f40>
    0x100003318:            90 03 25 30  add       %o4, 0x530, %o0
    0x10000331c:            85 2e 30 0c  sllx      %i0, 0xc, %g2
    0x100003320:            40 04 37 08  call      +0x10dc20     <0x100110f40>
    0x100003324:            90 00 a5 78  add       %g2, 0x578, %o0
    0x100003328:            86 17 20 10  or        %i4, 0x10, %g3
    0x10000332c:            9f 28 f0 0c  sllx      %g3, 0xc, %o7
    0x100003330:            90 03 e5 c0  add       %o7, 0x5c0, %o0
    0x100003334:            40 04 37 03  call      +0x10dc0c     <0x100110f40>
    0x100003338:            23 00 04 00  sethi     %hi(0x100000), %l1
    0x10000333c:            a6 14 60 10  or        %l1, 0x10, %l3
    0x100003340:            bb 2c f0 0c  sllx      %l3, 0xc, %i5
    0x100003344:            40 04 36 ff  call      +0x10dbfc     <0x100110f40>
    0x100003348:            90 07 66 00  add       %i5, 0x600, %o0
    0x10000334c:            9a 14 20 10  or        %l0, 0x10, %o5
    0x100003350:            83 2b 70 0c  sllx      %o5, 0xc, %g1
    0x100003354:            40 04 36 fb  call      +0x10dbec     <0x100110f40>
    0x100003358:            90 00 66 28  add       %g1, 0x628, %o0
    0x10000335c:            13 00 04 00  sethi     %hi(0x100000), %o1
    0x100003360:            8a 12 60 10  or        %o1, 0x10, %g5
    0x100003364:            a5 29 70 0c  sllx      %g5, 0xc, %l2
    0x100003368:            90 04 a6 58  add       %l2, 0x658, %o0
    0x10000336c:            98 10 20 04  mov       0x4, %o4
    0x100003370:            94 10 20 01  mov       0x1, %o2
    0x100003374:            92 10 20 0a  mov       0xa, %o1
    0x100003378:            40 04 36 f2  call      +0x10dbc8     <0x100110f40>
    0x10000337c:            17 00 00 40  sethi     %hi(0x10000), %o3
    0x100003380:            40 04 36 c8  call      +0x10db20     <0x100110ea0>
    0x100003384:            90 10 20 00  clr       %o0
    0x100003388:            10 bf fb 0d  ba        -0x13cc       <0x100001fbc>
    0x10000338c:            13 00 04 00  sethi     %hi(0x100000), %o1
    0x100003390:            11 00 04 00  sethi     %hi(0x100000), %o0
    0x100003394:            88 12 21 11  or        %o0, 0x111, %g4
    0x100003398:            97 29 30 0c  sllx      %g4, 0xc, %o3
    0x10000339c:            40 00 1a 57  call      +0x695c       <0x100009cf8>
    0x1000033a0:            90 02 e5 90  add       %o3, 0x590, %o0
    0x1000033a4:            40 04 36 bf  call      +0x10dafc     <0x100110ea0>
    0x1000033a8:            90 10 3f ff  mov       -0x1, %o0
    0x1000033ac:            e2 04 a1 78  ld        [%l2 + 0x178], %l1
    0x1000033b0:            10 bf fb 2b  ba        -0x1354       <0x10000205c>
    0x1000033b4:            1f 00 04 00  sethi     %hi(0x100000), %o7
    0x1000033b8:            33 00 04 00  sethi     %hi(0x100000), %i1
    0x1000033bc:            b8 16 61 11  or        %i1, 0x111, %i4
    0x1000033c0:            a3 2f 30 0c  sllx      %i4, 0xc, %l1
    0x1000033c4:            40 00 1a 4d  call      +0x6934       <0x100009cf8>
    0x1000033c8:            90 04 65 c0  add       %l1, 0x5c0, %o0
    0x1000033cc:            40 04 36 b5  call      +0x10dad4     <0x100110ea0>
    0x1000033d0:            90 10 3f ff  mov       -0x1, %o0
    0x1000033d4:            10 bf fb 72  ba        -0x1238       <0x10000219c>
    0x1000033d8:            90 10 20 80  mov       0x80, %o0
    0x1000033dc:            2f 00 04 00  sethi     %hi(0x100000), %l7
    0x1000033e0:            ba 15 e1 11  or        %l7, 0x111, %i5
    0x1000033e4:            9f 2f 70 0c  sllx      %i5, 0xc, %o7
    0x1000033e8:            90 03 e5 e0  add       %o7, 0x5e0, %o0
    0x1000033ec:            40 00 1a 43  call      +0x690c       <0x100009cf8>
    0x1000033f0:            01 00 00 00  nop
    0x1000033f4:            40 04 36 ab  call      +0x10daac     <0x100110ea0>
    0x1000033f8:            90 10 3f ff  mov       -0x1, %o0
    0x1000033fc:            10 bf fb c5  ba        -0x10ec       <0x100002310>
    0x100003400:            92 10 20 00  clr       %o1
    0x100003404:            05 00 04 00  sethi     %hi(0x100000), %g2
    0x100003408:            86 10 a1 11  or        %g2, 0x111, %g3
    0x10000340c:            a5 28 f0 0c  sllx      %g3, 0xc, %l2
    0x100003410:            40 00 1a 3a  call      +0x68e8       <0x100009cf8>
    0x100003414:            90 04 a6 08  add       %l2, 0x608, %o0
    0x100003418:            40 04 36 a2  call      +0x10da88     <0x100110ea0>
    0x10000341c:            90 10 3f ff  mov       -0x1, %o0
    0x100003420:            10 bf fb bc  ba        -0x1110       <0x100002310>
    0x100003424:            92 10 20 00  clr       %o1
    0x100003428:            19 00 04 00  sethi     %hi(0x100000), %o4
    0x10000342c:            aa 13 21 11  or        %o4, 0x111, %l5
    0x100003430:            ad 2d 70 0c  sllx      %l5, 0xc, %l6
    0x100003434:            40 00 1a 31  call      +0x68c4       <0x100009cf8>
    0x100003438:            90 05 a6 28  add       %l6, 0x628, %o0
    0x10000343c:            40 04 36 99  call      +0x10da64     <0x100110ea0>
    0x100003440:            90 10 3f ff  mov       -0x1, %o0
    0x100003444:            10 bf fb b3  ba        -0x1134       <0x100002310>
    0x100003448:            92 10 20 00  clr       %o1
    0x10000344c:            15 00 04 00  sethi     %hi(0x100000), %o2
    0x100003450:            88 12 a1 11  or        %o2, 0x111, %g4
    0x100003454:            b7 29 30 0c  sllx      %g4, 0xc, %i3
    0x100003458:            40 00 1a 28  call      +0x68a0       <0x100009cf8>
    0x10000345c:            90 06 e6 50  add       %i3, 0x650, %o0
    0x100003460:            40 04 36 90  call      +0x10da40     <0x100110ea0>
    0x100003464:            90 10 3f ff  mov       -0x1, %o0
    0x100003468:            10 bf fb aa  ba        -0x1158       <0x100002310>
    0x10000346c:            92 10 20 00  clr       %o1
    0x100003470:            11 00 04 00  sethi     %hi(0x100000), %o0
    0x100003474:            92 12 21 11  or        %o0, 0x111, %o1
    0x100003478:            8b 2a 70 0c  sllx      %o1, 0xc, %g5
    0x10000347c:            40 00 1a 1f  call      +0x687c       <0x100009cf8>
    0x100003480:            90 01 66 78  add       %g5, 0x678, %o0
    0x100003484:            40 04 36 87  call      +0x10da1c     <0x100110ea0>
    0x100003488:            90 10 3f ff  mov       -0x1, %o0
    0x10000348c:            10 bf fb a1  ba        -0x117c       <0x100002310>
    0x100003490:            92 10 20 00  clr       %o1
    0x100003494:            37 00 04 00  sethi     %hi(0x100000), %i3
    0x100003498:            a8 16 e0 10  or        %i3, 0x10, %l4
    0x10000349c:            99 2d 30 0c  sllx      %l4, 0xc, %o4
    0x1000034a0:            40 04 36 a8  call      +0x10daa0     <0x100110f40>
    0x1000034a4:            90 03 27 28  add       %o4, 0x728, %o0
    0x1000034a8:            40 04 36 7e  call      +0x10d9f8     <0x100110ea0>
    0x1000034ac:            90 10 3f ff  mov       -0x1, %o0
    0x1000034b0:            10 bf fb ae  ba        -0x1148       <0x100002368>
    0x1000034b4:            c8 5e 61 60  ldx       [%i1 + 0x160], %g4
    0x1000034b8:            13 00 04 00  sethi     %hi(0x100000), %o1
    0x1000034bc:            82 12 60 10  or        %o1, 0x10, %g1
    0x1000034c0:            8b 28 70 0c  sllx      %g1, 0xc, %g5
    0x1000034c4:            40 04 36 9f  call      +0x10da7c     <0x100110f40>
    0x1000034c8:            90 01 67 50  add       %g5, 0x750, %o0
    0x1000034cc:            d6 5e 61 60  ldx       [%i1 + 0x160], %o3
    0x1000034d0:            40 04 36 e4  call      +0x10db90     <0x100111060>
    0x1000034d4:            90 02 e0 20  add       %o3, 0x20, %o0
    0x1000034d8:            40 04 36 72  call      +0x10d9c8     <0x100110ea0>
    0x1000034dc:            90 10 3f ff  mov       -0x1, %o0
    0x1000034e0:            d4 5e 61 60  ldx       [%i1 + 0x160], %o2
    0x1000034e4:            10 bf fb a7  ba        -0x1164       <0x100002380>
    0x1000034e8:            c0 72 a0 48  clrx      [%o2 + 0x48]
    0x1000034ec:            25 00 04 00  sethi     %hi(0x100000), %l2
    0x1000034f0:            a6 14 a0 10  or        %l2, 0x10, %l3
    0x1000034f4:            af 2c f0 0c  sllx      %l3, 0xc, %l7
    0x1000034f8:            40 04 36 92  call      +0x10da48     <0x100110f40>
    0x1000034fc:            90 05 e7 90  add       %l7, 0x790, %o0
    0x100003500:            40 04 36 68  call      +0x10d9a0     <0x100110ea0>
    0x100003504:            90 10 3f ff  mov       -0x1, %o0
    0x100003508:            10 bf fd 0e  ba        -0xbc8        <0x100002940>
    0x10000350c:            a2 04 60 01  add       %l1, 0x1, %l1
    0x100003510:            0b 00 04 00  sethi     %hi(0x100000), %g5
    0x100003514:            96 11 60 10  or        %g5, 0x10, %o3
    0x100003518:            95 2a f0 0c  sllx      %o3, 0xc, %o2
    0x10000351c:            40 04 36 89  call      +0x10da24     <0x100110f40>
    0x100003520:            90 02 a7 b0  add       %o2, 0x7b0, %o0
    0x100003524:            40 04 36 5f  call      +0x10d97c     <0x100110ea0>
    0x100003528:            90 10 3f ff  mov       -0x1, %o0
    0x10000352c:            10 bf fd 20  ba        -0xb80        <0x1000029ac>
    0x100003530:            da 04 a4 78  ld        [%l2 + 0x478], %o5
    0x100003534:            40 04 36 5b  call      +0x10d96c     <0x100110ea0>
    0x100003538:            90 10 20 00  clr       %o0
    0x10000353c:            81 c7 e0 08  ret
    0x100003540:            91 e8 20 00  restore   %g0, 0x0, %o0
    0x100003544:            00 00 00 00  illtrap   0x0
    0x100003548:            00 00 00 00  illtrap   0x0
    0x10000354c:            00 00 00 00  illtrap   0x0
    0x100003550:            00 00 00 00  illtrap   0x0
    0x100003554:            00 00 00 00  illtrap   0x0
    0x100003558:            00 00 00 00  illtrap   0x0
    0x10000355c:            00 00 00 00  illtrap   0x0
SlaveStart()
    0x100003560:            9d e3 be 40  save      %sp, -0x1c0, %sp
    0x100003564:            10 80 00 02  ba        +0x8          <0x10000356c>
    0x100003568:            01 00 00 00  nop
    0x10000356c:            c0 73 a9 a7  clrx      [%sp + 0x9a7]
    0x100003570:            05 00 04 00  sethi     %hi(0x100000), %g2
    0x100003574:            86 10 a1 12  or        %g2, 0x112, %g3
    0x100003578:            89 28 f0 0c  sllx      %g3, 0xc, %g4
    0x10000357c:            8a 01 21 60  add       %g4, 0x160, %g5
    0x100003580:            de 59 60 00  ldx       [%g5], %o7
    0x100003584:            a0 03 e0 08  add       %o7, 0x8, %l0
    0x100003588:            90 10 00 10  mov       %l0, %o0
    0x10000358c:            40 04 36 bd  call      +0x10daf4     <0x100111080>
    0x100003590:            01 00 00 00  nop
    0x100003594:            23 00 04 00  sethi     %hi(0x100000), %l1
    0x100003598:            a4 14 61 12  or        %l1, 0x112, %l2
    0x10000359c:            a7 2c b0 0c  sllx      %l2, 0xc, %l3
    0x1000035a0:            a8 04 e1 60  add       %l3, 0x160, %l4
    0x1000035a4:            ea 5d 20 00  ldx       [%l4], %l5
    0x1000035a8:            ec 05 60 00  ld        [%l5], %l6
    0x1000035ac:            ec 23 a9 9f  st        %l6, [%sp + 0x99f]
    0x1000035b0:            2f 00 04 00  sethi     %hi(0x100000), %l7
    0x1000035b4:            84 15 e1 12  or        %l7, 0x112, %g2
    0x1000035b8:            87 28 b0 0c  sllx      %g2, 0xc, %g3
    0x1000035bc:            88 00 e1 60  add       %g3, 0x160, %g4
    0x1000035c0:            ca 59 20 00  ldx       [%g4], %g5
    0x1000035c4:            d0 01 60 00  ld        [%g5], %o0
    0x1000035c8:            92 02 20 01  add       %o0, 0x1, %o1
    0x1000035cc:            15 00 04 00  sethi     %hi(0x100000), %o2
    0x1000035d0:            96 12 a1 12  or        %o2, 0x112, %o3
    0x1000035d4:            95 2a f0 0c  sllx      %o3, 0xc, %o2
    0x1000035d8:            96 02 a1 60  add       %o2, 0x160, %o3
    0x1000035dc:            d4 5a e0 00  ldx       [%o3], %o2
    0x1000035e0:            d2 22 a0 00  st        %o1, [%o2]
    0x1000035e4:            17 00 04 00  sethi     %hi(0x100000), %o3
    0x1000035e8:            98 12 e1 12  or        %o3, 0x112, %o4
    0x1000035ec:            9b 2b 30 0c  sllx      %o4, 0xc, %o5
    0x1000035f0:            9e 03 61 60  add       %o5, 0x160, %o7
    0x1000035f4:            e0 5b e0 00  ldx       [%o7], %l0
    0x1000035f8:            a2 04 20 08  add       %l0, 0x8, %l1
    0x1000035fc:            90 10 00 11  mov       %l1, %o0
    0x100003600:            40 04 36 a8  call      +0x10daa0     <0x1001110a0>
    0x100003604:            01 00 00 00  nop
    0x100003608:            25 00 04 00  sethi     %hi(0x100000), %l2
    0x10000360c:            a6 14 a1 12  or        %l2, 0x112, %l3
    0x100003610:            a9 2c f0 0c  sllx      %l3, 0xc, %l4
    0x100003614:            aa 05 21 60  add       %l4, 0x160, %l5
    0x100003618:            ec 5d 60 00  ldx       [%l5], %l6
    0x10000361c:            ae 05 a0 20  add       %l6, 0x20, %l7
    0x100003620:            90 10 00 17  mov       %l7, %o0
    0x100003624:            40 04 36 97  call      +0x10da5c     <0x100111080>
    0x100003628:            01 00 00 00  nop
    0x10000362c:            84 10 00 08  mov       %o0, %g2
    0x100003630:            87 38 a0 00  sra       %g2, 0x0, %g3
    0x100003634:            c6 73 a9 97  stx       %g3, [%sp + 0x997]
    0x100003638:            c8 5b a9 97  ldx       [%sp + 0x997], %g4
    0x10000363c:            80 a1 20 00  cmp       %g4, 0x0
    0x100003640:            12 60 00 04  bne,pn    %xcc, +0x10   <0x100003650>
    0x100003644:            01 00 00 00  nop
    0x100003648:            10 80 00 10  ba        +0x40         <0x100003688>
    0x10000364c:            01 00 00 00  nop
    0x100003650:            05 00 04 00  sethi     %hi(0x100000), %g2
    0x100003654:            86 10 a0 10  or        %g2, 0x10, %g3
    0x100003658:            89 28 f0 0c  sllx      %g3, 0xc, %g4
    0x10000365c:            8a 01 2b 98  add       %g4, 0xb98, %g5
    0x100003660:            9e 10 00 05  mov       %g5, %o7
    0x100003664:            90 10 00 0f  mov       %o7, %o0
    0x100003668:            40 04 36 36  call      +0x10d8d8     <0x100110f40>
    0x10000366c:            01 00 00 00  nop
    0x100003670:            a0 10 3f ff  mov       -0x1, %l0
    0x100003674:            90 10 00 10  mov       %l0, %o0
    0x100003678:            40 04 36 0a  call      +0x10d828     <0x100110ea0>
    0x10000367c:            01 00 00 00  nop
    0x100003680:            10 80 00 02  ba        +0x8          <0x100003688>
    0x100003684:            01 00 00 00  nop
    0x100003688:            05 00 04 00  sethi     %hi(0x100000), %g2
    0x10000368c:            86 10 a1 12  or        %g2, 0x112, %g3
    0x100003690:            89 28 f0 0c  sllx      %g3, 0xc, %g4
    0x100003694:            8a 01 21 60  add       %g4, 0x160, %g5
    0x100003698:            de 59 60 00  ldx       [%g5], %o7
    0x10000369c:            e0 5b e0 50  ldx       [%o7 + 0x50], %l0
    0x1000036a0:            e0 73 a9 8f  stx       %l0, [%sp + 0x98f]
    0x1000036a4:            23 00 04 00  sethi     %hi(0x100000), %l1
    0x1000036a8:            a4 14 61 12  or        %l1, 0x112, %l2
    0x1000036ac:            a7 2c b0 0c  sllx      %l2, 0xc, %l3
    0x1000036b0:            a8 04 e1 60  add       %l3, 0x160, %l4
    0x1000036b4:            ea 5d 20 00  ldx       [%l4], %l5
    0x1000036b8:            ec 5d 60 48  ldx       [%l5 + 0x48], %l6
    0x1000036bc:            ae 05 a0 01  add       %l6, 0x1, %l7
    0x1000036c0:            ee 73 a9 af  stx       %l7, [%sp + 0x9af]
    0x1000036c4:            05 00 04 00  sethi     %hi(0x100000), %g2
    0x1000036c8:            86 10 a1 12  or        %g2, 0x112, %g3
    0x1000036cc:            89 28 f0 0c  sllx      %g3, 0xc, %g4
    0x1000036d0:            8a 01 21 60  add       %g4, 0x160, %g5
    0x1000036d4:            de 59 60 00  ldx       [%g5], %o7
    0x1000036d8:            e0 5b a9 af  ldx       [%sp + 0x9af], %l0
    0x1000036dc:            e0 73 e0 48  stx       %l0, [%o7 + 0x48]
    0x1000036e0:            23 00 04 00  sethi     %hi(0x100000), %l1
    0x1000036e4:            a4 14 61 11  or        %l1, 0x111, %l2
    0x1000036e8:            a7 2c b0 0c  sllx      %l2, 0xc, %l3
    0x1000036ec:            a8 04 e4 78  add       %l3, 0x478, %l4
    0x1000036f0:            ea 05 20 00  ld        [%l4], %l5
    0x1000036f4:            ad 3d 60 00  sra       %l5, 0x0, %l6
    0x1000036f8:            ee 5b a9 af  ldx       [%sp + 0x9af], %l7
    0x1000036fc:            80 a5 c0 16  cmp       %l7, %l6
    0x100003700:            12 60 00 04  bne,pn    %xcc, +0x10   <0x100003710>
    0x100003704:            01 00 00 00  nop
    0x100003708:            10 80 00 44  ba        +0x110        <0x100003818>
    0x10000370c:            01 00 00 00  nop
    0x100003710:            84 03 a9 87  add       %sp, 0x987, %g2
    0x100003714:            92 10 00 02  mov       %g2, %o1
    0x100003718:            86 10 20 01  mov       0x1, %g3
    0x10000371c:            90 10 00 03  mov       %g3, %o0
    0x100003720:            40 04 36 68  call      +0x10d9a0     <0x1001110c0>
    0x100003724:            01 00 00 00  nop
    0x100003728:            09 00 04 00  sethi     %hi(0x100000), %g4
    0x10000372c:            8a 11 21 12  or        %g4, 0x112, %g5
    0x100003730:            91 29 70 0c  sllx      %g5, 0xc, %o0
    0x100003734:            92 02 21 60  add       %o0, 0x160, %o1
    0x100003738:            d4 5a 60 00  ldx       [%o1], %o2
    0x10000373c:            d6 5a a0 50  ldx       [%o2 + 0x50], %o3
    0x100003740:            d8 5b a9 8f  ldx       [%sp + 0x98f], %o4
    0x100003744:            80 a3 00 0b  cmp       %o4, %o3
    0x100003748:            02 60 00 04  be,pn     %xcc, +0x10   <0x100003758>
    0x10000374c:            01 00 00 00  nop
    0x100003750:            10 80 00 29  ba        +0xa4         <0x1000037f4>
    0x100003754:            01 00 00 00  nop
    0x100003758:            10 80 00 02  ba        +0x8          <0x100003760>
    0x10000375c:            01 00 00 00  nop
    0x100003760:            05 00 04 00  sethi     %hi(0x100000), %g2
    0x100003764:            86 10 a1 12  or        %g2, 0x112, %g3
    0x100003768:            89 28 f0 0c  sllx      %g3, 0xc, %g4
    0x10000376c:            8a 01 21 60  add       %g4, 0x160, %g5
    0x100003770:            de 59 60 00  ldx       [%g5], %o7
    0x100003774:            a0 03 e0 38  add       %o7, 0x38, %l0
    0x100003778:            23 00 04 00  sethi     %hi(0x100000), %l1
    0x10000377c:            a4 14 61 12  or        %l1, 0x112, %l2
    0x100003780:            a3 2c b0 0c  sllx      %l2, 0xc, %l1
    0x100003784:            a4 04 61 60  add       %l1, 0x160, %l2
    0x100003788:            e2 5c a0 00  ldx       [%l2], %l1
    0x10000378c:            a4 04 60 20  add       %l1, 0x20, %l2
    0x100003790:            90 10 00 10  mov       %l0, %o0
    0x100003794:            92 10 00 12  mov       %l2, %o1
    0x100003798:            40 04 36 52  call      +0x10d948     <0x1001110e0>
    0x10000379c:            01 00 00 00  nop
    0x1000037a0:            a6 10 00 08  mov       %o0, %l3
    0x1000037a4:            a9 3c e0 00  sra       %l3, 0x0, %l4
    0x1000037a8:            e8 73 a9 97  stx       %l4, [%sp + 0x997]
    0x1000037ac:            ea 5b a9 97  ldx       [%sp + 0x997], %l5
    0x1000037b0:            80 a5 60 00  cmp       %l5, 0x0
    0x1000037b4:            12 60 00 10  bne,pn    %xcc, +0x40   <0x1000037f4>
    0x1000037b8:            01 00 00 00  nop
    0x1000037bc:            10 80 00 02  ba        +0x8          <0x1000037c4>
    0x1000037c0:            01 00 00 00  nop
    0x1000037c4:            05 00 04 00  sethi     %hi(0x100000), %g2
    0x1000037c8:            86 10 a1 12  or        %g2, 0x112, %g3
    0x1000037cc:            89 28 f0 0c  sllx      %g3, 0xc, %g4
    0x1000037d0:            8a 01 21 60  add       %g4, 0x160, %g5
    0x1000037d4:            de 59 60 00  ldx       [%g5], %o7
    0x1000037d8:            e0 5b e0 50  ldx       [%o7 + 0x50], %l0
    0x1000037dc:            e2 5b a9 8f  ldx       [%sp + 0x98f], %l1
    0x1000037e0:            80 a4 40 10  cmp       %l1, %l0
    0x1000037e4:            02 67 ff df  be,pn     %xcc, -0x84   <0x100003760>
    0x1000037e8:            01 00 00 00  nop
    0x1000037ec:            10 80 00 02  ba        +0x8          <0x1000037f4>
    0x1000037f0:            01 00 00 00  nop
    0x1000037f4:            c4 03 a9 8b  ld        [%sp + 0x98b], %g2
    0x1000037f8:            87 38 a0 00  sra       %g2, 0x0, %g3
    0x1000037fc:            88 03 a9 7f  add       %sp, 0x97f, %g4
    0x100003800:            90 10 00 03  mov       %g3, %o0
    0x100003804:            92 10 00 04  mov       %g4, %o1
    0x100003808:            40 04 36 2e  call      +0x10d8b8     <0x1001110c0>
    0x10000380c:            01 00 00 00  nop
    0x100003810:            10 80 00 30  ba        +0xc0         <0x1000038d0>
    0x100003814:            01 00 00 00  nop
    0x100003818:            05 00 04 00  sethi     %hi(0x100000), %g2
    0x10000381c:            86 10 a1 12  or        %g2, 0x112, %g3
    0x100003820:            89 28 f0 0c  sllx      %g3, 0xc, %g4
    0x100003824:            8a 01 21 60  add       %g4, 0x160, %g5
    0x100003828:            de 59 60 00  ldx       [%g5], %o7
    0x10000382c:            e0 5b e0 50  ldx       [%o7 + 0x50], %l0
    0x100003830:            80 a4 20 00  cmp       %l0, 0x0
    0x100003834:            12 60 00 08  bne,pn    %xcc, +0x20   <0x100003854>
    0x100003838:            01 00 00 00  nop
    0x10000383c:            10 80 00 02  ba        +0x8          <0x100003844>
    0x100003840:            01 00 00 00  nop
    0x100003844:            84 10 20 01  mov       0x1, %g2
    0x100003848:            c4 23 a9 77  st        %g2, [%sp + 0x977]
    0x10000384c:            10 80 00 05  ba        +0x14         <0x100003860>
    0x100003850:            01 00 00 00  nop
    0x100003854:            c0 23 a9 77  clr       [%sp + 0x977]
    0x100003858:            10 80 00 02  ba        +0x8          <0x100003860>
    0x10000385c:            01 00 00 00  nop
    0x100003860:            c4 03 a9 77  ld        [%sp + 0x977], %g2
    0x100003864:            87 38 a0 00  sra       %g2, 0x0, %g3
    0x100003868:            09 00 04 00  sethi     %hi(0x100000), %g4
    0x10000386c:            8a 11 21 12  or        %g4, 0x112, %g5
    0x100003870:            89 29 70 0c  sllx      %g5, 0xc, %g4
    0x100003874:            8a 01 21 60  add       %g4, 0x160, %g5
    0x100003878:            c8 59 60 00  ldx       [%g5], %g4
    0x10000387c:            c6 71 20 50  stx       %g3, [%g4 + 0x50]
    0x100003880:            0b 00 04 00  sethi     %hi(0x100000), %g5
    0x100003884:            9e 11 61 12  or        %g5, 0x112, %o7
    0x100003888:            a1 2b f0 0c  sllx      %o7, 0xc, %l0
    0x10000388c:            a2 04 21 60  add       %l0, 0x160, %l1
    0x100003890:            e4 5c 60 00  ldx       [%l1], %l2
    0x100003894:            c0 74 a0 48  clrx      [%l2 + 0x48]
    0x100003898:            27 00 04 00  sethi     %hi(0x100000), %l3
    0x10000389c:            a8 14 e1 12  or        %l3, 0x112, %l4
    0x1000038a0:            ab 2d 30 0c  sllx      %l4, 0xc, %l5
    0x1000038a4:            ac 05 61 60  add       %l5, 0x160, %l6
    0x1000038a8:            ee 5d a0 00  ldx       [%l6], %l7
    0x1000038ac:            84 05 e0 38  add       %l7, 0x38, %g2
    0x1000038b0:            90 10 00 02  mov       %g2, %o0
    0x1000038b4:            40 04 36 13  call      +0x10d84c     <0x100111100>
    0x1000038b8:            01 00 00 00  nop
    0x1000038bc:            86 10 00 08  mov       %o0, %g3
    0x1000038c0:            89 38 e0 00  sra       %g3, 0x0, %g4
    0x1000038c4:            c8 73 a9 97  stx       %g4, [%sp + 0x997]
    0x1000038c8:            10 80 00 02  ba        +0x8          <0x1000038d0>
    0x1000038cc:            01 00 00 00  nop
    0x1000038d0:            05 00 04 00  sethi     %hi(0x100000), %g2
    0x1000038d4:            86 10 a1 12  or        %g2, 0x112, %g3
    0x1000038d8:            89 28 f0 0c  sllx      %g3, 0xc, %g4
    0x1000038dc:            8a 01 21 60  add       %g4, 0x160, %g5
    0x1000038e0:            de 59 60 00  ldx       [%g5], %o7
    0x1000038e4:            a0 03 e0 20  add       %o7, 0x20, %l0
    0x1000038e8:            90 10 00 10  mov       %l0, %o0
    0x1000038ec:            40 04 35 ed  call      +0x10d7b4     <0x1001110a0>
    0x1000038f0:            01 00 00 00  nop
    0x1000038f4:            23 00 04 00  sethi     %hi(0x100000), %l1
    0x1000038f8:            a4 14 61 12  or        %l1, 0x112, %l2
    0x1000038fc:            a7 2c b0 0c  sllx      %l2, 0xc, %l3
    0x100003900:            a8 04 e0 c0  add       %l3, 0xc0, %l4
    0x100003904:            ea 05 20 00  ld        [%l4], %l5
    0x100003908:            ac 25 60 01  sub       %l5, 0x1, %l6
    0x10000390c:            af 2d a0 01  sll       %l6, 0x1, %l7
    0x100003910:            85 3d e0 00  sra       %l7, 0x0, %g2
    0x100003914:            87 28 b0 03  sllx      %g2, 0x3, %g3
    0x100003918:            90 10 00 03  mov       %g3, %o0
    0x10000391c:            40 04 36 01  call      +0x10d804     <0x100111120>
    0x100003920:            01 00 00 00  nop
    0x100003924:            88 10 00 08  mov       %o0, %g4
    0x100003928:            c8 73 a9 6f  stx       %g4, [%sp + 0x96f]
    0x10000392c:            ca 5b a9 6f  ldx       [%sp + 0x96f], %g5
    0x100003930:            80 a1 40 00  cmp       %g5, %g0
    0x100003934:            02 60 00 04  be,pn     %xcc, +0x10   <0x100003944>
    0x100003938:            01 00 00 00  nop
    0x10000393c:            10 80 00 19  ba        +0x64         <0x1000039a0>
    0x100003940:            01 00 00 00  nop
    0x100003944:            05 00 04 00  sethi     %hi(0x100000), %g2
    0x100003948:            86 10 a1 11  or        %g2, 0x111, %g3
    0x10000394c:            89 28 f0 0c  sllx      %g3, 0xc, %g4
    0x100003950:            8a 01 27 c0  add       %g4, 0x7c0, %g5
    0x100003954:            9e 10 00 05  mov       %g5, %o7
    0x100003958:            21 00 04 00  sethi     %hi(0x100000), %l0
    0x10000395c:            a2 14 20 10  or        %l0, 0x10, %l1
    0x100003960:            a1 2c 70 0c  sllx      %l1, 0xc, %l0
    0x100003964:            a2 04 2b c8  add       %l0, 0xbc8, %l1
    0x100003968:            a0 10 00 11  mov       %l1, %l0
    0x10000396c:            e2 03 a9 9f  ld        [%sp + 0x99f], %l1
    0x100003970:            a5 3c 60 00  sra       %l1, 0x0, %l2
    0x100003974:            90 10 00 0f  mov       %o7, %o0
    0x100003978:            92 10 00 10  mov       %l0, %o1
    0x10000397c:            94 10 00 12  mov       %l2, %o2
    0x100003980:            40 04 35 f0  call      +0x10d7c0     <0x100111140>
    0x100003984:            01 00 00 00  nop
    0x100003988:            a6 10 3f ff  mov       -0x1, %l3
    0x10000398c:            90 10 00 13  mov       %l3, %o0
    0x100003990:            40 04 35 44  call      +0x10d510     <0x100110ea0>
    0x100003994:            01 00 00 00  nop
    0x100003998:            10 80 00 02  ba        +0x8          <0x1000039a0>
    0x10000399c:            01 00 00 00  nop
    0x1000039a0:            c0 23 a9 6b  clr       [%sp + 0x96b]
    0x1000039a4:            05 00 04 00  sethi     %hi(0x100000), %g2
    0x1000039a8:            86 10 a1 12  or        %g2, 0x112, %g3
    0x1000039ac:            89 28 f0 0c  sllx      %g3, 0xc, %g4
    0x1000039b0:            8a 01 20 c0  add       %g4, 0xc0, %g5
    0x1000039b4:            de 01 60 00  ld        [%g5], %o7
    0x1000039b8:            a0 23 e0 01  sub       %o7, 0x1, %l0
    0x1000039bc:            a3 2c 20 01  sll       %l0, 0x1, %l1
    0x1000039c0:            e4 03 a9 6b  ld        [%sp + 0x96b], %l2
    0x1000039c4:            80 a4 80 11  cmp       %l2, %l1
    0x1000039c8:            06 40 00 04  bl,pn     %icc, +0x10   <0x1000039d8>
    0x1000039cc:            01 00 00 00  nop
    0x1000039d0:            10 80 00 22  ba        +0x88         <0x100003a58>
    0x1000039d4:            01 00 00 00  nop
    0x1000039d8:            10 80 00 02  ba        +0x8          <0x1000039e0>
    0x1000039dc:            01 00 00 00  nop
    0x1000039e0:            05 00 04 00  sethi     %hi(0x100000), %g2
    0x1000039e4:            86 10 a1 12  or        %g2, 0x112, %g3
    0x1000039e8:            89 28 f0 0c  sllx      %g3, 0xc, %g4
    0x1000039ec:            8a 01 20 d0  add       %g4, 0xd0, %g5
    0x1000039f0:            de 59 60 00  ldx       [%g5], %o7
    0x1000039f4:            e0 03 a9 6b  ld        [%sp + 0x96b], %l0
    0x1000039f8:            a3 3c 20 00  sra       %l0, 0x0, %l1
    0x1000039fc:            a1 2c 70 03  sllx      %l1, 0x3, %l0
    0x100003a00:            c3 1b c0 10  ldd       [%o7 + %l0], %d32
    0x100003a04:            e2 03 a9 6b  ld        [%sp + 0x96b], %l1
    0x100003a08:            a5 3c 60 00  sra       %l1, 0x0, %l2
    0x100003a0c:            a7 2c b0 03  sllx      %l2, 0x3, %l3
    0x100003a10:            e8 5b a9 6f  ldx       [%sp + 0x96f], %l4
    0x100003a14:            c3 3d 00 13  std       %d32, [%l4 + %l3]
    0x100003a18:            ea 03 a9 6b  ld        [%sp + 0x96b], %l5
    0x100003a1c:            ac 05 60 01  add       %l5, 0x1, %l6
    0x100003a20:            ec 23 a9 6b  st        %l6, [%sp + 0x96b]
    0x100003a24:            2f 00 04 00  sethi     %hi(0x100000), %l7
    0x100003a28:            84 15 e1 12  or        %l7, 0x112, %g2
    0x100003a2c:            87 28 b0 0c  sllx      %g2, 0xc, %g3
    0x100003a30:            88 00 e0 c0  add       %g3, 0xc0, %g4
    0x100003a34:            ca 01 20 00  ld        [%g4], %g5
    0x100003a38:            9e 21 60 01  sub       %g5, 0x1, %o7
    0x100003a3c:            a1 2b e0 01  sll       %o7, 0x1, %l0
    0x100003a40:            e2 03 a9 6b  ld        [%sp + 0x96b], %l1
    0x100003a44:            80 a4 40 10  cmp       %l1, %l0
    0x100003a48:            06 47 ff e6  bl,pn     %icc, -0x68   <0x1000039e0>
    0x100003a4c:            01 00 00 00  nop
    0x100003a50:            10 80 00 02  ba        +0x8          <0x100003a58>
    0x100003a54:            01 00 00 00  nop
    0x100003a58:            05 00 04 00  sethi     %hi(0x100000), %g2
    0x100003a5c:            86 10 a1 12  or        %g2, 0x112, %g3
    0x100003a60:            89 28 f0 0c  sllx      %g3, 0xc, %g4
    0x100003a64:            8a 01 20 c0  add       %g4, 0xc0, %g5
    0x100003a68:            de 01 60 00  ld        [%g5], %o7
    0x100003a6c:            a1 3b e0 00  sra       %o7, 0x0, %l0
    0x100003a70:            e2 03 a9 9f  ld        [%sp + 0x99f], %l1
    0x100003a74:            a5 3c 60 00  sra       %l1, 0x0, %l2
    0x100003a78:            a2 4c 00 12  mulx      %l0, %l2, %l1
    0x100003a7c:            25 00 04 00  sethi     %hi(0x100000), %l2
    0x100003a80:            a6 14 a1 11  or        %l2, 0x111, %l3
    0x100003a84:            a5 2c f0 0c  sllx      %l3, 0xc, %l2
    0x100003a88:            a6 04 a4 78  add       %l2, 0x478, %l3
    0x100003a8c:            e4 04 e0 00  ld        [%l3], %l2
    0x100003a90:            a7 3c 60 1f  sra       %l1, 0x1f, %l3
    0x100003a94:            81 80 00 13  wr        %g0, %l3, %y
    0x100003a98:            a8 fc 40 12  sdivcc    %l1, %l2, %l4
    0x100003a9c:            1e 40 00 03  bvc,pn    %icc, +0xc    <0x100003aa8>
    0x100003aa0:            01 00 00 00  nop
    0x100003aa4:            29 20 00 00  sethi     %hi(0x80000000), %l4
    0x100003aa8:            e8 23 a9 67  st        %l4, [%sp + 0x967]
    0x100003aac:            2b 00 04 00  sethi     %hi(0x100000), %l5
    0x100003ab0:            ac 15 61 12  or        %l5, 0x112, %l6
    0x100003ab4:            af 2d b0 0c  sllx      %l6, 0xc, %l7
    0x100003ab8:            84 05 e0 c0  add       %l7, 0xc0, %g2
    0x100003abc:            c6 00 a0 00  ld        [%g2], %g3
    0x100003ac0:            c8 03 a9 9f  ld        [%sp + 0x99f], %g4
    0x100003ac4:            8a 01 20 01  add       %g4, 0x1, %g5
    0x100003ac8:            88 58 c0 05  smul      %g3, %g5, %g4
    0x100003acc:            0b 00 04 00  sethi     %hi(0x100000), %g5
    0x100003ad0:            9e 11 61 11  or        %g5, 0x111, %o7
    0x100003ad4:            a1 2b f0 0c  sllx      %o7, 0xc, %l0
    0x100003ad8:            a2 04 24 78  add       %l0, 0x478, %l1
    0x100003adc:            e4 04 60 00  ld        [%l1], %l2
    0x100003ae0:            a7 39 20 1f  sra       %g4, 0x1f, %l3
    0x100003ae4:            81 80 00 13  wr        %g0, %l3, %y
    0x100003ae8:            a8 f9 00 12  sdivcc    %g4, %l2, %l4
    0x100003aec:            1e 40 00 03  bvc,pn    %icc, +0xc    <0x100003af8>
    0x100003af0:            01 00 00 00  nop
    0x100003af4:            29 20 00 00  sethi     %hi(0x80000000), %l4
    0x100003af8:            e8 23 a9 5f  st        %l4, [%sp + 0x95f]
    0x100003afc:            ea 03 a9 67  ld        [%sp + 0x967], %l5
    0x100003b00:            ad 3d 60 00  sra       %l5, 0x0, %l6
    0x100003b04:            ec 73 a8 af  stx       %l6, [%sp + 0x8af]
    0x100003b08:            ee 03 a9 5f  ld        [%sp + 0x95f], %l7
    0x100003b0c:            85 3d e0 00  sra       %l7, 0x0, %g2
    0x100003b10:            c4 73 a8 b7  stx       %g2, [%sp + 0x8b7]
    0x100003b14:            07 00 04 00  sethi     %hi(0x100000), %g3
    0x100003b18:            88 10 e1 11  or        %g3, 0x111, %g4
    0x100003b1c:            8b 29 30 0c  sllx      %g4, 0xc, %g5
    0x100003b20:            9e 01 66 a8  add       %g5, 0x6a8, %o7
    0x100003b24:            e0 5b e0 00  ldx       [%o7], %l0
    0x100003b28:            23 00 04 00  sethi     %hi(0x100000), %l1
    0x100003b2c:            a4 14 61 12  or        %l1, 0x112, %l2
    0x100003b30:            a3 2c b0 0c  sllx      %l2, 0xc, %l1
    0x100003b34:            a4 04 60 c8  add       %l1, 0xc8, %l2
    0x100003b38:            e2 5c a0 00  ldx       [%l2], %l1
    0x100003b3c:            25 00 04 00  sethi     %hi(0x100000), %l2
    0x100003b40:            a6 14 a1 12  or        %l2, 0x112, %l3
    0x100003b44:            a5 2c f0 0c  sllx      %l3, 0xc, %l2
    0x100003b48:            a6 04 a1 88  add       %l2, 0x188, %l3
    0x100003b4c:            e4 5c e0 00  ldx       [%l3], %l2
    0x100003b50:            27 00 04 00  sethi     %hi(0x100000), %l3
    0x100003b54:            a8 14 e1 11  or        %l3, 0x111, %l4
    0x100003b58:            a7 2d 30 0c  sllx      %l4, 0xc, %l3
    0x100003b5c:            a8 04 e6 a0  add       %l3, 0x6a0, %l4
    0x100003b60:            e6 05 20 00  ld        [%l4], %l3
    0x100003b64:            a9 3c e0 00  sra       %l3, 0x0, %l4
    0x100003b68:            e6 5b a9 6f  ldx       [%sp + 0x96f], %l3
    0x100003b6c:            ea 03 a9 9f  ld        [%sp + 0x99f], %l5
    0x100003b70:            ad 3d 60 00  sra       %l5, 0x0, %l6
    0x100003b74:            90 10 00 10  mov       %l0, %o0
    0x100003b78:            92 10 00 11  mov       %l1, %o1
    0x100003b7c:            94 10 00 12  mov       %l2, %o2
    0x100003b80:            98 10 00 14  mov       %l4, %o4
    0x100003b84:            96 10 00 13  mov       %l3, %o3
    0x100003b88:            9a 10 00 16  mov       %l6, %o5
    0x100003b8c:            40 00 01 f5  call      +0x7d4        <0x100004360>
    0x100003b90:            01 00 00 00  nop
    0x100003b94:            2f 00 04 00  sethi     %hi(0x100000), %l7
    0x100003b98:            84 15 e1 12  or        %l7, 0x112, %g2
    0x100003b9c:            87 28 b0 0c  sllx      %g2, 0xc, %g3
    0x100003ba0:            88 00 e1 60  add       %g3, 0x160, %g4
    0x100003ba4:            ca 59 20 00  ldx       [%g4], %g5
    0x100003ba8:            90 01 60 20  add       %g5, 0x20, %o0
    0x100003bac:            40 04 35 35  call      +0x10d4d4     <0x100111080>
    0x100003bb0:            01 00 00 00  nop
    0x100003bb4:            92 10 00 08  mov       %o0, %o1
    0x100003bb8:            95 3a 60 00  sra       %o1, 0x0, %o2
    0x100003bbc:            d4 73 a9 57  stx       %o2, [%sp + 0x957]
    0x100003bc0:            d6 5b a9 57  ldx       [%sp + 0x957], %o3
    0x100003bc4:            80 a2 e0 00  cmp       %o3, 0x0
    0x100003bc8:            12 60 00 04  bne,pn    %xcc, +0x10   <0x100003bd8>
    0x100003bcc:            01 00 00 00  nop
    0x100003bd0:            10 80 00 10  ba        +0x40         <0x100003c10>
    0x100003bd4:            01 00 00 00  nop
    0x100003bd8:            05 00 04 00  sethi     %hi(0x100000), %g2
    0x100003bdc:            86 10 a0 10  or        %g2, 0x10, %g3
    0x100003be0:            89 28 f0 0c  sllx      %g3, 0xc, %g4
    0x100003be4:            8a 01 2b f8  add       %g4, 0xbf8, %g5
    0x100003be8:            9e 10 00 05  mov       %g5, %o7
    0x100003bec:            90 10 00 0f  mov       %o7, %o0
    0x100003bf0:            40 04 34 d4  call      +0x10d350     <0x100110f40>
    0x100003bf4:            01 00 00 00  nop
    0x100003bf8:            a0 10 3f ff  mov       -0x1, %l0
    0x100003bfc:            90 10 00 10  mov       %l0, %o0
    0x100003c00:            40 04 34 a8  call      +0x10d2a0     <0x100110ea0>
    0x100003c04:            01 00 00 00  nop
    0x100003c08:            10 80 00 02  ba        +0x8          <0x100003c10>
    0x100003c0c:            01 00 00 00  nop
    0x100003c10:            05 00 04 00  sethi     %hi(0x100000), %g2
    0x100003c14:            86 10 a1 12  or        %g2, 0x112, %g3
    0x100003c18:            89 28 f0 0c  sllx      %g3, 0xc, %g4
    0x100003c1c:            8a 01 21 60  add       %g4, 0x160, %g5
    0x100003c20:            de 59 60 00  ldx       [%g5], %o7
    0x100003c24:            e0 5b e0 50  ldx       [%o7 + 0x50], %l0
    0x100003c28:            e0 73 a9 4f  stx       %l0, [%sp + 0x94f]
    0x100003c2c:            23 00 04 00  sethi     %hi(0x100000), %l1
    0x100003c30:            a4 14 61 12  or        %l1, 0x112, %l2
    0x100003c34:            a7 2c b0 0c  sllx      %l2, 0xc, %l3
    0x100003c38:            a8 04 e1 60  add       %l3, 0x160, %l4
    0x100003c3c:            ea 5d 20 00  ldx       [%l4], %l5
    0x100003c40:            ec 5d 60 48  ldx       [%l5 + 0x48], %l6
    0x100003c44:            ae 05 a0 01  add       %l6, 0x1, %l7
    0x100003c48:            ee 73 a9 af  stx       %l7, [%sp + 0x9af]
    0x100003c4c:            05 00 04 00  sethi     %hi(0x100000), %g2
    0x100003c50:            86 10 a1 12  or        %g2, 0x112, %g3
    0x100003c54:            89 28 f0 0c  sllx      %g3, 0xc, %g4
    0x100003c58:            8a 01 21 60  add       %g4, 0x160, %g5
    0x100003c5c:            de 59 60 00  ldx       [%g5], %o7
    0x100003c60:            e0 5b a9 af  ldx       [%sp + 0x9af], %l0
    0x100003c64:            e0 73 e0 48  stx       %l0, [%o7 + 0x48]
    0x100003c68:            23 00 04 00  sethi     %hi(0x100000), %l1
    0x100003c6c:            a4 14 61 11  or        %l1, 0x111, %l2
    0x100003c70:            a7 2c b0 0c  sllx      %l2, 0xc, %l3
    0x100003c74:            a8 04 e4 78  add       %l3, 0x478, %l4
    0x100003c78:            ea 05 20 00  ld        [%l4], %l5
    0x100003c7c:            ad 3d 60 00  sra       %l5, 0x0, %l6
    0x100003c80:            ee 5b a9 af  ldx       [%sp + 0x9af], %l7
    0x100003c84:            80 a5 c0 16  cmp       %l7, %l6
    0x100003c88:            12 60 00 04  bne,pn    %xcc, +0x10   <0x100003c98>
    0x100003c8c:            01 00 00 00  nop
    0x100003c90:            10 80 00 44  ba        +0x110        <0x100003da0>
    0x100003c94:            01 00 00 00  nop
    0x100003c98:            84 03 a9 47  add       %sp, 0x947, %g2
    0x100003c9c:            92 10 00 02  mov       %g2, %o1
    0x100003ca0:            86 10 20 01  mov       0x1, %g3
    0x100003ca4:            90 10 00 03  mov       %g3, %o0
    0x100003ca8:            40 04 35 06  call      +0x10d418     <0x1001110c0>
    0x100003cac:            01 00 00 00  nop
    0x100003cb0:            09 00 04 00  sethi     %hi(0x100000), %g4
    0x100003cb4:            8a 11 21 12  or        %g4, 0x112, %g5
    0x100003cb8:            91 29 70 0c  sllx      %g5, 0xc, %o0
    0x100003cbc:            92 02 21 60  add       %o0, 0x160, %o1
    0x100003cc0:            d4 5a 60 00  ldx       [%o1], %o2
    0x100003cc4:            d6 5a a0 50  ldx       [%o2 + 0x50], %o3
    0x100003cc8:            d8 5b a9 4f  ldx       [%sp + 0x94f], %o4
    0x100003ccc:            80 a3 00 0b  cmp       %o4, %o3
    0x100003cd0:            02 60 00 04  be,pn     %xcc, +0x10   <0x100003ce0>
    0x100003cd4:            01 00 00 00  nop
    0x100003cd8:            10 80 00 29  ba        +0xa4         <0x100003d7c>
    0x100003cdc:            01 00 00 00  nop
    0x100003ce0:            10 80 00 02  ba        +0x8          <0x100003ce8>
    0x100003ce4:            01 00 00 00  nop
    0x100003ce8:            05 00 04 00  sethi     %hi(0x100000), %g2
    0x100003cec:            86 10 a1 12  or        %g2, 0x112, %g3
    0x100003cf0:            89 28 f0 0c  sllx      %g3, 0xc, %g4
    0x100003cf4:            8a 01 21 60  add       %g4, 0x160, %g5
    0x100003cf8:            de 59 60 00  ldx       [%g5], %o7
    0x100003cfc:            a0 03 e0 38  add       %o7, 0x38, %l0
    0x100003d00:            23 00 04 00  sethi     %hi(0x100000), %l1
    0x100003d04:            a4 14 61 12  or        %l1, 0x112, %l2
    0x100003d08:            a3 2c b0 0c  sllx      %l2, 0xc, %l1
    0x100003d0c:            a4 04 61 60  add       %l1, 0x160, %l2
    0x100003d10:            e2 5c a0 00  ldx       [%l2], %l1
    0x100003d14:            a4 04 60 20  add       %l1, 0x20, %l2
    0x100003d18:            90 10 00 10  mov       %l0, %o0
    0x100003d1c:            92 10 00 12  mov       %l2, %o1
    0x100003d20:            40 04 34 f0  call      +0x10d3c0     <0x1001110e0>
    0x100003d24:            01 00 00 00  nop
    0x100003d28:            a6 10 00 08  mov       %o0, %l3
    0x100003d2c:            a9 3c e0 00  sra       %l3, 0x0, %l4
    0x100003d30:            e8 73 a9 57  stx       %l4, [%sp + 0x957]
    0x100003d34:            ea 5b a9 57  ldx       [%sp + 0x957], %l5
    0x100003d38:            80 a5 60 00  cmp       %l5, 0x0
    0x100003d3c:            12 60 00 10  bne,pn    %xcc, +0x40   <0x100003d7c>
    0x100003d40:            01 00 00 00  nop
    0x100003d44:            10 80 00 02  ba        +0x8          <0x100003d4c>
    0x100003d48:            01 00 00 00  nop
    0x100003d4c:            05 00 04 00  sethi     %hi(0x100000), %g2
    0x100003d50:            86 10 a1 12  or        %g2, 0x112, %g3
    0x100003d54:            89 28 f0 0c  sllx      %g3, 0xc, %g4
    0x100003d58:            8a 01 21 60  add       %g4, 0x160, %g5
    0x100003d5c:            de 59 60 00  ldx       [%g5], %o7
    0x100003d60:            e0 5b e0 50  ldx       [%o7 + 0x50], %l0
    0x100003d64:            e2 5b a9 4f  ldx       [%sp + 0x94f], %l1
    0x100003d68:            80 a4 40 10  cmp       %l1, %l0
    0x100003d6c:            02 67 ff df  be,pn     %xcc, -0x84   <0x100003ce8>
    0x100003d70:            01 00 00 00  nop
    0x100003d74:            10 80 00 02  ba        +0x8          <0x100003d7c>
    0x100003d78:            01 00 00 00  nop
    0x100003d7c:            c4 03 a9 4b  ld        [%sp + 0x94b], %g2
    0x100003d80:            87 38 a0 00  sra       %g2, 0x0, %g3
    0x100003d84:            88 03 a9 3f  add       %sp, 0x93f, %g4
    0x100003d88:            90 10 00 03  mov       %g3, %o0
    0x100003d8c:            92 10 00 04  mov       %g4, %o1
    0x100003d90:            40 04 34 cc  call      +0x10d330     <0x1001110c0>
    0x100003d94:            01 00 00 00  nop
    0x100003d98:            10 80 00 30  ba        +0xc0         <0x100003e58>
    0x100003d9c:            01 00 00 00  nop
    0x100003da0:            05 00 04 00  sethi     %hi(0x100000), %g2
    0x100003da4:            86 10 a1 12  or        %g2, 0x112, %g3
    0x100003da8:            89 28 f0 0c  sllx      %g3, 0xc, %g4
    0x100003dac:            8a 01 21 60  add       %g4, 0x160, %g5
    0x100003db0:            de 59 60 00  ldx       [%g5], %o7
    0x100003db4:            e0 5b e0 50  ldx       [%o7 + 0x50], %l0
    0x100003db8:            80 a4 20 00  cmp       %l0, 0x0
    0x100003dbc:            12 60 00 08  bne,pn    %xcc, +0x20   <0x100003ddc>
    0x100003dc0:            01 00 00 00  nop
    0x100003dc4:            10 80 00 02  ba        +0x8          <0x100003dcc>
    0x100003dc8:            01 00 00 00  nop
    0x100003dcc:            84 10 20 01  mov       0x1, %g2
    0x100003dd0:            c4 23 a9 37  st        %g2, [%sp + 0x937]
    0x100003dd4:            10 80 00 05  ba        +0x14         <0x100003de8>
    0x100003dd8:            01 00 00 00  nop
    0x100003ddc:            c0 23 a9 37  clr       [%sp + 0x937]
    0x100003de0:            10 80 00 02  ba        +0x8          <0x100003de8>
    0x100003de4:            01 00 00 00  nop
    0x100003de8:            c4 03 a9 37  ld        [%sp + 0x937], %g2
    0x100003dec:            87 38 a0 00  sra       %g2, 0x0, %g3
    0x100003df0:            09 00 04 00  sethi     %hi(0x100000), %g4
    0x100003df4:            8a 11 21 12  or        %g4, 0x112, %g5
    0x100003df8:            89 29 70 0c  sllx      %g5, 0xc, %g4
    0x100003dfc:            8a 01 21 60  add       %g4, 0x160, %g5
    0x100003e00:            c8 59 60 00  ldx       [%g5], %g4
    0x100003e04:            c6 71 20 50  stx       %g3, [%g4 + 0x50]
    0x100003e08:            0b 00 04 00  sethi     %hi(0x100000), %g5
    0x100003e0c:            9e 11 61 12  or        %g5, 0x112, %o7
    0x100003e10:            a1 2b f0 0c  sllx      %o7, 0xc, %l0
    0x100003e14:            a2 04 21 60  add       %l0, 0x160, %l1
    0x100003e18:            e4 5c 60 00  ldx       [%l1], %l2
    0x100003e1c:            c0 74 a0 48  clrx      [%l2 + 0x48]
    0x100003e20:            27 00 04 00  sethi     %hi(0x100000), %l3
    0x100003e24:            a8 14 e1 12  or        %l3, 0x112, %l4
    0x100003e28:            ab 2d 30 0c  sllx      %l4, 0xc, %l5
    0x100003e2c:            ac 05 61 60  add       %l5, 0x160, %l6
    0x100003e30:            ee 5d a0 00  ldx       [%l6], %l7
    0x100003e34:            84 05 e0 38  add       %l7, 0x38, %g2
    0x100003e38:            90 10 00 02  mov       %g2, %o0
    0x100003e3c:            40 04 34 b1  call      +0x10d2c4     <0x100111100>
    0x100003e40:            01 00 00 00  nop
    0x100003e44:            86 10 00 08  mov       %o0, %g3
    0x100003e48:            89 38 e0 00  sra       %g3, 0x0, %g4
    0x100003e4c:            c8 73 a9 57  stx       %g4, [%sp + 0x957]
    0x100003e50:            10 80 00 02  ba        +0x8          <0x100003e58>
    0x100003e54:            01 00 00 00  nop
    0x100003e58:            05 00 04 00  sethi     %hi(0x100000), %g2
    0x100003e5c:            86 10 a1 12  or        %g2, 0x112, %g3
    0x100003e60:            89 28 f0 0c  sllx      %g3, 0xc, %g4
    0x100003e64:            8a 01 21 60  add       %g4, 0x160, %g5
    0x100003e68:            de 59 60 00  ldx       [%g5], %o7
    0x100003e6c:            a0 03 e0 20  add       %o7, 0x20, %l0
    0x100003e70:            90 10 00 10  mov       %l0, %o0
    0x100003e74:            40 04 34 8b  call      +0x10d22c     <0x1001110a0>
    0x100003e78:            01 00 00 00  nop
    0x100003e7c:            e2 03 a9 9f  ld        [%sp + 0x99f], %l1
    0x100003e80:            80 a4 60 00  cmp       %l1, 0x0
    0x100003e84:            02 40 00 0e  be,pn     %icc, +0x38   <0x100003ebc>
    0x100003e88:            01 00 00 00  nop
    0x100003e8c:            10 80 00 02  ba        +0x8          <0x100003e94>
    0x100003e90:            01 00 00 00  nop
    0x100003e94:            05 00 04 00  sethi     %hi(0x100000), %g2
    0x100003e98:            86 10 a1 11  or        %g2, 0x111, %g3
    0x100003e9c:            89 28 f0 0c  sllx      %g3, 0xc, %g4
    0x100003ea0:            8a 01 24 88  add       %g4, 0x488, %g5
    0x100003ea4:            de 01 60 00  ld        [%g5], %o7
    0x100003ea8:            80 a3 e0 00  cmp       %o7, 0x0
    0x100003eac:            12 40 00 04  bne,pn    %icc, +0x10   <0x100003ebc>
    0x100003eb0:            01 00 00 00  nop
    0x100003eb4:            10 80 00 14  ba        +0x50         <0x100003f04>
    0x100003eb8:            01 00 00 00  nop
    0x100003ebc:            84 03 a9 27  add       %sp, 0x927, %g2
    0x100003ec0:            90 10 00 02  mov       %g2, %o0
    0x100003ec4:            92 10 00 00  clr       %o1
    0x100003ec8:            40 04 34 06  call      +0x10d018     <0x100110ee0>
    0x100003ecc:            01 00 00 00  nop
    0x100003ed0:            c6 5b a9 27  ldx       [%sp + 0x927], %g3
    0x100003ed4:            89 28 f0 05  sllx      %g3, 0x5, %g4
    0x100003ed8:            8a 20 c0 04  sub       %g3, %g4, %g5
    0x100003edc:            89 29 70 09  sllx      %g5, 0x9, %g4
    0x100003ee0:            8a 21 00 03  sub       %g4, %g3, %g5
    0x100003ee4:            89 29 70 06  sllx      %g5, 0x6, %g4
    0x100003ee8:            90 21 00 05  sub       %g4, %g5, %o0
    0x100003eec:            92 20 c0 08  sub       %g3, %o0, %o1
    0x100003ef0:            d4 5b a9 2f  ldx       [%sp + 0x92f], %o2
    0x100003ef4:            96 02 80 09  add       %o2, %o1, %o3
    0x100003ef8:            d6 73 a9 1f  stx       %o3, [%sp + 0x91f]
    0x100003efc:            10 80 00 02  ba        +0x8          <0x100003f04>
    0x100003f00:            01 00 00 00  nop
    0x100003f04:            01 00 00 01  sethi     %hi(0x400), %g0
    0x100003f08:            05 00 04 00  sethi     %hi(0x100000), %g2
    0x100003f0c:            86 10 a1 12  or        %g2, 0x112, %g3
    0x100003f10:            89 28 f0 0c  sllx      %g3, 0xc, %g4
    0x100003f14:            8a 01 21 88  add       %g4, 0x188, %g5
    0x100003f18:            de 59 60 00  ldx       [%g5], %o7
    0x100003f1c:            de 73 a8 af  stx       %o7, [%sp + 0x8af]
    0x100003f20:            21 00 04 00  sethi     %hi(0x100000), %l0
    0x100003f24:            a2 14 21 12  or        %l0, 0x112, %l1
    0x100003f28:            a5 2c 70 0c  sllx      %l1, 0xc, %l2
    0x100003f2c:            a6 04 a1 74  add       %l2, 0x174, %l3
    0x100003f30:            e8 04 e0 00  ld        [%l3], %l4
    0x100003f34:            ab 3d 20 00  sra       %l4, 0x0, %l5
    0x100003f38:            ea 73 a8 d7  stx       %l5, [%sp + 0x8d7]
    0x100003f3c:            2d 00 04 00  sethi     %hi(0x100000), %l6
    0x100003f40:            ae 15 a1 11  or        %l6, 0x111, %l7
    0x100003f44:            85 2d f0 0c  sllx      %l7, 0xc, %g2
    0x100003f48:            86 00 a4 78  add       %g2, 0x478, %g3
    0x100003f4c:            c8 00 e0 00  ld        [%g3], %g4
    0x100003f50:            8b 39 20 00  sra       %g4, 0x0, %g5
    0x100003f54:            ca 73 a8 df  stx       %g5, [%sp + 0x8df]
    0x100003f58:            1f 00 04 00  sethi     %hi(0x100000), %o7
    0x100003f5c:            a0 13 e1 11  or        %o7, 0x111, %l0
    0x100003f60:            a3 2c 30 0c  sllx      %l0, 0xc, %l1
    0x100003f64:            a4 04 64 80  add       %l1, 0x480, %l2
    0x100003f68:            e6 04 a0 00  ld        [%l2], %l3
    0x100003f6c:            a9 3c e0 00  sra       %l3, 0x0, %l4
    0x100003f70:            e8 73 a8 e7  stx       %l4, [%sp + 0x8e7]
    0x100003f74:            2b 00 04 00  sethi     %hi(0x100000), %l5
    0x100003f78:            ac 15 61 11  or        %l5, 0x111, %l6
    0x100003f7c:            af 2d b0 0c  sllx      %l6, 0xc, %l7
    0x100003f80:            84 05 e4 84  add       %l7, 0x484, %g2
    0x100003f84:            c6 00 a0 00  ld        [%g2], %g3
    0x100003f88:            89 38 e0 00  sra       %g3, 0x0, %g4
    0x100003f8c:            c8 73 a8 ef  stx       %g4, [%sp + 0x8ef]
    0x100003f90:            0b 00 04 00  sethi     %hi(0x100000), %g5
    0x100003f94:            9e 11 61 11  or        %g5, 0x111, %o7
    0x100003f98:            a1 2b f0 0c  sllx      %o7, 0xc, %l0
    0x100003f9c:            a2 04 24 88  add       %l0, 0x488, %l1
    0x100003fa0:            e4 04 60 00  ld        [%l1], %l2
    0x100003fa4:            a7 3c a0 00  sra       %l2, 0x0, %l3
    0x100003fa8:            e6 73 a8 f7  stx       %l3, [%sp + 0x8f7]
    0x100003fac:            29 00 04 00  sethi     %hi(0x100000), %l4
    0x100003fb0:            aa 15 21 12  or        %l4, 0x112, %l5
    0x100003fb4:            ad 2d 70 0c  sllx      %l5, 0xc, %l6
    0x100003fb8:            ae 05 a1 60  add       %l6, 0x160, %l7
    0x100003fbc:            c4 5d e0 00  ldx       [%l7], %g2
    0x100003fc0:            c4 73 a8 ff  stx       %g2, [%sp + 0x8ff]
    0x100003fc4:            c6 03 a9 9f  ld        [%sp + 0x99f], %g3
    0x100003fc8:            89 38 e0 00  sra       %g3, 0x0, %g4
    0x100003fcc:            c8 73 a8 b7  stx       %g4, [%sp + 0x8b7]
    0x100003fd0:            8a 03 a9 a7  add       %sp, 0x9a7, %g5
    0x100003fd4:            ca 73 a8 bf  stx       %g5, [%sp + 0x8bf]
    0x100003fd8:            de 03 a9 67  ld        [%sp + 0x967], %o7
    0x100003fdc:            a1 3b e0 00  sra       %o7, 0x0, %l0
    0x100003fe0:            e0 73 a8 c7  stx       %l0, [%sp + 0x8c7]
    0x100003fe4:            e2 03 a9 5f  ld        [%sp + 0x95f], %l1
    0x100003fe8:            a5 3c 60 00  sra       %l1, 0x0, %l2
    0x100003fec:            e4 73 a8 cf  stx       %l2, [%sp + 0x8cf]
    0x100003ff0:            27 00 04 00  sethi     %hi(0x100000), %l3
    0x100003ff4:            a8 14 e1 11  or        %l3, 0x111, %l4
    0x100003ff8:            ab 2d 30 0c  sllx      %l4, 0xc, %l5
    0x100003ffc:            ac 05 64 7c  add       %l5, 0x47c, %l6
    0x100004000:            ee 05 a0 00  ld        [%l6], %l7
    0x100004004:            85 3d e0 00  sra       %l7, 0x0, %g2
    0x100004008:            07 00 04 00  sethi     %hi(0x100000), %g3
    0x10000400c:            88 10 e1 11  or        %g3, 0x111, %g4
    0x100004010:            87 29 30 0c  sllx      %g4, 0xc, %g3
    0x100004014:            88 00 e6 a0  add       %g3, 0x6a0, %g4
    0x100004018:            c6 01 20 00  ld        [%g4], %g3
    0x10000401c:            89 38 e0 00  sra       %g3, 0x0, %g4
    0x100004020:            07 00 04 00  sethi     %hi(0x100000), %g3
    0x100004024:            8a 10 e1 11  or        %g3, 0x111, %g5
    0x100004028:            87 29 70 0c  sllx      %g5, 0xc, %g3
    0x10000402c:            8a 00 e6 a8  add       %g3, 0x6a8, %g5
    0x100004030:            c6 59 60 00  ldx       [%g5], %g3
    0x100004034:            0b 00 04 00  sethi     %hi(0x100000), %g5
    0x100004038:            9e 11 61 12  or        %g5, 0x112, %o7
    0x10000403c:            a1 2b f0 0c  sllx      %o7, 0xc, %l0
    0x100004040:            a2 04 20 c8  add       %l0, 0xc8, %l1
    0x100004044:            e4 5c 60 00  ldx       [%l1], %l2
    0x100004048:            e6 5b a9 6f  ldx       [%sp + 0x96f], %l3
    0x10000404c:            92 10 00 02  mov       %g2, %o1
    0x100004050:            94 10 00 04  mov       %g4, %o2
    0x100004054:            96 10 00 03  mov       %g3, %o3
    0x100004058:            98 10 00 12  mov       %l2, %o4
    0x10000405c:            9a 10 00 13  mov       %l3, %o5
    0x100004060:            a8 10 20 01  mov       0x1, %l4
    0x100004064:            90 10 00 14  mov       %l4, %o0
    0x100004068:            40 00 03 80  call      +0xe00        <0x100004e68>
    0x10000406c:            01 00 00 00  nop
    0x100004070:            2b 00 04 00  sethi     %hi(0x100000), %l5
    0x100004074:            ac 15 61 11  or        %l5, 0x111, %l6
    0x100004078:            af 2d b0 0c  sllx      %l6, 0xc, %l7
    0x10000407c:            84 05 e4 80  add       %l7, 0x480, %g2
    0x100004080:            c6 00 a0 00  ld        [%g2], %g3
    0x100004084:            80 a0 e0 00  cmp       %g3, 0x0
    0x100004088:            12 40 00 04  bne,pn    %icc, +0x10   <0x100004098>
    0x10000408c:            01 00 00 00  nop
    0x100004090:            10 80 00 5e  ba        +0x178        <0x100004208>
    0x100004094:            01 00 00 00  nop
    0x100004098:            05 00 04 00  sethi     %hi(0x100000), %g2
    0x10000409c:            86 10 a1 12  or        %g2, 0x112, %g3
    0x1000040a0:            89 28 f0 0c  sllx      %g3, 0xc, %g4
    0x1000040a4:            8a 01 21 88  add       %g4, 0x188, %g5
    0x1000040a8:            de 59 60 00  ldx       [%g5], %o7
    0x1000040ac:            de 73 a8 af  stx       %o7, [%sp + 0x8af]
    0x1000040b0:            21 00 04 00  sethi     %hi(0x100000), %l0
    0x1000040b4:            a2 14 21 12  or        %l0, 0x112, %l1
    0x1000040b8:            a5 2c 70 0c  sllx      %l1, 0xc, %l2
    0x1000040bc:            a6 04 a1 74  add       %l2, 0x174, %l3
    0x1000040c0:            e8 04 e0 00  ld        [%l3], %l4
    0x1000040c4:            ab 3d 20 00  sra       %l4, 0x0, %l5
    0x1000040c8:            ea 73 a8 d7  stx       %l5, [%sp + 0x8d7]
    0x1000040cc:            2d 00 04 00  sethi     %hi(0x100000), %l6
    0x1000040d0:            ae 15 a1 11  or        %l6, 0x111, %l7
    0x1000040d4:            85 2d f0 0c  sllx      %l7, 0xc, %g2
    0x1000040d8:            86 00 a4 78  add       %g2, 0x478, %g3
    0x1000040dc:            c8 00 e0 00  ld        [%g3], %g4
    0x1000040e0:            8b 39 20 00  sra       %g4, 0x0, %g5
    0x1000040e4:            ca 73 a8 df  stx       %g5, [%sp + 0x8df]
    0x1000040e8:            1f 00 04 00  sethi     %hi(0x100000), %o7
    0x1000040ec:            a0 13 e1 11  or        %o7, 0x111, %l0
    0x1000040f0:            a3 2c 30 0c  sllx      %l0, 0xc, %l1
    0x1000040f4:            a4 04 64 80  add       %l1, 0x480, %l2
    0x1000040f8:            e6 04 a0 00  ld        [%l2], %l3
    0x1000040fc:            a9 3c e0 00  sra       %l3, 0x0, %l4
    0x100004100:            e8 73 a8 e7  stx       %l4, [%sp + 0x8e7]
    0x100004104:            2b 00 04 00  sethi     %hi(0x100000), %l5
    0x100004108:            ac 15 61 11  or        %l5, 0x111, %l6
    0x10000410c:            af 2d b0 0c  sllx      %l6, 0xc, %l7
    0x100004110:            84 05 e4 84  add       %l7, 0x484, %g2
    0x100004114:            c6 00 a0 00  ld        [%g2], %g3
    0x100004118:            89 38 e0 00  sra       %g3, 0x0, %g4
    0x10000411c:            c8 73 a8 ef  stx       %g4, [%sp + 0x8ef]
    0x100004120:            0b 00 04 00  sethi     %hi(0x100000), %g5
    0x100004124:            9e 11 61 11  or        %g5, 0x111, %o7
    0x100004128:            a1 2b f0 0c  sllx      %o7, 0xc, %l0
    0x10000412c:            a2 04 24 88  add       %l0, 0x488, %l1
    0x100004130:            e4 04 60 00  ld        [%l1], %l2
    0x100004134:            a7 3c a0 00  sra       %l2, 0x0, %l3
    0x100004138:            e6 73 a8 f7  stx       %l3, [%sp + 0x8f7]
    0x10000413c:            29 00 04 00  sethi     %hi(0x100000), %l4
    0x100004140:            aa 15 21 12  or        %l4, 0x112, %l5
    0x100004144:            ad 2d 70 0c  sllx      %l5, 0xc, %l6
    0x100004148:            ae 05 a1 60  add       %l6, 0x160, %l7
    0x10000414c:            c4 5d e0 00  ldx       [%l7], %g2
    0x100004150:            c4 73 a8 ff  stx       %g2, [%sp + 0x8ff]
    0x100004154:            c6 03 a9 9f  ld        [%sp + 0x99f], %g3
    0x100004158:            89 38 e0 00  sra       %g3, 0x0, %g4
    0x10000415c:            c8 73 a8 b7  stx       %g4, [%sp + 0x8b7]
    0x100004160:            8a 03 a9 a7  add       %sp, 0x9a7, %g5
    0x100004164:            ca 73 a8 bf  stx       %g5, [%sp + 0x8bf]
    0x100004168:            de 03 a9 67  ld        [%sp + 0x967], %o7
    0x10000416c:            a1 3b e0 00  sra       %o7, 0x0, %l0
    0x100004170:            e0 73 a8 c7  stx       %l0, [%sp + 0x8c7]
    0x100004174:            e2 03 a9 5f  ld        [%sp + 0x95f], %l1
    0x100004178:            a5 3c 60 00  sra       %l1, 0x0, %l2
    0x10000417c:            e4 73 a8 cf  stx       %l2, [%sp + 0x8cf]
    0x100004180:            27 00 04 00  sethi     %hi(0x100000), %l3
    0x100004184:            a8 14 e1 11  or        %l3, 0x111, %l4
    0x100004188:            ab 2d 30 0c  sllx      %l4, 0xc, %l5
    0x10000418c:            ac 05 64 7c  add       %l5, 0x47c, %l6
    0x100004190:            ee 05 a0 00  ld        [%l6], %l7
    0x100004194:            85 3d e0 00  sra       %l7, 0x0, %g2
    0x100004198:            07 00 04 00  sethi     %hi(0x100000), %g3
    0x10000419c:            88 10 e1 11  or        %g3, 0x111, %g4
    0x1000041a0:            87 29 30 0c  sllx      %g4, 0xc, %g3
    0x1000041a4:            88 00 e6 a0  add       %g3, 0x6a0, %g4
    0x1000041a8:            c6 01 20 00  ld        [%g4], %g3
    0x1000041ac:            89 38 e0 00  sra       %g3, 0x0, %g4
    0x1000041b0:            07 00 04 00  sethi     %hi(0x100000), %g3
    0x1000041b4:            8a 10 e1 11  or        %g3, 0x111, %g5
    0x1000041b8:            87 29 70 0c  sllx      %g5, 0xc, %g3
    0x1000041bc:            8a 00 e6 a8  add       %g3, 0x6a8, %g5
    0x1000041c0:            c6 59 60 00  ldx       [%g5], %g3
    0x1000041c4:            0b 00 04 00  sethi     %hi(0x100000), %g5
    0x1000041c8:            9e 11 61 12  or        %g5, 0x112, %o7
    0x1000041cc:            a1 2b f0 0c  sllx      %o7, 0xc, %l0
    0x1000041d0:            a2 04 20 c8  add       %l0, 0xc8, %l1
    0x1000041d4:            e4 5c 60 00  ldx       [%l1], %l2
    0x1000041d8:            e6 5b a9 6f  ldx       [%sp + 0x96f], %l3
    0x1000041dc:            92 10 00 02  mov       %g2, %o1
    0x1000041e0:            94 10 00 04  mov       %g4, %o2
    0x1000041e4:            96 10 00 03  mov       %g3, %o3
    0x1000041e8:            98 10 00 12  mov       %l2, %o4
    0x1000041ec:            9a 10 00 13  mov       %l3, %o5
    0x1000041f0:            a8 10 3f ff  mov       -0x1, %l4
    0x1000041f4:            90 10 00 14  mov       %l4, %o0
    0x1000041f8:            40 00 03 1c  call      +0xc70        <0x100004e68>
    0x1000041fc:            01 00 00 00  nop
    0x100004200:            10 80 00 02  ba        +0x8          <0x100004208>
    0x100004204:            01 00 00 00  nop
    0x100004208:            01 00 00 01  sethi     %hi(0x400), %g0
    0x10000420c:            c4 03 a9 9f  ld        [%sp + 0x99f], %g2
    0x100004210:            80 a0 a0 00  cmp       %g2, 0x0
    0x100004214:            02 40 00 0e  be,pn     %icc, +0x38   <0x10000424c>
    0x100004218:            01 00 00 00  nop
    0x10000421c:            10 80 00 02  ba        +0x8          <0x100004224>
    0x100004220:            01 00 00 00  nop
    0x100004224:            05 00 04 00  sethi     %hi(0x100000), %g2
    0x100004228:            86 10 a1 11  or        %g2, 0x111, %g3
    0x10000422c:            89 28 f0 0c  sllx      %g3, 0xc, %g4
    0x100004230:            8a 01 24 88  add       %g4, 0x488, %g5
    0x100004234:            de 01 60 00  ld        [%g5], %o7
    0x100004238:            80 a3 e0 00  cmp       %o7, 0x0
    0x10000423c:            12 40 00 04  bne,pn    %icc, +0x10   <0x10000424c>
    0x100004240:            01 00 00 00  nop
    0x100004244:            10 80 00 2c  ba        +0xb0         <0x1000042f4>
    0x100004248:            01 00 00 00  nop
    0x10000424c:            84 03 a9 0f  add       %sp, 0x90f, %g2
    0x100004250:            90 10 00 02  mov       %g2, %o0
    0x100004254:            92 10 00 00  clr       %o1
    0x100004258:            40 04 33 22  call      +0x10cc88     <0x100110ee0>
    0x10000425c:            01 00 00 00  nop
    0x100004260:            c6 5b a9 0f  ldx       [%sp + 0x90f], %g3
    0x100004264:            89 28 f0 05  sllx      %g3, 0x5, %g4
    0x100004268:            8a 20 c0 04  sub       %g3, %g4, %g5
    0x10000426c:            89 29 70 09  sllx      %g5, 0x9, %g4
    0x100004270:            8a 21 00 03  sub       %g4, %g3, %g5
    0x100004274:            89 29 70 06  sllx      %g5, 0x6, %g4
    0x100004278:            90 21 00 05  sub       %g4, %g5, %o0
    0x10000427c:            92 20 c0 08  sub       %g3, %o0, %o1
    0x100004280:            d4 5b a9 17  ldx       [%sp + 0x917], %o2
    0x100004284:            96 02 80 09  add       %o2, %o1, %o3
    0x100004288:            d6 73 a9 07  stx       %o3, [%sp + 0x907]
    0x10000428c:            19 00 04 00  sethi     %hi(0x100000), %o4
    0x100004290:            9a 13 21 12  or        %o4, 0x112, %o5
    0x100004294:            9f 2b 70 0c  sllx      %o5, 0xc, %o7
    0x100004298:            a0 03 e1 60  add       %o7, 0x160, %l0
    0x10000429c:            e2 5c 20 00  ldx       [%l0], %l1
    0x1000042a0:            e4 5c 60 58  ldx       [%l1 + 0x58], %l2
    0x1000042a4:            e6 03 a9 9f  ld        [%sp + 0x99f], %l3
    0x1000042a8:            a9 3c e0 00  sra       %l3, 0x0, %l4
    0x1000042ac:            a7 2d 30 03  sllx      %l4, 0x3, %l3
    0x1000042b0:            e8 5b a9 a7  ldx       [%sp + 0x9a7], %l4
    0x1000042b4:            e8 74 80 13  stx       %l4, [%l2 + %l3]
    0x1000042b8:            ea 5b a9 07  ldx       [%sp + 0x907], %l5
    0x1000042bc:            ec 5b a9 1f  ldx       [%sp + 0x91f], %l6
    0x1000042c0:            ae 25 40 16  sub       %l5, %l6, %l7
    0x1000042c4:            05 00 04 00  sethi     %hi(0x100000), %g2
    0x1000042c8:            86 10 a1 12  or        %g2, 0x112, %g3
    0x1000042cc:            89 28 f0 0c  sllx      %g3, 0xc, %g4
    0x1000042d0:            8a 01 21 60  add       %g4, 0x160, %g5
    0x1000042d4:            d0 59 60 00  ldx       [%g5], %o0
    0x1000042d8:            d2 5a 20 60  ldx       [%o0 + 0x60], %o1
    0x1000042dc:            d4 03 a9 9f  ld        [%sp + 0x99f], %o2
    0x1000042e0:            97 3a a0 00  sra       %o2, 0x0, %o3
    0x1000042e4:            95 2a f0 03  sllx      %o3, 0x3, %o2
    0x1000042e8:            ee 72 40 0a  stx       %l7, [%o1 + %o2]
    0x1000042ec:            10 80 00 02  ba        +0x8          <0x1000042f4>
    0x1000042f0:            01 00 00 00  nop
    0x1000042f4:            c4 03 a9 9f  ld        [%sp + 0x99f], %g2
    0x1000042f8:            80 a0 a0 00  cmp       %g2, 0x0
    0x1000042fc:            02 40 00 04  be,pn     %icc, +0x10   <0x10000430c>
    0x100004300:            01 00 00 00  nop
    0x100004304:            10 80 00 12  ba        +0x48         <0x10000434c>
    0x100004308:            01 00 00 00  nop
    0x10000430c:            05 00 04 00  sethi     %hi(0x100000), %g2
    0x100004310:            86 10 a1 12  or        %g2, 0x112, %g3
    0x100004314:            89 28 f0 0c  sllx      %g3, 0xc, %g4
    0x100004318:            8a 01 21 60  add       %g4, 0x160, %g5
    0x10000431c:            de 59 60 00  ldx       [%g5], %o7
    0x100004320:            e0 5b a9 07  ldx       [%sp + 0x907], %l0
    0x100004324:            e0 73 e0 70  stx       %l0, [%o7 + 0x70]
    0x100004328:            23 00 04 00  sethi     %hi(0x100000), %l1
    0x10000432c:            a4 14 61 12  or        %l1, 0x112, %l2
    0x100004330:            a7 2c b0 0c  sllx      %l2, 0xc, %l3
    0x100004334:            a8 04 e1 60  add       %l3, 0x160, %l4
    0x100004338:            ea 5d 20 00  ldx       [%l4], %l5
    0x10000433c:            ec 5b a9 1f  ldx       [%sp + 0x91f], %l6
    0x100004340:            ec 75 60 78  stx       %l6, [%l5 + 0x78]
    0x100004344:            10 80 00 02  ba        +0x8          <0x10000434c>
    0x100004348:            01 00 00 00  nop
    0x10000434c:            81 c7 e0 08  ret
    0x100004350:            81 e8 00 00  restore
    0x100004354:            00 00 00 00  illtrap   0x0
    0x100004358:            00 00 00 00  illtrap   0x0
    0x10000435c:            00 00 00 00  illtrap   0x0
TouchArray()
    0x100004360:            9d e3 bf 50  save      %sp, -0xb0, %sp
    0x100004364:            39 00 04 00  sethi     %hi(0x100000), %i4
    0x100004368:            9e 17 21 12  or        %i4, 0x112, %o7
    0x10000436c:            bb 2b f0 0c  sllx      %o7, 0xc, %i5
    0x100004370:            a0 10 00 18  mov       %i0, %l0
    0x100004374:            31 00 04 00  sethi     %hi(0x100000), %i0
    0x100004378:            d0 07 60 c0  ld        [%i5 + 0xc0], %o0
    0x10000437c:            9a 16 20 04  or        %i0, 0x4, %o5
    0x100004380:            99 2b 70 0c  sllx      %o5, 0xc, %o4
    0x100004384:            ba 02 3f ff  add       %o0, -0x1, %i5
    0x100004388:            97 2f 60 01  sll       %i5, 0x1, %o3
    0x10000438c:            c1 1b 23 58  ldd       [%o4 + 0x358], %d0
    0x100004390:            da 5f a8 b7  ldx       [%fp + 0x8b7], %o5
    0x100004394:            80 a2 e0 00  cmp       %o3, 0x0
    0x100004398:            a4 10 00 1a  mov       %i2, %l2
    0x10000439c:            f0 5f a8 af  ldx       [%fp + 0x8af], %i0
    0x1000043a0:            04 40 00 4e  ble,pn    %icc, +0x138  <0x1000044d8>
    0x1000043a4:            a2 10 00 19  mov       %i1, %l1
    0x1000043a8:            b8 10 00 1b  mov       %i3, %i4
    0x1000043ac:            80 a2 e0 18  cmp       %o3, 0x18
    0x1000043b0:            b4 02 ff ff  add       %o3, -0x1, %i2
    0x1000043b4:            b6 10 20 00  clr       %i3
    0x1000043b8:            06 40 00 41  bl,pn     %icc, +0x104  <0x1000044bc>
    0x1000043bc:            01 00 00 00  nop
    0x1000043c0:            c9 1f 20 00  ldd       [%i4], %d4
    0x1000043c4:            cd 1b 23 58  ldd       [%o4 + 0x358], %d6
    0x1000043c8:            d5 1f 20 08  ldd       [%i4 + 0x8], %d10
    0x1000043cc:            dd 1f 20 20  ldd       [%i4 + 0x20], %d14
    0x1000043d0:            d1 1f 20 10  ldd       [%i4 + 0x10], %d8
    0x1000043d4:            c5 1f 20 58  ldd       [%i4 + 0x58], %d2
    0x1000043d8:            f5 1f 20 50  ldd       [%i4 + 0x50], %d26
    0x1000043dc:            b7 a1 88 44  faddd     %d6, %d4, %d58
    0x1000043e0:            f1 1f 20 48  ldd       [%i4 + 0x48], %d24
    0x1000043e4:            d9 1f 20 18  ldd       [%i4 + 0x18], %d12
    0x1000043e8:            ed 1f 20 40  ldd       [%i4 + 0x40], %d22
    0x1000043ec:            89 a1 88 4a  faddd     %d6, %d10, %d4
    0x1000043f0:            e9 1f 20 38  ldd       [%i4 + 0x38], %d20
    0x1000043f4:            e5 1f 20 30  ldd       [%i4 + 0x30], %d18
    0x1000043f8:            b6 10 20 0c  mov       0xc, %i3
    0x1000043fc:            e1 1f 20 28  ldd       [%i4 + 0x28], %d16
    0x100004400:            99 a0 08 4c  faddd     %d0, %d12, %d12
    0x100004404:            b8 07 20 60  add       %i4, 0x60, %i4
    0x100004408:            95 a1 88 48  faddd     %d6, %d8, %d10
    0x10000440c:            b2 02 ff f4  add       %o3, -0xc, %i1
    0x100004410:            c1 6f 21 30  prefetch  [%i4 + 0x130], #n_reads
    0x100004414:            b6 06 e0 0c  add       %i3, 0xc, %i3
    0x100004418:            d1 1f 20 00  ldd       [%i4], %d8
    0x10000441c:            b8 07 20 60  add       %i4, 0x60, %i4
    0x100004420:            9d a6 c8 4e  faddd     %d58, %d14, %d14
    0x100004424:            a1 a1 08 50  faddd     %d4, %d16, %d16
    0x100004428:            80 a6 c0 19  cmp       %i3, %i1
    0x10000442c:            c9 1f 3f a8  ldd       [%i4 - 0x58], %d4
    0x100004430:            bf a2 88 52  faddd     %d10, %d18, %d62
    0x100004434:            d5 1f 3f b0  ldd       [%i4 - 0x50], %d10
    0x100004438:            a9 a3 08 54  faddd     %d12, %d20, %d20
    0x10000443c:            d9 1f 3f b8  ldd       [%i4 - 0x48], %d12
    0x100004440:            b7 a3 88 56  faddd     %d14, %d22, %d58
    0x100004444:            dd 1f 3f c0  ldd       [%i4 - 0x40], %d14
    0x100004448:            bb a4 08 58  faddd     %d16, %d24, %d60
    0x10000444c:            e1 1f 3f c8  ldd       [%i4 - 0x38], %d16
    0x100004450:            b5 a7 c8 5a  faddd     %d62, %d26, %d26
    0x100004454:            e5 1f 3f d0  ldd       [%i4 - 0x30], %d18
    0x100004458:            85 a5 08 42  faddd     %d20, %d2, %d2
    0x10000445c:            e9 1f 3f d8  ldd       [%i4 - 0x28], %d20
    0x100004460:            b7 a6 c8 48  faddd     %d58, %d8, %d58
    0x100004464:            ed 1f 3f e0  ldd       [%i4 - 0x20], %d22
    0x100004468:            89 a7 48 44  faddd     %d60, %d4, %d4
    0x10000446c:            f1 1f 3f e8  ldd       [%i4 - 0x18], %d24
    0x100004470:            95 a6 88 4a  faddd     %d26, %d10, %d10
    0x100004474:            f5 1f 3f f0  ldd       [%i4 - 0x10], %d26
    0x100004478:            99 a0 88 4c  faddd     %d2, %d12, %d12
    0x10000447c:            04 4f ff e5  ble,pt    %icc, -0x6c   <0x100004410>
    0x100004480:            c5 1f 3f f8  ldd       [%i4 - 0x8], %d2
    0x100004484:            bf a6 c8 4e  faddd     %d58, %d14, %d62
    0x100004488:            b7 a2 88 52  faddd     %d10, %d18, %d58
    0x10000448c:            89 a1 08 50  faddd     %d4, %d16, %d4
    0x100004490:            a9 a3 08 54  faddd     %d12, %d20, %d20
    0x100004494:            80 a6 c0 1a  cmp       %i3, %i2
    0x100004498:            bb a7 c8 56  faddd     %d62, %d22, %d60
    0x10000449c:            ad a6 c8 5a  faddd     %d58, %d26, %d22
    0x1000044a0:            b1 a1 08 58  faddd     %d4, %d24, %d24
    0x1000044a4:            b5 a5 08 42  faddd     %d20, %d2, %d26
    0x1000044a8:            85 a7 48 58  faddd     %d60, %d24, %d2
    0x1000044ac:            a5 a0 88 56  faddd     %d2, %d22, %d18
    0x1000044b0:            81 a4 88 5a  faddd     %d18, %d26, %d0
    0x1000044b4:            14 40 00 09  bg,pn     %icc, +0x24   <0x1000044d8>
    0x1000044b8:            01 00 00 00  nop
    0x1000044bc:            b6 06 e0 01  add       %i3, 0x1, %i3
    0x1000044c0:            80 a6 c0 1a  cmp       %i3, %i2
    0x1000044c4:            d9 1f 20 00  ldd       [%i4], %d12
    0x1000044c8:            b8 07 20 08  add       %i4, 0x8, %i4
    0x1000044cc:            81 a0 08 4c  faddd     %d0, %d12, %d0
    0x1000044d0:            04 4f ff fc  ble,pt    %icc, -0x10   <0x1000044c0>
    0x1000044d4:            b6 06 e0 01  add       %i3, 0x1, %i3
    0x1000044d8:            93 3a 20 00  sra       %o0, 0x0, %o1
    0x1000044dc:            89 3b 60 00  sra       %o5, 0x0, %g4
    0x1000044e0:            87 3e 20 00  sra       %i0, 0x0, %g3
    0x1000044e4:            8a 20 00 09  neg       %o1, %g5
    0x1000044e8:            84 20 c0 04  sub       %g3, %g4, %g2
    0x1000044ec:            b3 31 70 3f  srlx      %g5, 0x3f, %i1
    0x1000044f0:            83 30 b0 3f  srlx      %g2, 0x3f, %g1
    0x1000044f4:            80 8e 40 01  btst      %g1, %i1
    0x1000044f8:            02 40 00 bb  be,pn     %icc, +0x2ec  <0x1000047e4>
    0x1000044fc:            aa 03 7f ff  add       %o5, -0x1, %l5
    0x100004500:            37 00 04 00  sethi     %hi(0x100000), %i3
    0x100004504:            a8 16 e1 12  or        %i3, 0x112, %l4
    0x100004508:            af 2d 30 0c  sllx      %l4, 0xc, %l7
    0x10000450c:            ec 05 e1 74  ld        [%l7 + 0x174], %l6
    0x100004510:            95 2e 20 01  sll       %i0, 0x1, %o2
    0x100004514:            98 10 20 00  clr       %o4
    0x100004518:            a6 05 80 08  add       %l6, %o0, %l3
    0x10000451c:            b6 5a 80 13  smul      %o2, %l3, %i3
    0x100004520:            af 2c e0 01  sll       %l3, 0x1, %l7
    0x100004524:            b4 07 60 01  add       %i5, 0x1, %i2
    0x100004528:            80 a6 a0 0a  cmp       %i2, 0xa
    0x10000452c:            9a 10 00 1b  mov       %i3, %o5
    0x100004530:            06 40 00 92  bl,pn     %icc, +0x248  <0x100004778>
    0x100004534:            01 00 00 00  nop
    0x100004538:            89 3e e0 00  sra       %i3, 0x0, %g4
    0x10000453c:            85 29 30 03  sllx      %g4, 0x3, %g2
    0x100004540:            dd 1c 80 02  ldd       [%l2 + %g2], %d14
    0x100004544:            e1 1c 00 02  ldd       [%l0 + %g2], %d16
    0x100004548:            ff 1c 40 02  ldd       [%l1 + %g2], %d62
    0x10000454c:            82 04 40 02  add       %l1, %g2, %g1
    0x100004550:            f7 18 60 08  ldd       [%g1 + 0x8], %d58
    0x100004554:            ed 18 60 10  ldd       [%g1 + 0x10], %d22
    0x100004558:            d1 18 60 18  ldd       [%g1 + 0x18], %d8
    0x10000455c:            c5 18 60 28  ldd       [%g1 + 0x28], %d2
    0x100004560:            e5 18 60 20  ldd       [%g1 + 0x20], %d18
    0x100004564:            f9 18 60 38  ldd       [%g1 + 0x38], %d28
    0x100004568:            bf a7 c8 4e  faddd     %d62, %d14, %d62
    0x10000456c:            dd 18 60 30  ldd       [%g1 + 0x30], %d14
    0x100004570:            bb a4 08 5b  faddd     %d16, %d58, %d60
    0x100004574:            e1 18 60 40  ldd       [%g1 + 0x40], %d16
    0x100004578:            86 04 80 02  add       %l2, %g2, %g3
    0x10000457c:            f1 18 e0 10  ldd       [%g3 + 0x10], %d24
    0x100004580:            c9 18 e0 08  ldd       [%g3 + 0x8], %d4
    0x100004584:            e9 18 e0 20  ldd       [%g3 + 0x20], %d20
    0x100004588:            bb a7 48 5f  faddd     %d60, %d62, %d60
    0x10000458c:            fd 18 e0 18  ldd       [%g3 + 0x18], %d30
    0x100004590:            b5 a5 88 58  faddd     %d22, %d24, %d26
    0x100004594:            b2 04 00 02  add       %l0, %g2, %i1
    0x100004598:            ed 1e 60 10  ldd       [%i1 + 0x10], %d22
    0x10000459c:            f7 1e 60 20  ldd       [%i1 + 0x20], %d58
    0x1000045a0:            f1 1e 60 08  ldd       [%i1 + 0x8], %d24
    0x1000045a4:            bf a5 88 48  faddd     %d22, %d8, %d62
    0x1000045a8:            cd 18 e0 28  ldd       [%g3 + 0x28], %d6
    0x1000045ac:            91 a6 c8 42  faddd     %d58, %d2, %d8
    0x1000045b0:            d5 18 e0 30  ldd       [%g3 + 0x30], %d10
    0x1000045b4:            ad a1 08 5d  faddd     %d4, %d60, %d22
    0x1000045b8:            c9 1e 60 30  ldd       [%i1 + 0x30], %d4
    0x1000045bc:            a5 a4 88 54  faddd     %d18, %d20, %d18
    0x1000045c0:            f7 1e 60 18  ldd       [%i1 + 0x18], %d58
    0x1000045c4:            85 a7 c8 5a  faddd     %d62, %d26, %d2
    0x1000045c8:            fb 1e 60 28  ldd       [%i1 + 0x28], %d60
    0x1000045cc:            b5 a5 88 58  faddd     %d22, %d24, %d26
    0x1000045d0:            ed 1e 60 40  ldd       [%i1 + 0x40], %d22
    0x1000045d4:            91 a2 08 52  faddd     %d8, %d18, %d8
    0x1000045d8:            d9 18 e0 40  ldd       [%g3 + 0x40], %d12
    0x1000045dc:            98 10 20 06  mov       0x6, %o4
    0x1000045e0:            a5 a1 08 5c  faddd     %d4, %d28, %d18
    0x1000045e4:            96 00 e0 50  add       %g3, 0x50, %o3
    0x1000045e8:            bf a7 88 42  faddd     %d30, %d2, %d62
    0x1000045ec:            e9 18 60 48  ldd       [%g1 + 0x48], %d20
    0x1000045f0:            a6 00 60 50  add       %g1, 0x50, %l3
    0x1000045f4:            a8 06 60 60  add       %i1, 0x60, %l4
    0x1000045f8:            b5 a6 88 40  faddd     %d26, %d0, %d26
    0x1000045fc:            f1 1e 60 50  ldd       [%i1 + 0x50], %d24
    0x100004600:            9e 27 60 03  sub       %i5, 0x3, %o7
    0x100004604:            c1 6c e0 88  prefetch  [%l3 + 0x88], #n_reads
    0x100004608:            c1 6a e0 88  prefetch  [%o3 + 0x88], #n_reads
    0x10000460c:            98 03 20 04  add       %o4, 0x4, %o4
    0x100004610:            96 02 e0 40  add       %o3, 0x40, %o3
    0x100004614:            c9 1c e0 08  ldd       [%l3 + 0x8], %d4
    0x100004618:            9d a3 88 4a  faddd     %d14, %d10, %d14
    0x10000461c:            80 a3 00 0f  cmp       %o4, %o7
    0x100004620:            a6 04 e0 40  add       %l3, 0x40, %l3
    0x100004624:            d5 1a ff a8  ldd       [%o3 - 0x58], %d10
    0x100004628:            bf a7 c8 5b  faddd     %d62, %d58, %d62
    0x10000462c:            9a 03 60 08  add       %o5, 0x8, %o5
    0x100004630:            c5 1d 20 00  ldd       [%l4], %d2
    0x100004634:            a8 05 20 40  add       %l4, 0x40, %l4
    0x100004638:            a9 a5 88 54  faddd     %d22, %d20, %d20
    0x10000463c:            8d a1 88 48  faddd     %d6, %d8, %d6
    0x100004640:            d1 1c ff c0  ldd       [%l3 - 0x40], %d8
    0x100004644:            b7 a4 88 4e  faddd     %d18, %d14, %d58
    0x100004648:            e5 1a ff c0  ldd       [%o3 - 0x40], %d18
    0x10000464c:            b5 a7 c8 5a  faddd     %d62, %d26, %d26
    0x100004650:            dd 1d 3f 98  ldd       [%l4 - 0x68], %d14
    0x100004654:            ad a4 08 4c  faddd     %d16, %d12, %d22
    0x100004658:            e1 1c ff d8  ldd       [%l3 - 0x28], %d16
    0x10000465c:            bb a1 88 5d  faddd     %d6, %d60, %d60
    0x100004660:            d9 1a ff b8  ldd       [%o3 - 0x48], %d12
    0x100004664:            b1 a6 08 44  faddd     %d24, %d4, %d24
    0x100004668:            fd 1d 3f d0  ldd       [%l4 - 0x30], %d30
    0x10000466c:            95 a2 88 5b  faddd     %d10, %d58, %d10
    0x100004670:            cd 1c ff d0  ldd       [%l3 - 0x30], %d6
    0x100004674:            bf a5 08 56  faddd     %d20, %d22, %d62
    0x100004678:            e9 1a ff d0  ldd       [%o3 - 0x30], %d20
    0x10000467c:            b5 a7 48 5a  faddd     %d60, %d26, %d26
    0x100004680:            c9 1d 3f a8  ldd       [%l4 - 0x58], %d4
    0x100004684:            c1 6d 20 68  prefetch  [%l4 + 0x68], #n_reads
    0x100004688:            bb a2 08 52  faddd     %d8, %d18, %d60
    0x10000468c:            e5 1c ff e8  ldd       [%l3 - 0x18], %d18
    0x100004690:            b7 a2 88 4e  faddd     %d10, %d14, %d58
    0x100004694:            d1 1a ff c8  ldd       [%o3 - 0x38], %d8
    0x100004698:            85 a0 88 50  faddd     %d2, %d16, %d2
    0x10000469c:            ed 1d 3f e0  ldd       [%l4 - 0x20], %d22
    0x1000046a0:            a1 a3 08 5f  faddd     %d12, %d62, %d16
    0x1000046a4:            dd 1c ff e0  ldd       [%l3 - 0x20], %d14
    0x1000046a8:            99 a6 08 5d  faddd     %d24, %d60, %d12
    0x1000046ac:            d5 1a ff e0  ldd       [%o3 - 0x20], %d10
    0x1000046b0:            b5 a6 c8 5a  faddd     %d58, %d26, %d26
    0x1000046b4:            f7 1d 3f b8  ldd       [%l4 - 0x48], %d58
    0x1000046b8:            bb a1 88 54  faddd     %d6, %d20, %d60
    0x1000046bc:            e9 1c ff f8  ldd       [%l3 - 0x8], %d20
    0x1000046c0:            89 a4 08 44  faddd     %d16, %d4, %d4
    0x1000046c4:            cd 1a ff d8  ldd       [%o3 - 0x28], %d6
    0x1000046c8:            a5 a7 88 52  faddd     %d30, %d18, %d18
    0x1000046cc:            f1 1d 3f f0  ldd       [%l4 - 0x10], %d24
    0x1000046d0:            bf a2 08 4c  faddd     %d8, %d12, %d62
    0x1000046d4:            e1 1c ff f0  ldd       [%l3 - 0x10], %d16
    0x1000046d8:            91 a0 88 5d  faddd     %d2, %d60, %d8
    0x1000046dc:            d9 1a ff f0  ldd       [%o3 - 0x10], %d12
    0x1000046e0:            b5 a1 08 5a  faddd     %d4, %d26, %d26
    0x1000046e4:            04 4f ff c8  ble,pt    %icc, -0xe0   <0x100004604>
    0x1000046e8:            fb 1d 3f c8  ldd       [%l4 - 0x38], %d60
    0x1000046ec:            9d a3 88 4a  faddd     %d14, %d10, %d14
    0x1000046f0:            bf a7 c8 5b  faddd     %d62, %d58, %d62
    0x1000046f4:            8d a1 88 48  faddd     %d6, %d8, %d6
    0x1000046f8:            d1 1c e0 08  ldd       [%l3 + 0x8], %d8
    0x1000046fc:            a1 a4 08 4c  faddd     %d16, %d12, %d16
    0x100004700:            a9 a5 88 54  faddd     %d22, %d20, %d20
    0x100004704:            89 a4 88 4e  faddd     %d18, %d14, %d4
    0x100004708:            95 a7 c8 5a  faddd     %d62, %d26, %d10
    0x10000470c:            b5 a6 08 48  faddd     %d24, %d8, %d26
    0x100004710:            85 a1 88 5d  faddd     %d6, %d60, %d2
    0x100004714:            ed 1c e0 00  ldd       [%l3], %d22
    0x100004718:            e5 1a ff e8  ldd       [%o3 - 0x18], %d18
    0x10000471c:            f7 1a e0 00  ldd       [%o3], %d58
    0x100004720:            b1 a5 08 50  faddd     %d20, %d16, %d24
    0x100004724:            8d a4 88 44  faddd     %d18, %d4, %d6
    0x100004728:            bb a5 88 5b  faddd     %d22, %d58, %d60
    0x10000472c:            d9 1a ff f8  ldd       [%o3 - 0x8], %d12
    0x100004730:            dd 1d 3f d8  ldd       [%l4 - 0x28], %d14
    0x100004734:            a1 a0 88 4a  faddd     %d2, %d10, %d16
    0x100004738:            ad a3 08 58  faddd     %d12, %d24, %d22
    0x10000473c:            a9 a1 88 4e  faddd     %d6, %d14, %d20
    0x100004740:            91 a6 88 5d  faddd     %d26, %d60, %d8
    0x100004744:            f7 1d 3f e8  ldd       [%l4 - 0x18], %d58
    0x100004748:            ff 1a e0 08  ldd       [%o3 + 0x8], %d62
    0x10000474c:            e5 1d 3f f8  ldd       [%l4 - 0x8], %d18
    0x100004750:            85 a5 88 5b  faddd     %d22, %d58, %d2
    0x100004754:            95 a5 08 50  faddd     %d20, %d16, %d10
    0x100004758:            89 a7 c8 48  faddd     %d62, %d8, %d4
    0x10000475c:            80 a3 00 1d  cmp       %o4, %i5
    0x100004760:            9a 03 60 0c  add       %o5, 0xc, %o5
    0x100004764:            b5 a0 88 4a  faddd     %d2, %d10, %d26
    0x100004768:            bb a1 08 52  faddd     %d4, %d18, %d60
    0x10000476c:            81 a7 48 5a  faddd     %d60, %d26, %d0
    0x100004770:            14 40 00 18  bg,pn     %icc, +0x60   <0x1000047d0>
    0x100004774:            01 00 00 00  nop
    0x100004778:            b5 3b 60 00  sra       %o5, 0x0, %i2
    0x10000477c:            b9 2e b0 03  sllx      %i2, 0x3, %i4
    0x100004780:            9e 07 00 11  add       %i4, %l1, %o7
    0x100004784:            dd 1c 00 1c  ldd       [%l0 + %i4], %d14
    0x100004788:            ed 1b e0 08  ldd       [%o7 + 0x8], %d22
    0x10000478c:            d5 1c 80 1c  ldd       [%l2 + %i4], %d10
    0x100004790:            ff 1c 40 1c  ldd       [%l1 + %i4], %d62
    0x100004794:            b1 a3 88 56  faddd     %d14, %d22, %d24
    0x100004798:            96 07 00 12  add       %i4, %l2, %o3
    0x10000479c:            a9 a7 c8 4a  faddd     %d62, %d10, %d20
    0x1000047a0:            f7 1a e0 08  ldd       [%o3 + 0x8], %d58
    0x1000047a4:            a8 07 00 10  add       %i4, %l0, %l4
    0x1000047a8:            98 03 20 01  add       %o4, 0x1, %o4
    0x1000047ac:            8d a6 c8 40  faddd     %d58, %d0, %d6
    0x1000047b0:            e5 1d 20 08  ldd       [%l4 + 0x8], %d18
    0x1000047b4:            a1 a6 08 54  faddd     %d24, %d20, %d16
    0x1000047b8:            80 a3 00 1d  cmp       %o4, %i5
    0x1000047bc:            9a 03 60 02  add       %o5, 0x2, %o5
    0x1000047c0:            91 a4 08 46  faddd     %d16, %d6, %d8
    0x1000047c4:            81 a2 08 52  faddd     %d8, %d18, %d0
    0x1000047c8:            04 4f ff ed  ble,pt    %icc, -0x4c   <0x10000477c>
    0x1000047cc:            b5 3b 60 00  sra       %o5, 0x0, %i2
    0x1000047d0:            b0 06 20 01  add       %i0, 0x1, %i0
    0x1000047d4:            80 a6 00 15  cmp       %i0, %l5
    0x1000047d8:            b6 06 c0 17  add       %i3, %l7, %i3
    0x1000047dc:            04 4f ff 52  ble,pt    %icc, -0x2b8  <0x100004524>
    0x1000047e0:            98 10 20 00  clr       %o4
    0x1000047e4:            81 c7 e0 08  ret
    0x1000047e8:            81 e8 20 00  restore   %g0, 0x0, %g0
    0x1000047ec:            00 00 00 00  illtrap   0x0
    0x1000047f0:            00 00 00 00  illtrap   0x0
    0x1000047f4:            00 00 00 00  illtrap   0x0
CheckSum()
    0x1000047f8:            19 00 04 00  sethi     %hi(0x100000), %o4
    0x1000047fc:            86 13 21 12  or        %o4, 0x112, %g3
    0x100004800:            8b 28 f0 0c  sllx      %g3, 0xc, %g5
    0x100004804:            09 00 04 00  sethi     %hi(0x100000), %g4
    0x100004808:            94 11 20 04  or        %g4, 0x4, %o2
    0x10000480c:            d0 01 60 c0  ld        [%g5 + 0xc0], %o0
    0x100004810:            97 2a b0 0c  sllx      %o2, 0xc, %o3
    0x100004814:            c1 1a e7 f0  ldd       [%o3 + 0x7f0], %d0
    0x100004818:            80 a2 20 00  cmp       %o0, 0x0
    0x10000481c:            04 40 00 7b  ble,pn    %icc, +0x1ec  <0x100004a08>
    0x100004820:            05 00 04 00  sethi     %hi(0x100000), %g2
    0x100004824:            82 10 a1 12  or        %g2, 0x112, %g1
    0x100004828:            9b 28 70 0c  sllx      %g1, 0xc, %o5
    0x10000482c:            86 10 00 09  mov       %o1, %g3
    0x100004830:            96 10 20 00  clr       %o3
    0x100004834:            98 02 3f ff  add       %o0, -0x1, %o4
    0x100004838:            d2 03 61 74  ld        [%o5 + 0x174], %o1
    0x10000483c:            94 10 20 00  clr       %o2
    0x100004840:            8a 10 20 00  clr       %g5
    0x100004844:            88 02 40 08  add       %o1, %o0, %g4
    0x100004848:            93 29 20 01  sll       %g4, 0x1, %o1
    0x10000484c:            90 03 20 01  add       %o4, 0x1, %o0
    0x100004850:            80 a2 20 11  cmp       %o0, 0x11
    0x100004854:            88 10 00 0a  mov       %o2, %g4
    0x100004858:            06 40 00 5b  bl,pn     %icc, +0x16c  <0x1000049c4>
    0x10000485c:            01 00 00 00  nop
    0x100004860:            9b 3a a0 00  sra       %o2, 0x0, %o5
    0x100004864:            85 2b 70 03  sllx      %o5, 0x3, %g2
    0x100004868:            c5 18 c0 02  ldd       [%g3 + %g2], %d2
    0x10000486c:            82 00 c0 02  add       %g3, %g2, %g1
    0x100004870:            d1 18 60 08  ldd       [%g1 + 0x8], %d8
    0x100004874:            f5 18 60 10  ldd       [%g1 + 0x10], %d26
    0x100004878:            ff 18 60 18  ldd       [%g1 + 0x18], %d62
    0x10000487c:            d5 18 60 20  ldd       [%g1 + 0x20], %d10
    0x100004880:            e5 18 60 28  ldd       [%g1 + 0x28], %d18
    0x100004884:            c9 18 60 30  ldd       [%g1 + 0x30], %d4
    0x100004888:            cd 18 60 38  ldd       [%g1 + 0x38], %d6
    0x10000488c:            e9 18 60 40  ldd       [%g1 + 0x40], %d20
    0x100004890:            d9 18 60 48  ldd       [%g1 + 0x48], %d12
    0x100004894:            ed 18 60 50  ldd       [%g1 + 0x50], %d22
    0x100004898:            dd 18 60 58  ldd       [%g1 + 0x58], %d14
    0x10000489c:            bd a0 88 48  faddd     %d2, %d8, %d30
    0x1000048a0:            f1 18 60 60  ldd       [%g1 + 0x60], %d24
    0x1000048a4:            b9 a6 88 5f  faddd     %d26, %d62, %d28
    0x1000048a8:            e1 18 60 68  ldd       [%g1 + 0x68], %d16
    0x1000048ac:            91 a2 88 52  faddd     %d10, %d18, %d8
    0x1000048b0:            1b 00 04 00  sethi     %hi(0x100000), %o5
    0x1000048b4:            f5 18 60 70  ldd       [%g1 + 0x70], %d26
    0x1000048b8:            e5 18 60 78  ldd       [%g1 + 0x78], %d18
    0x1000048bc:            90 00 60 90  add       %g1, 0x90, %o0
    0x1000048c0:            84 13 60 04  or        %o5, 0x4, %g2
    0x1000048c4:            83 28 b0 0c  sllx      %g2, 0xc, %g1
    0x1000048c8:            ff 18 67 f0  ldd       [%g1 + 0x7f0], %d62
    0x1000048cc:            85 a7 08 40  faddd     %d28, %d0, %d2
    0x1000048d0:            95 a1 08 46  faddd     %d4, %d6, %d10
    0x1000048d4:            8a 10 20 09  mov       0x9, %g5
    0x1000048d8:            bd a7 88 5f  faddd     %d30, %d62, %d30
    0x1000048dc:            f9 1a 3f f0  ldd       [%o0 - 0x10], %d28
    0x1000048e0:            9a 23 20 07  sub       %o4, 0x7, %o5
    0x1000048e4:            c1 6a 21 48  prefetch  [%o0 + 0x148], #n_reads
    0x1000048e8:            8a 01 60 08  add       %g5, 0x8, %g5
    0x1000048ec:            cd 1a 3f f8  ldd       [%o0 - 0x8], %d6
    0x1000048f0:            90 02 20 80  add       %o0, 0x80, %o0
    0x1000048f4:            a9 a5 08 4c  faddd     %d20, %d12, %d20
    0x1000048f8:            80 a1 40 0d  cmp       %g5, %o5
    0x1000048fc:            88 01 20 10  add       %g4, 0x10, %g4
    0x100004900:            c9 1a 3f 80  ldd       [%o0 - 0x80], %d4
    0x100004904:            99 a2 08 5e  faddd     %d8, %d30, %d12
    0x100004908:            ad a5 88 4e  faddd     %d22, %d14, %d22
    0x10000490c:            dd 1a 3f 88  ldd       [%o0 - 0x78], %d14
    0x100004910:            91 a2 88 42  faddd     %d10, %d2, %d8
    0x100004914:            d5 1a 3f 90  ldd       [%o0 - 0x70], %d10
    0x100004918:            b1 a6 08 50  faddd     %d24, %d16, %d24
    0x10000491c:            e1 1a 3f 98  ldd       [%o0 - 0x68], %d16
    0x100004920:            bd a5 08 4c  faddd     %d20, %d12, %d30
    0x100004924:            c5 1a 3f a0  ldd       [%o0 - 0x60], %d2
    0x100004928:            b5 a6 88 52  faddd     %d26, %d18, %d26
    0x10000492c:            e5 1a 3f a8  ldd       [%o0 - 0x58], %d18
    0x100004930:            bf a5 88 48  faddd     %d22, %d8, %d62
    0x100004934:            e9 1a 3f b0  ldd       [%o0 - 0x50], %d20
    0x100004938:            b9 a7 08 46  faddd     %d28, %d6, %d28
    0x10000493c:            d9 1a 3f b8  ldd       [%o0 - 0x48], %d12
    0x100004940:            bd a6 08 5e  faddd     %d24, %d30, %d30
    0x100004944:            ed 1a 3f c0  ldd       [%o0 - 0x40], %d22
    0x100004948:            8d a1 08 4e  faddd     %d4, %d14, %d6
    0x10000494c:            dd 1a 3f c8  ldd       [%o0 - 0x38], %d14
    0x100004950:            89 a6 88 5f  faddd     %d26, %d62, %d4
    0x100004954:            f1 1a 3f d0  ldd       [%o0 - 0x30], %d24
    0x100004958:            91 a2 88 50  faddd     %d10, %d16, %d8
    0x10000495c:            e1 1a 3f d8  ldd       [%o0 - 0x28], %d16
    0x100004960:            bd a7 08 5e  faddd     %d28, %d30, %d30
    0x100004964:            f5 1a 3f e0  ldd       [%o0 - 0x20], %d26
    0x100004968:            95 a0 88 52  faddd     %d2, %d18, %d10
    0x10000496c:            e5 1a 3f e8  ldd       [%o0 - 0x18], %d18
    0x100004970:            85 a1 88 44  faddd     %d6, %d4, %d2
    0x100004974:            04 4f ff dc  ble,pt    %icc, -0x90   <0x1000048e4>
    0x100004978:            f9 1a 3f f0  ldd       [%o0 - 0x10], %d28
    0x10000497c:            8d a5 08 4c  faddd     %d20, %d12, %d6
    0x100004980:            a9 a6 08 50  faddd     %d24, %d16, %d20
    0x100004984:            89 a2 08 5e  faddd     %d8, %d30, %d4
    0x100004988:            b1 a5 88 4e  faddd     %d22, %d14, %d24
    0x10000498c:            b5 a6 88 52  faddd     %d26, %d18, %d26
    0x100004990:            bf a2 88 42  faddd     %d10, %d2, %d62
    0x100004994:            c5 1a 3f f8  ldd       [%o0 - 0x8], %d2
    0x100004998:            80 a1 40 0c  cmp       %g5, %o4
    0x10000499c:            bd a1 88 44  faddd     %d6, %d4, %d30
    0x1000049a0:            b9 a7 08 42  faddd     %d28, %d2, %d28
    0x1000049a4:            88 01 20 12  add       %g4, 0x12, %g4
    0x1000049a8:            ad a6 08 5f  faddd     %d24, %d62, %d22
    0x1000049ac:            a5 a5 08 5e  faddd     %d20, %d30, %d18
    0x1000049b0:            a1 a6 88 56  faddd     %d26, %d22, %d16
    0x1000049b4:            9d a7 08 52  faddd     %d28, %d18, %d14
    0x1000049b8:            81 a4 08 4e  faddd     %d16, %d14, %d0
    0x1000049bc:            14 40 00 0e  bg,pn     %icc, +0x38   <0x1000049f4>
    0x1000049c0:            01 00 00 00  nop
    0x1000049c4:            85 39 20 00  sra       %g4, 0x0, %g2
    0x1000049c8:            83 28 b0 03  sllx      %g2, 0x3, %g1
    0x1000049cc:            d9 18 c0 01  ldd       [%g3 + %g1], %d12
    0x1000049d0:            9a 00 40 03  add       %g1, %g3, %o5
    0x1000049d4:            8a 01 60 01  add       %g5, 0x1, %g5
    0x1000049d8:            91 a0 08 4c  faddd     %d0, %d12, %d8
    0x1000049dc:            80 a1 40 0c  cmp       %g5, %o4
    0x1000049e0:            e9 1b 60 08  ldd       [%o5 + 0x8], %d20
    0x1000049e4:            88 01 20 02  add       %g4, 0x2, %g4
    0x1000049e8:            81 a2 08 54  faddd     %d8, %d20, %d0
    0x1000049ec:            04 4f ff f7  ble,pt    %icc, -0x24   <0x1000049c8>
    0x1000049f0:            85 39 20 00  sra       %g4, 0x0, %g2
    0x1000049f4:            96 02 e0 01  add       %o3, 0x1, %o3
    0x1000049f8:            80 a2 c0 0c  cmp       %o3, %o4
    0x1000049fc:            94 02 80 09  add       %o2, %o1, %o2
    0x100004a00:            04 4f ff 93  ble,pt    %icc, -0x1b4  <0x10000484c>
    0x100004a04:            8a 10 20 00  clr       %g5
    0x100004a08:            81 c3 e0 08  retl
    0x100004a0c:            01 00 00 00  nop
InitX()
    0x100004a10:            9d e3 bf 50  save      %sp, -0xb0, %sp
    0x100004a14:            3b 00 04 00  sethi     %hi(0x100000), %i5
    0x100004a18:            ba 17 61 12  or        %i5, 0x112, %i5
    0x100004a1c:            bb 2f 70 0c  sllx      %i5, 0xc, %i5
    0x100004a20:            40 04 31 68  call      +0x10c5a0     <0x100110fc0>
    0x100004a24:            90 10 20 00  clr       %o0
    0x100004a28:            e4 07 60 c0  ld        [%i5 + 0xc0], %l2
    0x100004a2c:            80 a4 a0 00  cmp       %l2, 0x0
    0x100004a30:            04 40 00 20  ble,pn    %icc, +0x80   <0x100004ab0>
    0x100004a34:            37 00 04 00  sethi     %hi(0x100000), %i3
    0x100004a38:            b4 16 e1 12  or        %i3, 0x112, %i2
    0x100004a3c:            a1 2e b0 0c  sllx      %i2, 0xc, %l0
    0x100004a40:            f0 04 21 74  ld        [%l0 + 0x174], %i0
    0x100004a44:            a2 10 20 00  clr       %l1
    0x100004a48:            80 a4 a0 00  cmp       %l2, 0x0
    0x100004a4c:            9e 04 80 18  add       %l2, %i0, %o7
    0x100004a50:            04 40 00 14  ble,pn    %icc, +0x50   <0x100004aa0>
    0x100004a54:            ad 3b e0 00  sra       %o7, 0x0, %l6
    0x100004a58:            af 3c 60 00  sra       %l1, 0x0, %l7
    0x100004a5c:            aa 4d c0 16  mulx      %l7, %l6, %l5
    0x100004a60:            b7 2d 60 01  sll       %l5, 0x1, %i3
    0x100004a64:            b8 10 20 00  clr       %i4
    0x100004a68:            b8 07 20 01  add       %i4, 0x1, %i4
    0x100004a6c:            40 04 31 5d  call      +0x10c574     <0x100110fe0>
    0x100004a70:            a9 3e e0 00  sra       %i3, 0x0, %l4
    0x100004a74:            a7 2d 30 03  sllx      %l4, 0x3, %l3
    0x100004a78:            40 04 31 5a  call      +0x10c568     <0x100110fe0>
    0x100004a7c:            c1 3e 40 13  std       %d0, [%i1 + %l3]
    0x100004a80:            e4 07 60 c0  ld        [%i5 + 0xc0], %l2
    0x100004a84:            b4 04 c0 19  add       %l3, %i1, %i2
    0x100004a88:            b6 06 e0 02  add       %i3, 0x2, %i3
    0x100004a8c:            80 a7 00 12  cmp       %i4, %l2
    0x100004a90:            06 4f ff f6  bl,pt     %icc, -0x28   <0x100004a68>
    0x100004a94:            c1 3e a0 08  std       %d0, [%i2 + 0x8]
    0x100004a98:            f8 04 21 74  ld        [%l0 + 0x174], %i4
    0x100004a9c:            9e 04 80 1c  add       %l2, %i4, %o7
    0x100004aa0:            a2 04 60 01  add       %l1, 0x1, %l1
    0x100004aa4:            80 a4 40 12  cmp       %l1, %l2
    0x100004aa8:            06 4f ff ea  bl,pt     %icc, -0x58   <0x100004a50>
    0x100004aac:            80 a4 a0 00  cmp       %l2, 0x0
    0x100004ab0:            81 c7 e0 08  ret
    0x100004ab4:            81 e8 20 00  restore   %g0, 0x0, %g0
    0x100004ab8:            00 00 00 01  illtrap   0x1
    0x100004abc:            00 00 00 00  illtrap   0x0
    0x100004ac0:            40 19 21 ff  call      +0x6487fc     <0x10064d2bc>
    0x100004ac4:            2e 48 e8 a7  bvs,a,pt  %icc, +0x3a29c <0x10003ed60>
    0x100004ac8:            3f f0 00 00  0x3ff00000
    0x100004acc:            00 00 00 00  illtrap   0x0
    0x100004ad0:            00 00 00 00  illtrap   0x0
    0x100004ad4:            00 00 00 00  illtrap   0x0
    0x100004ad8:            00 00 00 00  illtrap   0x0
    0x100004adc:            00 00 00 00  illtrap   0x0
    0x100004ae0:            00 00 00 00  illtrap   0x0
    0x100004ae4:            00 00 00 00  illtrap   0x0
    0x100004ae8:            00 00 00 00  illtrap   0x0
    0x100004aec:            00 00 00 00  illtrap   0x0
InitU()
    0x100004af0:            9d e3 be d0  save      %sp, -0x130, %sp
    0x100004af4:            80 a6 20 01  cmp       %i0, 0x1
    0x100004af8:            04 40 00 40  ble,pn    %icc, +0x100  <0x100004bf8>
    0x100004afc:            3b 00 04 00  sethi     %hi(0x100000), %i5
    0x100004b00:            ba 17 61 12  or        %i5, 0x112, %i5
    0x100004b04:            b7 2f 70 0c  sllx      %i5, 0xc, %i3
    0x100004b08:            39 00 04 00  sethi     %hi(0x100000), %i4
    0x100004b0c:            b4 17 20 04  or        %i4, 0x4, %i2
    0x100004b10:            af 2e b0 0c  sllx      %i2, 0xc, %l7
    0x100004b14:            ec 06 e0 c0  ld        [%i3 + 0xc0], %l6
    0x100004b18:            b8 05 ea b8  add       %l7, 0xab8, %i4
    0x100004b1c:            a6 10 20 01  mov       0x1, %l3
    0x100004b20:            e5 1f 20 10  ldd       [%i4 + 0x10], %d18
    0x100004b24:            a0 05 bf ff  add       %l6, -0x1, %l0
    0x100004b28:            ba 10 20 00  clr       %i5
    0x100004b2c:            e1 1f 20 18  ldd       [%i4 + 0x18], %d16
    0x100004b30:            80 a4 e0 00  cmp       %l3, 0x0
    0x100004b34:            04 40 00 2b  ble,pn    %icc, +0xac   <0x100004be0>
    0x100004b38:            ab 2c e0 01  sll       %l3, 0x1, %l5
    0x100004b3c:            a2 04 ff ff  add       %l3, -0x1, %l1
    0x100004b40:            ea 23 a8 af  st        %l5, [%sp + 0x8af]
    0x100004b44:            af 2c 60 01  sll       %l1, 0x1, %l7
    0x100004b48:            a4 10 00 11  mov       %l1, %l2
    0x100004b4c:            c1 03 a8 af  ld        [%sp + 0x8af], %f0
    0x100004b50:            ad a0 00 50  fmovd     %d16, %d22
    0x100004b54:            ac 10 20 00  clr       %l6
    0x100004b58:            a9 a0 19 00  fitod     %f0, %d20
    0x100004b5c:            80 a4 40 10  cmp       %l1, %l0
    0x100004b60:            14 40 00 26  bg,pn     %icc, +0x98   <0x100004bf8>
    0x100004b64:            c5 1f 20 10  ldd       [%i4 + 0x10], %d2
    0x100004b68:            c9 1f 20 08  ldd       [%i4 + 0x8], %d4
    0x100004b6c:            e1 3b a8 af  std       %d16, [%sp + 0x8af]
    0x100004b70:            8d a0 89 d4  fdivd     %d2, %d20, %d6
    0x100004b74:            9f 3d e0 00  sra       %l7, 0x0, %o7
    0x100004b78:            94 07 a7 ef  add       %fp, 0x7ef, %o2
    0x100004b7c:            e5 3b a8 b7  std       %d18, [%sp + 0x8b7]
    0x100004b80:            92 07 a7 f7  add       %fp, 0x7f7, %o1
    0x100004b84:            e9 3b a8 bf  std       %d20, [%sp + 0x8bf]
    0x100004b88:            ed 3b a8 c7  std       %d22, [%sp + 0x8c7]
    0x100004b8c:            91 a5 89 44  fmuld     %d22, %d4, %d8
    0x100004b90:            b5 2b f0 03  sllx      %o7, 0x3, %i2
    0x100004b94:            ac 05 a0 01  add       %l6, 0x1, %l6
    0x100004b98:            a4 04 a0 01  add       %l2, 0x1, %l2
    0x100004b9c:            ae 05 e0 02  add       %l7, 0x2, %l7
    0x100004ba0:            81 a2 09 46  fmuld     %d8, %d6, %d0
    0x100004ba4:            40 00 19 4f  call      +0x653c       <0x10000b0e0>
    0x100004ba8:            b6 06 80 19  add       %i2, %i1, %i3
    0x100004bac:            d9 1f a7 f7  ldd       [%fp + 0x7f7], %d12
    0x100004bb0:            ed 1b a8 c7  ldd       [%sp + 0x8c7], %d22
    0x100004bb4:            e5 1b a8 b7  ldd       [%sp + 0x8b7], %d18
    0x100004bb8:            d5 1f a7 ef  ldd       [%fp + 0x7ef], %d10
    0x100004bbc:            d5 3e 40 1a  std       %d10, [%i1 + %i2]
    0x100004bc0:            e1 1b a8 af  ldd       [%sp + 0x8af], %d16
    0x100004bc4:            9d a0 00 cc  fnegd     %d12, %d14
    0x100004bc8:            ad a5 88 52  faddd     %d22, %d18, %d22
    0x100004bcc:            80 a5 80 11  cmp       %l6, %l1
    0x100004bd0:            dd 3e e0 08  std       %d14, [%i3 + 0x8]
    0x100004bd4:            e9 1b a8 bf  ldd       [%sp + 0x8bf], %d20
    0x100004bd8:            04 4f ff e2  ble,pt    %icc, -0x78   <0x100004b60>
    0x100004bdc:            80 a4 80 10  cmp       %l2, %l0
    0x100004be0:            ba 07 60 01  add       %i5, 0x1, %i5
    0x100004be4:            a8 10 20 01  mov       0x1, %l4
    0x100004be8:            a7 2d 00 1d  sll       %l4, %i5, %l3
    0x100004bec:            80 a4 c0 18  cmp       %l3, %i0
    0x100004bf0:            06 4f ff d1  bl,pt     %icc, -0xbc   <0x100004b34>
    0x100004bf4:            80 a4 e0 00  cmp       %l3, 0x0
    0x100004bf8:            81 c7 e0 08  ret
    0x100004bfc:            81 e8 20 00  restore   %g0, 0x0, %g0
    0x100004c00:            00 00 00 00  illtrap   0x0
    0x100004c04:            00 00 00 01  illtrap   0x1
    0x100004c08:            40 19 21 ff  call      +0x6487fc     <0x10064d404>
    0x100004c0c:            2e 48 e8 a7  bvs,a,pt  %icc, +0x3a29c <0x10003eea8>
    0x100004c10:            00 00 00 00  illtrap   0x0
    0x100004c14:            00 00 00 00  illtrap   0x0
    0x100004c18:            3f f0 00 00  0x3ff00000
    0x100004c1c:            00 00 00 00  illtrap   0x0
    0x100004c20:            00 00 00 00  illtrap   0x0
    0x100004c24:            00 00 00 00  illtrap   0x0
    0x100004c28:            00 00 00 00  illtrap   0x0
    0x100004c2c:            00 00 00 00  illtrap   0x0
    0x100004c30:            00 00 00 00  illtrap   0x0
    0x100004c34:            00 00 00 00  illtrap   0x0
InitU2()
    0x100004c38:            9d e3 bf 20  save      %sp, -0xe0, %sp
    0x100004c3c:            b4 90 00 1a  orcc      %g0, %i2, %i2
    0x100004c40:            04 40 00 57  ble,pn    %icc, +0x15c  <0x100004d9c>
    0x100004c44:            3b 00 04 00  sethi     %hi(0x100000), %i5
    0x100004c48:            f0 23 a8 d7  st        %i0, [%sp + 0x8d7]
    0x100004c4c:            c1 03 a8 d7  ld        [%sp + 0x8d7], %f0
    0x100004c50:            37 00 04 00  sethi     %hi(0x100000), %i3
    0x100004c54:            39 00 04 00  sethi     %hi(0x100000), %i4
    0x100004c58:            b0 17 60 04  or        %i5, 0x4, %i0
    0x100004c5c:            ae 16 e1 12  or        %i3, 0x112, %l7
    0x100004c60:            aa 17 21 12  or        %i4, 0x112, %l5
    0x100004c64:            ad 2d f0 0c  sllx      %l7, 0xc, %l6
    0x100004c68:            e2 05 a0 c0  ld        [%l6 + 0xc0], %l1
    0x100004c6c:            a9 2d 70 0c  sllx      %l5, 0xc, %l4
    0x100004c70:            e0 05 21 74  ld        [%l4 + 0x174], %l0
    0x100004c74:            a7 2e 30 0c  sllx      %i0, 0xc, %l3
    0x100004c78:            a4 04 ec 00  add       %l3, 0xc00, %l2
    0x100004c7c:            c9 1c a0 08  ldd       [%l2 + 0x8], %d4
    0x100004c80:            e1 1c a0 10  ldd       [%l2 + 0x10], %d16
    0x100004c84:            e9 1c a0 18  ldd       [%l2 + 0x18], %d20
    0x100004c88:            9e 04 00 11  add       %l0, %l1, %o7
    0x100004c8c:            bb 2b e0 01  sll       %o7, 0x1, %i5
    0x100004c90:            ac 10 20 00  clr       %l6
    0x100004c94:            a8 06 bf ff  add       %i2, -0x1, %l4
    0x100004c98:            aa 10 20 00  clr       %l5
    0x100004c9c:            ae 10 20 00  clr       %l7
    0x100004ca0:            85 a0 19 00  fitod     %f0, %d2
    0x100004ca4:            a5 a0 00 50  fmovd     %d16, %d18
    0x100004ca8:            9d a1 09 c2  fdivd     %d4, %d2, %d14
    0x100004cac:            99 a0 00 50  fmovd     %d16, %d12
    0x100004cb0:            95 a4 89 4e  fmuld     %d18, %d14, %d10
    0x100004cb4:            dd 3b a8 af  std       %d14, [%sp + 0x8af]
    0x100004cb8:            b0 10 00 15  mov       %l5, %i0
    0x100004cbc:            e1 3b a8 b7  std       %d16, [%sp + 0x8b7]
    0x100004cc0:            e5 3b a8 bf  std       %d18, [%sp + 0x8bf]
    0x100004cc4:            e9 3b a8 c7  std       %d20, [%sp + 0x8c7]
    0x100004cc8:            d5 3b a8 cf  std       %d10, [%sp + 0x8cf]
    0x100004ccc:            81 a3 09 4a  fmuld     %d12, %d10, %d0
    0x100004cd0:            40 00 14 8c  call      +0x5230       <0x100009f00>
    0x100004cd4:            d9 3b a8 d7  std       %d12, [%sp + 0x8d7]
    0x100004cd8:            e9 1b a8 c7  ldd       [%sp + 0x8c7], %d20
    0x100004cdc:            d9 1b a8 d7  ldd       [%sp + 0x8d7], %d12
    0x100004ce0:            dd 1b a8 af  ldd       [%sp + 0x8af], %d14
    0x100004ce4:            95 3e 20 00  sra       %i0, 0x0, %o2
    0x100004ce8:            e1 1b a8 b7  ldd       [%sp + 0x8b7], %d16
    0x100004cec:            ae 05 e0 01  add       %l7, 0x1, %l7
    0x100004cf0:            e5 1b a8 bf  ldd       [%sp + 0x8bf], %d18
    0x100004cf4:            93 2a b0 03  sllx      %o2, 0x3, %o1
    0x100004cf8:            c1 3a 40 19  std       %d0, [%o1 + %i1]
    0x100004cfc:            99 a3 08 54  faddd     %d12, %d20, %d12
    0x100004d00:            80 a5 c0 14  cmp       %l7, %l4
    0x100004d04:            d5 1b a8 cf  ldd       [%sp + 0x8cf], %d10
    0x100004d08:            b0 06 20 02  add       %i0, 0x2, %i0
    0x100004d0c:            24 4f ff ec  ble,a,pt  %icc, -0x50   <0x100004cbc>
    0x100004d10:            dd 3b a8 af  std       %d14, [%sp + 0x8af]
    0x100004d14:            b6 10 20 00  clr       %i3
    0x100004d18:            91 a0 00 50  fmovd     %d16, %d8
    0x100004d1c:            e1 3b a8 d7  std       %d16, [%sp + 0x8d7]
    0x100004d20:            b8 10 00 15  mov       %l5, %i4
    0x100004d24:            dd 3b a8 af  std       %d14, [%sp + 0x8af]
    0x100004d28:            e1 3b a8 b7  std       %d16, [%sp + 0x8b7]
    0x100004d2c:            e5 3b a8 bf  std       %d18, [%sp + 0x8bf]
    0x100004d30:            e9 3b a8 c7  std       %d20, [%sp + 0x8c7]
    0x100004d34:            81 a2 09 4a  fmuld     %d8, %d10, %d0
    0x100004d38:            40 00 16 b2  call      +0x5ac8       <0x10000a800>
    0x100004d3c:            d5 3b a8 cf  std       %d10, [%sp + 0x8cf]
    0x100004d40:            d1 1b a8 d7  ldd       [%sp + 0x8d7], %d8
    0x100004d44:            e9 1b a8 c7  ldd       [%sp + 0x8c7], %d20
    0x100004d48:            9b 3f 20 00  sra       %i4, 0x0, %o5
    0x100004d4c:            dd 1b a8 af  ldd       [%sp + 0x8af], %d14
    0x100004d50:            99 2b 70 03  sllx      %o5, 0x3, %o4
    0x100004d54:            e1 1b a8 b7  ldd       [%sp + 0x8b7], %d16
    0x100004d58:            e5 1b a8 bf  ldd       [%sp + 0x8bf], %d18
    0x100004d5c:            b6 06 e0 01  add       %i3, 0x1, %i3
    0x100004d60:            8d a0 00 c0  fnegd     %d0, %d6
    0x100004d64:            96 06 40 0c  add       %i1, %o4, %o3
    0x100004d68:            cd 3a e0 08  std       %d6, [%o3 + 0x8]
    0x100004d6c:            91 a2 08 54  faddd     %d8, %d20, %d8
    0x100004d70:            80 a6 c0 14  cmp       %i3, %l4
    0x100004d74:            d5 1b a8 cf  ldd       [%sp + 0x8cf], %d10
    0x100004d78:            b8 07 20 02  add       %i4, 0x2, %i4
    0x100004d7c:            24 4f ff ea  ble,a,pt  %icc, -0x58   <0x100004d24>
    0x100004d80:            d1 3b a8 d7  std       %d8, [%sp + 0x8d7]
    0x100004d84:            ac 05 a0 01  add       %l6, 0x1, %l6
    0x100004d88:            80 a5 80 14  cmp       %l6, %l4
    0x100004d8c:            aa 05 40 1d  add       %l5, %i5, %l5
    0x100004d90:            a5 a4 88 54  faddd     %d18, %d20, %d18
    0x100004d94:            04 4f ff c6  ble,pt    %icc, -0xe8   <0x100004cac>
    0x100004d98:            ae 10 20 00  clr       %l7
    0x100004d9c:            81 c7 e0 08  ret
    0x100004da0:            81 e8 20 00  restore   %g0, 0x0, %g0
    0x100004da4:            00 00 00 00  illtrap   0x0
    0x100004da8:            00 00 00 00  illtrap   0x0
    0x100004dac:            00 00 00 00  illtrap   0x0
    0x100004db0:            00 00 00 00  illtrap   0x0
    0x100004db4:            00 00 00 00  illtrap   0x0
    0x100004db8:            00 00 00 00  illtrap   0x0
    0x100004dbc:            00 00 00 00  illtrap   0x0
BitReverse()
    0x100004dc0:            90 90 00 08  orcc      %g0, %o0, %o0
    0x100004dc4:            04 40 00 24  ble,pn    %icc, +0x90   <0x100004e54>
    0x100004dc8:            96 10 20 00  clr       %o3
    0x100004dcc:            94 10 00 09  mov       %o1, %o2
    0x100004dd0:            80 a2 20 03  cmp       %o0, 0x3
    0x100004dd4:            92 10 20 00  clr       %o1
    0x100004dd8:            98 02 3f ff  add       %o0, -0x1, %o4
    0x100004ddc:            8a 10 00 08  mov       %o0, %g5
    0x100004de0:            06 40 00 15  bl,pn     %icc, +0x54   <0x100004e34>
    0x100004de4:            01 00 00 00  nop
    0x100004de8:            9a 0a a0 01  and       %o2, 0x1, %o5
    0x100004dec:            96 10 00 0d  mov       %o5, %o3
    0x100004df0:            95 3a a0 01  sra       %o2, 0x1, %o2
    0x100004df4:            92 10 20 01  mov       0x1, %o1
    0x100004df8:            9a 01 7f fe  add       %g5, -0x2, %o5
    0x100004dfc:            92 02 60 02  add       %o1, 0x2, %o1
    0x100004e00:            85 2a e0 01  sll       %o3, 0x1, %g2
    0x100004e04:            86 0a a0 01  and       %o2, 0x1, %g3
    0x100004e08:            89 3a a0 01  sra       %o2, 0x1, %g4
    0x100004e0c:            82 00 80 03  add       %g2, %g3, %g1
    0x100004e10:            80 a2 40 0d  cmp       %o1, %o5
    0x100004e14:            91 28 60 01  sll       %g1, 0x1, %o0
    0x100004e18:            96 09 20 01  and       %g4, 0x1, %o3
    0x100004e1c:            95 3a a0 02  sra       %o2, 0x2, %o2
    0x100004e20:            04 4f ff f7  ble,pt    %icc, -0x24   <0x100004dfc>
    0x100004e24:            96 02 00 0b  add       %o0, %o3, %o3
    0x100004e28:            80 a2 40 0c  cmp       %o1, %o4
    0x100004e2c:            14 40 00 0a  bg,pn     %icc, +0x28   <0x100004e54>
    0x100004e30:            01 00 00 00  nop
    0x100004e34:            92 02 60 01  add       %o1, 0x1, %o1
    0x100004e38:            9a 0a a0 01  and       %o2, 0x1, %o5
    0x100004e3c:            8b 2a e0 01  sll       %o3, 0x1, %g5
    0x100004e40:            80 a2 40 0c  cmp       %o1, %o4
    0x100004e44:            95 3a a0 01  sra       %o2, 0x1, %o2
    0x100004e48:            96 01 40 0d  add       %g5, %o5, %o3
    0x100004e4c:            04 4f ff fb  ble,pt    %icc, -0x14   <0x100004e38>
    0x100004e50:            92 02 60 01  add       %o1, 0x1, %o1
    0x100004e54:            81 c3 e0 08  retl
    0x100004e58:            91 3a e0 00  sra       %o3, 0x0, %o0
    0x100004e5c:            00 00 00 00  illtrap   0x0
    0x100004e60:            3f f0 00 00  0x3ff00000
    0x100004e64:            00 00 00 00  illtrap   0x0
FFT1D()
    0x100004e68:            9d e3 bb 90  save      %sp, -0x470, %sp
    0x100004e6c:            de 5f a8 ff  ldx       [%fp + 0x8ff], %o7
    0x100004e70:            ec 5f a8 c7  ldx       [%fp + 0x8c7], %l6
    0x100004e74:            da 5f a8 f7  ldx       [%fp + 0x8f7], %o5
    0x100004e78:            e4 5f a8 e7  ldx       [%fp + 0x8e7], %l2
    0x100004e7c:            fa 73 a9 3f  stx       %i5, [%sp + 0x93f]
    0x100004e80:            e0 5f a8 df  ldx       [%fp + 0x8df], %l0
    0x100004e84:            ec 23 a8 c7  st        %l6, [%sp + 0x8c7]
    0x100004e88:            fa 5f a8 ef  ldx       [%fp + 0x8ef], %i5
    0x100004e8c:            da 23 a8 d7  st        %o5, [%sp + 0x8d7]
    0x100004e90:            e4 23 a8 d3  st        %l2, [%sp + 0x8d3]
    0x100004e94:            f0 73 a9 37  stx       %i0, [%sp + 0x937]
    0x100004e98:            a9 2e b0 20  sllx      %i2, 0x20, %l4
    0x100004e9c:            b4 10 00 1c  mov       %i4, %i2
    0x100004ea0:            f8 5f a8 b7  ldx       [%fp + 0x8b7], %i4
    0x100004ea4:            f8 23 a8 db  st        %i4, [%sp + 0x8db]
    0x100004ea8:            87 36 60 1f  srl       %i1, 0x1f, %g3
    0x100004eac:            a2 06 40 03  add       %i1, %g3, %l1
    0x100004eb0:            ab 36 20 00  srl       %i0, 0x0, %l5
    0x100004eb4:            f2 5f a8 af  ldx       [%fp + 0x8af], %i1
    0x100004eb8:            95 3c 60 01  sra       %l1, 0x1, %o2
    0x100004ebc:            d4 23 a9 2f  st        %o2, [%sp + 0x92f]
    0x100004ec0:            b8 15 00 15  or        %l4, %l5, %i4
    0x100004ec4:            f8 77 a7 f7  stx       %i4, [%fp + 0x7f7]
    0x100004ec8:            ea 5f a8 cf  ldx       [%fp + 0x8cf], %l5
    0x100004ecc:            ea 23 a8 cb  st        %l5, [%sp + 0x8cb]
    0x100004ed0:            96 10 20 01  mov       0x1, %o3
    0x100004ed4:            e8 5f a8 d7  ldx       [%fp + 0x8d7], %l4
    0x100004ed8:            e8 23 a8 c3  st        %l4, [%sp + 0x8c3]
    0x100004edc:            98 03 e0 20  add       %o7, 0x20, %o4
    0x100004ee0:            d8 73 a8 af  stx       %o4, [%sp + 0x8af]
    0x100004ee4:            93 2a c0 0a  sll       %o3, %o2, %o1
    0x100004ee8:            90 10 00 0c  mov       %o4, %o0
    0x100004eec:            d2 23 a8 bf  st        %o1, [%sp + 0x8bf]
    0x100004ef0:            40 04 30 64  call      +0x10c190     <0x100111080>
    0x100004ef4:            fa 23 a8 cf  st        %i5, [%sp + 0x8cf]
    0x100004ef8:            0a c2 0d 17  brnz,pn   %o0, +0x345c  <0x100008354>
    0x100004efc:            ad 3c 20 00  sra       %l0, 0x0, %l6
    0x100004f00:            f8 5f a8 ff  ldx       [%fp + 0x8ff], %i4
    0x100004f04:            ec 73 a8 b7  stx       %l6, [%sp + 0x8b7]
    0x100004f08:            da 5f 20 48  ldx       [%i4 + 0x48], %o5
    0x100004f0c:            e4 5f 20 50  ldx       [%i4 + 0x50], %l2
    0x100004f10:            9e 03 60 01  add       %o5, 0x1, %o7
    0x100004f14:            80 a3 c0 16  cmp       %o7, %l6
    0x100004f18:            02 60 00 18  be,pn     %xcc, +0x60   <0x100004f78>
    0x100004f1c:            de 77 20 48  stx       %o7, [%i4 + 0x48]
    0x100004f20:            90 10 20 01  mov       0x1, %o0
    0x100004f24:            40 04 30 67  call      +0x10c19c     <0x1001110c0>
    0x100004f28:            92 07 a7 af  add       %fp, 0x7af, %o1
    0x100004f2c:            c4 5f 20 50  ldx       [%i4 + 0x50], %g2
    0x100004f30:            80 a4 80 02  cmp       %l2, %g2
    0x100004f34:            12 60 00 0b  bne,pn    %xcc, +0x2c   <0x100004f60>
    0x100004f38:            a6 07 20 38  add       %i4, 0x38, %l3
    0x100004f3c:            90 10 00 13  mov       %l3, %o0
    0x100004f40:            40 04 30 68  call      +0x10c1a0     <0x1001110e0>
    0x100004f44:            d2 5b a8 af  ldx       [%sp + 0x8af], %o1
    0x100004f48:            0a c2 00 06  brnz,pn   %o0, +0x18    <0x100004f60>
    0x100004f4c:            01 00 00 00  nop
    0x100004f50:            c8 5f 20 50  ldx       [%i4 + 0x50], %g4
    0x100004f54:            80 a4 80 04  cmp       %l2, %g4
    0x100004f58:            02 6f ff fa  be,pt     %xcc, -0x18   <0x100004f40>
    0x100004f5c:            90 10 00 13  mov       %l3, %o0
    0x100004f60:            92 07 a7 a7  add       %fp, 0x7a7, %o1
    0x100004f64:            c6 07 a7 b3  ld        [%fp + 0x7b3], %g3
    0x100004f68:            40 04 30 56  call      +0x10c158     <0x1001110c0>
    0x100004f6c:            91 38 e0 00  sra       %g3, 0x0, %o0
    0x100004f70:            10 80 00 08  ba        +0x20         <0x100004f90>
    0x100004f74:            01 00 00 00  nop
    0x100004f78:            a0 10 20 00  clr       %l0
    0x100004f7c:            a1 7c a4 01  movre     %l2, 0x1, %l0
    0x100004f80:            e0 77 20 50  stx       %l0, [%i4 + 0x50]
    0x100004f84:            90 07 20 38  add       %i4, 0x38, %o0
    0x100004f88:            40 04 30 5e  call      +0x10c178     <0x100111100>
    0x100004f8c:            c0 77 20 48  clrx      [%i4 + 0x48]
    0x100004f90:            40 04 30 44  call      +0x10c110     <0x1001110a0>
    0x100004f94:            d0 5b a8 af  ldx       [%sp + 0x8af], %o0
    0x100004f98:            e4 03 a8 db  ld        [%sp + 0x8db], %l2
    0x100004f9c:            80 a4 a0 00  cmp       %l2, 0x0
    0x100004fa0:            02 40 00 05  be,pn     %icc, +0x14   <0x100004fb4>
    0x100004fa4:            f0 03 a8 d7  ld        [%sp + 0x8d7], %i0
    0x100004fa8:            80 a6 20 00  cmp       %i0, 0x0
    0x100004fac:            22 48 00 11  be,a,pt   %icc, +0x44   <0x100004ff0>
    0x100004fb0:            e6 03 a8 c7  ld        [%sp + 0x8c7], %l3
    0x100004fb4:            92 10 20 00  clr       %o1
    0x100004fb8:            40 04 2f ca  call      +0x10bf28     <0x100110ee0>
    0x100004fbc:            90 07 a7 97  add       %fp, 0x797, %o0
    0x100004fc0:            d4 5f a7 97  ldx       [%fp + 0x797], %o2
    0x100004fc4:            d2 5f a7 9f  ldx       [%fp + 0x79f], %o1
    0x100004fc8:            e6 03 a8 c7  ld        [%sp + 0x8c7], %l3
    0x100004fcc:            ab 2a b0 05  sllx      %o2, 0x5, %l5
    0x100004fd0:            8a 22 80 15  sub       %o2, %l5, %g5
    0x100004fd4:            a9 29 70 09  sllx      %g5, 0x9, %l4
    0x100004fd8:            98 25 00 0a  sub       %l4, %o2, %o4
    0x100004fdc:            91 2b 30 06  sllx      %o4, 0x6, %o0
    0x100004fe0:            96 22 00 0c  sub       %o0, %o4, %o3
    0x100004fe4:            ac 22 80 0b  sub       %o2, %o3, %l6
    0x100004fe8:            ba 02 40 16  add       %o1, %l6, %i5
    0x100004fec:            fa 77 a7 8f  stx       %i5, [%fp + 0x78f]
    0x100004ff0:            c8 03 a8 cb  ld        [%sp + 0x8cb], %g4
    0x100004ff4:            39 00 04 00  sethi     %hi(0x100000), %i4
    0x100004ff8:            a4 17 21 11  or        %i4, 0x111, %l2
    0x100004ffc:            86 21 00 13  sub       %g4, %l3, %g3
    0x100005000:            c6 23 a8 fb  st        %g3, [%sp + 0x8fb]
    0x100005004:            ab 28 e0 01  sll       %g3, 0x1, %l5
    0x100005008:            ea 23 a9 03  st        %l5, [%sp + 0x903]
    0x10000500c:            a9 2c b0 0c  sllx      %l2, 0xc, %l4
    0x100005010:            de 05 24 ec  ld        [%l4 + 0x4ec], %o7
    0x100005014:            e8 73 a9 07  stx       %l4, [%sp + 0x907]
    0x100005018:            85 3d 60 1f  sra       %l5, 0x1f, %g2
    0x10000501c:            81 80 a0 00  wr        %g2, 0x0, %y
    0x100005020:            ae fd 40 0f  sdivcc    %l5, %o7, %l7
    0x100005024:            c4 23 a8 ff  st        %g2, [%sp + 0x8ff]
    0x100005028:            2e 48 00 02  bvs,a,pt  %icc, +0x8    <0x100005030>
    0x10000502c:            2f 20 00 00  sethi     %hi(0x80000000), %l7
    0x100005030:            a2 4d c0 0f  mulx      %l7, %o7, %l1
    0x100005034:            80 a4 40 15  cmp       %l1, %l5
    0x100005038:            ee 27 a6 fb  st        %l7, [%fp + 0x6fb]
    0x10000503c:            02 40 00 04  be,pn     %icc, +0x10   <0x10000504c>
    0x100005040:            84 10 00 03  mov       %g3, %g2
    0x100005044:            a6 05 e0 01  add       %l7, 0x1, %l3
    0x100005048:            e6 27 a6 fb  st        %l3, [%fp + 0x6fb]
    0x10000504c:            e2 07 a6 fb  ld        [%fp + 0x6fb], %l1
    0x100005050:            87 38 e0 1f  sra       %g3, 0x1f, %g3
    0x100005054:            81 80 e0 00  wr        %g3, 0x0, %y
    0x100005058:            a0 f8 80 11  sdivcc    %g2, %l1, %l0
    0x10000505c:            c6 23 a9 1b  st        %g3, [%sp + 0x91b]
    0x100005060:            1e 40 00 03  bvc,pn    %icc, +0xc    <0x10000506c>
    0x100005064:            25 00 04 00  sethi     %hi(0x100000), %l2
    0x100005068:            21 20 00 00  sethi     %hi(0x80000000), %l0
    0x10000506c:            fa 03 a8 bf  ld        [%sp + 0x8bf], %i5
    0x100005070:            96 14 a1 11  or        %l2, 0x111, %o3
    0x100005074:            b1 2a f0 0c  sllx      %o3, 0xc, %i0
    0x100005078:            c8 06 24 78  ld        [%i0 + 0x478], %g4
    0x10000507c:            f0 73 a9 0f  stx       %i0, [%sp + 0x90f]
    0x100005080:            af 3f 60 1f  sra       %i5, 0x1f, %l7
    0x100005084:            81 85 e0 00  wr        %l7, 0x0, %y
    0x100005088:            ac ff 40 04  sdivcc    %i5, %g4, %l6
    0x10000508c:            ee 23 a9 1f  st        %l7, [%sp + 0x91f]
    0x100005090:            1e 40 00 03  bvc,pn    %icc, +0xc    <0x10000509c>
    0x100005094:            9b 3c 60 00  sra       %l1, 0x0, %o5
    0x100005098:            2d 20 00 00  sethi     %hi(0x80000000), %l6
    0x10000509c:            94 20 00 0d  neg       %o5, %o2
    0x1000050a0:            ea 03 a8 db  ld        [%sp + 0x8db], %l5
    0x1000050a4:            99 32 b0 3f  srlx      %o2, 0x3f, %o4
    0x1000050a8:            d6 03 a8 c3  ld        [%sp + 0x8c3], %o3
    0x1000050ac:            9e 05 60 01  add       %l5, 0x1, %o7
    0x1000050b0:            9b 3b e0 00  sra       %o7, 0x0, %o5
    0x1000050b4:            de 23 a8 f3  st        %o7, [%sp + 0x8f3]
    0x1000050b8:            9f 39 20 00  sra       %g4, 0x0, %o7
    0x1000050bc:            aa 23 40 0f  sub       %o5, %o7, %l5
    0x1000050c0:            ec 23 a9 47  st        %l6, [%sp + 0x947]
    0x1000050c4:            93 35 70 3f  srlx      %l5, 0x3f, %o1
    0x1000050c8:            da 73 a9 27  stx       %o5, [%sp + 0x927]
    0x1000050cc:            94 07 40 0b  add       %i5, %o3, %o2
    0x1000050d0:            d8 23 a9 53  st        %o4, [%sp + 0x953]
    0x1000050d4:            80 8b 00 09  btst      %o1, %o4
    0x1000050d8:            d4 23 a8 df  st        %o2, [%sp + 0x8df]
    0x1000050dc:            02 40 00 9f  be,pn     %icc, +0x27c  <0x100005358>
    0x1000050e0:            a2 04 7f ff  add       %l1, -0x1, %l1
    0x1000050e4:            de 03 a8 df  ld        [%sp + 0x8df], %o7
    0x1000050e8:            d4 03 a9 47  ld        [%sp + 0x947], %o2
    0x1000050ec:            d8 03 a8 f3  ld        [%sp + 0x8f3], %o4
    0x1000050f0:            d8 23 a9 b3  st        %o4, [%sp + 0x9b3]
    0x1000050f4:            ac 01 3f ff  add       %g4, -0x1, %l6
    0x1000050f8:            ec 23 a9 af  st        %l6, [%sp + 0x9af]
    0x1000050fc:            ab 3a a0 00  sra       %o2, 0x0, %l5
    0x100005100:            a8 4b 40 15  mulx      %o5, %l5, %l4
    0x100005104:            da 03 a8 c7  ld        [%sp + 0x8c7], %o5
    0x100005108:            89 3b e0 00  sra       %o7, 0x0, %g4
    0x10000510c:            ba 49 00 15  mulx      %g4, %l5, %i5
    0x100005110:            ab 2f 60 01  sll       %i5, 0x1, %l5
    0x100005114:            96 4b 00 15  mulx      %o4, %l5, %o3
    0x100005118:            ea 23 a9 ab  st        %l5, [%sp + 0x9ab]
    0x10000511c:            a7 2b e0 01  sll       %o7, 0x1, %l3
    0x100005120:            b8 4b 40 13  mulx      %o5, %l3, %i4
    0x100005124:            a5 2b 60 01  sll       %o5, 0x1, %l2
    0x100005128:            92 02 c0 12  add       %o3, %l2, %o1
    0x10000512c:            d2 27 a6 d3  st        %o1, [%fp + 0x6d3]
    0x100005130:            af 2d 20 01  sll       %l4, 0x1, %l7
    0x100005134:            a8 4c 00 13  mulx      %l0, %l3, %l4
    0x100005138:            b1 32 60 00  srl       %o1, 0x0, %i0
    0x10000513c:            90 05 c0 1c  add       %l7, %i4, %o0
    0x100005140:            93 2a a0 01  sll       %o2, 0x1, %o1
    0x100005144:            d0 27 a6 d7  st        %o0, [%fp + 0x6d7]
    0x100005148:            aa 04 3f ff  add       %l0, -0x1, %l5
    0x10000514c:            d2 23 a9 a7  st        %o1, [%sp + 0x9a7]
    0x100005150:            a5 2c 20 01  sll       %l0, 0x1, %l2
    0x100005154:            f0 23 a9 c3  st        %i0, [%sp + 0x9c3]
    0x100005158:            c0 23 a9 c7  clr       [%sp + 0x9c7]
    0x10000515c:            fa 07 a6 d7  ld        [%fp + 0x6d7], %i5
    0x100005160:            fa 23 a9 b7  st        %i5, [%sp + 0x9b7]
    0x100005164:            94 10 20 00  clr       %o2
    0x100005168:            d0 03 a9 b7  ld        [%sp + 0x9b7], %o0
    0x10000516c:            d2 03 a9 c3  ld        [%sp + 0x9c3], %o1
    0x100005170:            80 a4 20 00  cmp       %l0, 0x0
    0x100005174:            04 40 00 58  ble,pn    %icc, +0x160  <0x1000052d4>
    0x100005178:            84 10 20 00  clr       %g2
    0x10000517c:            98 10 00 08  mov       %o0, %o4
    0x100005180:            96 10 00 09  mov       %o1, %o3
    0x100005184:            88 10 20 00  clr       %g4
    0x100005188:            80 a4 20 05  cmp       %l0, 0x5
    0x10000518c:            86 10 00 0b  mov       %o3, %g3
    0x100005190:            9e 10 00 0c  mov       %o4, %o7
    0x100005194:            06 40 00 3a  bl,pn     %icc, +0xe8   <0x10000527c>
    0x100005198:            01 00 00 00  nop
    0x10000519c:            af 3c e0 00  sra       %l3, 0x0, %l7
    0x1000051a0:            af 2d f0 03  sllx      %l7, 0x3, %l7
    0x1000051a4:            ac 4d e0 05  mulx      %l7, 0x5, %l6
    0x1000051a8:            8b 3a e0 00  sra       %o3, 0x0, %g5
    0x1000051ac:            bb 29 70 03  sllx      %g5, 0x3, %i5
    0x1000051b0:            b0 10 00 16  mov       %l6, %i0
    0x1000051b4:            b8 05 a0 08  add       %l6, 0x8, %i4
    0x1000051b8:            9a 06 c0 1d  add       %i3, %i5, %o5
    0x1000051bc:            ad 3b 20 00  sra       %o4, 0x0, %l6
    0x1000051c0:            8a 03 60 10  add       %o5, 0x10, %g5
    0x1000051c4:            88 10 20 01  mov       0x1, %g4
    0x1000051c8:            d1 1f 40 1b  ldd       [%i5 + %i3], %d8
    0x1000051cc:            bb 2d b0 03  sllx      %l6, 0x3, %i5
    0x1000051d0:            d1 3e 80 1d  std       %d8, [%i2 + %i5]
    0x1000051d4:            9a 06 80 1d  add       %i2, %i5, %o5
    0x1000051d8:            9e 03 00 13  add       %o4, %l3, %o7
    0x1000051dc:            fb 19 7f f8  ldd       [%g5 - 0x8], %d60
    0x1000051e0:            ba 03 40 17  add       %o5, %l7, %i5
    0x1000051e4:            fb 3b 60 08  std       %d60, [%o5 + 0x8]
    0x1000051e8:            ac 04 3f fc  add       %l0, -0x4, %l6
    0x1000051ec:            ed 6f 40 18  prefetch  [%i5 + %i0], #n_writes_strong
    0x1000051f0:            c1 69 60 58  prefetch  [%g5 + 0x58], #n_reads
    0x1000051f4:            88 01 20 04  add       %g4, 0x4, %g4
    0x1000051f8:            eb 19 60 00  ldd       [%g5], %d52
    0x1000051fc:            8a 01 60 40  add       %g5, 0x40, %g5
    0x100005200:            80 a1 00 16  cmp       %g4, %l6
    0x100005204:            86 00 e0 08  add       %g3, 0x8, %g3
    0x100005208:            eb 3f 60 00  std       %d52, [%i5]
    0x10000520c:            dd 19 7f c8  ldd       [%g5 - 0x38], %d14
    0x100005210:            9e 03 c0 13  add       %o7, %l3, %o7
    0x100005214:            dd 3f 60 08  std       %d14, [%i5 + 0x8]
    0x100005218:            ba 07 40 17  add       %i5, %l7, %i5
    0x10000521c:            cd 19 7f d0  ldd       [%g5 - 0x30], %d6
    0x100005220:            cd 3f 60 00  std       %d6, [%i5]
    0x100005224:            d9 19 7f d8  ldd       [%g5 - 0x28], %d12
    0x100005228:            9a 03 c0 13  add       %o7, %l3, %o5
    0x10000522c:            d9 3f 60 08  std       %d12, [%i5 + 0x8]
    0x100005230:            ba 07 40 17  add       %i5, %l7, %i5
    0x100005234:            ed 6f 40 1c  prefetch  [%i5 + %i4], #n_writes_strong
    0x100005238:            f1 19 7f e0  ldd       [%g5 - 0x20], %d24
    0x10000523c:            f1 3f 60 00  std       %d24, [%i5]
    0x100005240:            f3 19 7f e8  ldd       [%g5 - 0x18], %d56
    0x100005244:            9e 03 40 13  add       %o5, %l3, %o7
    0x100005248:            f3 3f 60 08  std       %d56, [%i5 + 0x8]
    0x10000524c:            9a 07 40 17  add       %i5, %l7, %o5
    0x100005250:            ff 19 7f f0  ldd       [%g5 - 0x10], %d62
    0x100005254:            ff 3d c0 1d  std       %d62, [%l7 + %i5]
    0x100005258:            f7 19 7f f8  ldd       [%g5 - 0x8], %d58
    0x10000525c:            9e 03 c0 13  add       %o7, %l3, %o7
    0x100005260:            f7 3b 60 08  std       %d58, [%o5 + 0x8]
    0x100005264:            04 4f ff e2  ble,pt    %icc, -0x78   <0x1000051ec>
    0x100005268:            ba 03 40 17  add       %o5, %l7, %i5
    0x10000526c:            80 a1 00 15  cmp       %g4, %l5
    0x100005270:            86 00 e0 02  add       %g3, 0x2, %g3
    0x100005274:            14 40 00 12  bg,pn     %icc, +0x48   <0x1000052bc>
    0x100005278:            01 00 00 00  nop
    0x10000527c:            88 01 20 01  add       %g4, 0x1, %g4
    0x100005280:            b9 38 e0 00  sra       %g3, 0x0, %i4
    0x100005284:            ad 2f 30 03  sllx      %i4, 0x3, %l6
    0x100005288:            b1 3b e0 00  sra       %o7, 0x0, %i0
    0x10000528c:            bb 2e 30 03  sllx      %i0, 0x3, %i5
    0x100005290:            8a 05 80 1b  add       %l6, %i3, %g5
    0x100005294:            ed 1e c0 16  ldd       [%i3 + %l6], %d22
    0x100005298:            ae 07 40 1a  add       %i5, %i2, %l7
    0x10000529c:            ed 3e 80 1d  std       %d22, [%i2 + %i5]
    0x1000052a0:            80 a1 00 15  cmp       %g4, %l5
    0x1000052a4:            f3 19 60 08  ldd       [%g5 + 0x8], %d56
    0x1000052a8:            86 00 e0 02  add       %g3, 0x2, %g3
    0x1000052ac:            9e 03 c0 13  add       %o7, %l3, %o7
    0x1000052b0:            f3 3d e0 08  std       %d56, [%l7 + 0x8]
    0x1000052b4:            04 4f ff f3  ble,pt    %icc, -0x34   <0x100005280>
    0x1000052b8:            88 01 20 01  add       %g4, 0x1, %g4
    0x1000052bc:            84 00 a0 01  add       %g2, 0x1, %g2
    0x1000052c0:            80 a0 80 15  cmp       %g2, %l5
    0x1000052c4:            96 02 c0 13  add       %o3, %l3, %o3
    0x1000052c8:            98 03 20 02  add       %o4, 0x2, %o4
    0x1000052cc:            04 4f ff af  ble,pt    %icc, -0x144  <0x100005188>
    0x1000052d0:            88 10 20 00  clr       %g4
    0x1000052d4:            94 02 a0 01  add       %o2, 0x1, %o2
    0x1000052d8:            80 a2 80 11  cmp       %o2, %l1
    0x1000052dc:            90 02 00 14  add       %o0, %l4, %o0
    0x1000052e0:            92 02 40 12  add       %o1, %l2, %o1
    0x1000052e4:            04 4f ff a4  ble,pt    %icc, -0x170  <0x100005174>
    0x1000052e8:            80 a4 20 00  cmp       %l0, 0x0
    0x1000052ec:            c6 03 a9 c3  ld        [%sp + 0x9c3], %g3
    0x1000052f0:            c8 03 a9 b7  ld        [%sp + 0x9b7], %g4
    0x1000052f4:            f8 03 a9 c7  ld        [%sp + 0x9c7], %i4
    0x1000052f8:            84 00 c0 14  add       %g3, %l4, %g2
    0x1000052fc:            86 01 00 12  add       %g4, %l2, %g3
    0x100005300:            c6 23 a9 b7  st        %g3, [%sp + 0x9b7]
    0x100005304:            90 07 20 01  add       %i4, 0x1, %o0
    0x100005308:            c4 23 a9 c3  st        %g2, [%sp + 0x9c3]
    0x10000530c:            80 a2 00 11  cmp       %o0, %l1
    0x100005310:            d0 23 a9 c7  st        %o0, [%sp + 0x9c7]
    0x100005314:            04 4f ff 95  ble,pt    %icc, -0x1ac  <0x100005168>
    0x100005318:            94 10 20 00  clr       %o2
    0x10000531c:            d0 07 a6 d3  ld        [%fp + 0x6d3], %o0
    0x100005320:            c8 03 a9 ab  ld        [%sp + 0x9ab], %g4
    0x100005324:            c6 07 a6 d7  ld        [%fp + 0x6d7], %g3
    0x100005328:            d2 03 a9 b3  ld        [%sp + 0x9b3], %o1
    0x10000532c:            f0 03 a9 af  ld        [%sp + 0x9af], %i0
    0x100005330:            84 02 00 04  add       %o0, %g4, %g2
    0x100005334:            c4 27 a6 d3  st        %g2, [%fp + 0x6d3]
    0x100005338:            c4 03 a9 a7  ld        [%sp + 0x9a7], %g2
    0x10000533c:            ba 02 60 01  add       %o1, 0x1, %i5
    0x100005340:            fa 23 a9 b3  st        %i5, [%sp + 0x9b3]
    0x100005344:            9a 00 c0 02  add       %g3, %g2, %o5
    0x100005348:            da 27 a6 d7  st        %o5, [%fp + 0x6d7]
    0x10000534c:            80 a7 40 18  cmp       %i5, %i0
    0x100005350:            24 4f ff 81  ble,a,pt  %icc, -0x1fc  <0x100005154>
    0x100005354:            f0 07 a6 d3  ld        [%fp + 0x6d3], %i0
    0x100005358:            ca 03 a8 db  ld        [%sp + 0x8db], %g5
    0x10000535c:            e8 03 a9 53  ld        [%sp + 0x953], %l4
    0x100005360:            91 39 60 00  sra       %g5, 0x0, %o0
    0x100005364:            a6 20 00 08  neg       %o0, %l3
    0x100005368:            d0 73 a8 e7  stx       %o0, [%sp + 0x8e7]
    0x10000536c:            a5 34 f0 3f  srlx      %l3, 0x3f, %l2
    0x100005370:            e4 23 a9 17  st        %l2, [%sp + 0x917]
    0x100005374:            80 8d 00 12  btst      %l2, %l4
    0x100005378:            88 01 7f ff  add       %g5, -0x1, %g4
    0x10000537c:            02 40 00 97  be,pn     %icc, +0x25c  <0x1000055d8>
    0x100005380:            c8 23 a8 ef  st        %g4, [%sp + 0x8ef]
    0x100005384:            c8 03 a8 df  ld        [%sp + 0x8df], %g4
    0x100005388:            fa 03 a9 47  ld        [%sp + 0x947], %i5
    0x10000538c:            c0 23 a9 a3  clr       [%sp + 0x9a3]
    0x100005390:            c4 03 a8 c7  ld        [%sp + 0x8c7], %g2
    0x100005394:            a5 29 20 01  sll       %g4, 0x1, %l2
    0x100005398:            9f 3f 60 00  sra       %i5, 0x0, %o7
    0x10000539c:            a6 48 80 12  mulx      %g2, %l2, %l3
    0x1000053a0:            e6 27 a6 cf  st        %l3, [%fp + 0x6cf]
    0x1000053a4:            a6 4c 00 12  mulx      %l0, %l2, %l3
    0x1000053a8:            b1 39 20 00  sra       %g4, 0x0, %i0
    0x1000053ac:            86 4e 00 0f  mulx      %i0, %o7, %g3
    0x1000053b0:            9b 28 a0 01  sll       %g2, 0x1, %o5
    0x1000053b4:            87 28 e0 01  sll       %g3, 0x1, %g3
    0x1000053b8:            af 2f 60 01  sll       %i5, 0x1, %l7
    0x1000053bc:            da 27 a6 cb  st        %o5, [%fp + 0x6cb]
    0x1000053c0:            95 33 60 00  srl       %o5, 0x0, %o2
    0x1000053c4:            c6 23 a9 9b  st        %g3, [%sp + 0x99b]
    0x1000053c8:            a8 04 3f ff  add       %l0, -0x1, %l4
    0x1000053cc:            ee 23 a9 9f  st        %l7, [%sp + 0x99f]
    0x1000053d0:            ab 2c 20 01  sll       %l0, 0x1, %l5
    0x1000053d4:            d4 23 a9 df  st        %o2, [%sp + 0x9df]
    0x1000053d8:            c0 23 a9 eb  clr       [%sp + 0x9eb]
    0x1000053dc:            ca 07 a6 cf  ld        [%fp + 0x6cf], %g5
    0x1000053e0:            ca 23 a9 e7  st        %g5, [%sp + 0x9e7]
    0x1000053e4:            94 10 20 00  clr       %o2
    0x1000053e8:            d2 03 a9 df  ld        [%sp + 0x9df], %o1
    0x1000053ec:            d0 03 a9 e7  ld        [%sp + 0x9e7], %o0
    0x1000053f0:            80 a4 20 00  cmp       %l0, 0x0
    0x1000053f4:            04 40 00 58  ble,pn    %icc, +0x160  <0x100005554>
    0x1000053f8:            9a 10 20 00  clr       %o5
    0x1000053fc:            98 10 00 08  mov       %o0, %o4
    0x100005400:            96 10 00 09  mov       %o1, %o3
    0x100005404:            88 10 20 00  clr       %g4
    0x100005408:            80 a4 20 05  cmp       %l0, 0x5
    0x10000540c:            86 10 00 0b  mov       %o3, %g3
    0x100005410:            9e 10 00 0c  mov       %o4, %o7
    0x100005414:            06 40 00 3a  bl,pn     %icc, +0xe8   <0x1000054fc>
    0x100005418:            01 00 00 00  nop
    0x10000541c:            bb 3c a0 00  sra       %l2, 0x0, %i5
    0x100005420:            ad 2f 70 03  sllx      %i5, 0x3, %l6
    0x100005424:            b0 4d a0 05  mulx      %l6, 0x5, %i0
    0x100005428:            af 3a e0 00  sra       %o3, 0x0, %l7
    0x10000542c:            b8 10 00 18  mov       %i0, %i4
    0x100005430:            ba 06 20 08  add       %i0, 0x8, %i5
    0x100005434:            85 2d f0 03  sllx      %l7, 0x3, %g2
    0x100005438:            b1 3b 20 00  sra       %o4, 0x0, %i0
    0x10000543c:            af 2e 30 03  sllx      %i0, 0x3, %l7
    0x100005440:            8a 06 c0 02  add       %i3, %g2, %g5
    0x100005444:            8a 01 60 10  add       %g5, 0x10, %g5
    0x100005448:            d5 18 80 1b  ldd       [%g2 + %i3], %d10
    0x10000544c:            84 06 80 17  add       %i2, %l7, %g2
    0x100005450:            d5 3e 80 17  std       %d10, [%i2 + %l7]
    0x100005454:            88 10 20 01  mov       0x1, %g4
    0x100005458:            9e 03 00 12  add       %o4, %l2, %o7
    0x10000545c:            d9 19 7f f8  ldd       [%g5 - 0x8], %d12
    0x100005460:            ae 00 80 16  add       %g2, %l6, %l7
    0x100005464:            d9 38 a0 08  std       %d12, [%g2 + 0x8]
    0x100005468:            b0 04 3f fc  add       %l0, -0x4, %i0
    0x10000546c:            ed 6d c0 1c  prefetch  [%l7 + %i4], #n_writes_strong
    0x100005470:            c1 69 60 58  prefetch  [%g5 + 0x58], #n_reads
    0x100005474:            88 01 20 04  add       %g4, 0x4, %g4
    0x100005478:            dd 19 60 00  ldd       [%g5], %d14
    0x10000547c:            8a 01 60 40  add       %g5, 0x40, %g5
    0x100005480:            80 a1 00 18  cmp       %g4, %i0
    0x100005484:            86 00 e0 08  add       %g3, 0x8, %g3
    0x100005488:            dd 3d e0 00  std       %d14, [%l7]
    0x10000548c:            e1 19 7f c8  ldd       [%g5 - 0x38], %d16
    0x100005490:            9e 03 c0 12  add       %o7, %l2, %o7
    0x100005494:            e1 3d e0 08  std       %d16, [%l7 + 0x8]
    0x100005498:            ae 05 c0 16  add       %l7, %l6, %l7
    0x10000549c:            e5 19 7f d0  ldd       [%g5 - 0x30], %d18
    0x1000054a0:            e5 3d e0 00  std       %d18, [%l7]
    0x1000054a4:            d1 19 7f d8  ldd       [%g5 - 0x28], %d8
    0x1000054a8:            84 03 c0 12  add       %o7, %l2, %g2
    0x1000054ac:            d1 3d e0 08  std       %d8, [%l7 + 0x8]
    0x1000054b0:            ae 05 c0 16  add       %l7, %l6, %l7
    0x1000054b4:            ed 6d c0 1d  prefetch  [%l7 + %i5], #n_writes_strong
    0x1000054b8:            cd 19 7f e0  ldd       [%g5 - 0x20], %d6
    0x1000054bc:            cd 3d e0 00  std       %d6, [%l7]
    0x1000054c0:            ff 19 7f e8  ldd       [%g5 - 0x18], %d62
    0x1000054c4:            9e 00 80 12  add       %g2, %l2, %o7
    0x1000054c8:            ff 3d e0 08  std       %d62, [%l7 + 0x8]
    0x1000054cc:            84 05 c0 16  add       %l7, %l6, %g2
    0x1000054d0:            fb 19 7f f0  ldd       [%g5 - 0x10], %d60
    0x1000054d4:            fb 3d 80 17  std       %d60, [%l6 + %l7]
    0x1000054d8:            f7 19 7f f8  ldd       [%g5 - 0x8], %d58
    0x1000054dc:            9e 03 c0 12  add       %o7, %l2, %o7
    0x1000054e0:            f7 38 a0 08  std       %d58, [%g2 + 0x8]
    0x1000054e4:            04 4f ff e2  ble,pt    %icc, -0x78   <0x10000546c>
    0x1000054e8:            ae 00 80 16  add       %g2, %l6, %l7
    0x1000054ec:            80 a1 00 14  cmp       %g4, %l4
    0x1000054f0:            86 00 e0 02  add       %g3, 0x2, %g3
    0x1000054f4:            14 40 00 12  bg,pn     %icc, +0x48   <0x10000553c>
    0x1000054f8:            01 00 00 00  nop
    0x1000054fc:            88 01 20 01  add       %g4, 0x1, %g4
    0x100005500:            b9 38 e0 00  sra       %g3, 0x0, %i4
    0x100005504:            ad 2f 30 03  sllx      %i4, 0x3, %l6
    0x100005508:            b1 3b e0 00  sra       %o7, 0x0, %i0
    0x10000550c:            bb 2e 30 03  sllx      %i0, 0x3, %i5
    0x100005510:            8a 05 80 1b  add       %l6, %i3, %g5
    0x100005514:            cd 1e c0 16  ldd       [%i3 + %l6], %d6
    0x100005518:            ae 07 40 1a  add       %i5, %i2, %l7
    0x10000551c:            cd 3e 80 1d  std       %d6, [%i2 + %i5]
    0x100005520:            80 a1 00 14  cmp       %g4, %l4
    0x100005524:            ff 19 60 08  ldd       [%g5 + 0x8], %d62
    0x100005528:            86 00 e0 02  add       %g3, 0x2, %g3
    0x10000552c:            9e 03 c0 12  add       %o7, %l2, %o7
    0x100005530:            ff 3d e0 08  std       %d62, [%l7 + 0x8]
    0x100005534:            04 4f ff f3  ble,pt    %icc, -0x34   <0x100005500>
    0x100005538:            88 01 20 01  add       %g4, 0x1, %g4
    0x10000553c:            9a 03 60 01  add       %o5, 0x1, %o5
    0x100005540:            80 a3 40 14  cmp       %o5, %l4
    0x100005544:            96 02 c0 12  add       %o3, %l2, %o3
    0x100005548:            98 03 20 02  add       %o4, 0x2, %o4
    0x10000554c:            04 4f ff af  ble,pt    %icc, -0x144  <0x100005408>
    0x100005550:            88 10 20 00  clr       %g4
    0x100005554:            94 02 a0 01  add       %o2, 0x1, %o2
    0x100005558:            80 a2 80 11  cmp       %o2, %l1
    0x10000555c:            90 02 00 13  add       %o0, %l3, %o0
    0x100005560:            92 02 40 15  add       %o1, %l5, %o1
    0x100005564:            04 4f ff a4  ble,pt    %icc, -0x170  <0x1000053f4>
    0x100005568:            80 a4 20 00  cmp       %l0, 0x0
    0x10000556c:            ca 03 a9 df  ld        [%sp + 0x9df], %g5
    0x100005570:            da 03 a9 e7  ld        [%sp + 0x9e7], %o5
    0x100005574:            ee 03 a9 eb  ld        [%sp + 0x9eb], %l7
    0x100005578:            88 01 40 13  add       %g5, %l3, %g4
    0x10000557c:            98 03 40 15  add       %o5, %l5, %o4
    0x100005580:            c8 23 a9 df  st        %g4, [%sp + 0x9df]
    0x100005584:            9e 05 e0 01  add       %l7, 0x1, %o7
    0x100005588:            d8 23 a9 e7  st        %o4, [%sp + 0x9e7]
    0x10000558c:            80 a3 c0 11  cmp       %o7, %l1
    0x100005590:            de 23 a9 eb  st        %o7, [%sp + 0x9eb]
    0x100005594:            04 4f ff 95  ble,pt    %icc, -0x1ac  <0x1000053e8>
    0x100005598:            94 10 20 00  clr       %o2
    0x10000559c:            de 07 a6 cb  ld        [%fp + 0x6cb], %o7
    0x1000055a0:            da 03 a9 9b  ld        [%sp + 0x99b], %o5
    0x1000055a4:            d8 07 a6 cf  ld        [%fp + 0x6cf], %o4
    0x1000055a8:            ee 03 a9 a3  ld        [%sp + 0x9a3], %l7
    0x1000055ac:            d6 03 a9 9f  ld        [%sp + 0x99f], %o3
    0x1000055b0:            d4 03 a8 ef  ld        [%sp + 0x8ef], %o2
    0x1000055b4:            88 03 c0 0d  add       %o7, %o5, %g4
    0x1000055b8:            c8 27 a6 cb  st        %g4, [%fp + 0x6cb]
    0x1000055bc:            8a 05 e0 01  add       %l7, 0x1, %g5
    0x1000055c0:            ca 23 a9 a3  st        %g5, [%sp + 0x9a3]
    0x1000055c4:            b8 03 00 0b  add       %o4, %o3, %i4
    0x1000055c8:            f8 27 a6 cf  st        %i4, [%fp + 0x6cf]
    0x1000055cc:            80 a1 40 0a  cmp       %g5, %o2
    0x1000055d0:            24 4f ff 81  ble,a,pt  %icc, -0x1fc  <0x1000053d4>
    0x1000055d4:            d4 07 a6 cb  ld        [%fp + 0x6cb], %o2
    0x1000055d8:            f8 07 a6 fb  ld        [%fp + 0x6fb], %i4
    0x1000055dc:            80 90 00 1c  tst       %i4
    0x1000055e0:            04 40 00 85  ble,pn    %icc, +0x214  <0x1000057f4>
    0x1000055e4:            d4 03 a9 47  ld        [%sp + 0x947], %o2
    0x1000055e8:            f8 03 a8 df  ld        [%sp + 0x8df], %i4
    0x1000055ec:            d2 5b a8 e7  ldx       [%sp + 0x8e7], %o1
    0x1000055f0:            c0 23 aa 1b  clr       [%sp + 0xa1b]
    0x1000055f4:            a5 3a a0 00  sra       %o2, 0x0, %l2
    0x1000055f8:            90 4a 40 12  mulx      %o1, %l2, %o0
    0x1000055fc:            95 3f 20 00  sra       %i4, 0x0, %o2
    0x100005600:            98 4a 80 12  mulx      %o2, %l2, %o4
    0x100005604:            97 3b 20 00  sra       %o4, 0x0, %o3
    0x100005608:            92 4a c0 09  mulx      %o3, %o1, %o1
    0x10000560c:            8b 2a 20 01  sll       %o0, 0x1, %g5
    0x100005610:            d0 03 a8 c7  ld        [%sp + 0x8c7], %o0
    0x100005614:            86 04 3f ff  add       %l0, -0x1, %g3
    0x100005618:            96 10 20 00  clr       %o3
    0x10000561c:            84 02 40 08  add       %o1, %o0, %g2
    0x100005620:            af 28 a0 01  sll       %g2, 0x1, %l7
    0x100005624:            ee 23 aa 0b  st        %l7, [%sp + 0xa0b]
    0x100005628:            af 2f 20 01  sll       %i4, 0x1, %l7
    0x10000562c:            ac 4a 00 17  mulx      %o0, %l7, %l6
    0x100005630:            a8 4c 00 17  mulx      %l0, %l7, %l4
    0x100005634:            a4 05 80 05  add       %l6, %g5, %l2
    0x100005638:            e4 23 aa 03  st        %l2, [%sp + 0xa03]
    0x10000563c:            8b 2c 20 01  sll       %l0, 0x1, %g5
    0x100005640:            d0 03 aa 03  ld        [%sp + 0xa03], %o0
    0x100005644:            d8 03 aa 0b  ld        [%sp + 0xa0b], %o4
    0x100005648:            80 a4 20 00  cmp       %l0, 0x0
    0x10000564c:            04 40 00 58  ble,pn    %icc, +0x160  <0x1000057ac>
    0x100005650:            94 10 20 00  clr       %o2
    0x100005654:            92 10 00 08  mov       %o0, %o1
    0x100005658:            88 10 00 0c  mov       %o4, %g4
    0x10000565c:            ac 10 20 00  clr       %l6
    0x100005660:            80 a4 20 05  cmp       %l0, 0x5
    0x100005664:            aa 10 00 04  mov       %g4, %l5
    0x100005668:            9e 10 00 09  mov       %o1, %o7
    0x10000566c:            06 40 00 3a  bl,pn     %icc, +0xe8   <0x100005754>
    0x100005670:            01 00 00 00  nop
    0x100005674:            a7 3d e0 00  sra       %l7, 0x0, %l3
    0x100005678:            a5 2c f0 03  sllx      %l3, 0x3, %l2
    0x10000567c:            ba 4c a0 05  mulx      %l2, 0x5, %i5
    0x100005680:            85 39 20 00  sra       %g4, 0x0, %g2
    0x100005684:            9b 28 b0 03  sllx      %g2, 0x3, %o5
    0x100005688:            b0 10 00 1d  mov       %i5, %i0
    0x10000568c:            b8 07 60 08  add       %i5, 0x8, %i4
    0x100005690:            a6 06 c0 0d  add       %i3, %o5, %l3
    0x100005694:            bb 3a 60 00  sra       %o1, 0x0, %i5
    0x100005698:            84 04 e0 10  add       %l3, 0x10, %g2
    0x10000569c:            ac 10 20 01  mov       0x1, %l6
    0x1000056a0:            f1 1b 40 1b  ldd       [%o5 + %i3], %d24
    0x1000056a4:            9b 2f 70 03  sllx      %i5, 0x3, %o5
    0x1000056a8:            f1 3e 80 0d  std       %d24, [%i2 + %o5]
    0x1000056ac:            a6 06 80 0d  add       %i2, %o5, %l3
    0x1000056b0:            ba 04 c0 12  add       %l3, %l2, %i5
    0x1000056b4:            f3 18 bf f8  ldd       [%g2 - 0x8], %d56
    0x1000056b8:            9e 02 40 17  add       %o1, %l7, %o7
    0x1000056bc:            f3 3c e0 08  std       %d56, [%l3 + 0x8]
    0x1000056c0:            a6 04 3f fc  add       %l0, -0x4, %l3
    0x1000056c4:            ed 6f 40 18  prefetch  [%i5 + %i0], #n_writes_strong
    0x1000056c8:            c1 68 a0 58  prefetch  [%g2 + 0x58], #n_reads
    0x1000056cc:            ac 05 a0 04  add       %l6, 0x4, %l6
    0x1000056d0:            ff 18 a0 00  ldd       [%g2], %d62
    0x1000056d4:            84 00 a0 40  add       %g2, 0x40, %g2
    0x1000056d8:            80 a5 80 13  cmp       %l6, %l3
    0x1000056dc:            aa 05 60 08  add       %l5, 0x8, %l5
    0x1000056e0:            ff 3f 60 00  std       %d62, [%i5]
    0x1000056e4:            f7 18 bf c8  ldd       [%g2 - 0x38], %d58
    0x1000056e8:            9e 03 c0 17  add       %o7, %l7, %o7
    0x1000056ec:            f7 3f 60 08  std       %d58, [%i5 + 0x8]
    0x1000056f0:            ba 07 40 12  add       %i5, %l2, %i5
    0x1000056f4:            ef 18 bf d0  ldd       [%g2 - 0x30], %d54
    0x1000056f8:            ef 3f 60 00  std       %d54, [%i5]
    0x1000056fc:            ed 18 bf d8  ldd       [%g2 - 0x28], %d22
    0x100005700:            9a 03 c0 17  add       %o7, %l7, %o5
    0x100005704:            ed 3f 60 08  std       %d22, [%i5 + 0x8]
    0x100005708:            ba 07 40 12  add       %i5, %l2, %i5
    0x10000570c:            ed 6f 40 1c  prefetch  [%i5 + %i4], #n_writes_strong
    0x100005710:            e5 18 bf e0  ldd       [%g2 - 0x20], %d18
    0x100005714:            e5 3f 60 00  std       %d18, [%i5]
    0x100005718:            e1 18 bf e8  ldd       [%g2 - 0x18], %d16
    0x10000571c:            9e 03 40 17  add       %o5, %l7, %o7
    0x100005720:            e1 3f 60 08  std       %d16, [%i5 + 0x8]
    0x100005724:            9a 07 40 12  add       %i5, %l2, %o5
    0x100005728:            e9 18 bf f0  ldd       [%g2 - 0x10], %d20
    0x10000572c:            e9 3c 80 1d  std       %d20, [%l2 + %i5]
    0x100005730:            d5 18 bf f8  ldd       [%g2 - 0x8], %d10
    0x100005734:            9e 03 c0 17  add       %o7, %l7, %o7
    0x100005738:            d5 3b 60 08  std       %d10, [%o5 + 0x8]
    0x10000573c:            04 4f ff e2  ble,pt    %icc, -0x78   <0x1000056c4>
    0x100005740:            ba 03 40 12  add       %o5, %l2, %i5
    0x100005744:            80 a5 80 03  cmp       %l6, %g3
    0x100005748:            aa 05 60 02  add       %l5, 0x2, %l5
    0x10000574c:            14 40 00 12  bg,pn     %icc, +0x48   <0x100005794>
    0x100005750:            01 00 00 00  nop
    0x100005754:            ac 05 a0 01  add       %l6, 0x1, %l6
    0x100005758:            85 3d 60 00  sra       %l5, 0x0, %g2
    0x10000575c:            b1 28 b0 03  sllx      %g2, 0x3, %i0
    0x100005760:            a7 3b e0 00  sra       %o7, 0x0, %l3
    0x100005764:            bb 2c f0 03  sllx      %l3, 0x3, %i5
    0x100005768:            9a 06 00 1b  add       %i0, %i3, %o5
    0x10000576c:            ef 1e c0 18  ldd       [%i3 + %i0], %d54
    0x100005770:            b8 07 40 1a  add       %i5, %i2, %i4
    0x100005774:            ef 3e 80 1d  std       %d54, [%i2 + %i5]
    0x100005778:            80 a5 80 03  cmp       %l6, %g3
    0x10000577c:            ed 1b 60 08  ldd       [%o5 + 0x8], %d22
    0x100005780:            aa 05 60 02  add       %l5, 0x2, %l5
    0x100005784:            9e 03 c0 17  add       %o7, %l7, %o7
    0x100005788:            ed 3f 20 08  std       %d22, [%i4 + 0x8]
    0x10000578c:            04 4f ff f3  ble,pt    %icc, -0x34   <0x100005758>
    0x100005790:            ac 05 a0 01  add       %l6, 0x1, %l6
    0x100005794:            94 02 a0 01  add       %o2, 0x1, %o2
    0x100005798:            80 a2 80 03  cmp       %o2, %g3
    0x10000579c:            88 01 00 17  add       %g4, %l7, %g4
    0x1000057a0:            92 02 60 02  add       %o1, 0x2, %o1
    0x1000057a4:            04 4f ff af  ble,pt    %icc, -0x144  <0x100005660>
    0x1000057a8:            ac 10 20 00  clr       %l6
    0x1000057ac:            96 02 e0 01  add       %o3, 0x1, %o3
    0x1000057b0:            80 a2 c0 11  cmp       %o3, %l1
    0x1000057b4:            90 02 00 14  add       %o0, %l4, %o0
    0x1000057b8:            98 03 00 05  add       %o4, %g5, %o4
    0x1000057bc:            04 4f ff a4  ble,pt    %icc, -0x170  <0x10000564c>
    0x1000057c0:            80 a4 20 00  cmp       %l0, 0x0
    0x1000057c4:            e6 03 aa 1b  ld        [%sp + 0xa1b], %l3
    0x1000057c8:            ec 03 aa 03  ld        [%sp + 0xa03], %l6
    0x1000057cc:            fa 03 aa 0b  ld        [%sp + 0xa0b], %i5
    0x1000057d0:            b0 04 e0 01  add       %l3, 0x1, %i0
    0x1000057d4:            aa 05 80 05  add       %l6, %g5, %l5
    0x1000057d8:            ea 23 aa 03  st        %l5, [%sp + 0xa03]
    0x1000057dc:            a6 07 40 14  add       %i5, %l4, %l3
    0x1000057e0:            e6 23 aa 0b  st        %l3, [%sp + 0xa0b]
    0x1000057e4:            80 a6 00 11  cmp       %i0, %l1
    0x1000057e8:            f0 23 aa 1b  st        %i0, [%sp + 0xa1b]
    0x1000057ec:            04 4f ff 95  ble,pt    %icc, -0x1ac  <0x100005640>
    0x1000057f0:            96 10 20 00  clr       %o3
    0x1000057f4:            e6 03 a8 db  ld        [%sp + 0x8db], %l3
    0x1000057f8:            80 a4 e0 00  cmp       %l3, 0x0
    0x1000057fc:            02 40 00 05  be,pn     %icc, +0x14   <0x100005810>
    0x100005800:            d0 03 a8 d7  ld        [%sp + 0x8d7], %o0
    0x100005804:            80 a2 20 00  cmp       %o0, 0x0
    0x100005808:            22 48 00 16  be,a,pt   %icc, +0x58   <0x100005860>
    0x10000580c:            fa 03 a8 c7  ld        [%sp + 0x8c7], %i5
    0x100005810:            92 10 20 00  clr       %o1
    0x100005814:            40 04 2d b3  call      +0x10b6cc     <0x100110ee0>
    0x100005818:            90 07 a7 7f  add       %fp, 0x77f, %o0
    0x10000581c:            fa 5f a7 7f  ldx       [%fp + 0x77f], %i5
    0x100005820:            e0 5f a7 87  ldx       [%fp + 0x787], %l0
    0x100005824:            c6 5f a7 8f  ldx       [%fp + 0x78f], %g3
    0x100005828:            91 2f 70 05  sllx      %i5, 0x5, %o0
    0x10000582c:            98 27 40 08  sub       %i5, %o0, %o4
    0x100005830:            97 2b 30 09  sllx      %o4, 0x9, %o3
    0x100005834:            ac 22 c0 1d  sub       %o3, %i5, %l6
    0x100005838:            95 2d b0 06  sllx      %l6, 0x6, %o2
    0x10000583c:            92 22 80 16  sub       %o2, %l6, %o1
    0x100005840:            b0 27 40 09  sub       %i5, %o1, %i0
    0x100005844:            d2 5f a8 bf  ldx       [%fp + 0x8bf], %o1
    0x100005848:            88 04 00 18  add       %l0, %i0, %g4
    0x10000584c:            fa 03 a8 c7  ld        [%sp + 0x8c7], %i5
    0x100005850:            e6 5a 60 00  ldx       [%o1], %l3
    0x100005854:            84 21 00 03  sub       %g4, %g3, %g2
    0x100005858:            9a 04 c0 02  add       %l3, %g2, %o5
    0x10000585c:            da 72 60 00  stx       %o5, [%o1]
    0x100005860:            ea 03 a8 cb  ld        [%sp + 0x8cb], %l5
    0x100005864:            80 a7 40 15  cmp       %i5, %l5
    0x100005868:            9e 05 7f ff  add       %l5, -0x1, %o7
    0x10000586c:            16 40 03 10  bge,pn    %icc, +0xc40  <0x1000064ac>
    0x100005870:            de 23 a8 f7  st        %o7, [%sp + 0x8f7]
    0x100005874:            d8 03 a8 bf  ld        [%sp + 0x8bf], %o4
    0x100005878:            de 03 a8 c3  ld        [%sp + 0x8c3], %o7
    0x10000587c:            9a 10 00 1d  mov       %i5, %o5
    0x100005880:            a4 10 00 1d  mov       %i5, %l2
    0x100005884:            a7 3b e0 00  sra       %o7, 0x0, %l3
    0x100005888:            ab 3b 20 00  sra       %o4, 0x0, %l5
    0x10000588c:            ea 73 a9 ef  stx       %l5, [%sp + 0x9ef]
    0x100005890:            bb 3f 60 00  sra       %i5, 0x0, %i5
    0x100005894:            a0 4c c0 1d  mulx      %l3, %i5, %l0
    0x100005898:            96 4d 40 1d  mulx      %l5, %i5, %o3
    0x10000589c:            84 02 c0 10  add       %o3, %l0, %g2
    0x1000058a0:            b0 05 40 13  add       %l5, %l3, %i0
    0x1000058a4:            d6 03 a9 2f  ld        [%sp + 0x92f], %o3
    0x1000058a8:            87 2b e0 01  sll       %o7, 0x1, %g3
    0x1000058ac:            c9 07 a7 fb  ld        [%fp + 0x7fb], %f4
    0x1000058b0:            a3 2e 30 04  sllx      %i0, 0x4, %l1
    0x1000058b4:            8b 28 b0 04  sllx      %g2, 0x4, %g5
    0x1000058b8:            9f 2b 20 01  sll       %o4, 0x1, %o7
    0x1000058bc:            e2 73 a9 f7  stx       %l1, [%sp + 0x9f7]
    0x1000058c0:            b0 03 c0 03  add       %o7, %g3, %i0
    0x1000058c4:            a2 5b 40 18  smul      %o5, %i0, %l1
    0x1000058c8:            ac 01 40 19  add       %g5, %i1, %l6
    0x1000058cc:            a0 03 3f ff  add       %o4, -0x1, %l0
    0x1000058d0:            f0 23 a9 ff  st        %i0, [%sp + 0x9ff]
    0x1000058d4:            a6 02 ff ff  add       %o3, -0x1, %l3
    0x1000058d8:            8d a0 19 04  fitod     %f4, %d6
    0x1000058dc:            ec 77 a6 bf  stx       %l6, [%fp + 0x6bf]
    0x1000058e0:            94 10 00 0c  mov       %o4, %o2
    0x1000058e4:            80 a2 a0 00  cmp       %o2, 0x0
    0x1000058e8:            04 40 00 46  ble,pn    %icc, +0x118  <0x100005a00>
    0x1000058ec:            b9 3c 60 00  sra       %l1, 0x0, %i4
    0x1000058f0:            af 2f 30 03  sllx      %i4, 0x3, %l7
    0x1000058f4:            b8 05 c0 1a  add       %l7, %i2, %i4
    0x1000058f8:            88 10 20 00  clr       %g4
    0x1000058fc:            d2 03 a9 2f  ld        [%sp + 0x92f], %o1
    0x100005900:            8a 10 20 00  clr       %g5
    0x100005904:            80 a2 60 00  cmp       %o1, 0x0
    0x100005908:            04 40 00 22  ble,pn    %icc, +0x88   <0x100005990>
    0x10000590c:            ba 10 20 00  clr       %i5
    0x100005910:            80 a2 60 03  cmp       %o1, 0x3
    0x100005914:            9a 10 20 00  clr       %o5
    0x100005918:            9e 10 00 04  mov       %g4, %o7
    0x10000591c:            06 40 00 15  bl,pn     %icc, +0x54   <0x100005970>
    0x100005920:            01 00 00 00  nop
    0x100005924:            aa 09 20 01  and       %g4, 0x1, %l5
    0x100005928:            9a 10 20 01  mov       0x1, %o5
    0x10000592c:            9f 39 20 01  sra       %g4, 0x1, %o7
    0x100005930:            ba 10 00 15  mov       %l5, %i5
    0x100005934:            84 02 7f fe  add       %o1, -0x2, %g2
    0x100005938:            9a 03 60 02  add       %o5, 0x2, %o5
    0x10000593c:            bb 2f 60 01  sll       %i5, 0x1, %i5
    0x100005940:            90 0b e0 01  and       %o7, 0x1, %o0
    0x100005944:            95 3b e0 01  sra       %o7, 0x1, %o2
    0x100005948:            92 07 40 08  add       %i5, %o0, %o1
    0x10000594c:            80 a3 40 02  cmp       %o5, %g2
    0x100005950:            97 2a 60 01  sll       %o1, 0x1, %o3
    0x100005954:            98 0a a0 01  and       %o2, 0x1, %o4
    0x100005958:            9f 3b e0 02  sra       %o7, 0x2, %o7
    0x10000595c:            04 4f ff f7  ble,pt    %icc, -0x24   <0x100005938>
    0x100005960:            ba 02 c0 0c  add       %o3, %o4, %i5
    0x100005964:            80 a3 40 13  cmp       %o5, %l3
    0x100005968:            14 40 00 0a  bg,pn     %icc, +0x28   <0x100005990>
    0x10000596c:            01 00 00 00  nop
    0x100005970:            9a 03 60 01  add       %o5, 0x1, %o5
    0x100005974:            92 0b e0 01  and       %o7, 0x1, %o1
    0x100005978:            87 2f 60 01  sll       %i5, 0x1, %g3
    0x10000597c:            80 a3 40 13  cmp       %o5, %l3
    0x100005980:            9f 3b e0 01  sra       %o7, 0x1, %o7
    0x100005984:            ba 00 c0 09  add       %g3, %o1, %i5
    0x100005988:            04 4f ff fb  ble,pt    %icc, -0x14   <0x100005974>
    0x10000598c:            9a 03 60 01  add       %o5, 0x1, %o5
    0x100005990:            80 a7 40 04  cmp       %i5, %g4
    0x100005994:            04 40 00 11  ble,pn    %icc, +0x44   <0x1000059d8>
    0x100005998:            88 01 20 01  add       %g4, 0x1, %g4
    0x10000599c:            99 2f 60 01  sll       %i5, 0x1, %o4
    0x1000059a0:            97 3b 20 00  sra       %o4, 0x0, %o3
    0x1000059a4:            95 39 60 00  sra       %g5, 0x0, %o2
    0x1000059a8:            ad 2a f0 03  sllx      %o3, 0x3, %l6
    0x1000059ac:            fb 1f 00 16  ldd       [%i4 + %l6], %d60
    0x1000059b0:            93 2a b0 03  sllx      %o2, 0x3, %o1
    0x1000059b4:            f7 1f 00 09  ldd       [%i4 + %o1], %d58
    0x1000059b8:            f7 3f 00 16  std       %d58, [%i4 + %l6]
    0x1000059bc:            fb 3f 00 09  std       %d60, [%i4 + %o1]
    0x1000059c0:            86 02 40 1c  add       %o1, %i4, %g3
    0x1000059c4:            ef 18 e0 08  ldd       [%g3 + 0x8], %d54
    0x1000059c8:            b0 05 80 1c  add       %l6, %i4, %i0
    0x1000059cc:            eb 1e 20 08  ldd       [%i0 + 0x8], %d52
    0x1000059d0:            ef 3e 20 08  std       %d54, [%i0 + 0x8]
    0x1000059d4:            eb 38 e0 08  std       %d52, [%g3 + 0x8]
    0x1000059d8:            80 a1 00 10  cmp       %g4, %l0
    0x1000059dc:            8a 01 60 02  add       %g5, 0x2, %g5
    0x1000059e0:            24 4f ff c9  ble,a,pt  %icc, -0xdc   <0x100005904>
    0x1000059e4:            d2 03 a9 2f  ld        [%sp + 0x92f], %o1
    0x1000059e8:            fa 03 a9 2f  ld        [%sp + 0x92f], %i5
    0x1000059ec:            80 a7 60 01  cmp       %i5, 0x1
    0x1000059f0:            36 40 00 0b  bge,a,pn  %icc, +0x2c   <0x100005a1c>
    0x1000059f4:            90 10 20 01  mov       0x1, %o0
    0x1000059f8:            10 80 01 9d  ba        +0x674        <0x10000606c>
    0x1000059fc:            80 a4 20 03  cmp       %l0, 0x3
    0x100005a00:            e8 03 a9 2f  ld        [%sp + 0x92f], %l4
    0x100005a04:            80 a5 20 01  cmp       %l4, 0x1
    0x100005a08:            06 40 02 9e  bl,pn     %icc, +0xa78  <0x100006480>
    0x100005a0c:            af 3c 60 00  sra       %l1, 0x0, %l7
    0x100005a10:            91 2d f0 03  sllx      %l7, 0x3, %o0
    0x100005a14:            b8 02 00 1a  add       %o0, %i2, %i4
    0x100005a18:            90 10 20 01  mov       0x1, %o0
    0x100005a1c:            da 03 a9 1f  ld        [%sp + 0x91f], %o5
    0x100005a20:            81 83 60 00  wr        %o5, 0x0, %y
    0x100005a24:            d6 03 a8 bf  ld        [%sp + 0x8bf], %o3
    0x100005a28:            98 10 20 01  mov       0x1, %o4
    0x100005a2c:            95 2b 00 08  sll       %o4, %o0, %o2
    0x100005a30:            a8 fa c0 0a  sdivcc    %o3, %o2, %l4
    0x100005a34:            2e 48 00 02  bvs,a,pt  %icc, +0x8    <0x100005a3c>
    0x100005a38:            29 20 00 00  sethi     %hi(0x80000000), %l4
    0x100005a3c:            80 a5 20 00  cmp       %l4, 0x0
    0x100005a40:            04 40 01 81  ble,pn    %icc, +0x604  <0x100006044>
    0x100005a44:            92 05 3f ff  add       %l4, -0x1, %o1
    0x100005a48:            9b 32 a0 1f  srl       %o2, 0x1f, %o5
    0x100005a4c:            a8 02 80 0d  add       %o2, %o5, %l4
    0x100005a50:            8b 3d 20 01  sra       %l4, 0x1, %g5
    0x100005a54:            98 0d 3f fe  and       %l4, -0x2, %o4
    0x100005a58:            ae 01 7f ff  add       %g5, -0x1, %l7
    0x100005a5c:            89 2d e0 01  sll       %l7, 0x1, %g4
    0x100005a60:            ab 39 20 00  sra       %g4, 0x0, %l5
    0x100005a64:            bb 2d 70 03  sllx      %l5, 0x3, %i5
    0x100005a68:            95 2a a0 01  sll       %o2, 0x1, %o2
    0x100005a6c:            9a 10 20 00  clr       %o5
    0x100005a70:            e8 5b a9 3f  ldx       [%sp + 0x93f], %l4
    0x100005a74:            96 10 20 00  clr       %o3
    0x100005a78:            80 a1 60 00  cmp       %g5, 0x0
    0x100005a7c:            88 07 40 14  add       %i5, %l4, %g4
    0x100005a80:            04 40 01 6b  ble,pn    %icc, +0x5ac  <0x10000602c>
    0x100005a84:            80 a5 e0 07  cmp       %l7, 0x7
    0x100005a88:            85 3a e0 00  sra       %o3, 0x0, %g2
    0x100005a8c:            ab 28 b0 03  sllx      %g2, 0x3, %l5
    0x100005a90:            9f 3b 20 00  sra       %o4, 0x0, %o7
    0x100005a94:            bb 2b f0 03  sllx      %o7, 0x3, %i5
    0x100005a98:            84 05 40 1c  add       %l5, %i4, %g2
    0x100005a9c:            06 40 00 1d  bl,pn     %icc, +0x74   <0x100005b10>
    0x100005aa0:            86 07 40 1c  add       %i5, %i4, %g3
    0x100005aa4:            ac 20 c0 04  sub       %g3, %g4, %l6
    0x100005aa8:            bb 3d b0 3f  srax      %l6, 0x3f, %i5
    0x100005aac:            b0 1d 80 1d  xor       %l6, %i5, %i0
    0x100005ab0:            aa 26 00 1d  sub       %i0, %i5, %l5
    0x100005ab4:            ac 20 c0 02  sub       %g3, %g2, %l6
    0x100005ab8:            9f 29 70 04  sllx      %g5, 0x4, %o7
    0x100005abc:            a8 03 e0 08  add       %o7, 0x8, %l4
    0x100005ac0:            bb 3d b0 3f  srax      %l6, 0x3f, %i5
    0x100005ac4:            b0 1d 80 1d  xor       %l6, %i5, %i0
    0x100005ac8:            80 a5 40 14  cmp       %l5, %l4
    0x100005acc:            aa 26 00 1d  sub       %i0, %i5, %l5
    0x100005ad0:            9e 20 80 04  sub       %g2, %g4, %o7
    0x100005ad4:            b1 3b f0 3f  srax      %o7, 0x3f, %i0
    0x100005ad8:            ac 1b c0 18  xor       %o7, %i0, %l6
    0x100005adc:            9e 25 80 18  sub       %l6, %i0, %o7
    0x100005ae0:            ac 10 20 00  clr       %l6
    0x100005ae4:            ad 66 f0 01  movge     %xcc, 0x1, %l6
    0x100005ae8:            ba 10 20 00  clr       %i5
    0x100005aec:            80 a5 40 14  cmp       %l5, %l4
    0x100005af0:            bb 66 f0 01  movge     %xcc, 0x1, %i5
    0x100005af4:            80 a3 c0 14  cmp       %o7, %l4
    0x100005af8:            a8 10 20 00  clr       %l4
    0x100005afc:            a9 66 f0 01  movge     %xcc, 0x1, %l4
    0x100005b00:            b0 0d 80 1d  and       %l6, %i5, %i0
    0x100005b04:            80 8e 00 14  btst      %l4, %i0
    0x100005b08:            12 48 00 90  bne,pt    %icc, +0x240  <0x100005d48>
    0x100005b0c:            a8 10 20 00  clr       %l4
    0x100005b10:            80 a1 60 04  cmp       %g5, 0x4
    0x100005b14:            a8 10 20 00  clr       %l4
    0x100005b18:            ba 10 20 00  clr       %i5
    0x100005b1c:            06 40 00 6a  bl,pn     %icc, +0x1a8  <0x100005cc4>
    0x100005b20:            01 00 00 00  nop
    0x100005b24:            9e 10 00 02  mov       %g2, %o7
    0x100005b28:            ac 10 00 03  mov       %g3, %l6
    0x100005b2c:            aa 10 00 04  mov       %g4, %l5
    0x100005b30:            b0 01 7f fc  add       %g5, -0x4, %i0
    0x100005b34:            c1 6d 60 58  prefetch  [%l5 + 0x58], #n_reads
    0x100005b38:            c1 6d 60 50  prefetch  [%l5 + 0x50], #n_reads
    0x100005b3c:            a8 05 20 04  add       %l4, 0x4, %l4
    0x100005b40:            9e 03 e0 40  add       %o7, 0x40, %o7
    0x100005b44:            e1 1d 60 08  ldd       [%l5 + 0x8], %d16
    0x100005b48:            80 a5 00 18  cmp       %l4, %i0
    0x100005b4c:            ac 05 a0 40  add       %l6, 0x40, %l6
    0x100005b50:            ef 1d 60 00  ldd       [%l5], %d54
    0x100005b54:            aa 05 60 40  add       %l5, 0x40, %l5
    0x100005b58:            ba 07 60 08  add       %i5, 0x8, %i5
    0x100005b5c:            fb 1d bf c8  ldd       [%l6 - 0x38], %d60
    0x100005b60:            b1 a4 09 46  fmuld     %d16, %d6, %d24
    0x100005b64:            ff 1d bf c0  ldd       [%l6 - 0x40], %d62
    0x100005b68:            ab a5 c9 5d  fmuld     %d54, %d60, %d52
    0x100005b6c:            9d a5 c9 5f  fmuld     %d54, %d62, %d14
    0x100005b70:            ad a6 09 5d  fmuld     %d24, %d60, %d22
    0x100005b74:            99 a6 09 5f  fmuld     %d24, %d62, %d12
    0x100005b78:            b7 a3 88 d6  fsubd     %d14, %d22, %d58
    0x100005b7c:            a1 a5 48 4c  faddd     %d52, %d12, %d16
    0x100005b80:            e5 1b ff c0  ldd       [%o7 - 0x40], %d18
    0x100005b84:            f3 1b ff c8  ldd       [%o7 - 0x38], %d56
    0x100005b88:            a9 a4 88 db  fsubd     %d18, %d58, %d20
    0x100005b8c:            e9 3d bf c0  std       %d20, [%l6 - 0x40]
    0x100005b90:            95 a6 48 d0  fsubd     %d56, %d16, %d10
    0x100005b94:            d5 3d bf c8  std       %d10, [%l6 - 0x38]
    0x100005b98:            91 a4 88 5b  faddd     %d18, %d58, %d8
    0x100005b9c:            d1 3b ff c0  std       %d8, [%o7 - 0x40]
    0x100005ba0:            af a6 48 50  faddd     %d56, %d16, %d54
    0x100005ba4:            ef 3b ff c8  std       %d54, [%o7 - 0x38]
    0x100005ba8:            ff 1d 7f d8  ldd       [%l5 - 0x28], %d62
    0x100005bac:            fb 1d 7f d0  ldd       [%l5 - 0x30], %d60
    0x100005bb0:            9d a7 c9 46  fmuld     %d62, %d6, %d14
    0x100005bb4:            f1 1d bf d8  ldd       [%l6 - 0x28], %d24
    0x100005bb8:            ed 1d bf d0  ldd       [%l6 - 0x30], %d22
    0x100005bbc:            95 a7 49 58  fmuld     %d60, %d24, %d10
    0x100005bc0:            ab a7 49 56  fmuld     %d60, %d22, %d52
    0x100005bc4:            c1 6d a0 28  prefetch  [%l6 + 0x28], #n_reads
    0x100005bc8:            c1 6d a0 20  prefetch  [%l6 + 0x20], #n_reads
    0x100005bcc:            99 a3 89 58  fmuld     %d14, %d24, %d12
    0x100005bd0:            a9 a3 89 56  fmuld     %d14, %d22, %d20
    0x100005bd4:            b3 a5 48 cc  fsubd     %d52, %d12, %d56
    0x100005bd8:            af a2 88 54  faddd     %d10, %d20, %d54
    0x100005bdc:            e1 1b ff d0  ldd       [%o7 - 0x30], %d16
    0x100005be0:            f7 1b ff d8  ldd       [%o7 - 0x28], %d58
    0x100005be4:            a5 a4 08 d9  fsubd     %d16, %d56, %d18
    0x100005be8:            e5 3d bf d0  std       %d18, [%l6 - 0x30]
    0x100005bec:            91 a6 c8 d7  fsubd     %d58, %d54, %d8
    0x100005bf0:            d1 3d bf d8  std       %d8, [%l6 - 0x28]
    0x100005bf4:            bf a4 08 59  faddd     %d16, %d56, %d62
    0x100005bf8:            ff 3b ff d0  std       %d62, [%o7 - 0x30]
    0x100005bfc:            bb a6 c8 57  faddd     %d58, %d54, %d60
    0x100005c00:            fb 3b ff d8  std       %d60, [%o7 - 0x28]
    0x100005c04:            f1 1d 7f e8  ldd       [%l5 - 0x18], %d24
    0x100005c08:            ed 1d 7f e0  ldd       [%l5 - 0x20], %d22
    0x100005c0c:            ab a6 09 46  fmuld     %d24, %d6, %d52
    0x100005c10:            dd 1d bf e8  ldd       [%l6 - 0x18], %d14
    0x100005c14:            d9 1d bf e0  ldd       [%l6 - 0x20], %d12
    0x100005c18:            91 a5 89 4e  fmuld     %d22, %d14, %d8
    0x100005c1c:            95 a5 89 4c  fmuld     %d22, %d12, %d10
    0x100005c20:            a9 a5 49 4e  fmuld     %d52, %d14, %d20
    0x100005c24:            a5 a5 49 4c  fmuld     %d52, %d12, %d18
    0x100005c28:            b3 a2 88 d4  fsubd     %d10, %d20, %d56
    0x100005c2c:            af a2 08 52  faddd     %d8, %d18, %d54
    0x100005c30:            c1 6b e0 30  prefetch  [%o7 + 0x30], #n_reads
    0x100005c34:            c1 6b e0 38  prefetch  [%o7 + 0x38], #n_reads
    0x100005c38:            fb 1b ff e0  ldd       [%o7 - 0x20], %d60
    0x100005c3c:            f7 1b ff e8  ldd       [%o7 - 0x18], %d58
    0x100005c40:            a1 a7 48 d9  fsubd     %d60, %d56, %d16
    0x100005c44:            e1 3d bf e0  std       %d16, [%l6 - 0x20]
    0x100005c48:            bf a6 c8 d7  fsubd     %d58, %d54, %d62
    0x100005c4c:            ff 3d bf e8  std       %d62, [%l6 - 0x18]
    0x100005c50:            b1 a7 48 59  faddd     %d60, %d56, %d24
    0x100005c54:            f1 3b ff e0  std       %d24, [%o7 - 0x20]
    0x100005c58:            ad a6 c8 57  faddd     %d58, %d54, %d22
    0x100005c5c:            ed 3b ff e8  std       %d22, [%o7 - 0x18]
    0x100005c60:            dd 1d 7f f8  ldd       [%l5 - 0x8], %d14
    0x100005c64:            d9 1d 7f f0  ldd       [%l5 - 0x10], %d12
    0x100005c68:            95 a3 89 46  fmuld     %d14, %d6, %d10
    0x100005c6c:            eb 1d bf f8  ldd       [%l6 - 0x8], %d52
    0x100005c70:            e9 1d bf f0  ldd       [%l6 - 0x10], %d20
    0x100005c74:            bf a3 09 55  fmuld     %d12, %d52, %d62
    0x100005c78:            91 a3 09 54  fmuld     %d12, %d20, %d8
    0x100005c7c:            a5 a2 89 55  fmuld     %d10, %d52, %d18
    0x100005c80:            a1 a2 89 54  fmuld     %d10, %d20, %d16
    0x100005c84:            b3 a2 08 d2  fsubd     %d8, %d18, %d56
    0x100005c88:            af a7 c8 50  faddd     %d62, %d16, %d54
    0x100005c8c:            fb 1b ff f0  ldd       [%o7 - 0x10], %d60
    0x100005c90:            f7 1b ff f8  ldd       [%o7 - 0x8], %d58
    0x100005c94:            b1 a7 48 d9  fsubd     %d60, %d56, %d24
    0x100005c98:            f1 3d bf f0  std       %d24, [%l6 - 0x10]
    0x100005c9c:            ad a6 c8 d7  fsubd     %d58, %d54, %d22
    0x100005ca0:            ed 3d bf f8  std       %d22, [%l6 - 0x8]
    0x100005ca4:            9d a7 48 59  faddd     %d60, %d56, %d14
    0x100005ca8:            dd 3b ff f0  std       %d14, [%o7 - 0x10]
    0x100005cac:            99 a6 c8 57  faddd     %d58, %d54, %d12
    0x100005cb0:            04 4f ff a1  ble,pt    %icc, -0x17c  <0x100005b34>
    0x100005cb4:            d9 3b ff f8  std       %d12, [%o7 - 0x8]
    0x100005cb8:            80 a5 00 17  cmp       %l4, %l7
    0x100005cbc:            14 40 00 21  bg,pn     %icc, +0x84   <0x100005d40>
    0x100005cc0:            01 00 00 00  nop
    0x100005cc4:            a8 05 20 01  add       %l4, 0x1, %l4
    0x100005cc8:            ad 3f 60 00  sra       %i5, 0x0, %l6
    0x100005ccc:            ab 2d b0 03  sllx      %l6, 0x3, %l5
    0x100005cd0:            b0 05 40 04  add       %l5, %g4, %i0
    0x100005cd4:            ed 1e 20 08  ldd       [%i0 + 0x8], %d22
    0x100005cd8:            9e 05 40 03  add       %l5, %g3, %o7
    0x100005cdc:            d5 1b e0 08  ldd       [%o7 + 0x8], %d10
    0x100005ce0:            9d a5 89 46  fmuld     %d22, %d6, %d14
    0x100005ce4:            d1 19 00 15  ldd       [%g4 + %l5], %d8
    0x100005ce8:            f7 18 c0 15  ldd       [%g3 + %l5], %d58
    0x100005cec:            f1 18 80 15  ldd       [%g2 + %l5], %d24
    0x100005cf0:            bb a2 09 4a  fmuld     %d8, %d10, %d60
    0x100005cf4:            ab a2 09 5b  fmuld     %d8, %d58, %d52
    0x100005cf8:            af a3 89 4a  fmuld     %d14, %d10, %d54
    0x100005cfc:            99 a3 89 5b  fmuld     %d14, %d58, %d12
    0x100005d00:            ac 05 40 02  add       %l5, %g2, %l6
    0x100005d04:            f3 1d a0 08  ldd       [%l6 + 0x8], %d56
    0x100005d08:            80 a5 00 17  cmp       %l4, %l7
    0x100005d0c:            ba 07 60 02  add       %i5, 0x2, %i5
    0x100005d10:            a9 a5 48 d7  fsubd     %d52, %d54, %d20
    0x100005d14:            ad a7 48 4c  faddd     %d60, %d12, %d22
    0x100005d18:            a5 a6 08 d4  fsubd     %d24, %d20, %d18
    0x100005d1c:            e5 38 c0 15  std       %d18, [%g3 + %l5]
    0x100005d20:            a1 a6 48 d6  fsubd     %d56, %d22, %d16
    0x100005d24:            e1 3b e0 08  std       %d16, [%o7 + 0x8]
    0x100005d28:            bf a6 08 54  faddd     %d24, %d20, %d62
    0x100005d2c:            ff 38 80 15  std       %d62, [%g2 + %l5]
    0x100005d30:            95 a6 48 56  faddd     %d56, %d22, %d10
    0x100005d34:            d5 3d a0 08  std       %d10, [%l6 + 0x8]
    0x100005d38:            04 4f ff e4  ble,pt    %icc, -0x70   <0x100005cc8>
    0x100005d3c:            a8 05 20 01  add       %l4, 0x1, %l4
    0x100005d40:            10 80 00 bc  ba        +0x2f0        <0x100006030>
    0x100005d44:            9a 03 60 01  add       %o5, 0x1, %o5
    0x100005d48:            80 a1 60 06  cmp       %g5, 0x6
    0x100005d4c:            ba 10 20 00  clr       %i5
    0x100005d50:            06 40 00 98  bl,pn     %icc, +0x260  <0x100005fb0>
    0x100005d54:            01 00 00 00  nop
    0x100005d58:            eb 19 20 08  ldd       [%g4 + 0x8], %d52
    0x100005d5c:            ed 19 20 00  ldd       [%g4], %d22
    0x100005d60:            e5 18 e0 00  ldd       [%g3], %d18
    0x100005d64:            dd 18 e0 08  ldd       [%g3 + 0x8], %d14
    0x100005d68:            f1 18 e0 10  ldd       [%g3 + 0x10], %d24
    0x100005d6c:            af a5 49 46  fmuld     %d52, %d6, %d54
    0x100005d70:            a9 a5 89 52  fmuld     %d22, %d18, %d20
    0x100005d74:            fb 19 20 10  ldd       [%g4 + 0x10], %d60
    0x100005d78:            b3 a5 89 4e  fmuld     %d22, %d14, %d56
    0x100005d7c:            a1 a0 00 46  fmovd     %d6, %d16
    0x100005d80:            ff 19 20 18  ldd       [%g4 + 0x18], %d62
    0x100005d84:            a8 10 20 02  mov       0x2, %l4
    0x100005d88:            99 a5 c9 52  fmuld     %d54, %d18, %d12
    0x100005d8c:            ed 18 e0 18  ldd       [%g3 + 0x18], %d22
    0x100005d90:            aa 01 20 20  add       %g4, 0x20, %l5
    0x100005d94:            9e 00 e0 20  add       %g3, 0x20, %o7
    0x100005d98:            91 a5 c9 4e  fmuld     %d54, %d14, %d8
    0x100005d9c:            ef 18 a0 00  ldd       [%g2], %d54
    0x100005da0:            b3 a6 48 4c  faddd     %d56, %d12, %d56
    0x100005da4:            ac 00 a0 10  add       %g2, 0x10, %l6
    0x100005da8:            eb 18 a0 08  ldd       [%g2 + 0x8], %d52
    0x100005dac:            b0 01 7f fc  add       %g5, -0x4, %i0
    0x100005db0:            b7 a5 08 c8  fsubd     %d20, %d8, %d58
    0x100005db4:            c1 6d 60 50  prefetch  [%l5 + 0x50], #n_reads
    0x100005db8:            c1 6b e0 50  prefetch  [%o7 + 0x50], #n_reads
    0x100005dbc:            a8 05 20 04  add       %l4, 0x4, %l4
    0x100005dc0:            ac 05 a0 40  add       %l6, 0x40, %l6
    0x100005dc4:            d5 1d 60 00  ldd       [%l5], %d10
    0x100005dc8:            a9 a7 c9 50  fmuld     %d62, %d16, %d20
    0x100005dcc:            80 a5 00 18  cmp       %l4, %i0
    0x100005dd0:            d1 1b e0 00  ldd       [%o7], %d8
    0x100005dd4:            9e 03 e0 40  add       %o7, 0x40, %o7
    0x100005dd8:            ba 07 60 08  add       %i5, 0x8, %i5
    0x100005ddc:            d9 1d 60 08  ldd       [%l5 + 0x8], %d12
    0x100005de0:            aa 05 60 40  add       %l5, 0x40, %l5
    0x100005de4:            9d a7 49 58  fmuld     %d60, %d24, %d14
    0x100005de8:            a5 a7 49 56  fmuld     %d60, %d22, %d18
    0x100005dec:            fd 1b ff c8  ldd       [%o7 - 0x38], %d30
    0x100005df0:            bf a5 c8 db  fsubd     %d54, %d58, %d62
    0x100005df4:            b1 a5 09 58  fmuld     %d20, %d24, %d24
    0x100005df8:            cd 1d bf c0  ldd       [%l6 - 0x40], %d6
    0x100005dfc:            ff 3b ff a0  std       %d62, [%o7 - 0x60]
    0x100005e00:            bb a5 c8 5b  faddd     %d54, %d58, %d60
    0x100005e04:            b7 a5 09 56  fmuld     %d20, %d22, %d58
    0x100005e08:            ad a5 48 d9  fsubd     %d52, %d56, %d22
    0x100005e0c:            ef 1d bf c8  ldd       [%l6 - 0x38], %d54
    0x100005e10:            ed 3b ff a8  std       %d22, [%o7 - 0x58]
    0x100005e14:            ab a5 48 59  faddd     %d52, %d56, %d52
    0x100005e18:            fb 3d bf b0  std       %d60, [%l6 - 0x50]
    0x100005e1c:            b3 a4 88 58  faddd     %d18, %d24, %d56
    0x100005e20:            eb 3d bf b8  std       %d52, [%l6 - 0x48]
    0x100005e24:            bb a3 88 db  fsubd     %d14, %d58, %d60
    0x100005e28:            b7 a3 09 50  fmuld     %d12, %d16, %d58
    0x100005e2c:            e5 1d 7f d0  ldd       [%l5 - 0x30], %d18
    0x100005e30:            dd 1b ff d0  ldd       [%o7 - 0x30], %d14
    0x100005e34:            ad a2 89 48  fmuld     %d10, %d8, %d22
    0x100005e38:            e9 1d 7f d8  ldd       [%l5 - 0x28], %d20
    0x100005e3c:            c1 6d 60 28  prefetch  [%l5 + 0x28], #n_reads
    0x100005e40:            c1 6b e0 28  prefetch  [%o7 + 0x28], #n_reads
    0x100005e44:            b1 a2 89 5e  fmuld     %d10, %d30, %d24
    0x100005e48:            d5 1b ff d8  ldd       [%o7 - 0x28], %d10
    0x100005e4c:            bf a1 88 dd  fsubd     %d6, %d60, %d62
    0x100005e50:            ab a6 c9 48  fmuld     %d58, %d8, %d52
    0x100005e54:            d9 1d bf d0  ldd       [%l6 - 0x30], %d12
    0x100005e58:            ff 3b ff b0  std       %d62, [%o7 - 0x50]
    0x100005e5c:            8d a1 88 5d  faddd     %d6, %d60, %d6
    0x100005e60:            b7 a6 c9 5e  fmuld     %d58, %d30, %d58
    0x100005e64:            bf a5 c8 d9  fsubd     %d54, %d56, %d62
    0x100005e68:            d1 1d bf d8  ldd       [%l6 - 0x28], %d8
    0x100005e6c:            ff 3b ff b8  std       %d62, [%o7 - 0x48]
    0x100005e70:            bb a5 c8 59  faddd     %d54, %d56, %d60
    0x100005e74:            cd 3d bf c0  std       %d6, [%l6 - 0x40]
    0x100005e78:            b3 a6 08 55  faddd     %d24, %d52, %d56
    0x100005e7c:            fb 3d bf c8  std       %d60, [%l6 - 0x38]
    0x100005e80:            bb a5 88 db  fsubd     %d22, %d58, %d60
    0x100005e84:            b7 a5 09 50  fmuld     %d20, %d16, %d58
    0x100005e88:            e9 1d 7f e0  ldd       [%l5 - 0x20], %d20
    0x100005e8c:            cd 1b ff e0  ldd       [%o7 - 0x20], %d6
    0x100005e90:            b1 a4 89 4e  fmuld     %d18, %d14, %d24
    0x100005e94:            ed 1d 7f e8  ldd       [%l5 - 0x18], %d22
    0x100005e98:            ab a4 89 4a  fmuld     %d18, %d10, %d52
    0x100005e9c:            fd 1b ff e8  ldd       [%o7 - 0x18], %d30
    0x100005ea0:            bf a3 08 dd  fsubd     %d12, %d60, %d62
    0x100005ea4:            af a6 c9 4e  fmuld     %d58, %d14, %d54
    0x100005ea8:            e5 1d bf e0  ldd       [%l6 - 0x20], %d18
    0x100005eac:            ff 3b ff c0  std       %d62, [%o7 - 0x40]
    0x100005eb0:            99 a3 08 5d  faddd     %d12, %d60, %d12
    0x100005eb4:            95 a6 c9 4a  fmuld     %d58, %d10, %d10
    0x100005eb8:            c1 6d a0 30  prefetch  [%l6 + 0x30], #n_reads
    0x100005ebc:            c1 6d a0 38  prefetch  [%l6 + 0x38], #n_reads
    0x100005ec0:            bf a2 08 d9  fsubd     %d8, %d56, %d62
    0x100005ec4:            dd 1d bf e8  ldd       [%l6 - 0x18], %d14
    0x100005ec8:            ff 3b ff c8  std       %d62, [%o7 - 0x38]
    0x100005ecc:            bb a2 08 59  faddd     %d8, %d56, %d60
    0x100005ed0:            d9 3d bf d0  std       %d12, [%l6 - 0x30]
    0x100005ed4:            99 a5 48 57  faddd     %d52, %d54, %d12
    0x100005ed8:            fb 3d bf d8  std       %d60, [%l6 - 0x28]
    0x100005edc:            b3 a6 08 ca  fsubd     %d24, %d10, %d56
    0x100005ee0:            ab a5 89 50  fmuld     %d22, %d16, %d52
    0x100005ee4:            fb 1d 7f f0  ldd       [%l5 - 0x10], %d60
    0x100005ee8:            f1 1b ff f0  ldd       [%o7 - 0x10], %d24
    0x100005eec:            91 a5 09 46  fmuld     %d20, %d6, %d8
    0x100005ef0:            ff 1d 7f f8  ldd       [%l5 - 0x8], %d62
    0x100005ef4:            95 a5 09 5e  fmuld     %d20, %d30, %d10
    0x100005ef8:            ed 1b ff f8  ldd       [%o7 - 0x8], %d22
    0x100005efc:            b7 a4 88 d9  fsubd     %d18, %d56, %d58
    0x100005f00:            a9 a5 49 46  fmuld     %d52, %d6, %d20
    0x100005f04:            ef 1d bf f0  ldd       [%l6 - 0x10], %d54
    0x100005f08:            f7 3b ff d0  std       %d58, [%o7 - 0x30]
    0x100005f0c:            b3 a4 88 59  faddd     %d18, %d56, %d56
    0x100005f10:            a5 a5 49 5e  fmuld     %d52, %d30, %d18
    0x100005f14:            8d a3 88 cc  fsubd     %d14, %d12, %d6
    0x100005f18:            eb 1d bf f8  ldd       [%l6 - 0x8], %d52
    0x100005f1c:            cd 3b ff d8  std       %d6, [%o7 - 0x28]
    0x100005f20:            b7 a3 88 4c  faddd     %d14, %d12, %d58
    0x100005f24:            f3 3d bf e0  std       %d56, [%l6 - 0x20]
    0x100005f28:            b3 a2 88 54  faddd     %d10, %d20, %d56
    0x100005f2c:            f7 3d bf e8  std       %d58, [%l6 - 0x18]
    0x100005f30:            04 4f ff a1  ble,pt    %icc, -0x17c  <0x100005db4>
    0x100005f34:            b7 a2 08 d2  fsubd     %d8, %d18, %d58
    0x100005f38:            a9 a7 c9 50  fmuld     %d62, %d16, %d20
    0x100005f3c:            8d a0 00 50  fmovd     %d16, %d6
    0x100005f40:            9d a7 49 56  fmuld     %d60, %d22, %d14
    0x100005f44:            a1 a5 c8 5b  faddd     %d54, %d58, %d16
    0x100005f48:            d5 1d a0 00  ldd       [%l6], %d10
    0x100005f4c:            e1 3d bf f0  std       %d16, [%l6 - 0x10]
    0x100005f50:            bf a5 c8 db  fsubd     %d54, %d58, %d62
    0x100005f54:            ff 3b ff e0  std       %d62, [%o7 - 0x20]
    0x100005f58:            a5 a7 49 58  fmuld     %d60, %d24, %d18
    0x100005f5c:            91 a5 48 59  faddd     %d52, %d56, %d8
    0x100005f60:            d1 3d bf f8  std       %d8, [%l6 - 0x8]
    0x100005f64:            ab a5 48 d9  fsubd     %d52, %d56, %d52
    0x100005f68:            eb 3b ff e8  std       %d52, [%o7 - 0x18]
    0x100005f6c:            ad a5 09 56  fmuld     %d20, %d22, %d22
    0x100005f70:            b1 a5 09 58  fmuld     %d20, %d24, %d24
    0x100005f74:            d9 1d a0 08  ldd       [%l6 + 0x8], %d12
    0x100005f78:            80 a5 00 17  cmp       %l4, %l7
    0x100005f7c:            ba 07 60 04  add       %i5, 0x4, %i5
    0x100005f80:            b7 a4 88 d6  fsubd     %d18, %d22, %d58
    0x100005f84:            bb a3 88 58  faddd     %d14, %d24, %d60
    0x100005f88:            a1 a2 88 db  fsubd     %d10, %d58, %d16
    0x100005f8c:            e1 3b ff f0  std       %d16, [%o7 - 0x10]
    0x100005f90:            91 a3 08 dd  fsubd     %d12, %d60, %d8
    0x100005f94:            d1 3b ff f8  std       %d8, [%o7 - 0x8]
    0x100005f98:            b3 a2 88 5b  faddd     %d10, %d58, %d56
    0x100005f9c:            f3 3d a0 00  std       %d56, [%l6]
    0x100005fa0:            af a3 08 5d  faddd     %d12, %d60, %d54
    0x100005fa4:            ef 3d a0 08  std       %d54, [%l6 + 0x8]
    0x100005fa8:            14 40 00 21  bg,pn     %icc, +0x84   <0x10000602c>
    0x100005fac:            01 00 00 00  nop
    0x100005fb0:            a8 05 20 01  add       %l4, 0x1, %l4
    0x100005fb4:            9f 3f 60 00  sra       %i5, 0x0, %o7
    0x100005fb8:            ab 2b f0 03  sllx      %o7, 0x3, %l5
    0x100005fbc:            d5 18 c0 15  ldd       [%g3 + %l5], %d10
    0x100005fc0:            ac 05 40 04  add       %l5, %g4, %l6
    0x100005fc4:            e9 1d a0 08  ldd       [%l6 + 0x8], %d20
    0x100005fc8:            9e 05 40 03  add       %l5, %g3, %o7
    0x100005fcc:            ff 1b e0 08  ldd       [%o7 + 0x8], %d62
    0x100005fd0:            b7 a5 09 46  fmuld     %d20, %d6, %d58
    0x100005fd4:            ed 19 00 15  ldd       [%g4 + %l5], %d22
    0x100005fd8:            f1 18 80 15  ldd       [%g2 + %l5], %d24
    0x100005fdc:            b0 05 40 02  add       %l5, %g2, %i0
    0x100005fe0:            9d a5 89 4a  fmuld     %d22, %d10, %d14
    0x100005fe4:            bb a5 89 5f  fmuld     %d22, %d62, %d60
    0x100005fe8:            91 a6 c9 5f  fmuld     %d58, %d62, %d8
    0x100005fec:            af a6 c9 4a  fmuld     %d58, %d10, %d54
    0x100005ff0:            f3 1e 20 08  ldd       [%i0 + 0x8], %d56
    0x100005ff4:            80 a5 00 17  cmp       %l4, %l7
    0x100005ff8:            ba 07 60 02  add       %i5, 0x2, %i5
    0x100005ffc:            99 a3 88 c8  fsubd     %d14, %d8, %d12
    0x100006000:            a9 a7 48 57  faddd     %d60, %d54, %d20
    0x100006004:            a5 a6 08 cc  fsubd     %d24, %d12, %d18
    0x100006008:            e5 38 c0 15  std       %d18, [%g3 + %l5]
    0x10000600c:            ab a6 08 4c  faddd     %d24, %d12, %d52
    0x100006010:            eb 38 80 15  std       %d52, [%g2 + %l5]
    0x100006014:            a1 a6 48 54  faddd     %d56, %d20, %d16
    0x100006018:            e1 3e 20 08  std       %d16, [%i0 + 0x8]
    0x10000601c:            bf a6 48 d4  fsubd     %d56, %d20, %d62
    0x100006020:            ff 3b e0 08  std       %d62, [%o7 + 0x8]
    0x100006024:            04 4f ff e4  ble,pt    %icc, -0x70   <0x100005fb4>
    0x100006028:            a8 05 20 01  add       %l4, 0x1, %l4
    0x10000602c:            9a 03 60 01  add       %o5, 0x1, %o5
    0x100006030:            80 a3 40 09  cmp       %o5, %o1
    0x100006034:            96 02 c0 0a  add       %o3, %o2, %o3
    0x100006038:            98 03 00 0a  add       %o4, %o2, %o4
    0x10000603c:            04 4f fe 91  ble,pt    %icc, -0x5bc  <0x100005a80>
    0x100006040:            80 a1 60 00  cmp       %g5, 0x0
    0x100006044:            ec 03 a9 2f  ld        [%sp + 0x92f], %l6
    0x100006048:            90 02 20 01  add       %o0, 0x1, %o0
    0x10000604c:            80 a2 00 16  cmp       %o0, %l6
    0x100006050:            24 4f fe 74  ble,a,pt  %icc, -0x630  <0x100005a20>
    0x100006054:            da 03 a9 1f  ld        [%sp + 0x91f], %o5
    0x100006058:            fa 03 a8 bf  ld        [%sp + 0x8bf], %i5
    0x10000605c:            80 a7 60 00  cmp       %i5, 0x0
    0x100006060:            24 40 01 09  ble,a,pn  %icc, +0x424  <0x100006484>
    0x100006064:            a4 04 a0 01  add       %l2, 0x1, %l2
    0x100006068:            80 a4 20 03  cmp       %l0, 0x3
    0x10000606c:            06 40 00 9e  bl,pn     %icc, +0x278  <0x1000062e4>
    0x100006070:            d2 5b a9 ef  ldx       [%sp + 0x9ef], %o1
    0x100006074:            c4 5f a6 bf  ldx       [%fp + 0x6bf], %g2
    0x100006078:            99 2a 70 04  sllx      %o1, 0x4, %o4
    0x10000607c:            96 27 00 02  sub       %i4, %g2, %o3
    0x100006080:            ab 3a f0 3f  srax      %o3, 0x3f, %l5
    0x100006084:            94 1a c0 15  xor       %o3, %l5, %o2
    0x100006088:            92 22 80 15  sub       %o2, %l5, %o1
    0x10000608c:            a8 03 20 08  add       %o4, 0x8, %l4
    0x100006090:            80 a2 40 14  cmp       %o1, %l4
    0x100006094:            06 60 00 94  bl,pn     %xcc, +0x250  <0x1000062e4>
    0x100006098:            aa 10 20 00  clr       %l5
    0x10000609c:            ac 04 20 01  add       %l0, 0x1, %l6
    0x1000060a0:            80 a5 a0 07  cmp       %l6, 0x7
    0x1000060a4:            a8 10 20 00  clr       %l4
    0x1000060a8:            84 10 00 11  mov       %l1, %g2
    0x1000060ac:            06 40 00 73  bl,pn     %icc, +0x1cc  <0x100006278>
    0x1000060b0:            01 00 00 00  nop
    0x1000060b4:            ed 1f 20 00  ldd       [%i4], %d22
    0x1000060b8:            d5 1f 20 08  ldd       [%i4 + 0x8], %d10
    0x1000060bc:            f1 1f 20 10  ldd       [%i4 + 0x10], %d24
    0x1000060c0:            9b 3c 60 00  sra       %l1, 0x0, %o5
    0x1000060c4:            eb 1f 20 18  ldd       [%i4 + 0x18], %d52
    0x1000060c8:            8b 2b 70 03  sllx      %o5, 0x3, %g5
    0x1000060cc:            b0 06 40 05  add       %i1, %g5, %i0
    0x1000060d0:            d9 1e 20 08  ldd       [%i0 + 0x8], %d12
    0x1000060d4:            ef 1e 40 05  ldd       [%i1 + %g5], %d54
    0x1000060d8:            e9 1e 20 10  ldd       [%i0 + 0x10], %d20
    0x1000060dc:            91 a3 09 46  fmuld     %d12, %d6, %d8
    0x1000060e0:            b7 a5 c9 56  fmuld     %d54, %d22, %d58
    0x1000060e4:            ff 1e 20 18  ldd       [%i0 + 0x18], %d62
    0x1000060e8:            ac 06 20 30  add       %i0, 0x30, %l6
    0x1000060ec:            aa 10 20 03  mov       0x3, %l5
    0x1000060f0:            fb 1e 20 28  ldd       [%i0 + 0x28], %d60
    0x1000060f4:            b3 a2 09 4a  fmuld     %d8, %d10, %d56
    0x1000060f8:            b0 07 20 20  add       %i4, 0x20, %i0
    0x1000060fc:            af a5 c9 4a  fmuld     %d54, %d10, %d54
    0x100006100:            a1 a0 00 46  fmovd     %d6, %d16
    0x100006104:            9a 24 20 03  sub       %l0, 0x3, %o5
    0x100006108:            c1 6d a0 a8  prefetch  [%l6 + 0xa8], #n_reads
    0x10000610c:            c1 6e 20 a8  prefetch  [%i0 + 0xa8], #n_reads
    0x100006110:            aa 05 60 04  add       %l5, 0x4, %l5
    0x100006114:            b0 06 20 40  add       %i0, 0x40, %i0
    0x100006118:            dd 1d bf f0  ldd       [%l6 - 0x10], %d14
    0x10000611c:            ad a2 09 56  fmuld     %d8, %d22, %d22
    0x100006120:            80 a5 40 0d  cmp       %l5, %o5
    0x100006124:            ac 05 a0 40  add       %l6, 0x40, %l6
    0x100006128:            d5 1e 3f c0  ldd       [%i0 - 0x40], %d10
    0x10000612c:            a5 a7 c9 50  fmuld     %d62, %d16, %d18
    0x100006130:            a8 05 20 08  add       %l4, 0x8, %l4
    0x100006134:            d9 1e 3f c8  ldd       [%i0 - 0x38], %d12
    0x100006138:            8d a6 c8 d9  fsubd     %d58, %d56, %d6
    0x10000613c:            b7 a5 09 58  fmuld     %d20, %d24, %d58
    0x100006140:            d1 1d bf c8  ldd       [%l6 - 0x38], %d8
    0x100006144:            cd 3e 3f a0  std       %d6, [%i0 - 0x60]
    0x100006148:            b3 a5 c8 56  faddd     %d54, %d22, %d56
    0x10000614c:            af a5 09 55  fmuld     %d20, %d52, %d54
    0x100006150:            f3 3e 3f a8  std       %d56, [%i0 - 0x58]
    0x100006154:            bf a4 89 55  fmuld     %d18, %d52, %d62
    0x100006158:            b3 a4 89 58  fmuld     %d18, %d24, %d56
    0x10000615c:            eb 1d bf c0  ldd       [%l6 - 0x40], %d52
    0x100006160:            bb a7 49 50  fmuld     %d60, %d16, %d60
    0x100006164:            e9 1e 3f d0  ldd       [%i0 - 0x30], %d20
    0x100006168:            f1 1e 3f d8  ldd       [%i0 - 0x28], %d24
    0x10000616c:            ad a6 c8 df  fsubd     %d58, %d62, %d22
    0x100006170:            b7 a3 89 4a  fmuld     %d14, %d10, %d58
    0x100006174:            cd 1d bf d8  ldd       [%l6 - 0x28], %d6
    0x100006178:            ed 3e 3f b0  std       %d22, [%i0 - 0x50]
    0x10000617c:            a5 a5 c8 59  faddd     %d54, %d56, %d18
    0x100006180:            af a3 89 4c  fmuld     %d14, %d12, %d54
    0x100006184:            e5 3e 3f b8  std       %d18, [%i0 - 0x48]
    0x100006188:            bf a7 49 4c  fmuld     %d60, %d12, %d62
    0x10000618c:            b3 a7 49 4a  fmuld     %d60, %d10, %d56
    0x100006190:            d9 1d bf d0  ldd       [%l6 - 0x30], %d12
    0x100006194:            a5 a2 09 50  fmuld     %d8, %d16, %d18
    0x100006198:            ed 1e 3f e0  ldd       [%i0 - 0x20], %d22
    0x10000619c:            d5 1e 3f e8  ldd       [%i0 - 0x18], %d10
    0x1000061a0:            9d a6 c8 df  fsubd     %d58, %d62, %d14
    0x1000061a4:            b7 a5 49 54  fmuld     %d52, %d20, %d58
    0x1000061a8:            ff 1d bf e8  ldd       [%l6 - 0x18], %d62
    0x1000061ac:            dd 3e 3f c0  std       %d14, [%i0 - 0x40]
    0x1000061b0:            bb a5 c8 59  faddd     %d54, %d56, %d60
    0x1000061b4:            9d a5 49 58  fmuld     %d52, %d24, %d14
    0x1000061b8:            fb 3e 3f c8  std       %d60, [%i0 - 0x38]
    0x1000061bc:            b3 a4 89 58  fmuld     %d18, %d24, %d56
    0x1000061c0:            af a4 89 54  fmuld     %d18, %d20, %d54
    0x1000061c4:            e9 1d bf e0  ldd       [%l6 - 0x20], %d20
    0x1000061c8:            91 a1 89 50  fmuld     %d6, %d16, %d8
    0x1000061cc:            f1 1e 3f f0  ldd       [%i0 - 0x10], %d24
    0x1000061d0:            eb 1e 3f f8  ldd       [%i0 - 0x8], %d52
    0x1000061d4:            a5 a6 c8 d9  fsubd     %d58, %d56, %d18
    0x1000061d8:            b7 a3 09 56  fmuld     %d12, %d22, %d58
    0x1000061dc:            fb 1d bf f8  ldd       [%l6 - 0x8], %d60
    0x1000061e0:            e5 3e 3f d0  std       %d18, [%i0 - 0x30]
    0x1000061e4:            8d a3 88 57  faddd     %d14, %d54, %d6
    0x1000061e8:            af a3 09 4a  fmuld     %d12, %d10, %d54
    0x1000061ec:            cd 3e 3f d8  std       %d6, [%i0 - 0x28]
    0x1000061f0:            04 4f ff c6  ble,pt    %icc, -0xe8   <0x100006108>
    0x1000061f4:            b3 a2 09 4a  fmuld     %d8, %d10, %d56
    0x1000061f8:            9d a7 c9 50  fmuld     %d62, %d16, %d14
    0x1000061fc:            95 a7 49 50  fmuld     %d60, %d16, %d10
    0x100006200:            8d a0 00 50  fmovd     %d16, %d6
    0x100006204:            a1 a2 09 56  fmuld     %d8, %d22, %d16
    0x100006208:            d9 1e 20 00  ldd       [%i0], %d12
    0x10000620c:            ed 1e 20 08  ldd       [%i0 + 0x8], %d22
    0x100006210:            ff 1d bf f0  ldd       [%l6 - 0x10], %d62
    0x100006214:            a5 a6 c8 d9  fsubd     %d58, %d56, %d18
    0x100006218:            b3 a3 89 58  fmuld     %d14, %d24, %d56
    0x10000621c:            91 a5 c8 50  faddd     %d54, %d16, %d8
    0x100006220:            af a5 09 55  fmuld     %d20, %d52, %d54
    0x100006224:            a9 a5 09 58  fmuld     %d20, %d24, %d20
    0x100006228:            e5 3e 3f e0  std       %d18, [%i0 - 0x20]
    0x10000622c:            ab a3 89 55  fmuld     %d14, %d52, %d52
    0x100006230:            b1 a7 c9 56  fmuld     %d62, %d22, %d24
    0x100006234:            d1 3e 3f e8  std       %d8, [%i0 - 0x18]
    0x100006238:            a5 a7 c9 4c  fmuld     %d62, %d12, %d18
    0x10000623c:            bb a2 89 4c  fmuld     %d10, %d12, %d60
    0x100006240:            b7 a2 89 56  fmuld     %d10, %d22, %d58
    0x100006244:            a1 a5 c8 59  faddd     %d54, %d56, %d16
    0x100006248:            80 a5 40 10  cmp       %l5, %l0
    0x10000624c:            e1 3e 3f f8  std       %d16, [%i0 - 0x8]
    0x100006250:            9d a5 08 d5  fsubd     %d20, %d52, %d14
    0x100006254:            dd 3e 3f f0  std       %d14, [%i0 - 0x10]
    0x100006258:            91 a6 08 5d  faddd     %d24, %d60, %d8
    0x10000625c:            a8 05 20 06  add       %l4, 0x6, %l4
    0x100006260:            d1 3e 20 08  std       %d8, [%i0 + 0x8]
    0x100006264:            84 05 00 11  add       %l4, %l1, %g2
    0x100006268:            bf a4 88 db  fsubd     %d18, %d58, %d62
    0x10000626c:            ff 3e 20 00  std       %d62, [%i0]
    0x100006270:            14 40 00 1b  bg,pn     %icc, +0x6c   <0x1000062dc>
    0x100006274:            01 00 00 00  nop
    0x100006278:            aa 05 60 01  add       %l5, 0x1, %l5
    0x10000627c:            bb 38 a0 00  sra       %g2, 0x0, %i5
    0x100006280:            91 2f 70 03  sllx      %i5, 0x3, %o0
    0x100006284:            98 02 00 19  add       %o0, %i1, %o4
    0x100006288:            f7 1b 20 08  ldd       [%o4 + 0x8], %d58
    0x10000628c:            af 3d 20 00  sra       %l4, 0x0, %l7
    0x100006290:            97 2d f0 03  sllx      %l7, 0x3, %o3
    0x100006294:            b3 a6 c9 46  fmuld     %d58, %d6, %d56
    0x100006298:            9a 02 c0 1c  add       %o3, %i4, %o5
    0x10000629c:            f1 1b 60 08  ldd       [%o5 + 0x8], %d24
    0x1000062a0:            d1 1e 40 08  ldd       [%i1 + %o0], %d8
    0x1000062a4:            fb 1f 00 0b  ldd       [%i4 + %o3], %d60
    0x1000062a8:            80 a5 40 10  cmp       %l5, %l0
    0x1000062ac:            9d a6 49 58  fmuld     %d56, %d24, %d14
    0x1000062b0:            af a2 09 5d  fmuld     %d8, %d60, %d54
    0x1000062b4:            a5 a2 09 58  fmuld     %d8, %d24, %d18
    0x1000062b8:            99 a6 49 5d  fmuld     %d56, %d60, %d12
    0x1000062bc:            84 00 a0 02  add       %g2, 0x2, %g2
    0x1000062c0:            a8 05 20 02  add       %l4, 0x2, %l4
    0x1000062c4:            ab a5 c8 ce  fsubd     %d54, %d14, %d52
    0x1000062c8:            eb 3f 00 0b  std       %d52, [%i4 + %o3]
    0x1000062cc:            a1 a4 88 4c  faddd     %d18, %d12, %d16
    0x1000062d0:            e1 3b 60 08  std       %d16, [%o5 + 0x8]
    0x1000062d4:            04 4f ff ea  ble,pt    %icc, -0x58   <0x10000627c>
    0x1000062d8:            aa 05 60 01  add       %l5, 0x1, %l5
    0x1000062dc:            10 80 00 6a  ba        +0x1a8        <0x100006484>
    0x1000062e0:            a4 04 a0 01  add       %l2, 0x1, %l2
    0x1000062e4:            94 04 20 01  add       %l0, 0x1, %o2
    0x1000062e8:            80 a2 a0 04  cmp       %o2, 0x4
    0x1000062ec:            96 10 20 00  clr       %o3
    0x1000062f0:            9a 10 20 00  clr       %o5
    0x1000062f4:            88 10 00 11  mov       %l1, %g4
    0x1000062f8:            06 40 00 49  bl,pn     %icc, +0x124  <0x10000641c>
    0x1000062fc:            01 00 00 00  nop
    0x100006300:            91 3c 60 00  sra       %l1, 0x0, %o0
    0x100006304:            93 2a 30 03  sllx      %o0, 0x3, %o1
    0x100006308:            ae 10 00 1c  mov       %i4, %l7
    0x10000630c:            94 06 40 09  add       %i1, %o1, %o2
    0x100006310:            a1 a0 00 46  fmovd     %d6, %d16
    0x100006314:            98 24 20 03  sub       %l0, 0x3, %o4
    0x100006318:            c1 6a a0 a8  prefetch  [%o2 + 0xa8], #n_reads
    0x10000631c:            c1 6d e0 a8  prefetch  [%l7 + 0xa8], #n_reads
    0x100006320:            96 02 e0 04  add       %o3, 0x4, %o3
    0x100006324:            ae 05 e0 40  add       %l7, 0x40, %l7
    0x100006328:            ed 1a a0 08  ldd       [%o2 + 0x8], %d22
    0x10000632c:            80 a2 c0 0c  cmp       %o3, %o4
    0x100006330:            94 02 a0 40  add       %o2, 0x40, %o2
    0x100006334:            ff 1d ff c8  ldd       [%l7 - 0x38], %d62
    0x100006338:            b1 a5 89 50  fmuld     %d22, %d16, %d24
    0x10000633c:            9a 03 60 08  add       %o5, 0x8, %o5
    0x100006340:            d1 1a bf c0  ldd       [%o2 - 0x40], %d8
    0x100006344:            fb 1d ff c0  ldd       [%l7 - 0x40], %d60
    0x100006348:            ab a2 09 5f  fmuld     %d8, %d62, %d52
    0x10000634c:            b3 a2 09 5d  fmuld     %d8, %d60, %d56
    0x100006350:            a9 a6 09 5f  fmuld     %d24, %d62, %d20
    0x100006354:            a5 a6 09 5d  fmuld     %d24, %d60, %d18
    0x100006358:            b7 a6 48 d4  fsubd     %d56, %d20, %d58
    0x10000635c:            f7 3d ff c0  std       %d58, [%l7 - 0x40]
    0x100006360:            af a5 48 52  faddd     %d52, %d18, %d54
    0x100006364:            ef 3d ff c8  std       %d54, [%l7 - 0x38]
    0x100006368:            dd 1a bf d8  ldd       [%o2 - 0x28], %d14
    0x10000636c:            cd 1d ff d8  ldd       [%l7 - 0x28], %d6
    0x100006370:            ad a3 89 50  fmuld     %d14, %d16, %d22
    0x100006374:            d9 1a bf d0  ldd       [%o2 - 0x30], %d12
    0x100006378:            d5 1d ff d0  ldd       [%l7 - 0x30], %d10
    0x10000637c:            a9 a3 09 46  fmuld     %d12, %d6, %d20
    0x100006380:            bf a3 09 4a  fmuld     %d12, %d10, %d62
    0x100006384:            91 a5 89 46  fmuld     %d22, %d6, %d8
    0x100006388:            bb a5 89 4a  fmuld     %d22, %d10, %d60
    0x10000638c:            b1 a7 c8 c8  fsubd     %d62, %d8, %d24
    0x100006390:            f1 3d ff d0  std       %d24, [%l7 - 0x30]
    0x100006394:            b3 a5 08 5d  faddd     %d20, %d60, %d56
    0x100006398:            f3 3d ff d8  std       %d56, [%l7 - 0x28]
    0x10000639c:            f7 1a bf e8  ldd       [%o2 - 0x18], %d58
    0x1000063a0:            dd 1d ff e8  ldd       [%l7 - 0x18], %d14
    0x1000063a4:            8d a6 c9 50  fmuld     %d58, %d16, %d6
    0x1000063a8:            e5 1a bf e0  ldd       [%o2 - 0x20], %d18
    0x1000063ac:            d9 1d ff e0  ldd       [%l7 - 0x20], %d12
    0x1000063b0:            ab a4 89 4e  fmuld     %d18, %d14, %d52
    0x1000063b4:            af a4 89 4c  fmuld     %d18, %d12, %d54
    0x1000063b8:            95 a1 89 4e  fmuld     %d6, %d14, %d10
    0x1000063bc:            91 a1 89 4c  fmuld     %d6, %d12, %d8
    0x1000063c0:            ad a5 c8 ca  fsubd     %d54, %d10, %d22
    0x1000063c4:            ed 3d ff e0  std       %d22, [%l7 - 0x20]
    0x1000063c8:            bf a5 48 48  faddd     %d52, %d8, %d62
    0x1000063cc:            ff 3d ff e8  std       %d62, [%l7 - 0x18]
    0x1000063d0:            f1 1a bf f8  ldd       [%o2 - 0x8], %d24
    0x1000063d4:            fb 1d ff f8  ldd       [%l7 - 0x8], %d60
    0x1000063d8:            b3 a6 09 50  fmuld     %d24, %d16, %d56
    0x1000063dc:            e9 1a bf f0  ldd       [%o2 - 0x10], %d20
    0x1000063e0:            f7 1d ff f0  ldd       [%l7 - 0x10], %d58
    0x1000063e4:            95 a5 09 5d  fmuld     %d20, %d60, %d10
    0x1000063e8:            9d a5 09 5b  fmuld     %d20, %d58, %d14
    0x1000063ec:            a5 a6 49 5d  fmuld     %d56, %d60, %d18
    0x1000063f0:            8d a6 49 5b  fmuld     %d56, %d58, %d6
    0x1000063f4:            99 a3 88 d2  fsubd     %d14, %d18, %d12
    0x1000063f8:            d9 3d ff f0  std       %d12, [%l7 - 0x10]
    0x1000063fc:            af a2 88 46  faddd     %d10, %d6, %d54
    0x100006400:            04 4f ff c6  ble,pt    %icc, -0xe8   <0x100006318>
    0x100006404:            ef 3d ff f8  std       %d54, [%l7 - 0x8]
    0x100006408:            80 a2 c0 10  cmp       %o3, %l0
    0x10000640c:            88 03 40 11  add       %o5, %l1, %g4
    0x100006410:            8d a0 00 50  fmovd     %d16, %d6
    0x100006414:            14 40 00 1b  bg,pn     %icc, +0x6c   <0x100006480>
    0x100006418:            01 00 00 00  nop
    0x10000641c:            96 02 e0 01  add       %o3, 0x1, %o3
    0x100006420:            bb 39 20 00  sra       %g4, 0x0, %i5
    0x100006424:            91 2f 70 03  sllx      %i5, 0x3, %o0
    0x100006428:            98 02 00 19  add       %o0, %i1, %o4
    0x10000642c:            d1 1b 20 08  ldd       [%o4 + 0x8], %d8
    0x100006430:            af 3b 60 00  sra       %o5, 0x0, %l7
    0x100006434:            85 2d f0 03  sllx      %l7, 0x3, %g2
    0x100006438:            bb a2 09 46  fmuld     %d8, %d6, %d60
    0x10000643c:            a8 00 80 1c  add       %g2, %i4, %l4
    0x100006440:            d9 1e 40 08  ldd       [%i1 + %o0], %d12
    0x100006444:            dd 1d 20 08  ldd       [%l4 + 0x8], %d14
    0x100006448:            f7 18 80 1c  ldd       [%g2 + %i4], %d58
    0x10000644c:            80 a2 c0 10  cmp       %o3, %l0
    0x100006450:            af a7 49 4e  fmuld     %d60, %d14, %d54
    0x100006454:            ab a3 09 5b  fmuld     %d12, %d58, %d52
    0x100006458:            a9 a3 09 4e  fmuld     %d12, %d14, %d20
    0x10000645c:            a1 a7 49 5b  fmuld     %d60, %d58, %d16
    0x100006460:            88 01 20 02  add       %g4, 0x2, %g4
    0x100006464:            9a 03 60 02  add       %o5, 0x2, %o5
    0x100006468:            a5 a5 48 d7  fsubd     %d52, %d54, %d18
    0x10000646c:            e5 38 80 1c  std       %d18, [%g2 + %i4]
    0x100006470:            b1 a5 08 50  faddd     %d20, %d16, %d24
    0x100006474:            f1 3d 20 08  std       %d24, [%l4 + 0x8]
    0x100006478:            04 4f ff ea  ble,pt    %icc, -0x58   <0x100006420>
    0x10000647c:            96 02 e0 01  add       %o3, 0x1, %o3
    0x100006480:            a4 04 a0 01  add       %l2, 0x1, %l2
    0x100006484:            f0 03 a9 ff  ld        [%sp + 0x9ff], %i0
    0x100006488:            fa 5f a6 bf  ldx       [%fp + 0x6bf], %i5
    0x10000648c:            f8 03 a8 f7  ld        [%sp + 0x8f7], %i4
    0x100006490:            a2 04 40 18  add       %l1, %i0, %l1
    0x100006494:            f0 5b a9 f7  ldx       [%sp + 0x9f7], %i0
    0x100006498:            80 a4 80 1c  cmp       %l2, %i4
    0x10000649c:            90 07 40 18  add       %i5, %i0, %o0
    0x1000064a0:            d0 77 a6 bf  stx       %o0, [%fp + 0x6bf]
    0x1000064a4:            24 4f fd 10  ble,a,pt  %icc, -0xbc0  <0x1000058e4>
    0x1000064a8:            d4 03 a8 bf  ld        [%sp + 0x8bf], %o2
    0x1000064ac:            40 04 2a f5  call      +0x10abd4     <0x100111080>
    0x1000064b0:            d0 5b a8 af  ldx       [%sp + 0x8af], %o0
    0x1000064b4:            0a c2 07 b1  brnz,pn   %o0, +0x1ec4  <0x100008378>
    0x1000064b8:            01 00 00 00  nop
    0x1000064bc:            ca 5f a8 ff  ldx       [%fp + 0x8ff], %g5
    0x1000064c0:            de 59 60 48  ldx       [%g5 + 0x48], %o7
    0x1000064c4:            d4 5b a8 b7  ldx       [%sp + 0x8b7], %o2
    0x1000064c8:            e2 59 60 50  ldx       [%g5 + 0x50], %l1
    0x1000064cc:            b2 03 e0 01  add       %o7, 0x1, %i1
    0x1000064d0:            80 a6 40 0a  cmp       %i1, %o2
    0x1000064d4:            02 60 00 1a  be,pn     %xcc, +0x68   <0x10000653c>
    0x1000064d8:            f2 71 60 48  stx       %i1, [%g5 + 0x48]
    0x1000064dc:            90 10 20 01  mov       0x1, %o0
    0x1000064e0:            40 04 2a f8  call      +0x10abe0     <0x1001110c0>
    0x1000064e4:            92 07 a7 77  add       %fp, 0x777, %o1
    0x1000064e8:            d6 5f a8 ff  ldx       [%fp + 0x8ff], %o3
    0x1000064ec:            ea 5a e0 50  ldx       [%o3 + 0x50], %l5
    0x1000064f0:            80 a4 40 15  cmp       %l1, %l5
    0x1000064f4:            12 60 00 0c  bne,pn    %xcc, +0x30   <0x100006524>
    0x1000064f8:            a6 10 00 0b  mov       %o3, %l3
    0x1000064fc:            a4 02 e0 38  add       %o3, 0x38, %l2
    0x100006500:            90 10 00 12  mov       %l2, %o0
    0x100006504:            40 04 2a f7  call      +0x10abdc     <0x1001110e0>
    0x100006508:            d2 5b a8 af  ldx       [%sp + 0x8af], %o1
    0x10000650c:            0a c2 00 06  brnz,pn   %o0, +0x18    <0x100006524>
    0x100006510:            01 00 00 00  nop
    0x100006514:            f8 5c e0 50  ldx       [%l3 + 0x50], %i4
    0x100006518:            80 a4 40 1c  cmp       %l1, %i4
    0x10000651c:            02 6f ff fa  be,pt     %xcc, -0x18   <0x100006504>
    0x100006520:            90 10 00 12  mov       %l2, %o0
    0x100006524:            92 07 a7 6f  add       %fp, 0x76f, %o1
    0x100006528:            da 07 a7 7b  ld        [%fp + 0x77b], %o5
    0x10000652c:            40 04 2a e5  call      +0x10ab94     <0x1001110c0>
    0x100006530:            91 3b 60 00  sra       %o5, 0x0, %o0
    0x100006534:            10 80 00 08  ba        +0x20         <0x100006554>
    0x100006538:            01 00 00 00  nop
    0x10000653c:            a6 10 20 00  clr       %l3
    0x100006540:            a7 7c 64 01  movre     %l1, 0x1, %l3
    0x100006544:            e6 71 60 50  stx       %l3, [%g5 + 0x50]
    0x100006548:            90 01 60 38  add       %g5, 0x38, %o0
    0x10000654c:            40 04 2a ed  call      +0x10abb4     <0x100111100>
    0x100006550:            c0 71 60 48  clrx      [%g5 + 0x48]
    0x100006554:            40 04 2a d3  call      +0x10ab4c     <0x1001110a0>
    0x100006558:            d0 5b a8 af  ldx       [%sp + 0x8af], %o0
    0x10000655c:            de 03 a8 db  ld        [%sp + 0x8db], %o7
    0x100006560:            80 a3 e0 00  cmp       %o7, 0x0
    0x100006564:            02 40 00 05  be,pn     %icc, +0x14   <0x100006578>
    0x100006568:            ee 03 a8 d7  ld        [%sp + 0x8d7], %l7
    0x10000656c:            80 a5 e0 00  cmp       %l7, 0x0
    0x100006570:            22 48 00 11  be,a,pt   %icc, +0x44   <0x1000065b4>
    0x100006574:            f2 03 a8 ff  ld        [%sp + 0x8ff], %i1
    0x100006578:            92 10 20 00  clr       %o1
    0x10000657c:            40 04 2a 59  call      +0x10a964     <0x100110ee0>
    0x100006580:            90 07 a7 5f  add       %fp, 0x75f, %o0
    0x100006584:            d2 5f a7 5f  ldx       [%fp + 0x75f], %o1
    0x100006588:            c6 5f a7 67  ldx       [%fp + 0x767], %g3
    0x10000658c:            f2 03 a8 ff  ld        [%sp + 0x8ff], %i1
    0x100006590:            91 2a 70 05  sllx      %o1, 0x5, %o0
    0x100006594:            98 22 40 08  sub       %o1, %o0, %o4
    0x100006598:            a1 2b 30 09  sllx      %o4, 0x9, %l0
    0x10000659c:            94 24 00 09  sub       %l0, %o1, %o2
    0x1000065a0:            97 2a b0 06  sllx      %o2, 0x6, %o3
    0x1000065a4:            ac 22 c0 0a  sub       %o3, %o2, %l6
    0x1000065a8:            b0 22 40 16  sub       %o1, %l6, %i0
    0x1000065ac:            88 00 c0 18  add       %g3, %i0, %g4
    0x1000065b0:            c8 77 a7 8f  stx       %g4, [%fp + 0x78f]
    0x1000065b4:            81 86 60 00  wr        %i1, 0x0, %y
    0x1000065b8:            f8 5b a9 07  ldx       [%sp + 0x907], %i4
    0x1000065bc:            ec 03 a9 03  ld        [%sp + 0x903], %l6
    0x1000065c0:            ca 07 24 ec  ld        [%i4 + 0x4ec], %g5
    0x1000065c4:            ba fd 80 05  sdivcc    %l6, %g5, %i5
    0x1000065c8:            2e 48 00 02  bvs,a,pt  %icc, +0x8    <0x1000065d0>
    0x1000065cc:            3b 20 00 00  sethi     %hi(0x80000000), %i5
    0x1000065d0:            a8 4f 40 05  mulx      %i5, %g5, %l4
    0x1000065d4:            80 a5 00 16  cmp       %l4, %l6
    0x1000065d8:            02 40 00 04  be,pn     %icc, +0x10   <0x1000065e8>
    0x1000065dc:            fa 27 a6 f3  st        %i5, [%fp + 0x6f3]
    0x1000065e0:            a8 07 60 01  add       %i5, 0x1, %l4
    0x1000065e4:            e8 27 a6 f3  st        %l4, [%fp + 0x6f3]
    0x1000065e8:            ca 03 a9 1b  ld        [%sp + 0x91b], %g5
    0x1000065ec:            e6 07 a6 f3  ld        [%fp + 0x6f3], %l3
    0x1000065f0:            c8 03 a8 fb  ld        [%sp + 0x8fb], %g4
    0x1000065f4:            81 81 60 00  wr        %g5, 0x0, %y
    0x1000065f8:            ba f9 00 13  sdivcc    %g4, %l3, %i5
    0x1000065fc:            1e 40 00 03  bvc,pn    %icc, +0xc    <0x100006608>
    0x100006600:            c6 03 a9 1f  ld        [%sp + 0x91f], %g3
    0x100006604:            3b 20 00 00  sethi     %hi(0x80000000), %i5
    0x100006608:            81 80 e0 00  wr        %g3, 0x0, %y
    0x10000660c:            c4 5b a9 0f  ldx       [%sp + 0x90f], %g2
    0x100006610:            f0 03 a8 bf  ld        [%sp + 0x8bf], %i0
    0x100006614:            c6 00 a4 78  ld        [%g2 + 0x478], %g3
    0x100006618:            ae fe 00 03  sdivcc    %i0, %g3, %l7
    0x10000661c:            1e 40 00 03  bvc,pn    %icc, +0xc    <0x100006628>
    0x100006620:            a9 38 e0 00  sra       %g3, 0x0, %l4
    0x100006624:            2f 20 00 00  sethi     %hi(0x80000000), %l7
    0x100006628:            93 3c e0 00  sra       %l3, 0x0, %o1
    0x10000662c:            88 20 00 09  neg       %o1, %g4
    0x100006630:            a1 31 30 3f  srlx      %g4, 0x3f, %l0
    0x100006634:            ec 5b a9 27  ldx       [%sp + 0x927], %l6
    0x100006638:            e0 23 a9 57  st        %l0, [%sp + 0x957]
    0x10000663c:            ee 23 a9 4f  st        %l7, [%sp + 0x94f]
    0x100006640:            94 25 80 14  sub       %l6, %l4, %o2
    0x100006644:            8b 32 b0 3f  srlx      %o2, 0x3f, %g5
    0x100006648:            80 8c 00 05  btst      %g5, %l0
    0x10000664c:            02 40 00 a1  be,pn     %icc, +0x284  <0x1000068d0>
    0x100006650:            a0 04 ff ff  add       %l3, -0x1, %l0
    0x100006654:            c8 5b a9 27  ldx       [%sp + 0x927], %g4
    0x100006658:            c4 03 a8 c7  ld        [%sp + 0x8c7], %g2
    0x10000665c:            f0 03 a8 f3  ld        [%sp + 0x8f3], %i0
    0x100006660:            f0 23 a9 97  st        %i0, [%sp + 0x997]
    0x100006664:            a4 00 ff ff  add       %g3, -0x1, %l2
    0x100006668:            e4 23 a9 93  st        %l2, [%sp + 0x993]
    0x10000666c:            a5 3d e0 00  sra       %l7, 0x0, %l2
    0x100006670:            86 49 00 12  mulx      %g4, %l2, %g3
    0x100006674:            b9 28 e0 01  sll       %g3, 0x1, %i4
    0x100006678:            c6 03 a8 df  ld        [%sp + 0x8df], %g3
    0x10000667c:            ac 10 00 17  mov       %l7, %l6
    0x100006680:            af 28 a0 01  sll       %g2, 0x1, %l7
    0x100006684:            b3 38 e0 00  sra       %g3, 0x0, %i1
    0x100006688:            a8 4e 40 12  mulx      %i1, %l2, %l4
    0x10000668c:            8b 2d 20 01  sll       %l4, 0x1, %g5
    0x100006690:            90 49 00 05  mulx      %g4, %g5, %o0
    0x100006694:            a5 28 e0 01  sll       %g3, 0x1, %l2
    0x100006698:            88 48 80 12  mulx      %g2, %l2, %g4
    0x10000669c:            a6 4f 40 12  mulx      %i5, %l2, %l3
    0x1000066a0:            a2 07 00 04  add       %i4, %g4, %l1
    0x1000066a4:            aa 02 00 17  add       %o0, %l7, %l5
    0x1000066a8:            93 34 60 00  srl       %l1, 0x0, %o1
    0x1000066ac:            95 2d 70 20  sllx      %l5, 0x20, %o2
    0x1000066b0:            ca 23 a9 8f  st        %g5, [%sp + 0x98f]
    0x1000066b4:            98 12 80 09  or        %o2, %o1, %o4
    0x1000066b8:            b3 2d a0 01  sll       %l6, 0x1, %i1
    0x1000066bc:            d8 77 a6 b7  stx       %o4, [%fp + 0x6b7]
    0x1000066c0:            ca 07 a6 b7  ld        [%fp + 0x6b7], %g5
    0x1000066c4:            a8 07 7f ff  add       %i5, -0x1, %l4
    0x1000066c8:            f2 23 a9 8b  st        %i1, [%sp + 0x98b]
    0x1000066cc:            a3 2f 60 01  sll       %i5, 0x1, %l1
    0x1000066d0:            c0 23 a9 cb  clr       [%sp + 0x9cb]
    0x1000066d4:            c4 07 a6 bb  ld        [%fp + 0x6bb], %g2
    0x1000066d8:            c4 23 a9 e3  st        %g2, [%sp + 0x9e3]
    0x1000066dc:            94 10 20 00  clr       %o2
    0x1000066e0:            92 10 00 05  mov       %g5, %o1
    0x1000066e4:            d0 03 a9 e3  ld        [%sp + 0x9e3], %o0
    0x1000066e8:            80 a7 60 00  cmp       %i5, 0x0
    0x1000066ec:            04 40 00 58  ble,pn    %icc, +0x160  <0x10000684c>
    0x1000066f0:            9a 10 20 00  clr       %o5
    0x1000066f4:            98 10 00 08  mov       %o0, %o4
    0x1000066f8:            96 10 00 09  mov       %o1, %o3
    0x1000066fc:            86 10 20 00  clr       %g3
    0x100006700:            80 a7 60 05  cmp       %i5, 0x5
    0x100006704:            84 10 00 0b  mov       %o3, %g2
    0x100006708:            ae 10 00 0c  mov       %o4, %l7
    0x10000670c:            06 40 00 3a  bl,pn     %icc, +0xe8   <0x1000067f4>
    0x100006710:            01 00 00 00  nop
    0x100006714:            b3 3c a0 00  sra       %l2, 0x0, %i1
    0x100006718:            ab 2e 70 03  sllx      %i1, 0x3, %l5
    0x10000671c:            b8 4d 60 05  mulx      %l5, 0x5, %i4
    0x100006720:            89 3a e0 00  sra       %o3, 0x0, %g4
    0x100006724:            9f 29 30 03  sllx      %g4, 0x3, %o7
    0x100006728:            b0 06 80 0f  add       %i2, %o7, %i0
    0x10000672c:            ad 3b 20 00  sra       %o4, 0x0, %l6
    0x100006730:            88 06 20 10  add       %i0, 0x10, %g4
    0x100006734:            b2 10 00 1c  mov       %i4, %i1
    0x100006738:            86 10 20 01  mov       0x1, %g3
    0x10000673c:            b8 07 20 08  add       %i4, 0x8, %i4
    0x100006740:            cd 1e 80 0f  ldd       [%i2 + %o7], %d6
    0x100006744:            9f 2d b0 03  sllx      %l6, 0x3, %o7
    0x100006748:            cd 3b c0 1b  std       %d6, [%o7 + %i3]
    0x10000674c:            b0 06 c0 0f  add       %i3, %o7, %i0
    0x100006750:            ac 06 00 15  add       %i0, %l5, %l6
    0x100006754:            eb 19 3f f8  ldd       [%g4 - 0x8], %d52
    0x100006758:            ae 03 00 12  add       %o4, %l2, %l7
    0x10000675c:            eb 3e 20 08  std       %d52, [%i0 + 0x8]
    0x100006760:            b0 07 7f fc  add       %i5, -0x4, %i0
    0x100006764:            ed 6d 80 19  prefetch  [%l6 + %i1], #n_writes_strong
    0x100006768:            c1 69 20 58  prefetch  [%g4 + 0x58], #n_reads
    0x10000676c:            86 00 e0 04  add       %g3, 0x4, %g3
    0x100006770:            e9 19 20 00  ldd       [%g4], %d20
    0x100006774:            88 01 20 40  add       %g4, 0x40, %g4
    0x100006778:            80 a0 c0 18  cmp       %g3, %i0
    0x10000677c:            84 00 a0 08  add       %g2, 0x8, %g2
    0x100006780:            e9 3d a0 00  std       %d20, [%l6]
    0x100006784:            d5 19 3f c8  ldd       [%g4 - 0x38], %d10
    0x100006788:            ae 05 c0 12  add       %l7, %l2, %l7
    0x10000678c:            d5 3d a0 08  std       %d10, [%l6 + 0x8]
    0x100006790:            ac 05 80 15  add       %l6, %l5, %l6
    0x100006794:            e5 19 3f d0  ldd       [%g4 - 0x30], %d18
    0x100006798:            e5 3d a0 00  std       %d18, [%l6]
    0x10000679c:            d1 19 3f d8  ldd       [%g4 - 0x28], %d8
    0x1000067a0:            9e 05 c0 12  add       %l7, %l2, %o7
    0x1000067a4:            d1 3d a0 08  std       %d8, [%l6 + 0x8]
    0x1000067a8:            ae 05 80 15  add       %l6, %l5, %l7
    0x1000067ac:            ed 6d c0 1c  prefetch  [%l7 + %i4], #n_writes_strong
    0x1000067b0:            e1 19 3f e0  ldd       [%g4 - 0x20], %d16
    0x1000067b4:            e1 3d 40 16  std       %d16, [%l5 + %l6]
    0x1000067b8:            ff 19 3f e8  ldd       [%g4 - 0x18], %d62
    0x1000067bc:            9e 03 c0 12  add       %o7, %l2, %o7
    0x1000067c0:            ff 3d e0 08  std       %d62, [%l7 + 0x8]
    0x1000067c4:            ac 05 c0 15  add       %l7, %l5, %l6
    0x1000067c8:            f1 19 3f f0  ldd       [%g4 - 0x10], %d24
    0x1000067cc:            f1 3d 40 17  std       %d24, [%l5 + %l7]
    0x1000067d0:            ed 19 3f f8  ldd       [%g4 - 0x8], %d22
    0x1000067d4:            ae 03 c0 12  add       %o7, %l2, %l7
    0x1000067d8:            ed 3d a0 08  std       %d22, [%l6 + 0x8]
    0x1000067dc:            04 4f ff e2  ble,pt    %icc, -0x78   <0x100006764>
    0x1000067e0:            ac 05 80 15  add       %l6, %l5, %l6
    0x1000067e4:            80 a0 c0 14  cmp       %g3, %l4
    0x1000067e8:            84 00 a0 02  add       %g2, 0x2, %g2
    0x1000067ec:            14 40 00 12  bg,pn     %icc, +0x48   <0x100006834>
    0x1000067f0:            01 00 00 00  nop
    0x1000067f4:            86 00 e0 01  add       %g3, 0x1, %g3
    0x1000067f8:            9f 38 a0 00  sra       %g2, 0x0, %o7
    0x1000067fc:            ab 2b f0 03  sllx      %o7, 0x3, %l5
    0x100006800:            b9 3d e0 00  sra       %l7, 0x0, %i4
    0x100006804:            b3 2f 30 03  sllx      %i4, 0x3, %i1
    0x100006808:            ac 05 40 1a  add       %l5, %i2, %l6
    0x10000680c:            ed 1e 80 15  ldd       [%i2 + %l5], %d22
    0x100006810:            b0 06 40 1b  add       %i1, %i3, %i0
    0x100006814:            ed 3e c0 19  std       %d22, [%i3 + %i1]
    0x100006818:            80 a0 c0 14  cmp       %g3, %l4
    0x10000681c:            d5 1d a0 08  ldd       [%l6 + 0x8], %d10
    0x100006820:            84 00 a0 02  add       %g2, 0x2, %g2
    0x100006824:            ae 05 c0 12  add       %l7, %l2, %l7
    0x100006828:            d5 3e 20 08  std       %d10, [%i0 + 0x8]
    0x10000682c:            04 4f ff f3  ble,pt    %icc, -0x34   <0x1000067f8>
    0x100006830:            86 00 e0 01  add       %g3, 0x1, %g3
    0x100006834:            9a 03 60 01  add       %o5, 0x1, %o5
    0x100006838:            80 a3 40 14  cmp       %o5, %l4
    0x10000683c:            96 02 c0 12  add       %o3, %l2, %o3
    0x100006840:            98 03 20 02  add       %o4, 0x2, %o4
    0x100006844:            04 4f ff af  ble,pt    %icc, -0x144  <0x100006700>
    0x100006848:            86 10 20 00  clr       %g3
    0x10000684c:            94 02 a0 01  add       %o2, 0x1, %o2
    0x100006850:            80 a2 80 10  cmp       %o2, %l0
    0x100006854:            90 02 00 13  add       %o0, %l3, %o0
    0x100006858:            92 02 40 11  add       %o1, %l1, %o1
    0x10000685c:            04 4f ff a4  ble,pt    %icc, -0x170  <0x1000066ec>
    0x100006860:            80 a7 60 00  cmp       %i5, 0x0
    0x100006864:            f8 03 a9 cb  ld        [%sp + 0x9cb], %i4
    0x100006868:            8a 01 40 13  add       %g5, %l3, %g5
    0x10000686c:            d2 03 a9 e3  ld        [%sp + 0x9e3], %o1
    0x100006870:            90 07 20 01  add       %i4, 0x1, %o0
    0x100006874:            d0 23 a9 cb  st        %o0, [%sp + 0x9cb]
    0x100006878:            80 a2 00 10  cmp       %o0, %l0
    0x10000687c:            90 02 40 11  add       %o1, %l1, %o0
    0x100006880:            d0 23 a9 e3  st        %o0, [%sp + 0x9e3]
    0x100006884:            04 4f ff 97  ble,pt    %icc, -0x1a4  <0x1000066e0>
    0x100006888:            94 10 20 00  clr       %o2
    0x10000688c:            d2 07 a6 b7  ld        [%fp + 0x6b7], %o1
    0x100006890:            d4 07 a6 bb  ld        [%fp + 0x6bb], %o2
    0x100006894:            ca 03 a9 8b  ld        [%sp + 0x98b], %g5
    0x100006898:            d0 03 a9 8f  ld        [%sp + 0x98f], %o0
    0x10000689c:            c8 03 a9 97  ld        [%sp + 0x997], %g4
    0x1000068a0:            9a 02 80 05  add       %o2, %g5, %o5
    0x1000068a4:            aa 02 40 08  add       %o1, %o0, %l5
    0x1000068a8:            c6 03 a9 93  ld        [%sp + 0x993], %g3
    0x1000068ac:            8b 2d 70 20  sllx      %l5, 0x20, %g5
    0x1000068b0:            9f 33 60 00  srl       %o5, 0x0, %o7
    0x1000068b4:            ae 11 40 0f  or        %g5, %o7, %l7
    0x1000068b8:            ee 77 a6 b7  stx       %l7, [%fp + 0x6b7]
    0x1000068bc:            84 01 20 01  add       %g4, 0x1, %g2
    0x1000068c0:            c4 23 a9 97  st        %g2, [%sp + 0x997]
    0x1000068c4:            80 a0 80 03  cmp       %g2, %g3
    0x1000068c8:            24 4f ff 82  ble,a,pt  %icc, -0x1f8  <0x1000066d0>
    0x1000068cc:            ca 07 a6 b7  ld        [%fp + 0x6b7], %g5
    0x1000068d0:            e4 03 a9 17  ld        [%sp + 0x917], %l2
    0x1000068d4:            e8 03 a9 57  ld        [%sp + 0x957], %l4
    0x1000068d8:            80 8d 00 12  btst      %l2, %l4
    0x1000068dc:            02 40 00 97  be,pn     %icc, +0x25c  <0x100006b38>
    0x1000068e0:            d6 03 a8 df  ld        [%sp + 0x8df], %o3
    0x1000068e4:            d2 03 a8 c7  ld        [%sp + 0x8c7], %o1
    0x1000068e8:            f8 03 a9 4f  ld        [%sp + 0x94f], %i4
    0x1000068ec:            c0 23 a9 87  clr       [%sp + 0x987]
    0x1000068f0:            a3 2a e0 01  sll       %o3, 0x1, %l1
    0x1000068f4:            98 4a 40 11  mulx      %o1, %l1, %o4
    0x1000068f8:            a4 4f 40 11  mulx      %i5, %l1, %l2
    0x1000068fc:            85 3f 20 00  sra       %i4, 0x0, %g2
    0x100006900:            97 3a e0 00  sra       %o3, 0x0, %o3
    0x100006904:            8a 4a c0 02  mulx      %o3, %g2, %g5
    0x100006908:            ad 2a 60 01  sll       %o1, 0x1, %l6
    0x10000690c:            9f 33 20 00  srl       %o4, 0x0, %o7
    0x100006910:            b1 2d b0 20  sllx      %l6, 0x20, %i0
    0x100006914:            9a 16 00 0f  or        %i0, %o7, %o5
    0x100006918:            da 77 a6 af  stx       %o5, [%fp + 0x6af]
    0x10000691c:            95 29 60 01  sll       %g5, 0x1, %o2
    0x100006920:            91 2f 20 01  sll       %i4, 0x1, %o0
    0x100006924:            d4 23 a9 7f  st        %o2, [%sp + 0x97f]
    0x100006928:            ca 07 a6 af  ld        [%fp + 0x6af], %g5
    0x10000692c:            a6 07 7f ff  add       %i5, -0x1, %l3
    0x100006930:            d0 23 a9 83  st        %o0, [%sp + 0x983]
    0x100006934:            a9 2f 60 01  sll       %i5, 0x1, %l4
    0x100006938:            c0 23 a9 cf  clr       [%sp + 0x9cf]
    0x10000693c:            f2 07 a6 b3  ld        [%fp + 0x6b3], %i1
    0x100006940:            f2 23 a9 db  st        %i1, [%sp + 0x9db]
    0x100006944:            94 10 20 00  clr       %o2
    0x100006948:            92 10 00 05  mov       %g5, %o1
    0x10000694c:            c8 03 a9 db  ld        [%sp + 0x9db], %g4
    0x100006950:            80 a7 60 00  cmp       %i5, 0x0
    0x100006954:            04 40 00 58  ble,pn    %icc, +0x160  <0x100006ab4>
    0x100006958:            96 10 20 00  clr       %o3
    0x10000695c:            98 10 00 04  mov       %g4, %o4
    0x100006960:            90 10 00 09  mov       %o1, %o0
    0x100006964:            86 10 20 00  clr       %g3
    0x100006968:            80 a7 60 05  cmp       %i5, 0x5
    0x10000696c:            ae 10 00 08  mov       %o0, %l7
    0x100006970:            9e 10 00 0c  mov       %o4, %o7
    0x100006974:            06 40 00 3a  bl,pn     %icc, +0xe8   <0x100006a5c>
    0x100006978:            01 00 00 00  nop
    0x10000697c:            ab 3c 60 00  sra       %l1, 0x0, %l5
    0x100006980:            ab 2d 70 03  sllx      %l5, 0x3, %l5
    0x100006984:            b2 4d 60 05  mulx      %l5, 0x5, %i1
    0x100006988:            ad 3a 20 00  sra       %o0, 0x0, %l6
    0x10000698c:            85 2d b0 03  sllx      %l6, 0x3, %g2
    0x100006990:            b9 3b 20 00  sra       %o4, 0x0, %i4
    0x100006994:            ad 2f 30 03  sllx      %i4, 0x3, %l6
    0x100006998:            9a 06 80 02  add       %i2, %g2, %o5
    0x10000699c:            b0 10 00 19  mov       %i1, %i0
    0x1000069a0:            86 10 20 01  mov       0x1, %g3
    0x1000069a4:            b2 06 60 08  add       %i1, 0x8, %i1
    0x1000069a8:            e5 1e 80 02  ldd       [%i2 + %g2], %d18
    0x1000069ac:            84 03 60 10  add       %o5, 0x10, %g2
    0x1000069b0:            e5 3d 80 1b  std       %d18, [%l6 + %i3]
    0x1000069b4:            9a 06 c0 16  add       %i3, %l6, %o5
    0x1000069b8:            9e 03 00 11  add       %o4, %l1, %o7
    0x1000069bc:            e1 18 bf f8  ldd       [%g2 - 0x8], %d16
    0x1000069c0:            b8 03 40 15  add       %o5, %l5, %i4
    0x1000069c4:            e1 3b 60 08  std       %d16, [%o5 + 0x8]
    0x1000069c8:            ac 07 7f fc  add       %i5, -0x4, %l6
    0x1000069cc:            ed 6f 00 18  prefetch  [%i4 + %i0], #n_writes_strong
    0x1000069d0:            c1 68 a0 58  prefetch  [%g2 + 0x58], #n_reads
    0x1000069d4:            86 00 e0 04  add       %g3, 0x4, %g3
    0x1000069d8:            e9 18 a0 00  ldd       [%g2], %d20
    0x1000069dc:            84 00 a0 40  add       %g2, 0x40, %g2
    0x1000069e0:            80 a0 c0 16  cmp       %g3, %l6
    0x1000069e4:            ae 05 e0 08  add       %l7, 0x8, %l7
    0x1000069e8:            e9 3f 20 00  std       %d20, [%i4]
    0x1000069ec:            d5 18 bf c8  ldd       [%g2 - 0x38], %d10
    0x1000069f0:            9e 03 c0 11  add       %o7, %l1, %o7
    0x1000069f4:            d5 3f 20 08  std       %d10, [%i4 + 0x8]
    0x1000069f8:            b8 07 00 15  add       %i4, %l5, %i4
    0x1000069fc:            d1 18 bf d0  ldd       [%g2 - 0x30], %d8
    0x100006a00:            d1 3f 20 00  std       %d8, [%i4]
    0x100006a04:            fb 18 bf d8  ldd       [%g2 - 0x28], %d60
    0x100006a08:            9a 03 c0 11  add       %o7, %l1, %o5
    0x100006a0c:            fb 3f 20 08  std       %d60, [%i4 + 0x8]
    0x100006a10:            b8 07 00 15  add       %i4, %l5, %i4
    0x100006a14:            ed 6f 00 19  prefetch  [%i4 + %i1], #n_writes_strong
    0x100006a18:            eb 18 bf e0  ldd       [%g2 - 0x20], %d52
    0x100006a1c:            eb 3f 20 00  std       %d52, [%i4]
    0x100006a20:            dd 18 bf e8  ldd       [%g2 - 0x18], %d14
    0x100006a24:            9e 03 40 11  add       %o5, %l1, %o7
    0x100006a28:            dd 3f 20 08  std       %d14, [%i4 + 0x8]
    0x100006a2c:            9a 07 00 15  add       %i4, %l5, %o5
    0x100006a30:            cd 18 bf f0  ldd       [%g2 - 0x10], %d6
    0x100006a34:            cd 3d 40 1c  std       %d6, [%l5 + %i4]
    0x100006a38:            d9 18 bf f8  ldd       [%g2 - 0x8], %d12
    0x100006a3c:            9e 03 c0 11  add       %o7, %l1, %o7
    0x100006a40:            d9 3b 60 08  std       %d12, [%o5 + 0x8]
    0x100006a44:            04 4f ff e2  ble,pt    %icc, -0x78   <0x1000069cc>
    0x100006a48:            b8 03 40 15  add       %o5, %l5, %i4
    0x100006a4c:            80 a0 c0 13  cmp       %g3, %l3
    0x100006a50:            ae 05 e0 02  add       %l7, 0x2, %l7
    0x100006a54:            14 40 00 12  bg,pn     %icc, +0x48   <0x100006a9c>
    0x100006a58:            01 00 00 00  nop
    0x100006a5c:            86 00 e0 01  add       %g3, 0x1, %g3
    0x100006a60:            ab 3d e0 00  sra       %l7, 0x0, %l5
    0x100006a64:            9b 2d 70 03  sllx      %l5, 0x3, %o5
    0x100006a68:            ad 3b e0 00  sra       %o7, 0x0, %l6
    0x100006a6c:            b3 2d b0 03  sllx      %l6, 0x3, %i1
    0x100006a70:            84 03 40 1a  add       %o5, %i2, %g2
    0x100006a74:            e9 1e 80 0d  ldd       [%i2 + %o5], %d20
    0x100006a78:            b0 06 40 1b  add       %i1, %i3, %i0
    0x100006a7c:            e9 3e c0 19  std       %d20, [%i3 + %i1]
    0x100006a80:            80 a0 c0 13  cmp       %g3, %l3
    0x100006a84:            ff 18 a0 08  ldd       [%g2 + 0x8], %d62
    0x100006a88:            ae 05 e0 02  add       %l7, 0x2, %l7
    0x100006a8c:            9e 03 c0 11  add       %o7, %l1, %o7
    0x100006a90:            ff 3e 20 08  std       %d62, [%i0 + 0x8]
    0x100006a94:            04 4f ff f3  ble,pt    %icc, -0x34   <0x100006a60>
    0x100006a98:            86 00 e0 01  add       %g3, 0x1, %g3
    0x100006a9c:            96 02 e0 01  add       %o3, 0x1, %o3
    0x100006aa0:            80 a2 c0 13  cmp       %o3, %l3
    0x100006aa4:            90 02 00 11  add       %o0, %l1, %o0
    0x100006aa8:            98 03 20 02  add       %o4, 0x2, %o4
    0x100006aac:            04 4f ff af  ble,pt    %icc, -0x144  <0x100006968>
    0x100006ab0:            86 10 20 00  clr       %g3
    0x100006ab4:            94 02 a0 01  add       %o2, 0x1, %o2
    0x100006ab8:            80 a2 80 10  cmp       %o2, %l0
    0x100006abc:            88 01 00 12  add       %g4, %l2, %g4
    0x100006ac0:            92 02 40 14  add       %o1, %l4, %o1
    0x100006ac4:            04 4f ff a4  ble,pt    %icc, -0x170  <0x100006954>
    0x100006ac8:            80 a7 60 00  cmp       %i5, 0x0
    0x100006acc:            d6 03 a9 cf  ld        [%sp + 0x9cf], %o3
    0x100006ad0:            8a 01 40 12  add       %g5, %l2, %g5
    0x100006ad4:            94 02 e0 01  add       %o3, 0x1, %o2
    0x100006ad8:            d6 03 a9 db  ld        [%sp + 0x9db], %o3
    0x100006adc:            d4 23 a9 cf  st        %o2, [%sp + 0x9cf]
    0x100006ae0:            80 a2 80 10  cmp       %o2, %l0
    0x100006ae4:            94 02 c0 14  add       %o3, %l4, %o2
    0x100006ae8:            d4 23 a9 db  st        %o2, [%sp + 0x9db]
    0x100006aec:            04 4f ff 97  ble,pt    %icc, -0x1a4  <0x100006948>
    0x100006af0:            94 10 20 00  clr       %o2
    0x100006af4:            ee 07 a6 af  ld        [%fp + 0x6af], %l7
    0x100006af8:            ea 07 a6 b3  ld        [%fp + 0x6b3], %l5
    0x100006afc:            f2 03 a9 83  ld        [%sp + 0x983], %i1
    0x100006b00:            de 03 a9 7f  ld        [%sp + 0x97f], %o7
    0x100006b04:            da 03 a9 87  ld        [%sp + 0x987], %o5
    0x100006b08:            b2 05 40 19  add       %l5, %i1, %i1
    0x100006b0c:            b0 05 c0 0f  add       %l7, %o7, %i0
    0x100006b10:            d8 03 a8 ef  ld        [%sp + 0x8ef], %o4
    0x100006b14:            87 36 60 00  srl       %i1, 0x0, %g3
    0x100006b18:            b9 2e 30 20  sllx      %i0, 0x20, %i4
    0x100006b1c:            96 03 60 01  add       %o5, 0x1, %o3
    0x100006b20:            d6 23 a9 87  st        %o3, [%sp + 0x987]
    0x100006b24:            84 17 00 03  or        %i4, %g3, %g2
    0x100006b28:            c4 77 a6 af  stx       %g2, [%fp + 0x6af]
    0x100006b2c:            80 a2 c0 0c  cmp       %o3, %o4
    0x100006b30:            24 4f ff 82  ble,a,pt  %icc, -0x1f8  <0x100006938>
    0x100006b34:            ca 07 a6 af  ld        [%fp + 0x6af], %g5
    0x100006b38:            f2 07 a6 f3  ld        [%fp + 0x6f3], %i1
    0x100006b3c:            80 90 00 19  tst       %i1
    0x100006b40:            04 40 00 82  ble,pn    %icc, +0x208  <0x100006d48>
    0x100006b44:            e2 03 a9 4f  ld        [%sp + 0x94f], %l1
    0x100006b48:            de 03 a8 df  ld        [%sp + 0x8df], %o7
    0x100006b4c:            ea 5b a8 e7  ldx       [%sp + 0x8e7], %l5
    0x100006b50:            da 03 a8 c7  ld        [%sp + 0x8c7], %o5
    0x100006b54:            c0 23 aa 0f  clr       [%sp + 0xa0f]
    0x100006b58:            a3 3c 60 00  sra       %l1, 0x0, %l1
    0x100006b5c:            a8 4d 40 11  mulx      %l5, %l1, %l4
    0x100006b60:            b9 3b e0 00  sra       %o7, 0x0, %i4
    0x100006b64:            ae 4f 00 11  mulx      %i4, %l1, %l7
    0x100006b68:            91 3d e0 00  sra       %l7, 0x0, %o0
    0x100006b6c:            aa 4a 00 15  mulx      %o0, %l5, %l5
    0x100006b70:            af 2b e0 01  sll       %o7, 0x1, %l7
    0x100006b74:            94 4b 40 17  mulx      %o5, %l7, %o2
    0x100006b78:            88 4f 40 17  mulx      %i5, %l7, %g4
    0x100006b7c:            a7 2d 20 01  sll       %l4, 0x1, %l3
    0x100006b80:            b8 02 80 13  add       %o2, %l3, %i4
    0x100006b84:            92 05 40 0d  add       %l5, %o5, %o1
    0x100006b88:            87 2a 60 01  sll       %o1, 0x1, %g3
    0x100006b8c:            a6 07 7f ff  add       %i5, -0x1, %l3
    0x100006b90:            8b 2f 60 01  sll       %i5, 0x1, %g5
    0x100006b94:            f8 23 aa 13  st        %i4, [%sp + 0xa13]
    0x100006b98:            94 10 20 00  clr       %o2
    0x100006b9c:            92 10 00 03  mov       %g3, %o1
    0x100006ba0:            d0 03 aa 13  ld        [%sp + 0xa13], %o0
    0x100006ba4:            80 a7 60 00  cmp       %i5, 0x0
    0x100006ba8:            04 40 00 58  ble,pn    %icc, +0x160  <0x100006d08>
    0x100006bac:            9a 10 20 00  clr       %o5
    0x100006bb0:            98 10 00 08  mov       %o0, %o4
    0x100006bb4:            96 10 00 09  mov       %o1, %o3
    0x100006bb8:            ac 10 20 00  clr       %l6
    0x100006bbc:            80 a7 60 05  cmp       %i5, 0x5
    0x100006bc0:            aa 10 00 0b  mov       %o3, %l5
    0x100006bc4:            a8 10 00 0c  mov       %o4, %l4
    0x100006bc8:            06 40 00 3a  bl,pn     %icc, +0xe8   <0x100006cb0>
    0x100006bcc:            01 00 00 00  nop
    0x100006bd0:            a3 3d e0 00  sra       %l7, 0x0, %l1
    0x100006bd4:            a3 2c 70 03  sllx      %l1, 0x3, %l1
    0x100006bd8:            a4 4c 60 05  mulx      %l1, 0x5, %l2
    0x100006bdc:            85 3a e0 00  sra       %o3, 0x0, %g2
    0x100006be0:            b1 28 b0 03  sllx      %g2, 0x3, %i0
    0x100006be4:            b2 10 00 12  mov       %l2, %i1
    0x100006be8:            b8 04 a0 08  add       %l2, 0x8, %i4
    0x100006bec:            9e 06 80 18  add       %i2, %i0, %o7
    0x100006bf0:            a5 3b 20 00  sra       %o4, 0x0, %l2
    0x100006bf4:            84 03 e0 10  add       %o7, 0x10, %g2
    0x100006bf8:            ac 10 20 01  mov       0x1, %l6
    0x100006bfc:            fb 1e 80 18  ldd       [%i2 + %i0], %d60
    0x100006c00:            b1 2c b0 03  sllx      %l2, 0x3, %i0
    0x100006c04:            fb 3e 00 1b  std       %d60, [%i0 + %i3]
    0x100006c08:            9e 06 c0 18  add       %i3, %i0, %o7
    0x100006c0c:            a8 03 00 17  add       %o4, %l7, %l4
    0x100006c10:            f3 18 bf f8  ldd       [%g2 - 0x8], %d56
    0x100006c14:            a4 03 c0 11  add       %o7, %l1, %l2
    0x100006c18:            f3 3b e0 08  std       %d56, [%o7 + 0x8]
    0x100006c1c:            b0 07 7f fc  add       %i5, -0x4, %i0
    0x100006c20:            ed 6c 80 19  prefetch  [%l2 + %i1], #n_writes_strong
    0x100006c24:            c1 68 a0 58  prefetch  [%g2 + 0x58], #n_reads
    0x100006c28:            ac 05 a0 04  add       %l6, 0x4, %l6
    0x100006c2c:            dd 18 a0 00  ldd       [%g2], %d14
    0x100006c30:            84 00 a0 40  add       %g2, 0x40, %g2
    0x100006c34:            80 a5 80 18  cmp       %l6, %i0
    0x100006c38:            aa 05 60 08  add       %l5, 0x8, %l5
    0x100006c3c:            dd 3c a0 00  std       %d14, [%l2]
    0x100006c40:            f7 18 bf c8  ldd       [%g2 - 0x38], %d58
    0x100006c44:            a8 05 00 17  add       %l4, %l7, %l4
    0x100006c48:            f7 3c a0 08  std       %d58, [%l2 + 0x8]
    0x100006c4c:            a4 04 80 11  add       %l2, %l1, %l2
    0x100006c50:            ef 18 bf d0  ldd       [%g2 - 0x30], %d54
    0x100006c54:            ef 3c a0 00  std       %d54, [%l2]
    0x100006c58:            d9 18 bf d8  ldd       [%g2 - 0x28], %d12
    0x100006c5c:            9e 05 00 17  add       %l4, %l7, %o7
    0x100006c60:            d9 3c a0 08  std       %d12, [%l2 + 0x8]
    0x100006c64:            a8 04 80 11  add       %l2, %l1, %l4
    0x100006c68:            ed 6d 00 1c  prefetch  [%l4 + %i4], #n_writes_strong
    0x100006c6c:            cd 18 bf e0  ldd       [%g2 - 0x20], %d6
    0x100006c70:            cd 3c 40 12  std       %d6, [%l1 + %l2]
    0x100006c74:            eb 18 bf e8  ldd       [%g2 - 0x18], %d52
    0x100006c78:            9e 03 c0 17  add       %o7, %l7, %o7
    0x100006c7c:            eb 3d 20 08  std       %d52, [%l4 + 0x8]
    0x100006c80:            a4 05 00 11  add       %l4, %l1, %l2
    0x100006c84:            e9 18 bf f0  ldd       [%g2 - 0x10], %d20
    0x100006c88:            e9 3c 40 14  std       %d20, [%l1 + %l4]
    0x100006c8c:            d5 18 bf f8  ldd       [%g2 - 0x8], %d10
    0x100006c90:            a8 03 c0 17  add       %o7, %l7, %l4
    0x100006c94:            d5 3c a0 08  std       %d10, [%l2 + 0x8]
    0x100006c98:            04 4f ff e2  ble,pt    %icc, -0x78   <0x100006c20>
    0x100006c9c:            a4 04 80 11  add       %l2, %l1, %l2
    0x100006ca0:            80 a5 80 13  cmp       %l6, %l3
    0x100006ca4:            aa 05 60 02  add       %l5, 0x2, %l5
    0x100006ca8:            14 40 00 12  bg,pn     %icc, +0x48   <0x100006cf0>
    0x100006cac:            01 00 00 00  nop
    0x100006cb0:            ac 05 a0 01  add       %l6, 0x1, %l6
    0x100006cb4:            a3 3d 60 00  sra       %l5, 0x0, %l1
    0x100006cb8:            b3 2c 70 03  sllx      %l1, 0x3, %i1
    0x100006cbc:            a5 3d 20 00  sra       %l4, 0x0, %l2
    0x100006cc0:            b1 2c b0 03  sllx      %l2, 0x3, %i0
    0x100006cc4:            9e 06 40 1a  add       %i1, %i2, %o7
    0x100006cc8:            e5 1e 80 19  ldd       [%i2 + %i1], %d18
    0x100006ccc:            b8 06 00 1b  add       %i0, %i3, %i4
    0x100006cd0:            e5 3e c0 18  std       %d18, [%i3 + %i0]
    0x100006cd4:            80 a5 80 13  cmp       %l6, %l3
    0x100006cd8:            e1 1b e0 08  ldd       [%o7 + 0x8], %d16
    0x100006cdc:            aa 05 60 02  add       %l5, 0x2, %l5
    0x100006ce0:            a8 05 00 17  add       %l4, %l7, %l4
    0x100006ce4:            e1 3f 20 08  std       %d16, [%i4 + 0x8]
    0x100006ce8:            04 4f ff f3  ble,pt    %icc, -0x34   <0x100006cb4>
    0x100006cec:            ac 05 a0 01  add       %l6, 0x1, %l6
    0x100006cf0:            9a 03 60 01  add       %o5, 0x1, %o5
    0x100006cf4:            80 a3 40 13  cmp       %o5, %l3
    0x100006cf8:            96 02 c0 17  add       %o3, %l7, %o3
    0x100006cfc:            98 03 20 02  add       %o4, 0x2, %o4
    0x100006d00:            04 4f ff af  ble,pt    %icc, -0x144  <0x100006bbc>
    0x100006d04:            ac 10 20 00  clr       %l6
    0x100006d08:            94 02 a0 01  add       %o2, 0x1, %o2
    0x100006d0c:            80 a2 80 10  cmp       %o2, %l0
    0x100006d10:            90 02 00 04  add       %o0, %g4, %o0
    0x100006d14:            92 02 40 05  add       %o1, %g5, %o1
    0x100006d18:            04 4f ff a4  ble,pt    %icc, -0x170  <0x100006ba8>
    0x100006d1c:            80 a7 60 00  cmp       %i5, 0x0
    0x100006d20:            e8 03 aa 0f  ld        [%sp + 0xa0f], %l4
    0x100006d24:            86 00 c0 04  add       %g3, %g4, %g3
    0x100006d28:            a4 05 20 01  add       %l4, 0x1, %l2
    0x100006d2c:            e8 03 aa 13  ld        [%sp + 0xa13], %l4
    0x100006d30:            e4 23 aa 0f  st        %l2, [%sp + 0xa0f]
    0x100006d34:            80 a4 80 10  cmp       %l2, %l0
    0x100006d38:            a4 05 00 05  add       %l4, %g5, %l2
    0x100006d3c:            e4 23 aa 13  st        %l2, [%sp + 0xa13]
    0x100006d40:            04 4f ff 97  ble,pt    %icc, -0x1a4  <0x100006b9c>
    0x100006d44:            94 10 20 00  clr       %o2
    0x100006d48:            e8 03 a8 db  ld        [%sp + 0x8db], %l4
    0x100006d4c:            80 a5 20 00  cmp       %l4, 0x0
    0x100006d50:            02 40 00 05  be,pn     %icc, +0x14   <0x100006d64>
    0x100006d54:            e2 03 a8 d7  ld        [%sp + 0x8d7], %l1
    0x100006d58:            80 a4 60 00  cmp       %l1, 0x0
    0x100006d5c:            22 48 00 16  be,a,pt   %icc, +0x58   <0x100006db4>
    0x100006d60:            da 03 a8 c7  ld        [%sp + 0x8c7], %o5
    0x100006d64:            92 10 20 00  clr       %o1
    0x100006d68:            40 04 28 5e  call      +0x10a178     <0x100110ee0>
    0x100006d6c:            90 07 a7 4f  add       %fp, 0x74f, %o0
    0x100006d70:            e6 5f a7 4f  ldx       [%fp + 0x74f], %l3
    0x100006d74:            e0 5f a8 bf  ldx       [%fp + 0x8bf], %l0
    0x100006d78:            e4 5f a7 57  ldx       [%fp + 0x757], %l2
    0x100006d7c:            93 2c f0 05  sllx      %l3, 0x5, %o1
    0x100006d80:            b0 24 c0 09  sub       %l3, %o1, %i0
    0x100006d84:            87 2e 30 09  sllx      %i0, 0x9, %g3
    0x100006d88:            84 20 c0 13  sub       %g3, %l3, %g2
    0x100006d8c:            89 28 b0 06  sllx      %g2, 0x6, %g4
    0x100006d90:            e2 5f a7 8f  ldx       [%fp + 0x78f], %l1
    0x100006d94:            9a 21 00 02  sub       %g4, %g2, %o5
    0x100006d98:            f2 5c 20 00  ldx       [%l0], %i1
    0x100006d9c:            b8 24 c0 0d  sub       %l3, %o5, %i4
    0x100006da0:            aa 04 80 1c  add       %l2, %i4, %l5
    0x100006da4:            9e 25 40 11  sub       %l5, %l1, %o7
    0x100006da8:            da 03 a8 c7  ld        [%sp + 0x8c7], %o5
    0x100006dac:            ae 06 40 0f  add       %i1, %o7, %l7
    0x100006db0:            ee 74 20 00  stx       %l7, [%l0]
    0x100006db4:            e2 03 a8 cb  ld        [%sp + 0x8cb], %l1
    0x100006db8:            80 a3 40 11  cmp       %o5, %l1
    0x100006dbc:            16 40 02 3d  bge,pn    %icc, +0x8f4  <0x1000076b0>
    0x100006dc0:            3b 00 04 00  sethi     %hi(0x100000), %i5
    0x100006dc4:            c4 03 a8 c3  ld        [%sp + 0x8c3], %g2
    0x100006dc8:            ee 03 a8 bf  ld        [%sp + 0x8bf], %l7
    0x100006dcc:            c1 07 a7 f7  ld        [%fp + 0x7f7], %f0
    0x100006dd0:            8b 28 a0 01  sll       %g2, 0x1, %g5
    0x100006dd4:            c5 07 a7 fb  ld        [%fp + 0x7fb], %f2
    0x100006dd8:            a0 17 60 04  or        %i5, 0x4, %l0
    0x100006ddc:            f2 03 a9 2f  ld        [%sp + 0x92f], %i1
    0x100006de0:            a5 2c 30 0c  sllx      %l0, 0xc, %l2
    0x100006de4:            85 2d e0 01  sll       %l7, 0x1, %g2
    0x100006de8:            e5 1c ae 60  ldd       [%l2 + 0xe60], %d18
    0x100006dec:            a2 00 80 05  add       %g2, %g5, %l1
    0x100006df0:            a4 5b 40 11  smul      %o5, %l1, %l2
    0x100006df4:            a6 10 00 0d  mov       %o5, %l3
    0x100006df8:            a8 05 ff ff  add       %l7, -0x1, %l4
    0x100006dfc:            a1 a0 19 00  fitod     %f0, %d16
    0x100006e00:            aa 06 7f ff  add       %i1, -0x1, %l5
    0x100006e04:            a9 a0 19 02  fitod     %f2, %d20
    0x100006e08:            92 10 00 17  mov       %l7, %o1
    0x100006e0c:            80 a2 60 00  cmp       %o1, 0x0
    0x100006e10:            04 40 00 49  ble,pn    %icc, +0x124  <0x100006f34>
    0x100006e14:            b3 3c a0 00  sra       %l2, 0x0, %i1
    0x100006e18:            89 2e 70 03  sllx      %i1, 0x3, %g4
    0x100006e1c:            b2 01 00 1b  add       %g4, %i3, %i1
    0x100006e20:            86 10 20 00  clr       %g3
    0x100006e24:            f8 03 a9 2f  ld        [%sp + 0x92f], %i4
    0x100006e28:            84 10 20 00  clr       %g2
    0x100006e2c:            80 a7 20 00  cmp       %i4, 0x0
    0x100006e30:            04 40 00 22  ble,pn    %icc, +0x88   <0x100006eb8>
    0x100006e34:            88 10 20 00  clr       %g4
    0x100006e38:            80 a7 20 03  cmp       %i4, 0x3
    0x100006e3c:            96 10 20 00  clr       %o3
    0x100006e40:            a0 10 00 03  mov       %g3, %l0
    0x100006e44:            06 40 00 15  bl,pn     %icc, +0x54   <0x100006e98>
    0x100006e48:            01 00 00 00  nop
    0x100006e4c:            ba 08 e0 01  and       %g3, 0x1, %i5
    0x100006e50:            96 10 20 01  mov       0x1, %o3
    0x100006e54:            a1 38 e0 01  sra       %g3, 0x1, %l0
    0x100006e58:            88 10 00 1d  mov       %i5, %g4
    0x100006e5c:            90 07 3f fe  add       %i4, -0x2, %o0
    0x100006e60:            96 02 e0 02  add       %o3, 0x2, %o3
    0x100006e64:            8b 29 20 01  sll       %g4, 0x1, %g5
    0x100006e68:            92 0c 20 01  and       %l0, 0x1, %o1
    0x100006e6c:            95 3c 20 01  sra       %l0, 0x1, %o2
    0x100006e70:            a0 01 40 09  add       %g5, %o1, %l0
    0x100006e74:            80 a2 c0 08  cmp       %o3, %o0
    0x100006e78:            99 2c 20 01  sll       %l0, 0x1, %o4
    0x100006e7c:            88 0a a0 01  and       %o2, 0x1, %g4
    0x100006e80:            a1 3a a0 01  sra       %o2, 0x1, %l0
    0x100006e84:            04 4f ff f7  ble,pt    %icc, -0x24   <0x100006e60>
    0x100006e88:            88 03 00 04  add       %o4, %g4, %g4
    0x100006e8c:            80 a2 c0 15  cmp       %o3, %l5
    0x100006e90:            14 40 00 0a  bg,pn     %icc, +0x28   <0x100006eb8>
    0x100006e94:            01 00 00 00  nop
    0x100006e98:            96 02 e0 01  add       %o3, 0x1, %o3
    0x100006e9c:            8a 0c 20 01  and       %l0, 0x1, %g5
    0x100006ea0:            91 29 20 01  sll       %g4, 0x1, %o0
    0x100006ea4:            80 a2 c0 15  cmp       %o3, %l5
    0x100006ea8:            a1 3c 20 01  sra       %l0, 0x1, %l0
    0x100006eac:            88 02 00 05  add       %o0, %g5, %g4
    0x100006eb0:            04 4f ff fb  ble,pt    %icc, -0x14   <0x100006e9c>
    0x100006eb4:            96 02 e0 01  add       %o3, 0x1, %o3
    0x100006eb8:            80 a1 00 03  cmp       %g4, %g3
    0x100006ebc:            04 40 00 11  ble,pn    %icc, +0x44   <0x100006f00>
    0x100006ec0:            86 00 e0 01  add       %g3, 0x1, %g3
    0x100006ec4:            91 29 20 01  sll       %g4, 0x1, %o0
    0x100006ec8:            99 3a 20 00  sra       %o0, 0x0, %o4
    0x100006ecc:            97 38 a0 00  sra       %g2, 0x0, %o3
    0x100006ed0:            93 2b 30 03  sllx      %o4, 0x3, %o1
    0x100006ed4:            d1 1e 40 09  ldd       [%i1 + %o1], %d8
    0x100006ed8:            95 2a f0 03  sllx      %o3, 0x3, %o2
    0x100006edc:            d5 1e 40 0a  ldd       [%i1 + %o2], %d10
    0x100006ee0:            d5 3e 40 09  std       %d10, [%i1 + %o1]
    0x100006ee4:            d1 3e 40 0a  std       %d8, [%i1 + %o2]
    0x100006ee8:            ac 02 80 19  add       %o2, %i1, %l6
    0x100006eec:            dd 1d a0 08  ldd       [%l6 + 0x8], %d14
    0x100006ef0:            88 02 40 19  add       %o1, %i1, %g4
    0x100006ef4:            d9 19 20 08  ldd       [%g4 + 0x8], %d12
    0x100006ef8:            dd 39 20 08  std       %d14, [%g4 + 0x8]
    0x100006efc:            d9 3d a0 08  std       %d12, [%l6 + 0x8]
    0x100006f00:            80 a0 c0 14  cmp       %g3, %l4
    0x100006f04:            84 00 a0 02  add       %g2, 0x2, %g2
    0x100006f08:            24 4f ff c9  ble,a,pt  %icc, -0xdc   <0x100006e2c>
    0x100006f0c:            f8 03 a9 2f  ld        [%sp + 0x92f], %i4
    0x100006f10:            80 a7 20 01  cmp       %i4, 0x1
    0x100006f14:            36 40 00 0f  bge,a,pn  %icc, +0x3c   <0x100006f50>
    0x100006f18:            8a 10 20 01  mov       0x1, %g5
    0x100006f1c:            f8 5b a9 37  ldx       [%sp + 0x937], %i4
    0x100006f20:            80 a7 3f ff  cmp       %i4, -0x1
    0x100006f24:            32 40 01 de  bne,a,pn  %icc, +0x778  <0x10000769c>
    0x100006f28:            a6 04 e0 01  add       %l3, 0x1, %l3
    0x100006f2c:            10 80 01 96  ba        +0x658        <0x100007584>
    0x100006f30:            8a 10 20 00  clr       %g5
    0x100006f34:            f2 03 a9 2f  ld        [%sp + 0x92f], %i1
    0x100006f38:            80 a6 60 01  cmp       %i1, 0x1
    0x100006f3c:            06 40 01 d7  bl,pn     %icc, +0x75c  <0x100007698>
    0x100006f40:            a1 3c a0 00  sra       %l2, 0x0, %l0
    0x100006f44:            89 2c 30 03  sllx      %l0, 0x3, %g4
    0x100006f48:            b2 01 00 1b  add       %g4, %i3, %i1
    0x100006f4c:            8a 10 20 01  mov       0x1, %g5
    0x100006f50:            d8 03 a9 1f  ld        [%sp + 0x91f], %o4
    0x100006f54:            81 83 20 00  wr        %o4, 0x0, %y
    0x100006f58:            d4 03 a8 bf  ld        [%sp + 0x8bf], %o2
    0x100006f5c:            96 10 20 01  mov       0x1, %o3
    0x100006f60:            a1 2a c0 05  sll       %o3, %g5, %l0
    0x100006f64:            ba fa 80 10  sdivcc    %o2, %l0, %i5
    0x100006f68:            2e 48 00 02  bvs,a,pt  %icc, +0x8    <0x100006f70>
    0x100006f6c:            3b 20 00 00  sethi     %hi(0x80000000), %i5
    0x100006f70:            80 a7 60 00  cmp       %i5, 0x0
    0x100006f74:            04 40 01 78  ble,pn    %icc, +0x5e0  <0x100007554>
    0x100006f78:            90 07 7f ff  add       %i5, -0x1, %o0
    0x100006f7c:            ad 34 20 1f  srl       %l0, 0x1f, %l6
    0x100006f80:            9e 04 00 16  add       %l0, %l6, %o7
    0x100006f84:            89 3b e0 01  sra       %o7, 0x1, %g4
    0x100006f88:            ae 01 3f ff  add       %g4, -0x1, %l7
    0x100006f8c:            b1 2d e0 01  sll       %l7, 0x1, %i0
    0x100006f90:            9b 3e 20 00  sra       %i0, 0x0, %o5
    0x100006f94:            87 2b 70 03  sllx      %o5, 0x3, %g3
    0x100006f98:            93 2c 20 01  sll       %l0, 0x1, %o1
    0x100006f9c:            96 0b ff fe  and       %o7, -0x2, %o3
    0x100006fa0:            98 10 20 00  clr       %o4
    0x100006fa4:            ec 5b a9 3f  ldx       [%sp + 0x93f], %l6
    0x100006fa8:            94 10 20 00  clr       %o2
    0x100006fac:            80 a1 20 00  cmp       %g4, 0x0
    0x100006fb0:            ac 00 c0 16  add       %g3, %l6, %l6
    0x100006fb4:            04 40 01 62  ble,pn    %icc, +0x588  <0x10000753c>
    0x100006fb8:            80 a5 e0 07  cmp       %l7, 0x7
    0x100006fbc:            87 3a a0 00  sra       %o2, 0x0, %g3
    0x100006fc0:            a1 28 f0 03  sllx      %g3, 0x3, %l0
    0x100006fc4:            b9 3a e0 00  sra       %o3, 0x0, %i4
    0x100006fc8:            9b 2f 30 03  sllx      %i4, 0x3, %o5
    0x100006fcc:            84 04 00 19  add       %l0, %i1, %g2
    0x100006fd0:            06 40 00 1d  bl,pn     %icc, +0x74   <0x100007044>
    0x100006fd4:            86 03 40 19  add       %o5, %i1, %g3
    0x100006fd8:            9a 20 c0 16  sub       %g3, %l6, %o5
    0x100006fdc:            b9 3b 70 3f  srax      %o5, 0x3f, %i4
    0x100006fe0:            9e 1b 40 1c  xor       %o5, %i4, %o7
    0x100006fe4:            a0 23 c0 1c  sub       %o7, %i4, %l0
    0x100006fe8:            9a 20 c0 02  sub       %g3, %g2, %o5
    0x100006fec:            b1 29 30 04  sllx      %g4, 0x4, %i0
    0x100006ff0:            ba 06 20 08  add       %i0, 0x8, %i5
    0x100006ff4:            b9 3b 70 3f  srax      %o5, 0x3f, %i4
    0x100006ff8:            9e 1b 40 1c  xor       %o5, %i4, %o7
    0x100006ffc:            80 a4 00 1d  cmp       %l0, %i5
    0x100007000:            a0 23 c0 1c  sub       %o7, %i4, %l0
    0x100007004:            b0 20 80 16  sub       %g2, %l6, %i0
    0x100007008:            9f 3e 30 3f  srax      %i0, 0x3f, %o7
    0x10000700c:            9a 1e 00 0f  xor       %i0, %o7, %o5
    0x100007010:            b0 23 40 0f  sub       %o5, %o7, %i0
    0x100007014:            9a 10 20 00  clr       %o5
    0x100007018:            9b 66 f0 01  movge     %xcc, 0x1, %o5
    0x10000701c:            b8 10 20 00  clr       %i4
    0x100007020:            80 a4 00 1d  cmp       %l0, %i5
    0x100007024:            b9 66 f0 01  movge     %xcc, 0x1, %i4
    0x100007028:            80 a6 00 1d  cmp       %i0, %i5
    0x10000702c:            ba 10 20 00  clr       %i5
    0x100007030:            bb 66 f0 01  movge     %xcc, 0x1, %i5
    0x100007034:            9e 0b 40 1c  and       %o5, %i4, %o7
    0x100007038:            80 8b c0 1d  btst      %i5, %o7
    0x10000703c:            12 48 00 8c  bne,pt    %icc, +0x230  <0x10000726c>
    0x100007040:            ba 10 20 00  clr       %i5
    0x100007044:            80 a1 20 04  cmp       %g4, 0x4
    0x100007048:            9a 10 20 00  clr       %o5
    0x10000704c:            9e 10 20 00  clr       %o7
    0x100007050:            06 40 00 66  bl,pn     %icc, +0x198  <0x1000071e8>
    0x100007054:            01 00 00 00  nop
    0x100007058:            a0 10 00 02  mov       %g2, %l0
    0x10000705c:            ba 10 00 03  mov       %g3, %i5
    0x100007060:            b8 10 00 16  mov       %l6, %i4
    0x100007064:            b0 01 3f fc  add       %g4, -0x4, %i0
    0x100007068:            c1 6f 60 a8  prefetch  [%i5 + 0xa8], #n_reads
    0x10000706c:            c1 6c 20 a8  prefetch  [%l0 + 0xa8], #n_reads
    0x100007070:            9a 03 60 04  add       %o5, 0x4, %o5
    0x100007074:            a0 04 20 40  add       %l0, 0x40, %l0
    0x100007078:            ff 1f 20 08  ldd       [%i4 + 0x8], %d62
    0x10000707c:            80 a3 40 18  cmp       %o5, %i0
    0x100007080:            ba 07 60 40  add       %i5, 0x40, %i5
    0x100007084:            ef 1f 20 00  ldd       [%i4], %d54
    0x100007088:            b8 07 20 40  add       %i4, 0x40, %i4
    0x10000708c:            9e 03 e0 08  add       %o7, 0x8, %o7
    0x100007090:            fb 1f 7f c8  ldd       [%i5 - 0x38], %d60
    0x100007094:            ad a7 c9 54  fmuld     %d62, %d20, %d22
    0x100007098:            f1 1f 7f c0  ldd       [%i5 - 0x40], %d24
    0x10000709c:            ab a5 c9 5d  fmuld     %d54, %d60, %d52
    0x1000070a0:            91 a5 c9 58  fmuld     %d54, %d24, %d8
    0x1000070a4:            95 a5 89 5d  fmuld     %d22, %d60, %d10
    0x1000070a8:            b3 a5 89 58  fmuld     %d22, %d24, %d56
    0x1000070ac:            b7 a2 08 ca  fsubd     %d8, %d10, %d58
    0x1000070b0:            af a5 48 59  faddd     %d52, %d56, %d54
    0x1000070b4:            d9 1c 3f c0  ldd       [%l0 - 0x40], %d12
    0x1000070b8:            fb 1c 3f c8  ldd       [%l0 - 0x38], %d60
    0x1000070bc:            9d a3 08 db  fsubd     %d12, %d58, %d14
    0x1000070c0:            dd 3f 7f c0  std       %d14, [%i5 - 0x40]
    0x1000070c4:            8d a7 48 d7  fsubd     %d60, %d54, %d6
    0x1000070c8:            cd 3f 7f c8  std       %d6, [%i5 - 0x38]
    0x1000070cc:            bf a3 08 5b  faddd     %d12, %d58, %d62
    0x1000070d0:            ff 3c 3f c0  std       %d62, [%l0 - 0x40]
    0x1000070d4:            b1 a7 48 57  faddd     %d60, %d54, %d24
    0x1000070d8:            f1 3c 3f c8  std       %d24, [%l0 - 0x38]
    0x1000070dc:            ed 1f 3f d8  ldd       [%i4 - 0x28], %d22
    0x1000070e0:            d5 1f 3f d0  ldd       [%i4 - 0x30], %d10
    0x1000070e4:            b3 a5 89 54  fmuld     %d22, %d20, %d56
    0x1000070e8:            d1 1f 7f d8  ldd       [%i5 - 0x28], %d8
    0x1000070ec:            eb 1f 7f d0  ldd       [%i5 - 0x30], %d52
    0x1000070f0:            b7 a2 89 48  fmuld     %d10, %d8, %d58
    0x1000070f4:            8d a2 89 55  fmuld     %d10, %d52, %d6
    0x1000070f8:            9d a6 49 48  fmuld     %d56, %d8, %d14
    0x1000070fc:            99 a6 49 55  fmuld     %d56, %d52, %d12
    0x100007100:            ad a1 88 ce  fsubd     %d6, %d14, %d22
    0x100007104:            af a6 c8 4c  faddd     %d58, %d12, %d54
    0x100007108:            fb 1c 3f d0  ldd       [%l0 - 0x30], %d60
    0x10000710c:            d1 1c 3f d8  ldd       [%l0 - 0x28], %d8
    0x100007110:            bf a7 48 d6  fsubd     %d60, %d22, %d62
    0x100007114:            ff 3f 7f d0  std       %d62, [%i5 - 0x30]
    0x100007118:            b1 a2 08 d7  fsubd     %d8, %d54, %d24
    0x10000711c:            f1 3f 7f d8  std       %d24, [%i5 - 0x28]
    0x100007120:            95 a7 48 56  faddd     %d60, %d22, %d10
    0x100007124:            d5 3c 3f d0  std       %d10, [%l0 - 0x30]
    0x100007128:            ab a2 08 57  faddd     %d8, %d54, %d52
    0x10000712c:            eb 3c 3f d8  std       %d52, [%l0 - 0x28]
    0x100007130:            f3 1f 3f e8  ldd       [%i4 - 0x18], %d56
    0x100007134:            dd 1f 3f e0  ldd       [%i4 - 0x20], %d14
    0x100007138:            b7 a6 49 54  fmuld     %d56, %d20, %d58
    0x10000713c:            cd 1f 7f e8  ldd       [%i5 - 0x18], %d6
    0x100007140:            d9 1f 7f e0  ldd       [%i5 - 0x20], %d12
    0x100007144:            ad a3 89 46  fmuld     %d14, %d6, %d22
    0x100007148:            b1 a3 89 4c  fmuld     %d14, %d12, %d24
    0x10000714c:            bf a6 c9 46  fmuld     %d58, %d6, %d62
    0x100007150:            bb a6 c9 4c  fmuld     %d58, %d12, %d60
    0x100007154:            b3 a6 08 df  fsubd     %d24, %d62, %d56
    0x100007158:            af a5 88 5d  faddd     %d22, %d60, %d54
    0x10000715c:            eb 1c 3f e0  ldd       [%l0 - 0x20], %d52
    0x100007160:            cd 1c 3f e8  ldd       [%l0 - 0x18], %d6
    0x100007164:            95 a5 48 d9  fsubd     %d52, %d56, %d10
    0x100007168:            d5 3f 7f e0  std       %d10, [%i5 - 0x20]
    0x10000716c:            91 a1 88 d7  fsubd     %d6, %d54, %d8
    0x100007170:            d1 3f 7f e8  std       %d8, [%i5 - 0x18]
    0x100007174:            9d a5 48 59  faddd     %d52, %d56, %d14
    0x100007178:            dd 3c 3f e0  std       %d14, [%l0 - 0x20]
    0x10000717c:            99 a1 88 57  faddd     %d6, %d54, %d12
    0x100007180:            d9 3c 3f e8  std       %d12, [%l0 - 0x18]
    0x100007184:            f7 1f 3f f8  ldd       [%i4 - 0x8], %d58
    0x100007188:            f1 1f 3f f0  ldd       [%i4 - 0x10], %d24
    0x10000718c:            95 a6 c9 54  fmuld     %d58, %d20, %d10
    0x100007190:            ff 1f 7f f8  ldd       [%i5 - 0x8], %d62
    0x100007194:            ed 1f 7f f0  ldd       [%i5 - 0x10], %d22
    0x100007198:            9d a6 09 5f  fmuld     %d24, %d62, %d14
    0x10000719c:            bb a6 09 56  fmuld     %d24, %d22, %d60
    0x1000071a0:            91 a2 89 5f  fmuld     %d10, %d62, %d8
    0x1000071a4:            ab a2 89 56  fmuld     %d10, %d22, %d52
    0x1000071a8:            b3 a7 48 c8  fsubd     %d60, %d8, %d56
    0x1000071ac:            af a3 88 55  faddd     %d14, %d52, %d54
    0x1000071b0:            f1 1c 3f f0  ldd       [%l0 - 0x10], %d24
    0x1000071b4:            f7 1c 3f f8  ldd       [%l0 - 0x8], %d58
    0x1000071b8:            8d a6 08 d9  fsubd     %d24, %d56, %d6
    0x1000071bc:            cd 3f 7f f0  std       %d6, [%i5 - 0x10]
    0x1000071c0:            99 a6 c8 d7  fsubd     %d58, %d54, %d12
    0x1000071c4:            d9 3f 7f f8  std       %d12, [%i5 - 0x8]
    0x1000071c8:            bf a6 08 59  faddd     %d24, %d56, %d62
    0x1000071cc:            ff 3c 3f f0  std       %d62, [%l0 - 0x10]
    0x1000071d0:            ad a6 c8 57  faddd     %d58, %d54, %d22
    0x1000071d4:            04 4f ff a5  ble,pt    %icc, -0x16c  <0x100007068>
    0x1000071d8:            ed 3c 3f f8  std       %d22, [%l0 - 0x8]
    0x1000071dc:            80 a3 40 17  cmp       %o5, %l7
    0x1000071e0:            14 40 00 21  bg,pn     %icc, +0x84   <0x100007264>
    0x1000071e4:            01 00 00 00  nop
    0x1000071e8:            9a 03 60 01  add       %o5, 0x1, %o5
    0x1000071ec:            b9 3b e0 00  sra       %o7, 0x0, %i4
    0x1000071f0:            b1 2f 30 03  sllx      %i4, 0x3, %i0
    0x1000071f4:            ba 06 00 16  add       %i0, %l6, %i5
    0x1000071f8:            d5 1f 60 08  ldd       [%i5 + 0x8], %d10
    0x1000071fc:            a0 06 00 03  add       %i0, %g3, %l0
    0x100007200:            dd 18 c0 18  ldd       [%g3 + %i0], %d14
    0x100007204:            8d a2 89 54  fmuld     %d10, %d20, %d6
    0x100007208:            d1 1c 20 08  ldd       [%l0 + 0x8], %d8
    0x10000720c:            fb 1d 80 18  ldd       [%l6 + %i0], %d60
    0x100007210:            f1 18 80 18  ldd       [%g2 + %i0], %d24
    0x100007214:            b8 06 00 02  add       %i0, %g2, %i4
    0x100007218:            ab a7 49 4e  fmuld     %d60, %d14, %d52
    0x10000721c:            af a1 89 48  fmuld     %d6, %d8, %d54
    0x100007220:            bf a7 49 48  fmuld     %d60, %d8, %d62
    0x100007224:            99 a1 89 4e  fmuld     %d6, %d14, %d12
    0x100007228:            f3 1f 20 08  ldd       [%i4 + 0x8], %d56
    0x10000722c:            80 a3 40 17  cmp       %o5, %l7
    0x100007230:            9e 03 e0 02  add       %o7, 0x2, %o7
    0x100007234:            b7 a5 48 d7  fsubd     %d52, %d54, %d58
    0x100007238:            bb a7 c8 4c  faddd     %d62, %d12, %d60
    0x10000723c:            ad a6 08 db  fsubd     %d24, %d58, %d22
    0x100007240:            ed 38 c0 18  std       %d22, [%g3 + %i0]
    0x100007244:            95 a6 48 dd  fsubd     %d56, %d60, %d10
    0x100007248:            d5 3c 20 08  std       %d10, [%l0 + 0x8]
    0x10000724c:            91 a6 08 5b  faddd     %d24, %d58, %d8
    0x100007250:            d1 38 80 18  std       %d8, [%g2 + %i0]
    0x100007254:            9d a6 48 5d  faddd     %d56, %d60, %d14
    0x100007258:            dd 3f 20 08  std       %d14, [%i4 + 0x8]
    0x10000725c:            04 4f ff e4  ble,pt    %icc, -0x70   <0x1000071ec>
    0x100007260:            9a 03 60 01  add       %o5, 0x1, %o5
    0x100007264:            10 80 00 b7  ba        +0x2dc        <0x100007540>
    0x100007268:            98 03 20 01  add       %o4, 0x1, %o4
    0x10000726c:            80 a1 20 06  cmp       %g4, 0x6
    0x100007270:            b8 10 20 00  clr       %i4
    0x100007274:            06 40 00 93  bl,pn     %icc, +0x24c  <0x1000074c0>
    0x100007278:            01 00 00 00  nop
    0x10000727c:            dd 1d a0 08  ldd       [%l6 + 0x8], %d14
    0x100007280:            ed 1d a0 00  ldd       [%l6], %d22
    0x100007284:            d9 18 e0 00  ldd       [%g3], %d12
    0x100007288:            ef 18 e0 08  ldd       [%g3 + 0x8], %d54
    0x10000728c:            f1 18 e0 10  ldd       [%g3 + 0x10], %d24
    0x100007290:            95 a3 89 54  fmuld     %d14, %d20, %d10
    0x100007294:            fb 1d a0 10  ldd       [%l6 + 0x10], %d60
    0x100007298:            b7 a5 89 4c  fmuld     %d22, %d12, %d58
    0x10000729c:            8d a5 89 57  fmuld     %d22, %d54, %d6
    0x1000072a0:            ff 1d a0 18  ldd       [%l6 + 0x18], %d62
    0x1000072a4:            ed 18 e0 18  ldd       [%g3 + 0x18], %d22
    0x1000072a8:            ba 10 20 02  mov       0x2, %i5
    0x1000072ac:            a0 05 a0 20  add       %l6, 0x20, %l0
    0x1000072b0:            ab a2 89 57  fmuld     %d10, %d54, %d52
    0x1000072b4:            9e 00 e0 20  add       %g3, 0x20, %o7
    0x1000072b8:            91 a2 89 4c  fmuld     %d10, %d12, %d8
    0x1000072bc:            ef 18 a0 00  ldd       [%g2], %d54
    0x1000072c0:            9a 00 a0 10  add       %g2, 0x10, %o5
    0x1000072c4:            b0 01 3f fc  add       %g4, -0x4, %i0
    0x1000072c8:            b7 a6 c8 d5  fsubd     %d58, %d52, %d58
    0x1000072cc:            eb 18 a0 08  ldd       [%g2 + 0x8], %d52
    0x1000072d0:            b3 a1 88 48  faddd     %d6, %d8, %d56
    0x1000072d4:            c1 6b e0 a8  prefetch  [%o7 + 0xa8], #n_reads
    0x1000072d8:            c1 6b 60 a8  prefetch  [%o5 + 0xa8], #n_reads
    0x1000072dc:            ba 07 60 04  add       %i5, 0x4, %i5
    0x1000072e0:            9a 03 60 40  add       %o5, 0x40, %o5
    0x1000072e4:            cd 1c 20 00  ldd       [%l0], %d6
    0x1000072e8:            9d a7 c9 54  fmuld     %d62, %d20, %d14
    0x1000072ec:            80 a7 40 18  cmp       %i5, %i0
    0x1000072f0:            fd 1b e0 00  ldd       [%o7], %d30
    0x1000072f4:            9e 03 e0 40  add       %o7, 0x40, %o7
    0x1000072f8:            b8 07 20 08  add       %i4, 0x8, %i4
    0x1000072fc:            d1 1c 20 08  ldd       [%l0 + 0x8], %d8
    0x100007300:            a0 04 20 40  add       %l0, 0x40, %l0
    0x100007304:            95 a7 49 58  fmuld     %d60, %d24, %d10
    0x100007308:            99 a7 49 56  fmuld     %d60, %d22, %d12
    0x10000730c:            f5 1b ff c8  ldd       [%o7 - 0x38], %d26
    0x100007310:            bf a5 c8 db  fsubd     %d54, %d58, %d62
    0x100007314:            b1 a3 89 58  fmuld     %d14, %d24, %d24
    0x100007318:            f9 1b 7f c0  ldd       [%o5 - 0x40], %d28
    0x10000731c:            ff 3b ff a0  std       %d62, [%o7 - 0x60]
    0x100007320:            bb a5 c8 5b  faddd     %d54, %d58, %d60
    0x100007324:            b7 a3 89 56  fmuld     %d14, %d22, %d58
    0x100007328:            ad a5 48 d9  fsubd     %d52, %d56, %d22
    0x10000732c:            ef 1b 7f c8  ldd       [%o5 - 0x38], %d54
    0x100007330:            ed 3b ff a8  std       %d22, [%o7 - 0x58]
    0x100007334:            ab a5 48 59  faddd     %d52, %d56, %d52
    0x100007338:            fb 3b 7f b0  std       %d60, [%o5 - 0x50]
    0x10000733c:            b3 a3 08 58  faddd     %d12, %d24, %d56
    0x100007340:            eb 3b 7f b8  std       %d52, [%o5 - 0x48]
    0x100007344:            bb a2 88 db  fsubd     %d10, %d58, %d60
    0x100007348:            b7 a2 09 54  fmuld     %d8, %d20, %d58
    0x10000734c:            d9 1c 3f d0  ldd       [%l0 - 0x30], %d12
    0x100007350:            d5 1b ff d0  ldd       [%o7 - 0x30], %d10
    0x100007354:            ad a1 89 5e  fmuld     %d6, %d30, %d22
    0x100007358:            dd 1c 3f d8  ldd       [%l0 - 0x28], %d14
    0x10000735c:            b1 a1 89 5a  fmuld     %d6, %d26, %d24
    0x100007360:            cd 1b ff d8  ldd       [%o7 - 0x28], %d6
    0x100007364:            bf a7 08 dd  fsubd     %d28, %d60, %d62
    0x100007368:            ab a6 c9 5e  fmuld     %d58, %d30, %d52
    0x10000736c:            d1 1b 7f d0  ldd       [%o5 - 0x30], %d8
    0x100007370:            ff 3b ff b0  std       %d62, [%o7 - 0x50]
    0x100007374:            bb a7 08 5d  faddd     %d28, %d60, %d60
    0x100007378:            b7 a6 c9 5a  fmuld     %d58, %d26, %d58
    0x10000737c:            bf a5 c8 d9  fsubd     %d54, %d56, %d62
    0x100007380:            fd 1b 7f d8  ldd       [%o5 - 0x28], %d30
    0x100007384:            ff 3b ff b8  std       %d62, [%o7 - 0x48]
    0x100007388:            bf a5 c8 59  faddd     %d54, %d56, %d62
    0x10000738c:            fb 3b 7f c0  std       %d60, [%o5 - 0x40]
    0x100007390:            b3 a6 08 55  faddd     %d24, %d52, %d56
    0x100007394:            ff 3b 7f c8  std       %d62, [%o5 - 0x38]
    0x100007398:            bb a5 88 db  fsubd     %d22, %d58, %d60
    0x10000739c:            b7 a3 89 54  fmuld     %d14, %d20, %d58
    0x1000073a0:            dd 1c 3f e0  ldd       [%l0 - 0x20], %d14
    0x1000073a4:            f9 1b ff e0  ldd       [%o7 - 0x20], %d28
    0x1000073a8:            b1 a3 09 4a  fmuld     %d12, %d10, %d24
    0x1000073ac:            ed 1c 3f e8  ldd       [%l0 - 0x18], %d22
    0x1000073b0:            ab a3 09 46  fmuld     %d12, %d6, %d52
    0x1000073b4:            f5 1b ff e8  ldd       [%o7 - 0x18], %d26
    0x1000073b8:            bf a2 08 dd  fsubd     %d8, %d60, %d62
    0x1000073bc:            af a6 c9 4a  fmuld     %d58, %d10, %d54
    0x1000073c0:            d9 1b 7f e0  ldd       [%o5 - 0x20], %d12
    0x1000073c4:            ff 3b ff c0  std       %d62, [%o7 - 0x40]
    0x1000073c8:            91 a2 08 5d  faddd     %d8, %d60, %d8
    0x1000073cc:            8d a6 c9 46  fmuld     %d58, %d6, %d6
    0x1000073d0:            bf a7 88 d9  fsubd     %d30, %d56, %d62
    0x1000073d4:            d5 1b 7f e8  ldd       [%o5 - 0x18], %d10
    0x1000073d8:            ff 3b ff c8  std       %d62, [%o7 - 0x38]
    0x1000073dc:            bb a7 88 59  faddd     %d30, %d56, %d60
    0x1000073e0:            d1 3b 7f d0  std       %d8, [%o5 - 0x30]
    0x1000073e4:            91 a5 48 57  faddd     %d52, %d54, %d8
    0x1000073e8:            fb 3b 7f d8  std       %d60, [%o5 - 0x28]
    0x1000073ec:            b3 a6 08 c6  fsubd     %d24, %d6, %d56
    0x1000073f0:            ab a5 89 54  fmuld     %d22, %d20, %d52
    0x1000073f4:            fb 1c 3f f0  ldd       [%l0 - 0x10], %d60
    0x1000073f8:            f1 1b ff f0  ldd       [%o7 - 0x10], %d24
    0x1000073fc:            bd a3 89 5c  fmuld     %d14, %d28, %d30
    0x100007400:            ff 1c 3f f8  ldd       [%l0 - 0x8], %d62
    0x100007404:            8d a3 89 5a  fmuld     %d14, %d26, %d6
    0x100007408:            ed 1b ff f8  ldd       [%o7 - 0x8], %d22
    0x10000740c:            b7 a3 08 d9  fsubd     %d12, %d56, %d58
    0x100007410:            9d a5 49 5c  fmuld     %d52, %d28, %d14
    0x100007414:            ef 1b 7f f0  ldd       [%o5 - 0x10], %d54
    0x100007418:            f7 3b ff d0  std       %d58, [%o7 - 0x30]
    0x10000741c:            b3 a3 08 59  faddd     %d12, %d56, %d56
    0x100007420:            99 a5 49 5a  fmuld     %d52, %d26, %d12
    0x100007424:            b7 a2 88 c8  fsubd     %d10, %d8, %d58
    0x100007428:            eb 1b 7f f8  ldd       [%o5 - 0x8], %d52
    0x10000742c:            f7 3b ff d8  std       %d58, [%o7 - 0x28]
    0x100007430:            b7 a2 88 48  faddd     %d10, %d8, %d58
    0x100007434:            f3 3b 7f e0  std       %d56, [%o5 - 0x20]
    0x100007438:            b3 a1 88 4e  faddd     %d6, %d14, %d56
    0x10000743c:            f7 3b 7f e8  std       %d58, [%o5 - 0x18]
    0x100007440:            04 4f ff a5  ble,pt    %icc, -0x16c  <0x1000072d4>
    0x100007444:            b7 a7 88 cc  fsubd     %d30, %d12, %d58
    0x100007448:            9d a7 c9 54  fmuld     %d62, %d20, %d14
    0x10000744c:            bf a5 48 59  faddd     %d52, %d56, %d62
    0x100007450:            95 a7 49 56  fmuld     %d60, %d22, %d10
    0x100007454:            cd 1b 60 00  ldd       [%o5], %d6
    0x100007458:            99 a7 49 58  fmuld     %d60, %d24, %d12
    0x10000745c:            bb a5 48 d9  fsubd     %d52, %d56, %d60
    0x100007460:            fb 3b ff e8  std       %d60, [%o7 - 0x18]
    0x100007464:            b3 a5 c8 5b  faddd     %d54, %d58, %d56
    0x100007468:            b7 a5 c8 db  fsubd     %d54, %d58, %d58
    0x10000746c:            d1 1b 60 08  ldd       [%o5 + 0x8], %d8
    0x100007470:            f7 3b ff e0  std       %d58, [%o7 - 0x20]
    0x100007474:            af a3 89 58  fmuld     %d14, %d24, %d54
    0x100007478:            ad a3 89 56  fmuld     %d14, %d22, %d22
    0x10000747c:            9a 03 60 10  add       %o5, 0x10, %o5
    0x100007480:            ff 3b 7f e8  std       %d62, [%o5 - 0x18]
    0x100007484:            f3 3b 7f e0  std       %d56, [%o5 - 0x20]
    0x100007488:            80 a7 40 17  cmp       %i5, %l7
    0x10000748c:            bf a2 88 57  faddd     %d10, %d54, %d62
    0x100007490:            b7 a3 08 d6  fsubd     %d12, %d22, %d58
    0x100007494:            b8 07 20 04  add       %i4, 0x4, %i4
    0x100007498:            b1 a2 08 5f  faddd     %d8, %d62, %d24
    0x10000749c:            f1 3b 7f f8  std       %d24, [%o5 - 0x8]
    0x1000074a0:            ab a1 88 5b  faddd     %d6, %d58, %d52
    0x1000074a4:            eb 3b 7f f0  std       %d52, [%o5 - 0x10]
    0x1000074a8:            bb a2 08 df  fsubd     %d8, %d62, %d60
    0x1000074ac:            fb 3b ff f8  std       %d60, [%o7 - 0x8]
    0x1000074b0:            b3 a1 88 db  fsubd     %d6, %d58, %d56
    0x1000074b4:            f3 3b ff f0  std       %d56, [%o7 - 0x10]
    0x1000074b8:            14 40 00 21  bg,pn     %icc, +0x84   <0x10000753c>
    0x1000074bc:            01 00 00 00  nop
    0x1000074c0:            ba 07 60 01  add       %i5, 0x1, %i5
    0x1000074c4:            9f 3f 20 00  sra       %i4, 0x0, %o7
    0x1000074c8:            a1 2b f0 03  sllx      %o7, 0x3, %l0
    0x1000074cc:            ed 1d 80 10  ldd       [%l6 + %l0], %d22
    0x1000074d0:            9a 04 00 16  add       %l0, %l6, %o5
    0x1000074d4:            f3 1b 60 08  ldd       [%o5 + 0x8], %d56
    0x1000074d8:            9e 04 00 03  add       %l0, %g3, %o7
    0x1000074dc:            f7 18 c0 10  ldd       [%g3 + %l0], %d58
    0x1000074e0:            95 a6 49 54  fmuld     %d56, %d20, %d10
    0x1000074e4:            ff 1b e0 08  ldd       [%o7 + 0x8], %d62
    0x1000074e8:            91 a5 89 5b  fmuld     %d22, %d58, %d8
    0x1000074ec:            f1 18 80 10  ldd       [%g2 + %l0], %d24
    0x1000074f0:            bb a5 89 5f  fmuld     %d22, %d62, %d60
    0x1000074f4:            b0 04 00 02  add       %l0, %g2, %i0
    0x1000074f8:            af a2 89 5f  fmuld     %d10, %d62, %d54
    0x1000074fc:            ab a2 89 5b  fmuld     %d10, %d58, %d52
    0x100007500:            f3 1e 20 08  ldd       [%i0 + 0x8], %d56
    0x100007504:            80 a7 40 17  cmp       %i5, %l7
    0x100007508:            b8 07 20 02  add       %i4, 0x2, %i4
    0x10000750c:            8d a2 08 d7  fsubd     %d8, %d54, %d6
    0x100007510:            ad a7 48 55  faddd     %d60, %d52, %d22
    0x100007514:            9d a6 08 46  faddd     %d24, %d6, %d14
    0x100007518:            dd 38 80 10  std       %d14, [%g2 + %l0]
    0x10000751c:            99 a6 08 c6  fsubd     %d24, %d6, %d12
    0x100007520:            d9 38 c0 10  std       %d12, [%g3 + %l0]
    0x100007524:            bf a6 48 56  faddd     %d56, %d22, %d62
    0x100007528:            ff 3e 20 08  std       %d62, [%i0 + 0x8]
    0x10000752c:            b7 a6 48 d6  fsubd     %d56, %d22, %d58
    0x100007530:            f7 3b e0 08  std       %d58, [%o7 + 0x8]
    0x100007534:            04 4f ff e4  ble,pt    %icc, -0x70   <0x1000074c4>
    0x100007538:            ba 07 60 01  add       %i5, 0x1, %i5
    0x10000753c:            98 03 20 01  add       %o4, 0x1, %o4
    0x100007540:            80 a3 00 08  cmp       %o4, %o0
    0x100007544:            94 02 80 09  add       %o2, %o1, %o2
    0x100007548:            96 02 c0 09  add       %o3, %o1, %o3
    0x10000754c:            04 4f fe 9a  ble,pt    %icc, -0x598  <0x100006fb4>
    0x100007550:            80 a1 20 00  cmp       %g4, 0x0
    0x100007554:            e0 03 a9 2f  ld        [%sp + 0x92f], %l0
    0x100007558:            8a 01 60 01  add       %g5, 0x1, %g5
    0x10000755c:            80 a1 40 10  cmp       %g5, %l0
    0x100007560:            24 4f fe 7d  ble,a,pt  %icc, -0x60c  <0x100006f54>
    0x100007564:            d8 03 a9 1f  ld        [%sp + 0x91f], %o4
    0x100007568:            ec 5b a9 37  ldx       [%sp + 0x937], %l6
    0x10000756c:            80 a5 bf ff  cmp       %l6, -0x1
    0x100007570:            12 40 00 4a  bne,pn    %icc, +0x128  <0x100007698>
    0x100007574:            d0 03 a8 bf  ld        [%sp + 0x8bf], %o0
    0x100007578:            80 a2 20 00  cmp       %o0, 0x0
    0x10000757c:            04 40 00 47  ble,pn    %icc, +0x11c  <0x100007698>
    0x100007580:            8a 10 20 00  clr       %g5
    0x100007584:            9d a4 89 d0  fdivd     %d18, %d16, %d14
    0x100007588:            b0 05 20 01  add       %l4, 0x1, %i0
    0x10000758c:            80 a6 20 06  cmp       %i0, 0x6
    0x100007590:            94 10 20 00  clr       %o2
    0x100007594:            06 40 00 33  bl,pn     %icc, +0xcc   <0x100007660>
    0x100007598:            01 00 00 00  nop
    0x10000759c:            cd 1e 60 00  ldd       [%i1], %d6
    0x1000075a0:            d5 1e 60 08  ldd       [%i1 + 0x8], %d10
    0x1000075a4:            d9 1e 60 10  ldd       [%i1 + 0x10], %d12
    0x1000075a8:            8a 10 20 02  mov       0x2, %g5
    0x1000075ac:            92 06 60 20  add       %i1, 0x20, %o1
    0x1000075b0:            d1 1e 60 18  ldd       [%i1 + 0x18], %d8
    0x1000075b4:            ae 25 20 03  sub       %l4, 0x3, %l7
    0x1000075b8:            c1 6a 61 28  prefetch  [%o1 + 0x128], #n_reads
    0x1000075bc:            8a 01 60 04  add       %g5, 0x4, %g5
    0x1000075c0:            ed 1a 60 00  ldd       [%o1], %d22
    0x1000075c4:            92 02 60 40  add       %o1, 0x40, %o1
    0x1000075c8:            8d a1 89 4e  fmuld     %d6, %d14, %d6
    0x1000075cc:            cd 3a 7f a0  std       %d6, [%o1 - 0x60]
    0x1000075d0:            80 a1 40 17  cmp       %g5, %l7
    0x1000075d4:            94 02 a0 08  add       %o2, 0x8, %o2
    0x1000075d8:            bf a2 89 4e  fmuld     %d10, %d14, %d62
    0x1000075dc:            f7 1a 7f c8  ldd       [%o1 - 0x38], %d58
    0x1000075e0:            ff 3a 7f a8  std       %d62, [%o1 - 0x58]
    0x1000075e4:            b1 a3 09 4e  fmuld     %d12, %d14, %d24
    0x1000075e8:            f3 1a 7f d0  ldd       [%o1 - 0x30], %d56
    0x1000075ec:            f1 3a 7f b0  std       %d24, [%o1 - 0x50]
    0x1000075f0:            91 a2 09 4e  fmuld     %d8, %d14, %d8
    0x1000075f4:            ff 1a 7f d8  ldd       [%o1 - 0x28], %d62
    0x1000075f8:            d1 3a 7f b8  std       %d8, [%o1 - 0x48]
    0x1000075fc:            bb a5 89 4e  fmuld     %d22, %d14, %d60
    0x100007600:            cd 1a 7f e0  ldd       [%o1 - 0x20], %d6
    0x100007604:            fb 3a 7f c0  std       %d60, [%o1 - 0x40]
    0x100007608:            af a6 c9 4e  fmuld     %d58, %d14, %d54
    0x10000760c:            d5 1a 7f e8  ldd       [%o1 - 0x18], %d10
    0x100007610:            ef 3a 7f c8  std       %d54, [%o1 - 0x38]
    0x100007614:            ab a6 49 4e  fmuld     %d56, %d14, %d52
    0x100007618:            d9 1a 7f f0  ldd       [%o1 - 0x10], %d12
    0x10000761c:            eb 3a 7f d0  std       %d52, [%o1 - 0x30]
    0x100007620:            b1 a7 c9 4e  fmuld     %d62, %d14, %d24
    0x100007624:            d1 1a 7f f8  ldd       [%o1 - 0x8], %d8
    0x100007628:            04 4f ff e4  ble,pt    %icc, -0x70   <0x1000075b8>
    0x10000762c:            f1 3a 7f d8  std       %d24, [%o1 - 0x28]
    0x100007630:            ab a2 89 4e  fmuld     %d10, %d14, %d52
    0x100007634:            eb 3a 7f e8  std       %d52, [%o1 - 0x18]
    0x100007638:            99 a3 09 4e  fmuld     %d12, %d14, %d12
    0x10000763c:            80 a1 40 14  cmp       %g5, %l4
    0x100007640:            d9 3a 7f f0  std       %d12, [%o1 - 0x10]
    0x100007644:            95 a1 89 4e  fmuld     %d6, %d14, %d10
    0x100007648:            d5 3a 7f e0  std       %d10, [%o1 - 0x20]
    0x10000764c:            94 02 a0 04  add       %o2, 0x4, %o2
    0x100007650:            af a2 09 4e  fmuld     %d8, %d14, %d54
    0x100007654:            ef 3a 7f f8  std       %d54, [%o1 - 0x8]
    0x100007658:            14 40 00 10  bg,pn     %icc, +0x40   <0x100007698>
    0x10000765c:            01 00 00 00  nop
    0x100007660:            8a 01 60 01  add       %g5, 0x1, %g5
    0x100007664:            99 3a a0 00  sra       %o2, 0x0, %o4
    0x100007668:            af 2b 30 03  sllx      %o4, 0x3, %l7
    0x10000766c:            cd 1d c0 19  ldd       [%l7 + %i1], %d6
    0x100007670:            96 05 c0 19  add       %l7, %i1, %o3
    0x100007674:            80 a1 40 14  cmp       %g5, %l4
    0x100007678:            af a1 89 4e  fmuld     %d6, %d14, %d54
    0x10000767c:            ef 3d c0 19  std       %d54, [%l7 + %i1]
    0x100007680:            eb 1a e0 08  ldd       [%o3 + 0x8], %d52
    0x100007684:            94 02 a0 02  add       %o2, 0x2, %o2
    0x100007688:            99 a5 49 4e  fmuld     %d52, %d14, %d12
    0x10000768c:            d9 3a e0 08  std       %d12, [%o3 + 0x8]
    0x100007690:            04 4f ff f5  ble,pt    %icc, -0x2c   <0x100007664>
    0x100007694:            8a 01 60 01  add       %g5, 0x1, %g5
    0x100007698:            a6 04 e0 01  add       %l3, 0x1, %l3
    0x10000769c:            fa 03 a8 f7  ld        [%sp + 0x8f7], %i5
    0x1000076a0:            a4 04 80 11  add       %l2, %l1, %l2
    0x1000076a4:            80 a4 c0 1d  cmp       %l3, %i5
    0x1000076a8:            24 4f fd d9  ble,a,pt  %icc, -0x89c  <0x100006e0c>
    0x1000076ac:            d2 03 a8 bf  ld        [%sp + 0x8bf], %o1
    0x1000076b0:            40 04 26 74  call      +0x1099d0     <0x100111080>
    0x1000076b4:            d0 5b a8 af  ldx       [%sp + 0x8af], %o0
    0x1000076b8:            0a c2 03 39  brnz,pn   %o0, +0xce4   <0x10000839c>
    0x1000076bc:            01 00 00 00  nop
    0x1000076c0:            e4 5f a8 ff  ldx       [%fp + 0x8ff], %l2
    0x1000076c4:            d0 5c a0 48  ldx       [%l2 + 0x48], %o0
    0x1000076c8:            f0 5b a8 b7  ldx       [%sp + 0x8b7], %i0
    0x1000076cc:            e0 5c a0 50  ldx       [%l2 + 0x50], %l0
    0x1000076d0:            98 02 20 01  add       %o0, 0x1, %o4
    0x1000076d4:            80 a3 00 18  cmp       %o4, %i0
    0x1000076d8:            02 60 00 18  be,pn     %xcc, +0x60   <0x100007738>
    0x1000076dc:            d8 74 a0 48  stx       %o4, [%l2 + 0x48]
    0x1000076e0:            90 10 20 01  mov       0x1, %o0
    0x1000076e4:            40 04 26 77  call      +0x1099dc     <0x1001110c0>
    0x1000076e8:            92 07 a7 47  add       %fp, 0x747, %o1
    0x1000076ec:            fa 5c a0 50  ldx       [%l2 + 0x50], %i5
    0x1000076f0:            80 a4 00 1d  cmp       %l0, %i5
    0x1000076f4:            12 60 00 0b  bne,pn    %xcc, +0x2c   <0x100007720>
    0x1000076f8:            a8 04 a0 38  add       %l2, 0x38, %l4
    0x1000076fc:            90 10 00 14  mov       %l4, %o0
    0x100007700:            40 04 26 78  call      +0x1099e0     <0x1001110e0>
    0x100007704:            d2 5b a8 af  ldx       [%sp + 0x8af], %o1
    0x100007708:            0a c2 00 06  brnz,pn   %o0, +0x18    <0x100007720>
    0x10000770c:            01 00 00 00  nop
    0x100007710:            ca 5c a0 50  ldx       [%l2 + 0x50], %g5
    0x100007714:            80 a4 00 05  cmp       %l0, %g5
    0x100007718:            02 6f ff fa  be,pt     %xcc, -0x18   <0x100007700>
    0x10000771c:            90 10 00 14  mov       %l4, %o0
    0x100007720:            92 07 a7 3f  add       %fp, 0x73f, %o1
    0x100007724:            ee 07 a7 4b  ld        [%fp + 0x74b], %l7
    0x100007728:            40 04 26 66  call      +0x109998     <0x1001110c0>
    0x10000772c:            91 3d e0 00  sra       %l7, 0x0, %o0
    0x100007730:            10 80 00 08  ba        +0x20         <0x100007750>
    0x100007734:            01 00 00 00  nop
    0x100007738:            b2 10 20 00  clr       %i1
    0x10000773c:            b3 7c 24 01  movre     %l0, 0x1, %i1
    0x100007740:            f2 74 a0 50  stx       %i1, [%l2 + 0x50]
    0x100007744:            90 04 a0 38  add       %l2, 0x38, %o0
    0x100007748:            40 04 26 6e  call      +0x1099b8     <0x100111100>
    0x10000774c:            c0 74 a0 48  clrx      [%l2 + 0x48]
    0x100007750:            40 04 26 54  call      +0x109950     <0x1001110a0>
    0x100007754:            d0 5b a8 af  ldx       [%sp + 0x8af], %o0
    0x100007758:            e8 03 a8 db  ld        [%sp + 0x8db], %l4
    0x10000775c:            80 a5 20 00  cmp       %l4, 0x0
    0x100007760:            02 40 00 05  be,pn     %icc, +0x14   <0x100007774>
    0x100007764:            e6 03 a8 d7  ld        [%sp + 0x8d7], %l3
    0x100007768:            80 a4 e0 00  cmp       %l3, 0x0
    0x10000776c:            22 48 00 11  be,a,pt   %icc, +0x44   <0x1000077b0>
    0x100007770:            d2 03 a8 ff  ld        [%sp + 0x8ff], %o1
    0x100007774:            92 10 20 00  clr       %o1
    0x100007778:            40 04 25 da  call      +0x109768     <0x100110ee0>
    0x10000777c:            90 07 a7 2f  add       %fp, 0x72f, %o0
    0x100007780:            f8 5f a7 2f  ldx       [%fp + 0x72f], %i4
    0x100007784:            e2 5f a7 37  ldx       [%fp + 0x737], %l1
    0x100007788:            d2 03 a8 ff  ld        [%sp + 0x8ff], %o1
    0x10000778c:            b1 2f 30 05  sllx      %i4, 0x5, %i0
    0x100007790:            86 27 00 18  sub       %i4, %i0, %g3
    0x100007794:            89 28 f0 09  sllx      %g3, 0x9, %g4
    0x100007798:            9a 21 00 1c  sub       %g4, %i4, %o5
    0x10000779c:            85 2b 70 06  sllx      %o5, 0x6, %g2
    0x1000077a0:            a6 20 80 0d  sub       %g2, %o5, %l3
    0x1000077a4:            a4 27 00 13  sub       %i4, %l3, %l2
    0x1000077a8:            aa 04 40 12  add       %l1, %l2, %l5
    0x1000077ac:            ea 77 a7 8f  stx       %l5, [%fp + 0x78f]
    0x1000077b0:            81 82 60 00  wr        %o1, 0x0, %y
    0x1000077b4:            d0 5b a9 07  ldx       [%sp + 0x907], %o0
    0x1000077b8:            c8 03 a9 03  ld        [%sp + 0x903], %g4
    0x1000077bc:            d4 02 24 ec  ld        [%o0 + 0x4ec], %o2
    0x1000077c0:            92 f9 00 0a  sdivcc    %g4, %o2, %o1
    0x1000077c4:            2e 48 00 02  bvs,a,pt  %icc, +0x8    <0x1000077cc>
    0x1000077c8:            13 20 00 00  sethi     %hi(0x80000000), %o1
    0x1000077cc:            ac 4a 40 0a  mulx      %o1, %o2, %l6
    0x1000077d0:            80 a5 80 04  cmp       %l6, %g4
    0x1000077d4:            02 40 00 04  be,pn     %icc, +0x10   <0x1000077e4>
    0x1000077d8:            d2 27 a6 eb  st        %o1, [%fp + 0x6eb]
    0x1000077dc:            a2 02 60 01  add       %o1, 0x1, %l1
    0x1000077e0:            e2 27 a6 eb  st        %l1, [%fp + 0x6eb]
    0x1000077e4:            c4 03 a9 1b  ld        [%sp + 0x91b], %g2
    0x1000077e8:            de 07 a6 eb  ld        [%fp + 0x6eb], %o7
    0x1000077ec:            fa 03 a8 fb  ld        [%sp + 0x8fb], %i5
    0x1000077f0:            81 80 a0 00  wr        %g2, 0x0, %y
    0x1000077f4:            ba ff 40 0f  sdivcc    %i5, %o7, %i5
    0x1000077f8:            f0 5b a9 0f  ldx       [%sp + 0x90f], %i0
    0x1000077fc:            c4 06 24 78  ld        [%i0 + 0x478], %g2
    0x100007800:            1e 40 00 03  bvc,pn    %icc, +0xc    <0x10000780c>
    0x100007804:            ee 03 a9 1f  ld        [%sp + 0x91f], %l7
    0x100007808:            3b 20 00 00  sethi     %hi(0x80000000), %i5
    0x10000780c:            81 85 e0 00  wr        %l7, 0x0, %y
    0x100007810:            ec 03 a8 bf  ld        [%sp + 0x8bf], %l6
    0x100007814:            a0 fd 80 02  sdivcc    %l6, %g2, %l0
    0x100007818:            1e 40 00 03  bvc,pn    %icc, +0xc    <0x100007824>
    0x10000781c:            95 38 a0 00  sra       %g2, 0x0, %o2
    0x100007820:            21 20 00 00  sethi     %hi(0x80000000), %l0
    0x100007824:            af 3b e0 00  sra       %o7, 0x0, %l7
    0x100007828:            96 20 00 17  neg       %l7, %o3
    0x10000782c:            ab 32 f0 3f  srlx      %o3, 0x3f, %l5
    0x100007830:            e6 5b a9 27  ldx       [%sp + 0x927], %l3
    0x100007834:            e0 23 a9 4b  st        %l0, [%sp + 0x94b]
    0x100007838:            ea 23 a9 5b  st        %l5, [%sp + 0x95b]
    0x10000783c:            98 24 c0 0a  sub       %l3, %o2, %o4
    0x100007840:            93 33 30 3f  srlx      %o4, 0x3f, %o1
    0x100007844:            80 8d 40 09  btst      %o1, %l5
    0x100007848:            02 40 00 9c  be,pn     %icc, +0x270  <0x100007ab8>
    0x10000784c:            a0 03 ff ff  add       %o7, -0x1, %l0
    0x100007850:            d2 03 a8 df  ld        [%sp + 0x8df], %o1
    0x100007854:            c8 03 a9 4b  ld        [%sp + 0x94b], %g4
    0x100007858:            ca 03 a8 c7  ld        [%sp + 0x8c7], %g5
    0x10000785c:            b9 3a 60 00  sra       %o1, 0x0, %i4
    0x100007860:            af 39 20 00  sra       %g4, 0x0, %l7
    0x100007864:            90 4f 00 17  mulx      %i4, %l7, %o0
    0x100007868:            aa 4c c0 17  mulx      %l3, %l7, %l5
    0x10000786c:            97 2a 20 01  sll       %o0, 0x1, %o3
    0x100007870:            d6 23 a9 73  st        %o3, [%sp + 0x973]
    0x100007874:            94 10 00 13  mov       %l3, %o2
    0x100007878:            96 4a 80 0b  mulx      %o2, %o3, %o3
    0x10000787c:            a4 00 bf ff  add       %g2, -0x1, %l2
    0x100007880:            e4 23 a9 77  st        %l2, [%sp + 0x977]
    0x100007884:            a5 2a 60 01  sll       %o1, 0x1, %l2
    0x100007888:            92 49 40 12  mulx      %g5, %l2, %o1
    0x10000788c:            95 29 60 01  sll       %g5, 0x1, %o2
    0x100007890:            a7 2d 60 01  sll       %l5, 0x1, %l3
    0x100007894:            98 02 c0 0a  add       %o3, %o2, %o4
    0x100007898:            90 04 c0 09  add       %l3, %o1, %o0
    0x10000789c:            a6 4f 40 12  mulx      %i5, %l2, %l3
    0x1000078a0:            99 33 20 00  srl       %o4, 0x0, %o4
    0x1000078a4:            d0 23 a9 7b  st        %o0, [%sp + 0x97b]
    0x1000078a8:            87 29 20 01  sll       %g4, 0x1, %g3
    0x1000078ac:            c6 23 a9 6f  st        %g3, [%sp + 0x96f]
    0x1000078b0:            a8 07 7f ff  add       %i5, -0x1, %l4
    0x1000078b4:            d8 27 a6 ab  st        %o4, [%fp + 0x6ab]
    0x1000078b8:            a3 2f 60 01  sll       %i5, 0x1, %l1
    0x1000078bc:            d8 23 a9 bb  st        %o4, [%sp + 0x9bb]
    0x1000078c0:            de 03 a9 7b  ld        [%sp + 0x97b], %o7
    0x1000078c4:            86 10 20 00  clr       %g3
    0x1000078c8:            de 23 a9 d3  st        %o7, [%sp + 0x9d3]
    0x1000078cc:            92 10 20 00  clr       %o1
    0x1000078d0:            d0 03 a9 bb  ld        [%sp + 0x9bb], %o0
    0x1000078d4:            ca 03 a9 d3  ld        [%sp + 0x9d3], %g5
    0x1000078d8:            80 a7 60 00  cmp       %i5, 0x0
    0x1000078dc:            04 40 00 58  ble,pn    %icc, +0x160  <0x100007a3c>
    0x1000078e0:            98 10 20 00  clr       %o4
    0x1000078e4:            96 10 00 05  mov       %g5, %o3
    0x1000078e8:            94 10 00 08  mov       %o0, %o2
    0x1000078ec:            84 10 20 00  clr       %g2
    0x1000078f0:            80 a7 60 05  cmp       %i5, 0x5
    0x1000078f4:            ae 10 00 0a  mov       %o2, %l7
    0x1000078f8:            9e 10 00 0b  mov       %o3, %o7
    0x1000078fc:            06 40 00 3a  bl,pn     %icc, +0xe8   <0x1000079e4>
    0x100007900:            01 00 00 00  nop
    0x100007904:            ab 3c a0 00  sra       %l2, 0x0, %l5
    0x100007908:            ab 2d 70 03  sllx      %l5, 0x3, %l5
    0x10000790c:            88 4d 60 05  mulx      %l5, 0x5, %g4
    0x100007910:            9b 3a a0 00  sra       %o2, 0x0, %o5
    0x100007914:            b1 2b 70 03  sllx      %o5, 0x3, %i0
    0x100007918:            ac 06 c0 18  add       %i3, %i0, %l6
    0x10000791c:            9b 3a e0 00  sra       %o3, 0x0, %o5
    0x100007920:            b2 10 00 04  mov       %g4, %i1
    0x100007924:            b8 01 20 08  add       %g4, 0x8, %i4
    0x100007928:            88 05 a0 10  add       %l6, 0x10, %g4
    0x10000792c:            84 10 20 01  mov       0x1, %g2
    0x100007930:            e5 1e 00 1b  ldd       [%i0 + %i3], %d18
    0x100007934:            b1 2b 70 03  sllx      %o5, 0x3, %i0
    0x100007938:            e5 3e 80 18  std       %d18, [%i2 + %i0]
    0x10000793c:            ac 06 80 18  add       %i2, %i0, %l6
    0x100007940:            9e 02 c0 12  add       %o3, %l2, %o7
    0x100007944:            d1 19 3f f8  ldd       [%g4 - 0x8], %d8
    0x100007948:            b0 07 7f fc  add       %i5, -0x4, %i0
    0x10000794c:            d1 3d a0 08  std       %d8, [%l6 + 0x8]
    0x100007950:            ac 05 80 15  add       %l6, %l5, %l6
    0x100007954:            ed 6d 80 19  prefetch  [%l6 + %i1], #n_writes_strong
    0x100007958:            c1 69 20 58  prefetch  [%g4 + 0x58], #n_reads
    0x10000795c:            84 00 a0 04  add       %g2, 0x4, %g2
    0x100007960:            e1 19 20 00  ldd       [%g4], %d16
    0x100007964:            88 01 20 40  add       %g4, 0x40, %g4
    0x100007968:            80 a0 80 18  cmp       %g2, %i0
    0x10000796c:            ae 05 e0 08  add       %l7, 0x8, %l7
    0x100007970:            e1 3d a0 00  std       %d16, [%l6]
    0x100007974:            ff 19 3f c8  ldd       [%g4 - 0x38], %d62
    0x100007978:            9e 03 c0 12  add       %o7, %l2, %o7
    0x10000797c:            ff 3d a0 08  std       %d62, [%l6 + 0x8]
    0x100007980:            9a 05 80 15  add       %l6, %l5, %o5
    0x100007984:            f1 19 3f d0  ldd       [%g4 - 0x30], %d24
    0x100007988:            f1 3d 40 16  std       %d24, [%l5 + %l6]
    0x10000798c:            ed 19 3f d8  ldd       [%g4 - 0x28], %d22
    0x100007990:            9e 03 c0 12  add       %o7, %l2, %o7
    0x100007994:            ed 3b 60 08  std       %d22, [%o5 + 0x8]
    0x100007998:            ac 03 40 15  add       %o5, %l5, %l6
    0x10000799c:            ed 6d 80 1c  prefetch  [%l6 + %i4], #n_writes_strong
    0x1000079a0:            fb 19 3f e0  ldd       [%g4 - 0x20], %d60
    0x1000079a4:            fb 3d 40 0d  std       %d60, [%l5 + %o5]
    0x1000079a8:            f3 19 3f e8  ldd       [%g4 - 0x18], %d56
    0x1000079ac:            9a 03 c0 12  add       %o7, %l2, %o5
    0x1000079b0:            f3 3d a0 08  std       %d56, [%l6 + 0x8]
    0x1000079b4:            ac 05 80 15  add       %l6, %l5, %l6
    0x1000079b8:            dd 19 3f f0  ldd       [%g4 - 0x10], %d14
    0x1000079bc:            dd 3d a0 00  std       %d14, [%l6]
    0x1000079c0:            f7 19 3f f8  ldd       [%g4 - 0x8], %d58
    0x1000079c4:            9e 03 40 12  add       %o5, %l2, %o7
    0x1000079c8:            f7 3d a0 08  std       %d58, [%l6 + 0x8]
    0x1000079cc:            04 4f ff e2  ble,pt    %icc, -0x78   <0x100007954>
    0x1000079d0:            ac 05 80 15  add       %l6, %l5, %l6
    0x1000079d4:            80 a0 80 14  cmp       %g2, %l4
    0x1000079d8:            ae 05 e0 02  add       %l7, 0x2, %l7
    0x1000079dc:            14 40 00 12  bg,pn     %icc, +0x48   <0x100007a24>
    0x1000079e0:            01 00 00 00  nop
    0x1000079e4:            84 00 a0 01  add       %g2, 0x1, %g2
    0x1000079e8:            89 3d e0 00  sra       %l7, 0x0, %g4
    0x1000079ec:            b3 29 30 03  sllx      %g4, 0x3, %i1
    0x1000079f0:            ab 3b e0 00  sra       %o7, 0x0, %l5
    0x1000079f4:            ad 2d 70 03  sllx      %l5, 0x3, %l6
    0x1000079f8:            9a 06 40 1b  add       %i1, %i3, %o5
    0x1000079fc:            cd 1e c0 19  ldd       [%i3 + %i1], %d6
    0x100007a00:            b0 05 80 1a  add       %l6, %i2, %i0
    0x100007a04:            cd 3e 80 16  std       %d6, [%i2 + %l6]
    0x100007a08:            80 a0 80 14  cmp       %g2, %l4
    0x100007a0c:            d9 1b 60 08  ldd       [%o5 + 0x8], %d12
    0x100007a10:            ae 05 e0 02  add       %l7, 0x2, %l7
    0x100007a14:            9e 03 c0 12  add       %o7, %l2, %o7
    0x100007a18:            d9 3e 20 08  std       %d12, [%i0 + 0x8]
    0x100007a1c:            04 4f ff f3  ble,pt    %icc, -0x34   <0x1000079e8>
    0x100007a20:            84 00 a0 01  add       %g2, 0x1, %g2
    0x100007a24:            98 03 20 01  add       %o4, 0x1, %o4
    0x100007a28:            80 a3 00 14  cmp       %o4, %l4
    0x100007a2c:            94 02 80 12  add       %o2, %l2, %o2
    0x100007a30:            96 02 e0 02  add       %o3, 0x2, %o3
    0x100007a34:            04 4f ff af  ble,pt    %icc, -0x144  <0x1000078f0>
    0x100007a38:            84 10 20 00  clr       %g2
    0x100007a3c:            92 02 60 01  add       %o1, 0x1, %o1
    0x100007a40:            80 a2 40 10  cmp       %o1, %l0
    0x100007a44:            8a 01 40 13  add       %g5, %l3, %g5
    0x100007a48:            90 02 00 11  add       %o0, %l1, %o0
    0x100007a4c:            04 4f ff a4  ble,pt    %icc, -0x170  <0x1000078dc>
    0x100007a50:            80 a7 60 00  cmp       %i5, 0x0
    0x100007a54:            da 03 a9 bb  ld        [%sp + 0x9bb], %o5
    0x100007a58:            86 00 e0 01  add       %g3, 0x1, %g3
    0x100007a5c:            ec 03 a9 d3  ld        [%sp + 0x9d3], %l6
    0x100007a60:            98 03 40 13  add       %o5, %l3, %o4
    0x100007a64:            80 a0 c0 10  cmp       %g3, %l0
    0x100007a68:            d8 23 a9 bb  st        %o4, [%sp + 0x9bb]
    0x100007a6c:            aa 05 80 11  add       %l6, %l1, %l5
    0x100007a70:            ea 23 a9 d3  st        %l5, [%sp + 0x9d3]
    0x100007a74:            04 4f ff 97  ble,pt    %icc, -0x1a4  <0x1000078d0>
    0x100007a78:            92 10 20 00  clr       %o1
    0x100007a7c:            d2 07 a6 ab  ld        [%fp + 0x6ab], %o1
    0x100007a80:            d0 03 a9 73  ld        [%sp + 0x973], %o0
    0x100007a84:            c4 03 a9 7b  ld        [%sp + 0x97b], %g2
    0x100007a88:            ca 03 a8 f3  ld        [%sp + 0x8f3], %g5
    0x100007a8c:            c6 03 a9 6f  ld        [%sp + 0x96f], %g3
    0x100007a90:            c8 03 a9 77  ld        [%sp + 0x977], %g4
    0x100007a94:            ae 02 40 08  add       %o1, %o0, %l7
    0x100007a98:            ee 27 a6 ab  st        %l7, [%fp + 0x6ab]
    0x100007a9c:            b8 01 60 01  add       %g5, 0x1, %i4
    0x100007aa0:            f8 23 a8 f3  st        %i4, [%sp + 0x8f3]
    0x100007aa4:            b0 00 80 03  add       %g2, %g3, %i0
    0x100007aa8:            f0 23 a9 7b  st        %i0, [%sp + 0x97b]
    0x100007aac:            80 a7 00 04  cmp       %i4, %g4
    0x100007ab0:            24 4f ff 83  ble,a,pt  %icc, -0x1f4  <0x1000078bc>
    0x100007ab4:            d8 07 a6 ab  ld        [%fp + 0x6ab], %o4
    0x100007ab8:            c6 03 a9 17  ld        [%sp + 0x917], %g3
    0x100007abc:            c8 03 a9 5b  ld        [%sp + 0x95b], %g4
    0x100007ac0:            80 89 00 03  btst      %g3, %g4
    0x100007ac4:            02 40 00 94  be,pn     %icc, +0x250  <0x100007d14>
    0x100007ac8:            f8 03 a9 4b  ld        [%sp + 0x94b], %i4
    0x100007acc:            ea 03 a8 df  ld        [%sp + 0x8df], %l5
    0x100007ad0:            c0 23 a9 6b  clr       [%sp + 0x96b]
    0x100007ad4:            de 03 a8 c7  ld        [%sp + 0x8c7], %o7
    0x100007ad8:            a3 3f 20 00  sra       %i4, 0x0, %l1
    0x100007adc:            b3 3d 60 00  sra       %l5, 0x0, %i1
    0x100007ae0:            a8 4e 40 11  mulx      %i1, %l1, %l4
    0x100007ae4:            a3 2d 60 01  sll       %l5, 0x1, %l1
    0x100007ae8:            9a 4b c0 11  mulx      %o7, %l1, %o5
    0x100007aec:            a4 4f 40 11  mulx      %i5, %l1, %l2
    0x100007af0:            ad 2d 20 01  sll       %l4, 0x1, %l6
    0x100007af4:            a9 2f 20 01  sll       %i4, 0x1, %l4
    0x100007af8:            e8 23 a9 63  st        %l4, [%sp + 0x963]
    0x100007afc:            89 2b e0 01  sll       %o7, 0x1, %g4
    0x100007b00:            ec 23 a9 5f  st        %l6, [%sp + 0x95f]
    0x100007b04:            af 31 20 00  srl       %g4, 0x0, %l7
    0x100007b08:            da 23 a9 67  st        %o5, [%sp + 0x967]
    0x100007b0c:            a6 07 7f ff  add       %i5, -0x1, %l3
    0x100007b10:            c8 27 a6 a7  st        %g4, [%fp + 0x6a7]
    0x100007b14:            a9 2f 60 01  sll       %i5, 0x1, %l4
    0x100007b18:            ee 23 a9 bf  st        %l7, [%sp + 0x9bf]
    0x100007b1c:            c4 03 a9 67  ld        [%sp + 0x967], %g2
    0x100007b20:            8a 10 20 00  clr       %g5
    0x100007b24:            c4 23 a9 d7  st        %g2, [%sp + 0x9d7]
    0x100007b28:            92 10 20 00  clr       %o1
    0x100007b2c:            d0 03 a9 bf  ld        [%sp + 0x9bf], %o0
    0x100007b30:            c8 03 a9 d7  ld        [%sp + 0x9d7], %g4
    0x100007b34:            80 a7 60 00  cmp       %i5, 0x0
    0x100007b38:            04 40 00 58  ble,pn    %icc, +0x160  <0x100007c98>
    0x100007b3c:            98 10 20 00  clr       %o4
    0x100007b40:            96 10 00 04  mov       %g4, %o3
    0x100007b44:            94 10 00 08  mov       %o0, %o2
    0x100007b48:            84 10 20 00  clr       %g2
    0x100007b4c:            80 a7 60 05  cmp       %i5, 0x5
    0x100007b50:            ae 10 00 0a  mov       %o2, %l7
    0x100007b54:            9e 10 00 0b  mov       %o3, %o7
    0x100007b58:            06 40 00 3a  bl,pn     %icc, +0xe8   <0x100007c40>
    0x100007b5c:            01 00 00 00  nop
    0x100007b60:            b9 3c 60 00  sra       %l1, 0x0, %i4
    0x100007b64:            ab 2f 30 03  sllx      %i4, 0x3, %l5
    0x100007b68:            ac 4d 60 05  mulx      %l5, 0x5, %l6
    0x100007b6c:            87 3a a0 00  sra       %o2, 0x0, %g3
    0x100007b70:            9b 28 f0 03  sllx      %g3, 0x3, %o5
    0x100007b74:            b2 10 00 16  mov       %l6, %i1
    0x100007b78:            b8 05 a0 08  add       %l6, 0x8, %i4
    0x100007b7c:            b0 06 c0 0d  add       %i3, %o5, %i0
    0x100007b80:            ad 3a e0 00  sra       %o3, 0x0, %l6
    0x100007b84:            86 06 20 10  add       %i0, 0x10, %g3
    0x100007b88:            84 10 20 01  mov       0x1, %g2
    0x100007b8c:            e5 1b 40 1b  ldd       [%o5 + %i3], %d18
    0x100007b90:            9b 2d b0 03  sllx      %l6, 0x3, %o5
    0x100007b94:            e5 3e 80 0d  std       %d18, [%i2 + %o5]
    0x100007b98:            b0 06 80 0d  add       %i2, %o5, %i0
    0x100007b9c:            ac 06 00 15  add       %i0, %l5, %l6
    0x100007ba0:            d1 18 ff f8  ldd       [%g3 - 0x8], %d8
    0x100007ba4:            9e 02 c0 11  add       %o3, %l1, %o7
    0x100007ba8:            d1 3e 20 08  std       %d8, [%i0 + 0x8]
    0x100007bac:            b0 07 7f fc  add       %i5, -0x4, %i0
    0x100007bb0:            ed 6d 80 19  prefetch  [%l6 + %i1], #n_writes_strong
    0x100007bb4:            c1 68 e0 58  prefetch  [%g3 + 0x58], #n_reads
    0x100007bb8:            84 00 a0 04  add       %g2, 0x4, %g2
    0x100007bbc:            e1 18 e0 00  ldd       [%g3], %d16
    0x100007bc0:            86 00 e0 40  add       %g3, 0x40, %g3
    0x100007bc4:            80 a0 80 18  cmp       %g2, %i0
    0x100007bc8:            ae 05 e0 08  add       %l7, 0x8, %l7
    0x100007bcc:            e1 3d a0 00  std       %d16, [%l6]
    0x100007bd0:            ff 18 ff c8  ldd       [%g3 - 0x38], %d62
    0x100007bd4:            9e 03 c0 11  add       %o7, %l1, %o7
    0x100007bd8:            ff 3d a0 08  std       %d62, [%l6 + 0x8]
    0x100007bdc:            ac 05 80 15  add       %l6, %l5, %l6
    0x100007be0:            f1 18 ff d0  ldd       [%g3 - 0x30], %d24
    0x100007be4:            f1 3d a0 00  std       %d24, [%l6]
    0x100007be8:            ed 18 ff d8  ldd       [%g3 - 0x28], %d22
    0x100007bec:            9a 03 c0 11  add       %o7, %l1, %o5
    0x100007bf0:            ed 3d a0 08  std       %d22, [%l6 + 0x8]
    0x100007bf4:            ac 05 80 15  add       %l6, %l5, %l6
    0x100007bf8:            ed 6d 80 1c  prefetch  [%l6 + %i4], #n_writes_strong
    0x100007bfc:            fb 18 ff e0  ldd       [%g3 - 0x20], %d60
    0x100007c00:            fb 3d a0 00  std       %d60, [%l6]
    0x100007c04:            f3 18 ff e8  ldd       [%g3 - 0x18], %d56
    0x100007c08:            9e 03 40 11  add       %o5, %l1, %o7
    0x100007c0c:            f3 3d a0 08  std       %d56, [%l6 + 0x8]
    0x100007c10:            9a 05 80 15  add       %l6, %l5, %o5
    0x100007c14:            dd 18 ff f0  ldd       [%g3 - 0x10], %d14
    0x100007c18:            dd 3d 40 16  std       %d14, [%l5 + %l6]
    0x100007c1c:            f7 18 ff f8  ldd       [%g3 - 0x8], %d58
    0x100007c20:            9e 03 c0 11  add       %o7, %l1, %o7
    0x100007c24:            f7 3b 60 08  std       %d58, [%o5 + 0x8]
    0x100007c28:            04 4f ff e2  ble,pt    %icc, -0x78   <0x100007bb0>
    0x100007c2c:            ac 03 40 15  add       %o5, %l5, %l6
    0x100007c30:            80 a0 80 13  cmp       %g2, %l3
    0x100007c34:            ae 05 e0 02  add       %l7, 0x2, %l7
    0x100007c38:            14 40 00 12  bg,pn     %icc, +0x48   <0x100007c80>
    0x100007c3c:            01 00 00 00  nop
    0x100007c40:            84 00 a0 01  add       %g2, 0x1, %g2
    0x100007c44:            ab 3d e0 00  sra       %l7, 0x0, %l5
    0x100007c48:            ad 2d 70 03  sllx      %l5, 0x3, %l6
    0x100007c4c:            9b 3b e0 00  sra       %o7, 0x0, %o5
    0x100007c50:            b1 2b 70 03  sllx      %o5, 0x3, %i0
    0x100007c54:            86 05 80 1b  add       %l6, %i3, %g3
    0x100007c58:            eb 1e c0 16  ldd       [%i3 + %l6], %d52
    0x100007c5c:            b8 06 00 1a  add       %i0, %i2, %i4
    0x100007c60:            eb 3e 80 18  std       %d52, [%i2 + %i0]
    0x100007c64:            80 a0 80 13  cmp       %g2, %l3
    0x100007c68:            dd 18 e0 08  ldd       [%g3 + 0x8], %d14
    0x100007c6c:            ae 05 e0 02  add       %l7, 0x2, %l7
    0x100007c70:            9e 03 c0 11  add       %o7, %l1, %o7
    0x100007c74:            dd 3f 20 08  std       %d14, [%i4 + 0x8]
    0x100007c78:            04 4f ff f3  ble,pt    %icc, -0x34   <0x100007c44>
    0x100007c7c:            84 00 a0 01  add       %g2, 0x1, %g2
    0x100007c80:            98 03 20 01  add       %o4, 0x1, %o4
    0x100007c84:            80 a3 00 13  cmp       %o4, %l3
    0x100007c88:            94 02 80 11  add       %o2, %l1, %o2
    0x100007c8c:            96 02 e0 02  add       %o3, 0x2, %o3
    0x100007c90:            04 4f ff af  ble,pt    %icc, -0x144  <0x100007b4c>
    0x100007c94:            84 10 20 00  clr       %g2
    0x100007c98:            92 02 60 01  add       %o1, 0x1, %o1
    0x100007c9c:            80 a2 40 10  cmp       %o1, %l0
    0x100007ca0:            88 01 00 12  add       %g4, %l2, %g4
    0x100007ca4:            90 02 00 14  add       %o0, %l4, %o0
    0x100007ca8:            04 4f ff a4  ble,pt    %icc, -0x170  <0x100007b38>
    0x100007cac:            80 a7 60 00  cmp       %i5, 0x0
    0x100007cb0:            ea 03 a9 bf  ld        [%sp + 0x9bf], %l5
    0x100007cb4:            8a 01 60 01  add       %g5, 0x1, %g5
    0x100007cb8:            c8 03 a9 d7  ld        [%sp + 0x9d7], %g4
    0x100007cbc:            9e 05 40 12  add       %l5, %l2, %o7
    0x100007cc0:            80 a1 40 10  cmp       %g5, %l0
    0x100007cc4:            de 23 a9 bf  st        %o7, [%sp + 0x9bf]
    0x100007cc8:            86 01 00 14  add       %g4, %l4, %g3
    0x100007ccc:            c6 23 a9 d7  st        %g3, [%sp + 0x9d7]
    0x100007cd0:            04 4f ff 97  ble,pt    %icc, -0x1a4  <0x100007b2c>
    0x100007cd4:            92 10 20 00  clr       %o1
    0x100007cd8:            ea 07 a6 a7  ld        [%fp + 0x6a7], %l5
    0x100007cdc:            ee 03 a9 5f  ld        [%sp + 0x95f], %l7
    0x100007ce0:            d6 03 a9 67  ld        [%sp + 0x967], %o3
    0x100007ce4:            f2 03 a9 6b  ld        [%sp + 0x96b], %i1
    0x100007ce8:            d8 03 a9 63  ld        [%sp + 0x963], %o4
    0x100007cec:            de 03 a8 ef  ld        [%sp + 0x8ef], %o7
    0x100007cf0:            8a 05 40 17  add       %l5, %l7, %g5
    0x100007cf4:            ca 27 a6 a7  st        %g5, [%fp + 0x6a7]
    0x100007cf8:            9a 06 60 01  add       %i1, 0x1, %o5
    0x100007cfc:            da 23 a9 6b  st        %o5, [%sp + 0x96b]
    0x100007d00:            94 02 c0 0c  add       %o3, %o4, %o2
    0x100007d04:            d4 23 a9 67  st        %o2, [%sp + 0x967]
    0x100007d08:            80 a3 40 0f  cmp       %o5, %o7
    0x100007d0c:            24 4f ff 83  ble,a,pt  %icc, -0x1f4  <0x100007b18>
    0x100007d10:            ee 07 a6 a7  ld        [%fp + 0x6a7], %l7
    0x100007d14:            ca 07 a6 eb  ld        [%fp + 0x6eb], %g5
    0x100007d18:            80 90 00 05  tst       %g5
    0x100007d1c:            04 40 00 83  ble,pn    %icc, +0x20c  <0x100007f28>
    0x100007d20:            c4 03 a9 4b  ld        [%sp + 0x94b], %g2
    0x100007d24:            ee 03 a8 df  ld        [%sp + 0x8df], %l7
    0x100007d28:            f0 5b a8 e7  ldx       [%sp + 0x8e7], %i0
    0x100007d2c:            f2 03 a8 c7  ld        [%sp + 0x8c7], %i1
    0x100007d30:            85 38 a0 00  sra       %g2, 0x0, %g2
    0x100007d34:            96 4e 00 02  mulx      %i0, %g2, %o3
    0x100007d38:            99 3d e0 00  sra       %l7, 0x0, %o4
    0x100007d3c:            8a 4b 00 02  mulx      %o4, %g2, %g5
    0x100007d40:            ad 39 60 00  sra       %g5, 0x0, %l6
    0x100007d44:            9a 4d 80 18  mulx      %l6, %i0, %o5
    0x100007d48:            a7 2d e0 01  sll       %l7, 0x1, %l3
    0x100007d4c:            b0 4e 40 13  mulx      %i1, %l3, %i0
    0x100007d50:            88 4f 40 13  mulx      %i5, %l3, %g4
    0x100007d54:            86 03 40 19  add       %o5, %i1, %g3
    0x100007d58:            9f 2a e0 01  sll       %o3, 0x1, %o7
    0x100007d5c:            b9 28 e0 01  sll       %g3, 0x1, %i4
    0x100007d60:            a2 06 00 0f  add       %i0, %o7, %l1
    0x100007d64:            86 10 20 00  clr       %g3
    0x100007d68:            aa 07 7f ff  add       %i5, -0x1, %l5
    0x100007d6c:            e2 23 aa 17  st        %l1, [%sp + 0xa17]
    0x100007d70:            8b 2f 60 01  sll       %i5, 0x1, %g5
    0x100007d74:            f8 23 aa 07  st        %i4, [%sp + 0xa07]
    0x100007d78:            94 10 20 00  clr       %o2
    0x100007d7c:            d2 03 aa 07  ld        [%sp + 0xa07], %o1
    0x100007d80:            d0 03 aa 17  ld        [%sp + 0xa17], %o0
    0x100007d84:            80 a7 60 00  cmp       %i5, 0x0
    0x100007d88:            04 40 00 58  ble,pn    %icc, +0x160  <0x100007ee8>
    0x100007d8c:            9a 10 20 00  clr       %o5
    0x100007d90:            98 10 00 08  mov       %o0, %o4
    0x100007d94:            96 10 00 09  mov       %o1, %o3
    0x100007d98:            84 10 20 00  clr       %g2
    0x100007d9c:            80 a7 60 05  cmp       %i5, 0x5
    0x100007da0:            ae 10 00 0b  mov       %o3, %l7
    0x100007da4:            ac 10 00 0c  mov       %o4, %l6
    0x100007da8:            06 40 00 3a  bl,pn     %icc, +0xe8   <0x100007e90>
    0x100007dac:            01 00 00 00  nop
    0x100007db0:            a3 3c e0 00  sra       %l3, 0x0, %l1
    0x100007db4:            a3 2c 70 03  sllx      %l1, 0x3, %l1
    0x100007db8:            a4 4c 60 05  mulx      %l1, 0x5, %l2
    0x100007dbc:            b1 3a e0 00  sra       %o3, 0x0, %i0
    0x100007dc0:            b2 10 00 12  mov       %l2, %i1
    0x100007dc4:            b8 04 a0 08  add       %l2, 0x8, %i4
    0x100007dc8:            9f 2e 30 03  sllx      %i0, 0x3, %o7
    0x100007dcc:            a5 3b 20 00  sra       %o4, 0x0, %l2
    0x100007dd0:            b1 2c b0 03  sllx      %l2, 0x3, %i0
    0x100007dd4:            a8 06 c0 0f  add       %i3, %o7, %l4
    0x100007dd8:            a8 05 20 10  add       %l4, 0x10, %l4
    0x100007ddc:            fb 1b c0 1b  ldd       [%o7 + %i3], %d60
    0x100007de0:            9e 06 80 18  add       %i2, %i0, %o7
    0x100007de4:            fb 3e 80 18  std       %d60, [%i2 + %i0]
    0x100007de8:            84 10 20 01  mov       0x1, %g2
    0x100007dec:            ac 03 00 13  add       %o4, %l3, %l6
    0x100007df0:            f3 1d 3f f8  ldd       [%l4 - 0x8], %d56
    0x100007df4:            a4 03 c0 11  add       %o7, %l1, %l2
    0x100007df8:            f3 3b e0 08  std       %d56, [%o7 + 0x8]
    0x100007dfc:            b0 07 7f fc  add       %i5, -0x4, %i0
    0x100007e00:            ed 6c 80 19  prefetch  [%l2 + %i1], #n_writes_strong
    0x100007e04:            c1 6d 20 58  prefetch  [%l4 + 0x58], #n_reads
    0x100007e08:            84 00 a0 04  add       %g2, 0x4, %g2
    0x100007e0c:            dd 1d 20 00  ldd       [%l4], %d14
    0x100007e10:            a8 05 20 40  add       %l4, 0x40, %l4
    0x100007e14:            80 a0 80 18  cmp       %g2, %i0
    0x100007e18:            ae 05 e0 08  add       %l7, 0x8, %l7
    0x100007e1c:            dd 3c a0 00  std       %d14, [%l2]
    0x100007e20:            f7 1d 3f c8  ldd       [%l4 - 0x38], %d58
    0x100007e24:            ac 05 80 13  add       %l6, %l3, %l6
    0x100007e28:            f7 3c a0 08  std       %d58, [%l2 + 0x8]
    0x100007e2c:            a4 04 80 11  add       %l2, %l1, %l2
    0x100007e30:            ef 1d 3f d0  ldd       [%l4 - 0x30], %d54
    0x100007e34:            ef 3c a0 00  std       %d54, [%l2]
    0x100007e38:            d9 1d 3f d8  ldd       [%l4 - 0x28], %d12
    0x100007e3c:            9e 05 80 13  add       %l6, %l3, %o7
    0x100007e40:            d9 3c a0 08  std       %d12, [%l2 + 0x8]
    0x100007e44:            ac 04 80 11  add       %l2, %l1, %l6
    0x100007e48:            ed 6d 80 1c  prefetch  [%l6 + %i4], #n_writes_strong
    0x100007e4c:            eb 1d 3f e0  ldd       [%l4 - 0x20], %d52
    0x100007e50:            eb 3c 40 12  std       %d52, [%l1 + %l2]
    0x100007e54:            d5 1d 3f e8  ldd       [%l4 - 0x18], %d10
    0x100007e58:            9e 03 c0 13  add       %o7, %l3, %o7
    0x100007e5c:            d5 3d a0 08  std       %d10, [%l6 + 0x8]
    0x100007e60:            a4 05 80 11  add       %l6, %l1, %l2
    0x100007e64:            cd 1d 3f f0  ldd       [%l4 - 0x10], %d6
    0x100007e68:            cd 3c 40 16  std       %d6, [%l1 + %l6]
    0x100007e6c:            e9 1d 3f f8  ldd       [%l4 - 0x8], %d20
    0x100007e70:            ac 03 c0 13  add       %o7, %l3, %l6
    0x100007e74:            e9 3c a0 08  std       %d20, [%l2 + 0x8]
    0x100007e78:            04 4f ff e2  ble,pt    %icc, -0x78   <0x100007e00>
    0x100007e7c:            a4 04 80 11  add       %l2, %l1, %l2
    0x100007e80:            80 a0 80 15  cmp       %g2, %l5
    0x100007e84:            ae 05 e0 02  add       %l7, 0x2, %l7
    0x100007e88:            14 40 00 12  bg,pn     %icc, +0x48   <0x100007ed0>
    0x100007e8c:            01 00 00 00  nop
    0x100007e90:            84 00 a0 01  add       %g2, 0x1, %g2
    0x100007e94:            a3 3d e0 00  sra       %l7, 0x0, %l1
    0x100007e98:            a5 2c 70 03  sllx      %l1, 0x3, %l2
    0x100007e9c:            a9 3d a0 00  sra       %l6, 0x0, %l4
    0x100007ea0:            b9 2d 30 03  sllx      %l4, 0x3, %i4
    0x100007ea4:            b0 04 80 1b  add       %l2, %i3, %i0
    0x100007ea8:            d1 1e c0 12  ldd       [%i3 + %l2], %d8
    0x100007eac:            b2 07 00 1a  add       %i4, %i2, %i1
    0x100007eb0:            d1 3e 80 1c  std       %d8, [%i2 + %i4]
    0x100007eb4:            80 a0 80 15  cmp       %g2, %l5
    0x100007eb8:            fb 1e 20 08  ldd       [%i0 + 0x8], %d60
    0x100007ebc:            ae 05 e0 02  add       %l7, 0x2, %l7
    0x100007ec0:            ac 05 80 13  add       %l6, %l3, %l6
    0x100007ec4:            fb 3e 60 08  std       %d60, [%i1 + 0x8]
    0x100007ec8:            04 4f ff f3  ble,pt    %icc, -0x34   <0x100007e94>
    0x100007ecc:            84 00 a0 01  add       %g2, 0x1, %g2
    0x100007ed0:            9a 03 60 01  add       %o5, 0x1, %o5
    0x100007ed4:            80 a3 40 15  cmp       %o5, %l5
    0x100007ed8:            96 02 c0 13  add       %o3, %l3, %o3
    0x100007edc:            98 03 20 02  add       %o4, 0x2, %o4
    0x100007ee0:            04 4f ff af  ble,pt    %icc, -0x144  <0x100007d9c>
    0x100007ee4:            84 10 20 00  clr       %g2
    0x100007ee8:            94 02 a0 01  add       %o2, 0x1, %o2
    0x100007eec:            80 a2 80 10  cmp       %o2, %l0
    0x100007ef0:            90 02 00 04  add       %o0, %g4, %o0
    0x100007ef4:            92 02 40 05  add       %o1, %g5, %o1
    0x100007ef8:            04 4f ff a4  ble,pt    %icc, -0x170  <0x100007d88>
    0x100007efc:            80 a7 60 00  cmp       %i5, 0x0
    0x100007f00:            f2 03 aa 07  ld        [%sp + 0xa07], %i1
    0x100007f04:            86 00 e0 01  add       %g3, 0x1, %g3
    0x100007f08:            f8 03 aa 17  ld        [%sp + 0xa17], %i4
    0x100007f0c:            ac 06 40 04  add       %i1, %g4, %l6
    0x100007f10:            80 a0 c0 10  cmp       %g3, %l0
    0x100007f14:            ec 23 aa 07  st        %l6, [%sp + 0xa07]
    0x100007f18:            90 07 00 05  add       %i4, %g5, %o0
    0x100007f1c:            d0 23 aa 17  st        %o0, [%sp + 0xa17]
    0x100007f20:            04 4f ff 97  ble,pt    %icc, -0x1a4  <0x100007d7c>
    0x100007f24:            94 10 20 00  clr       %o2
    0x100007f28:            e2 03 a8 db  ld        [%sp + 0x8db], %l1
    0x100007f2c:            80 a4 60 00  cmp       %l1, 0x0
    0x100007f30:            02 40 00 05  be,pn     %icc, +0x14   <0x100007f44>
    0x100007f34:            ca 03 a8 d7  ld        [%sp + 0x8d7], %g5
    0x100007f38:            80 a1 60 00  cmp       %g5, 0x0
    0x100007f3c:            02 48 00 15  be,pt     %icc, +0x54   <0x100007f90>
    0x100007f40:            01 00 00 00  nop
    0x100007f44:            92 10 20 00  clr       %o1
    0x100007f48:            40 04 23 e6  call      +0x108f98     <0x100110ee0>
    0x100007f4c:            90 07 a7 1f  add       %fp, 0x71f, %o0
    0x100007f50:            ee 5f a7 1f  ldx       [%fp + 0x71f], %l7
    0x100007f54:            d4 5f a8 bf  ldx       [%fp + 0x8bf], %o2
    0x100007f58:            e8 5f a7 27  ldx       [%fp + 0x727], %l4
    0x100007f5c:            a7 2d f0 05  sllx      %l7, 0x5, %l3
    0x100007f60:            a4 25 c0 13  sub       %l7, %l3, %l2
    0x100007f64:            a3 2c b0 09  sllx      %l2, 0x9, %l1
    0x100007f68:            b2 24 40 17  sub       %l1, %l7, %i1
    0x100007f6c:            ab 2e 70 06  sllx      %i1, 0x6, %l5
    0x100007f70:            9e 25 40 19  sub       %l5, %i1, %o7
    0x100007f74:            e0 5f a7 8f  ldx       [%fp + 0x78f], %l0
    0x100007f78:            8a 25 c0 0f  sub       %l7, %o7, %g5
    0x100007f7c:            d8 5a a0 00  ldx       [%o2], %o4
    0x100007f80:            ba 05 00 05  add       %l4, %g5, %i5
    0x100007f84:            90 27 40 10  sub       %i5, %l0, %o0
    0x100007f88:            96 03 00 08  add       %o4, %o0, %o3
    0x100007f8c:            d6 72 a0 00  stx       %o3, [%o2]
    0x100007f90:            40 04 24 3c  call      +0x1090f0     <0x100111080>
    0x100007f94:            d0 5b a8 af  ldx       [%sp + 0x8af], %o0
    0x100007f98:            0a c2 01 0a  brnz,pn   %o0, +0x428   <0x1000083c0>
    0x100007f9c:            01 00 00 00  nop
    0x100007fa0:            d6 5f a8 ff  ldx       [%fp + 0x8ff], %o3
    0x100007fa4:            f0 5a e0 48  ldx       [%o3 + 0x48], %i0
    0x100007fa8:            d8 5b a8 b7  ldx       [%sp + 0x8b7], %o4
    0x100007fac:            f8 5a e0 50  ldx       [%o3 + 0x50], %i4
    0x100007fb0:            86 06 20 01  add       %i0, 0x1, %g3
    0x100007fb4:            80 a0 c0 0c  cmp       %g3, %o4
    0x100007fb8:            02 60 00 1a  be,pn     %xcc, +0x68   <0x100008020>
    0x100007fbc:            c6 72 e0 48  stx       %g3, [%o3 + 0x48]
    0x100007fc0:            90 10 20 01  mov       0x1, %o0
    0x100007fc4:            40 04 24 3f  call      +0x1090fc     <0x1001110c0>
    0x100007fc8:            92 07 a7 17  add       %fp, 0x717, %o1
    0x100007fcc:            da 5f a8 ff  ldx       [%fp + 0x8ff], %o5
    0x100007fd0:            d2 5b 60 50  ldx       [%o5 + 0x50], %o1
    0x100007fd4:            80 a7 00 09  cmp       %i4, %o1
    0x100007fd8:            12 60 00 0c  bne,pn    %xcc, +0x30   <0x100008008>
    0x100007fdc:            ac 03 60 38  add       %o5, 0x38, %l6
    0x100007fe0:            90 10 00 16  mov       %l6, %o0
    0x100007fe4:            40 04 24 3f  call      +0x1090fc     <0x1001110e0>
    0x100007fe8:            d2 5b a8 af  ldx       [%sp + 0x8af], %o1
    0x100007fec:            0a c2 00 07  brnz,pn   %o0, +0x1c    <0x100008008>
    0x100007ff0:            01 00 00 00  nop
    0x100007ff4:            de 5f a8 ff  ldx       [%fp + 0x8ff], %o7
    0x100007ff8:            d4 5b e0 50  ldx       [%o7 + 0x50], %o2
    0x100007ffc:            80 a7 00 0a  cmp       %i4, %o2
    0x100008000:            02 6f ff f9  be,pt     %xcc, -0x1c   <0x100007fe4>
    0x100008004:            90 10 00 16  mov       %l6, %o0
    0x100008008:            92 07 a7 0f  add       %fp, 0x70f, %o1
    0x10000800c:            d6 07 a7 1b  ld        [%fp + 0x71b], %o3
    0x100008010:            40 04 24 2c  call      +0x1090b0     <0x1001110c0>
    0x100008014:            91 3a e0 00  sra       %o3, 0x0, %o0
    0x100008018:            10 80 00 08  ba        +0x20         <0x100008038>
    0x10000801c:            01 00 00 00  nop
    0x100008020:            98 10 20 00  clr       %o4
    0x100008024:            99 7f 24 01  movre     %i4, 0x1, %o4
    0x100008028:            d8 72 e0 50  stx       %o4, [%o3 + 0x50]
    0x10000802c:            90 02 e0 38  add       %o3, 0x38, %o0
    0x100008030:            40 04 24 34  call      +0x1090d0     <0x100111100>
    0x100008034:            c0 72 e0 48  clrx      [%o3 + 0x48]
    0x100008038:            40 04 24 1a  call      +0x109068     <0x1001110a0>
    0x10000803c:            d0 5b a8 af  ldx       [%sp + 0x8af], %o0
    0x100008040:            ec 03 a8 d3  ld        [%sp + 0x8d3], %l6
    0x100008044:            f8 03 a8 cf  ld        [%sp + 0x8cf], %i4
    0x100008048:            80 95 80 1c  orcc      %l6, %i4, %g0
    0x10000804c:            02 40 00 94  be,pn     %icc, +0x250  <0x10000829c>
    0x100008050:            e4 03 a8 c7  ld        [%sp + 0x8c7], %l2
    0x100008054:            d0 03 a8 cb  ld        [%sp + 0x8cb], %o0
    0x100008058:            80 a4 80 08  cmp       %l2, %o0
    0x10000805c:            16 40 00 90  bge,pn    %icc, +0x240  <0x10000829c>
    0x100008060:            e6 03 a8 c3  ld        [%sp + 0x8c3], %l3
    0x100008064:            c8 03 a8 bf  ld        [%sp + 0x8bf], %g4
    0x100008068:            ca 03 a8 c7  ld        [%sp + 0x8c7], %g5
    0x10000806c:            a5 2c e0 01  sll       %l3, 0x1, %l2
    0x100008070:            a7 29 20 01  sll       %g4, 0x1, %l3
    0x100008074:            93 39 20 00  sra       %g4, 0x0, %o1
    0x100008078:            a8 04 c0 12  add       %l3, %l2, %l4
    0x10000807c:            aa 59 40 14  smul      %g5, %l4, %l5
    0x100008080:            95 2a 70 04  sllx      %o1, 0x4, %o2
    0x100008084:            ae 10 00 05  mov       %g5, %l7
    0x100008088:            94 02 a0 08  add       %o2, 0x8, %o2
    0x10000808c:            a2 01 3f ff  add       %g4, -0x1, %l1
    0x100008090:            b2 10 00 04  mov       %g4, %i1
    0x100008094:            80 a6 60 00  cmp       %i1, 0x0
    0x100008098:            04 40 00 7b  ble,pn    %icc, +0x1ec  <0x100008284>
    0x10000809c:            80 a4 60 03  cmp       %l1, 0x3
    0x1000080a0:            a7 3d 60 00  sra       %l5, 0x0, %l3
    0x1000080a4:            a5 2c f0 03  sllx      %l3, 0x3, %l2
    0x1000080a8:            98 04 80 1b  add       %l2, %i3, %o4
    0x1000080ac:            06 40 00 45  bl,pn     %icc, +0x114  <0x1000081c0>
    0x1000080b0:            a4 04 80 1a  add       %l2, %i2, %l2
    0x1000080b4:            a0 23 00 12  sub       %o4, %l2, %l0
    0x1000080b8:            b3 3c 30 3f  srax      %l0, 0x3f, %i1
    0x1000080bc:            86 1c 00 19  xor       %l0, %i1, %g3
    0x1000080c0:            90 20 c0 19  sub       %g3, %i1, %o0
    0x1000080c4:            80 a2 00 0a  cmp       %o0, %o2
    0x1000080c8:            06 60 00 3e  bl,pn     %xcc, +0xf8   <0x1000081c0>
    0x1000080cc:            88 10 20 00  clr       %g4
    0x1000080d0:            b2 04 60 01  add       %l1, 0x1, %i1
    0x1000080d4:            80 a6 60 06  cmp       %i1, 0x6
    0x1000080d8:            90 10 20 00  clr       %o0
    0x1000080dc:            06 40 00 2a  bl,pn     %icc, +0xa8   <0x100008184>
    0x1000080e0:            01 00 00 00  nop
    0x1000080e4:            cd 1c a0 00  ldd       [%l2], %d6
    0x1000080e8:            e1 1c a0 08  ldd       [%l2 + 0x8], %d16
    0x1000080ec:            88 10 20 02  mov       0x2, %g4
    0x1000080f0:            e9 1c a0 10  ldd       [%l2 + 0x10], %d20
    0x1000080f4:            84 04 a0 20  add       %l2, 0x20, %g2
    0x1000080f8:            86 10 00 0c  mov       %o4, %g3
    0x1000080fc:            e5 1c a0 18  ldd       [%l2 + 0x18], %d18
    0x100008100:            9e 24 60 03  sub       %l1, 0x3, %o7
    0x100008104:            c1 68 a0 a8  prefetch  [%g2 + 0xa8], #n_reads
    0x100008108:            ed 68 e0 a8  prefetch  [%g3 + 0xa8], #n_writes_strong
    0x10000810c:            88 01 20 04  add       %g4, 0x4, %g4
    0x100008110:            ef 18 a0 00  ldd       [%g2], %d54
    0x100008114:            84 00 a0 40  add       %g2, 0x40, %g2
    0x100008118:            cd 38 e0 00  std       %d6, [%g3]
    0x10000811c:            80 a1 00 0f  cmp       %g4, %o7
    0x100008120:            86 00 e0 40  add       %g3, 0x40, %g3
    0x100008124:            90 02 20 08  add       %o0, 0x8, %o0
    0x100008128:            d9 18 bf c8  ldd       [%g2 - 0x38], %d12
    0x10000812c:            e1 38 ff c8  std       %d16, [%g3 - 0x38]
    0x100008130:            eb 18 bf d0  ldd       [%g2 - 0x30], %d52
    0x100008134:            e9 38 ff d0  std       %d20, [%g3 - 0x30]
    0x100008138:            d5 18 bf d8  ldd       [%g2 - 0x28], %d10
    0x10000813c:            e5 38 ff d8  std       %d18, [%g3 - 0x28]
    0x100008140:            cd 18 bf e0  ldd       [%g2 - 0x20], %d6
    0x100008144:            ef 38 ff e0  std       %d54, [%g3 - 0x20]
    0x100008148:            e1 18 bf e8  ldd       [%g2 - 0x18], %d16
    0x10000814c:            d9 38 ff e8  std       %d12, [%g3 - 0x18]
    0x100008150:            e9 18 bf f0  ldd       [%g2 - 0x10], %d20
    0x100008154:            eb 38 ff f0  std       %d52, [%g3 - 0x10]
    0x100008158:            e5 18 bf f8  ldd       [%g2 - 0x8], %d18
    0x10000815c:            04 4f ff ea  ble,pt    %icc, -0x58   <0x100008104>
    0x100008160:            d5 38 ff f8  std       %d10, [%g3 - 0x8]
    0x100008164:            cd 38 e0 00  std       %d6, [%g3]
    0x100008168:            e1 38 e0 08  std       %d16, [%g3 + 0x8]
    0x10000816c:            80 a1 00 11  cmp       %g4, %l1
    0x100008170:            e9 38 e0 10  std       %d20, [%g3 + 0x10]
    0x100008174:            90 02 20 04  add       %o0, 0x4, %o0
    0x100008178:            e5 38 e0 18  std       %d18, [%g3 + 0x18]
    0x10000817c:            14 40 00 0f  bg,pn     %icc, +0x3c   <0x1000081b8>
    0x100008180:            01 00 00 00  nop
    0x100008184:            88 01 20 01  add       %g4, 0x1, %g4
    0x100008188:            b3 3a 20 00  sra       %o0, 0x0, %i1
    0x10000818c:            8b 2e 70 03  sllx      %i1, 0x3, %g5
    0x100008190:            e5 1c 80 05  ldd       [%l2 + %g5], %d18
    0x100008194:            a0 01 40 12  add       %g5, %l2, %l0
    0x100008198:            e1 1c 20 08  ldd       [%l0 + 0x8], %d16
    0x10000819c:            ac 01 40 0c  add       %g5, %o4, %l6
    0x1000081a0:            e5 3b 00 05  std       %d18, [%o4 + %g5]
    0x1000081a4:            80 a1 00 11  cmp       %g4, %l1
    0x1000081a8:            90 02 20 02  add       %o0, 0x2, %o0
    0x1000081ac:            e1 3d a0 08  std       %d16, [%l6 + 0x8]
    0x1000081b0:            04 4f ff f6  ble,pt    %icc, -0x28   <0x100008188>
    0x1000081b4:            88 01 20 01  add       %g4, 0x1, %g4
    0x1000081b8:            10 80 00 34  ba        +0xd0         <0x100008288>
    0x1000081bc:            ae 05 e0 01  add       %l7, 0x1, %l7
    0x1000081c0:            90 04 60 01  add       %l1, 0x1, %o0
    0x1000081c4:            80 a2 20 04  cmp       %o0, 0x4
    0x1000081c8:            b8 10 20 00  clr       %i4
    0x1000081cc:            b2 10 20 00  clr       %i1
    0x1000081d0:            06 40 00 20  bl,pn     %icc, +0x80   <0x100008250>
    0x1000081d4:            01 00 00 00  nop
    0x1000081d8:            8a 10 00 12  mov       %l2, %g5
    0x1000081dc:            92 10 00 0c  mov       %o4, %o1
    0x1000081e0:            96 24 60 03  sub       %l1, 0x3, %o3
    0x1000081e4:            c1 69 60 a8  prefetch  [%g5 + 0xa8], #n_reads
    0x1000081e8:            ed 6a 60 a8  prefetch  [%o1 + 0xa8], #n_writes_strong
    0x1000081ec:            b8 07 20 04  add       %i4, 0x4, %i4
    0x1000081f0:            cd 19 60 00  ldd       [%g5], %d6
    0x1000081f4:            8a 01 60 40  add       %g5, 0x40, %g5
    0x1000081f8:            80 a7 00 0b  cmp       %i4, %o3
    0x1000081fc:            92 02 60 40  add       %o1, 0x40, %o1
    0x100008200:            cd 3a 7f c0  std       %d6, [%o1 - 0x40]
    0x100008204:            b2 06 60 08  add       %i1, 0x8, %i1
    0x100008208:            e9 19 7f c8  ldd       [%g5 - 0x38], %d20
    0x10000820c:            e9 3a 7f c8  std       %d20, [%o1 - 0x38]
    0x100008210:            e5 19 7f d0  ldd       [%g5 - 0x30], %d18
    0x100008214:            e5 3a 7f d0  std       %d18, [%o1 - 0x30]
    0x100008218:            d1 19 7f d8  ldd       [%g5 - 0x28], %d8
    0x10000821c:            d1 3a 7f d8  std       %d8, [%o1 - 0x28]
    0x100008220:            e1 19 7f e0  ldd       [%g5 - 0x20], %d16
    0x100008224:            e1 3a 7f e0  std       %d16, [%o1 - 0x20]
    0x100008228:            ff 19 7f e8  ldd       [%g5 - 0x18], %d62
    0x10000822c:            ff 3a 7f e8  std       %d62, [%o1 - 0x18]
    0x100008230:            f1 19 7f f0  ldd       [%g5 - 0x10], %d24
    0x100008234:            f1 3a 7f f0  std       %d24, [%o1 - 0x10]
    0x100008238:            ed 19 7f f8  ldd       [%g5 - 0x8], %d22
    0x10000823c:            04 4f ff ea  ble,pt    %icc, -0x58   <0x1000081e4>
    0x100008240:            ed 3a 7f f8  std       %d22, [%o1 - 0x8]
    0x100008244:            80 a7 00 11  cmp       %i4, %l1
    0x100008248:            14 40 00 0f  bg,pn     %icc, +0x3c   <0x100008284>
    0x10000824c:            01 00 00 00  nop
    0x100008250:            b8 07 20 01  add       %i4, 0x1, %i4
    0x100008254:            9f 3e 60 00  sra       %i1, 0x0, %o7
    0x100008258:            89 2b f0 03  sllx      %o7, 0x3, %g4
    0x10000825c:            e9 1c 80 04  ldd       [%l2 + %g4], %d20
    0x100008260:            86 01 00 12  add       %g4, %l2, %g3
    0x100008264:            e9 3b 00 04  std       %d20, [%o4 + %g4]
    0x100008268:            90 01 00 0c  add       %g4, %o4, %o0
    0x10000826c:            d5 18 e0 08  ldd       [%g3 + 0x8], %d10
    0x100008270:            80 a7 00 11  cmp       %i4, %l1
    0x100008274:            b2 06 60 02  add       %i1, 0x2, %i1
    0x100008278:            d5 3a 20 08  std       %d10, [%o0 + 0x8]
    0x10000827c:            04 4f ff f6  ble,pt    %icc, -0x28   <0x100008254>
    0x100008280:            b8 07 20 01  add       %i4, 0x1, %i4
    0x100008284:            ae 05 e0 01  add       %l7, 0x1, %l7
    0x100008288:            e0 03 a8 f7  ld        [%sp + 0x8f7], %l0
    0x10000828c:            aa 05 40 14  add       %l5, %l4, %l5
    0x100008290:            80 a5 c0 10  cmp       %l7, %l0
    0x100008294:            24 4f ff 80  ble,a,pt  %icc, -0x200  <0x100008094>
    0x100008298:            f2 03 a8 bf  ld        [%sp + 0x8bf], %i1
    0x10000829c:            40 04 23 79  call      +0x108de4     <0x100111080>
    0x1000082a0:            d0 5b a8 af  ldx       [%sp + 0x8af], %o0
    0x1000082a4:            0a c2 00 50  brnz,pn   %o0, +0x140   <0x1000083e4>
    0x1000082a8:            01 00 00 00  nop
    0x1000082ac:            f2 5f a8 ff  ldx       [%fp + 0x8ff], %i1
    0x1000082b0:            ea 5e 60 48  ldx       [%i1 + 0x48], %l5
    0x1000082b4:            e2 5b a8 b7  ldx       [%sp + 0x8b7], %l1
    0x1000082b8:            ee 5e 60 50  ldx       [%i1 + 0x50], %l7
    0x1000082bc:            9e 05 60 01  add       %l5, 0x1, %o7
    0x1000082c0:            80 a3 c0 11  cmp       %o7, %l1
    0x1000082c4:            02 60 00 1a  be,pn     %xcc, +0x68   <0x10000832c>
    0x1000082c8:            de 76 60 48  stx       %o7, [%i1 + 0x48]
    0x1000082cc:            90 10 20 01  mov       0x1, %o0
    0x1000082d0:            a0 10 00 19  mov       %i1, %l0
    0x1000082d4:            40 04 23 7b  call      +0x108dec     <0x1001110c0>
    0x1000082d8:            92 07 a7 07  add       %fp, 0x707, %o1
    0x1000082dc:            f2 5e 60 50  ldx       [%i1 + 0x50], %i1
    0x1000082e0:            80 a5 c0 19  cmp       %l7, %i1
    0x1000082e4:            12 60 00 0c  bne,pn    %xcc, +0x30   <0x100008314>
    0x1000082e8:            a2 04 20 38  add       %l0, 0x38, %l1
    0x1000082ec:            90 10 00 11  mov       %l1, %o0
    0x1000082f0:            40 04 23 7c  call      +0x108df0     <0x1001110e0>
    0x1000082f4:            d2 5b a8 af  ldx       [%sp + 0x8af], %o1
    0x1000082f8:            0a c2 00 07  brnz,pn   %o0, +0x1c    <0x100008314>
    0x1000082fc:            01 00 00 00  nop
    0x100008300:            f4 5f a8 ff  ldx       [%fp + 0x8ff], %i2
    0x100008304:            e0 5e a0 50  ldx       [%i2 + 0x50], %l0
    0x100008308:            80 a5 c0 10  cmp       %l7, %l0
    0x10000830c:            02 6f ff f9  be,pt     %xcc, -0x1c   <0x1000082f0>
    0x100008310:            90 10 00 11  mov       %l1, %o0
    0x100008314:            92 07 a6 ff  add       %fp, 0x6ff, %o1
    0x100008318:            f6 07 a7 0b  ld        [%fp + 0x70b], %i3
    0x10000831c:            40 04 23 69  call      +0x108da4     <0x1001110c0>
    0x100008320:            91 3e e0 00  sra       %i3, 0x0, %o0
    0x100008324:            10 80 00 08  ba        +0x20         <0x100008344>
    0x100008328:            01 00 00 00  nop
    0x10000832c:            a4 10 20 00  clr       %l2
    0x100008330:            c0 76 60 48  clrx      [%i1 + 0x48]
    0x100008334:            90 06 60 38  add       %i1, 0x38, %o0
    0x100008338:            a5 7d e4 01  movre     %l7, 0x1, %l2
    0x10000833c:            40 04 23 71  call      +0x108dc4     <0x100111100>
    0x100008340:            e4 76 60 50  stx       %l2, [%i1 + 0x50]
    0x100008344:            40 04 23 57  call      +0x108d5c     <0x1001110a0>
    0x100008348:            d0 5b a8 af  ldx       [%sp + 0x8af], %o0
    0x10000834c:            81 c7 e0 08  ret
    0x100008350:            81 e8 20 00  restore   %g0, 0x0, %g0
    0x100008354:            39 00 04 00  sethi     %hi(0x100000), %i4
    0x100008358:            a2 17 20 10  or        %i4, 0x10, %l1
    0x10000835c:            af 2c 70 0c  sllx      %l1, 0xc, %l7
    0x100008360:            40 04 22 f8  call      +0x108be0     <0x100110f40>
    0x100008364:            90 05 ec 28  add       %l7, 0xc28, %o0
    0x100008368:            40 04 22 ce  call      +0x108b38     <0x100110ea0>
    0x10000836c:            90 10 3f ff  mov       -0x1, %o0
    0x100008370:            10 bf f2 e4  ba        -0x3470       <0x100004f00>
    0x100008374:            ad 3c 20 00  sra       %l0, 0x0, %l6
    0x100008378:            2f 00 04 00  sethi     %hi(0x100000), %l7
    0x10000837c:            8a 15 e0 10  or        %l7, 0x10, %g5
    0x100008380:            a9 29 70 0c  sllx      %g5, 0xc, %l4
    0x100008384:            40 04 22 ef  call      +0x108bbc     <0x100110f40>
    0x100008388:            90 05 2c 58  add       %l4, 0xc58, %o0
    0x10000838c:            40 04 22 c5  call      +0x108b14     <0x100110ea0>
    0x100008390:            90 10 3f ff  mov       -0x1, %o0
    0x100008394:            10 bf f8 4b  ba        -0x1ed4       <0x1000064c0>
    0x100008398:            ca 5f a8 ff  ldx       [%fp + 0x8ff], %g5
    0x10000839c:            17 00 04 00  sethi     %hi(0x100000), %o3
    0x1000083a0:            94 12 e0 10  or        %o3, 0x10, %o2
    0x1000083a4:            ad 2a b0 0c  sllx      %o2, 0xc, %l6
    0x1000083a8:            40 04 22 e6  call      +0x108b98     <0x100110f40>
    0x1000083ac:            90 05 ac 88  add       %l6, 0xc88, %o0
    0x1000083b0:            40 04 22 bc  call      +0x108af0     <0x100110ea0>
    0x1000083b4:            90 10 3f ff  mov       -0x1, %o0
    0x1000083b8:            10 bf fc c3  ba        -0xcf4        <0x1000076c4>
    0x1000083bc:            e4 5f a8 ff  ldx       [%fp + 0x8ff], %l2
    0x1000083c0:            09 00 04 00  sethi     %hi(0x100000), %g4
    0x1000083c4:            84 11 20 10  or        %g4, 0x10, %g2
    0x1000083c8:            9b 28 b0 0c  sllx      %g2, 0xc, %o5
    0x1000083cc:            40 04 22 dd  call      +0x108b74     <0x100110f40>
    0x1000083d0:            90 03 6c b8  add       %o5, 0xcb8, %o0
    0x1000083d4:            40 04 22 b3  call      +0x108acc     <0x100110ea0>
    0x1000083d8:            90 10 3f ff  mov       -0x1, %o0
    0x1000083dc:            10 bf fe f2  ba        -0x438        <0x100007fa4>
    0x1000083e0:            d6 5f a8 ff  ldx       [%fp + 0x8ff], %o3
    0x1000083e4:            0b 00 04 00  sethi     %hi(0x100000), %g5
    0x1000083e8:            a8 11 60 10  or        %g5, 0x10, %l4
    0x1000083ec:            bb 2d 30 0c  sllx      %l4, 0xc, %i5
    0x1000083f0:            40 04 22 d4  call      +0x108b50     <0x100110f40>
    0x1000083f4:            90 07 6c e8  add       %i5, 0xce8, %o0
    0x1000083f8:            40 04 22 aa  call      +0x108aa8     <0x100110ea0>
    0x1000083fc:            90 10 3f ff  mov       -0x1, %o0
    0x100008400:            10 bf ff ac  ba        -0x150        <0x1000082b0>
    0x100008404:            f2 5f a8 ff  ldx       [%fp + 0x8ff], %i1
    0x100008408:            00 00 00 00  illtrap   0x0
    0x10000840c:            00 00 00 00  illtrap   0x0
    0x100008410:            00 00 00 00  illtrap   0x0
    0x100008414:            00 00 00 00  illtrap   0x0
    0x100008418:            00 00 00 00  illtrap   0x0
    0x10000841c:            00 00 00 00  illtrap   0x0
TwiddleOneCol()
    0x100008420:            9d e3 bf 40  save      %sp, -0xc0, %sp
    0x100008424:            b2 90 00 19  orcc      %g0, %i1, %i1
    0x100008428:            e6 5f a8 af  ldx       [%fp + 0x8af], %l3
    0x10000842c:            04 40 01 17  ble,pn    %icc, +0x45c  <0x100008888>
    0x100008430:            a8 10 00 1d  mov       %i5, %l4
    0x100008434:            ae 06 7f ff  add       %i1, -0x1, %l7
    0x100008438:            80 a5 e0 03  cmp       %l7, 0x3
    0x10000843c:            aa 10 00 1c  mov       %i4, %l5
    0x100008440:            06 40 00 12  bl,pn     %icc, +0x48   <0x100008488>
    0x100008444:            9b 3e e0 00  sra       %i3, 0x0, %o5
    0x100008448:            8b 3e 60 00  sra       %i1, 0x0, %g5
    0x10000844c:            84 4b 40 05  mulx      %o5, %g5, %g2
    0x100008450:            87 3c e0 00  sra       %l3, 0x0, %g3
    0x100008454:            82 48 c0 0d  mulx      %g3, %o5, %g1
    0x100008458:            b4 00 40 02  add       %g1, %g2, %i2
    0x10000845c:            ad 2e a0 04  sll       %i2, 0x4, %l6
    0x100008460:            a4 05 40 16  add       %l5, %l6, %l2
    0x100008464:            a2 27 40 12  sub       %i5, %l2, %l1
    0x100008468:            b7 3c 70 3f  srax      %l1, 0x3f, %i3
    0x10000846c:            89 29 70 04  sllx      %g5, 0x4, %g4
    0x100008470:            a0 1c 40 1b  xor       %l1, %i3, %l0
    0x100008474:            b8 01 20 08  add       %g4, 0x8, %i4
    0x100008478:            9e 24 00 1b  sub       %l0, %i3, %o7
    0x10000847c:            80 a3 c0 1c  cmp       %o7, %i4
    0x100008480:            36 68 00 6e  bge,a,pt  %xcc, +0x1b8  <0x100008638>
    0x100008484:            f0 23 a8 af  st        %i0, [%sp + 0x8af]
    0x100008488:            b4 05 e0 01  add       %l7, 0x1, %i2
    0x10000848c:            f0 23 a8 af  st        %i0, [%sp + 0x8af]
    0x100008490:            b2 04 c0 19  add       %l3, %i1, %i1
    0x100008494:            c5 03 a8 af  ld        [%sp + 0x8af], %f2
    0x100008498:            b1 2b 60 01  sll       %o5, 0x1, %i0
    0x10000849c:            ba 5e 00 19  smul      %i0, %i1, %i5
    0x1000084a0:            80 a6 a0 04  cmp       %i2, 0x4
    0x1000084a4:            a2 10 20 00  clr       %l1
    0x1000084a8:            a4 10 20 00  clr       %l2
    0x1000084ac:            8d a0 19 02  fitod     %f2, %d6
    0x1000084b0:            06 40 00 47  bl,pn     %icc, +0x11c  <0x1000085cc>
    0x1000084b4:            01 00 00 00  nop
    0x1000084b8:            b1 3f 60 00  sra       %i5, 0x0, %i0
    0x1000084bc:            b3 2e 30 03  sllx      %i0, 0x3, %i1
    0x1000084c0:            9e 10 00 14  mov       %l4, %o7
    0x1000084c4:            a0 05 40 19  add       %l5, %i1, %l0
    0x1000084c8:            b0 25 e0 03  sub       %l7, 0x3, %i0
    0x1000084cc:            c1 6c 20 a8  prefetch  [%l0 + 0xa8], #n_reads
    0x1000084d0:            c1 6b e0 a8  prefetch  [%o7 + 0xa8], #n_reads
    0x1000084d4:            a2 04 60 04  add       %l1, 0x4, %l1
    0x1000084d8:            9e 03 e0 40  add       %o7, 0x40, %o7
    0x1000084dc:            dd 1c 20 08  ldd       [%l0 + 0x8], %d14
    0x1000084e0:            80 a4 40 18  cmp       %l1, %i0
    0x1000084e4:            a0 04 20 40  add       %l0, 0x40, %l0
    0x1000084e8:            e5 1b ff c8  ldd       [%o7 - 0x38], %d18
    0x1000084ec:            89 a3 89 46  fmuld     %d14, %d6, %d4
    0x1000084f0:            a4 04 a0 08  add       %l2, 0x8, %l2
    0x1000084f4:            e9 1c 3f c0  ldd       [%l0 - 0x40], %d20
    0x1000084f8:            e1 1b ff c0  ldd       [%o7 - 0x40], %d16
    0x1000084fc:            ad a5 09 52  fmuld     %d20, %d18, %d22
    0x100008500:            b1 a5 09 50  fmuld     %d20, %d16, %d24
    0x100008504:            bf a1 09 52  fmuld     %d4, %d18, %d62
    0x100008508:            bd a1 09 50  fmuld     %d4, %d16, %d30
    0x10000850c:            b9 a6 08 df  fsubd     %d24, %d62, %d28
    0x100008510:            f9 3b ff c0  std       %d28, [%o7 - 0x40]
    0x100008514:            b5 a5 88 5e  faddd     %d22, %d30, %d26
    0x100008518:            f5 3b ff c8  std       %d26, [%o7 - 0x38]
    0x10000851c:            d9 1c 3f d8  ldd       [%l0 - 0x28], %d12
    0x100008520:            fb 1b ff d8  ldd       [%o7 - 0x28], %d60
    0x100008524:            9d a3 09 46  fmuld     %d12, %d6, %d14
    0x100008528:            d5 1c 3f d0  ldd       [%l0 - 0x30], %d10
    0x10000852c:            d1 1b ff d0  ldd       [%o7 - 0x30], %d8
    0x100008530:            bf a2 89 5d  fmuld     %d10, %d60, %d62
    0x100008534:            a5 a2 89 48  fmuld     %d10, %d8, %d18
    0x100008538:            a9 a3 89 5d  fmuld     %d14, %d60, %d20
    0x10000853c:            89 a3 89 48  fmuld     %d14, %d8, %d4
    0x100008540:            a1 a4 88 d4  fsubd     %d18, %d20, %d16
    0x100008544:            e1 3b ff d0  std       %d16, [%o7 - 0x30]
    0x100008548:            b1 a7 c8 44  faddd     %d62, %d4, %d24
    0x10000854c:            f1 3b ff d8  std       %d24, [%o7 - 0x28]
    0x100008550:            f9 1c 3f e8  ldd       [%l0 - 0x18], %d28
    0x100008554:            fd 1b ff e8  ldd       [%o7 - 0x18], %d30
    0x100008558:            b5 a7 09 46  fmuld     %d28, %d6, %d26
    0x10000855c:            d9 1c 3f e0  ldd       [%l0 - 0x20], %d12
    0x100008560:            d5 1b ff e0  ldd       [%o7 - 0x20], %d10
    0x100008564:            ad a3 09 5e  fmuld     %d12, %d30, %d22
    0x100008568:            91 a3 09 4a  fmuld     %d12, %d10, %d8
    0x10000856c:            bb a6 89 5e  fmuld     %d26, %d30, %d60
    0x100008570:            a9 a6 89 4a  fmuld     %d26, %d10, %d20
    0x100008574:            9d a2 08 dd  fsubd     %d8, %d60, %d14
    0x100008578:            dd 3b ff e0  std       %d14, [%o7 - 0x20]
    0x10000857c:            a5 a5 88 54  faddd     %d22, %d20, %d18
    0x100008580:            e5 3b ff e8  std       %d18, [%o7 - 0x18]
    0x100008584:            e1 1c 3f f8  ldd       [%l0 - 0x8], %d16
    0x100008588:            ff 1b ff f8  ldd       [%o7 - 0x8], %d62
    0x10000858c:            99 a4 09 46  fmuld     %d16, %d6, %d12
    0x100008590:            c9 1c 3f f0  ldd       [%l0 - 0x10], %d4
    0x100008594:            f9 1b ff f0  ldd       [%o7 - 0x10], %d28
    0x100008598:            bb a1 09 5f  fmuld     %d4, %d62, %d60
    0x10000859c:            b1 a1 09 5c  fmuld     %d4, %d28, %d24
    0x1000085a0:            95 a3 09 5f  fmuld     %d12, %d62, %d10
    0x1000085a4:            bd a3 09 5c  fmuld     %d12, %d28, %d30
    0x1000085a8:            b5 a6 08 ca  fsubd     %d24, %d10, %d26
    0x1000085ac:            f5 3b ff f0  std       %d26, [%o7 - 0x10]
    0x1000085b0:            91 a7 48 5e  faddd     %d60, %d30, %d8
    0x1000085b4:            04 4f ff c6  ble,pt    %icc, -0xe8   <0x1000084cc>
    0x1000085b8:            d1 3b ff f8  std       %d8, [%o7 - 0x8]
    0x1000085bc:            80 a4 40 17  cmp       %l1, %l7
    0x1000085c0:            ba 04 80 1d  add       %l2, %i5, %i5
    0x1000085c4:            14 40 00 1b  bg,pn     %icc, +0x6c   <0x100008630>
    0x1000085c8:            01 00 00 00  nop
    0x1000085cc:            a2 04 60 01  add       %l1, 0x1, %l1
    0x1000085d0:            9b 3f 60 00  sra       %i5, 0x0, %o5
    0x1000085d4:            99 2b 70 03  sllx      %o5, 0x3, %o4
    0x1000085d8:            96 03 00 15  add       %o4, %l5, %o3
    0x1000085dc:            dd 1a e0 08  ldd       [%o3 + 0x8], %d14
    0x1000085e0:            95 3c a0 00  sra       %l2, 0x0, %o2
    0x1000085e4:            93 2a b0 03  sllx      %o2, 0x3, %o1
    0x1000085e8:            b5 a3 89 46  fmuld     %d14, %d6, %d26
    0x1000085ec:            90 02 40 14  add       %o1, %l4, %o0
    0x1000085f0:            fd 1d 40 0c  ldd       [%l5 + %o4], %d30
    0x1000085f4:            d1 1d 00 09  ldd       [%l4 + %o1], %d8
    0x1000085f8:            fb 1a 20 08  ldd       [%o0 + 0x8], %d60
    0x1000085fc:            80 a4 40 17  cmp       %l1, %l7
    0x100008600:            ad a7 89 48  fmuld     %d30, %d8, %d22
    0x100008604:            a5 a6 89 5d  fmuld     %d26, %d60, %d18
    0x100008608:            a9 a7 89 5d  fmuld     %d30, %d60, %d20
    0x10000860c:            89 a6 89 48  fmuld     %d26, %d8, %d4
    0x100008610:            ba 07 60 02  add       %i5, 0x2, %i5
    0x100008614:            a4 04 a0 02  add       %l2, 0x2, %l2
    0x100008618:            a1 a5 88 d2  fsubd     %d22, %d18, %d16
    0x10000861c:            e1 3d 00 09  std       %d16, [%l4 + %o1]
    0x100008620:            bf a5 08 44  faddd     %d20, %d4, %d62
    0x100008624:            ff 3a 20 08  std       %d62, [%o0 + 0x8]
    0x100008628:            04 4f ff ea  ble,pt    %icc, -0x58   <0x1000085d0>
    0x10000862c:            a2 04 60 01  add       %l1, 0x1, %l1
    0x100008630:            81 c7 e0 08  ret
    0x100008634:            81 e8 20 00  restore   %g0, 0x0, %g0
    0x100008638:            9e 04 c0 19  add       %l3, %i1, %o7
    0x10000863c:            b7 2b 60 01  sll       %o5, 0x1, %i3
    0x100008640:            a6 5e c0 0f  smul      %i3, %o7, %l3
    0x100008644:            80 a6 60 07  cmp       %i1, 0x7
    0x100008648:            b6 10 20 00  clr       %i3
    0x10000864c:            b4 10 20 00  clr       %i2
    0x100008650:            c1 03 a8 af  ld        [%sp + 0x8af], %f0
    0x100008654:            88 10 00 19  mov       %i1, %g4
    0x100008658:            9d a0 19 00  fitod     %f0, %d14
    0x10000865c:            06 40 00 72  bl,pn     %icc, +0x1c8  <0x100008824>
    0x100008660:            01 00 00 00  nop
    0x100008664:            f1 1f 60 18  ldd       [%i5 + 0x18], %d24
    0x100008668:            e9 1f 60 00  ldd       [%i5], %d20
    0x10000866c:            99 3c e0 00  sra       %l3, 0x0, %o4
    0x100008670:            d1 1f 60 08  ldd       [%i5 + 0x8], %d8
    0x100008674:            97 2b 30 03  sllx      %o4, 0x3, %o3
    0x100008678:            f5 1d 40 0b  ldd       [%l5 + %o3], %d26
    0x10000867c:            94 05 40 0b  add       %l5, %o3, %o2
    0x100008680:            d5 1a a0 08  ldd       [%o2 + 0x8], %d10
    0x100008684:            bd a6 89 54  fmuld     %d26, %d20, %d30
    0x100008688:            ed 1f 60 10  ldd       [%i5 + 0x10], %d22
    0x10000868c:            e5 1a a0 10  ldd       [%o2 + 0x10], %d18
    0x100008690:            b6 10 20 03  mov       0x3, %i3
    0x100008694:            a1 a2 89 4e  fmuld     %d10, %d14, %d16
    0x100008698:            b8 02 a0 30  add       %o2, 0x30, %i4
    0x10000869c:            b5 a6 89 48  fmuld     %d26, %d8, %d26
    0x1000086a0:            cd 1a a0 18  ldd       [%o2 + 0x18], %d6
    0x1000086a4:            b2 10 00 13  mov       %l3, %i1
    0x1000086a8:            ba 07 60 20  add       %i5, 0x20, %i5
    0x1000086ac:            b9 a4 09 48  fmuld     %d16, %d8, %d28
    0x1000086b0:            c9 1a a0 28  ldd       [%o2 + 0x28], %d4
    0x1000086b4:            b0 01 3f fc  add       %g4, -0x4, %i0
    0x1000086b8:            c1 6f 20 a8  prefetch  [%i4 + 0xa8], #n_reads
    0x1000086bc:            c1 6f 60 a8  prefetch  [%i5 + 0xa8], #n_reads
    0x1000086c0:            b6 06 e0 04  add       %i3, 0x4, %i3
    0x1000086c4:            ba 07 60 40  add       %i5, 0x40, %i5
    0x1000086c8:            d9 1f 3f f0  ldd       [%i4 - 0x10], %d12
    0x1000086cc:            a9 a4 09 54  fmuld     %d16, %d20, %d20
    0x1000086d0:            80 a6 c0 18  cmp       %i3, %i0
    0x1000086d4:            b8 07 20 40  add       %i4, 0x40, %i4
    0x1000086d8:            d1 1f 7f c0  ldd       [%i5 - 0x40], %d8
    0x1000086dc:            bb a1 89 4e  fmuld     %d6, %d14, %d60
    0x1000086e0:            b4 06 a0 08  add       %i2, 0x8, %i2
    0x1000086e4:            d5 1f 7f c8  ldd       [%i5 - 0x38], %d10
    0x1000086e8:            b9 a7 88 dc  fsubd     %d30, %d28, %d28
    0x1000086ec:            bd a4 89 56  fmuld     %d18, %d22, %d30
    0x1000086f0:            cd 1f 3f c8  ldd       [%i4 - 0x38], %d6
    0x1000086f4:            f9 3f 7f a0  std       %d28, [%i5 - 0x60]
    0x1000086f8:            bf a6 88 54  faddd     %d26, %d20, %d62
    0x1000086fc:            b5 a4 89 58  fmuld     %d18, %d24, %d26
    0x100008700:            ff 3f 7f a8  std       %d62, [%i5 - 0x58]
    0x100008704:            a1 a7 49 58  fmuld     %d60, %d24, %d16
    0x100008708:            b9 a7 49 56  fmuld     %d60, %d22, %d28
    0x10000870c:            f1 1f 3f c0  ldd       [%i4 - 0x40], %d24
    0x100008710:            bb a1 09 4e  fmuld     %d4, %d14, %d60
    0x100008714:            e5 1f 7f d0  ldd       [%i5 - 0x30], %d18
    0x100008718:            ed 1f 7f d8  ldd       [%i5 - 0x28], %d22
    0x10000871c:            a9 a7 88 d0  fsubd     %d30, %d16, %d20
    0x100008720:            bd a3 09 48  fmuld     %d12, %d8, %d30
    0x100008724:            c9 1f 3f d8  ldd       [%i4 - 0x28], %d4
    0x100008728:            e9 3f 7f b0  std       %d20, [%i5 - 0x50]
    0x10000872c:            bf a6 88 5c  faddd     %d26, %d28, %d62
    0x100008730:            b5 a3 09 4a  fmuld     %d12, %d10, %d26
    0x100008734:            ff 3f 7f b8  std       %d62, [%i5 - 0x48]
    0x100008738:            99 a7 49 4a  fmuld     %d60, %d10, %d12
    0x10000873c:            b9 a7 49 48  fmuld     %d60, %d8, %d28
    0x100008740:            d5 1f 3f d0  ldd       [%i4 - 0x30], %d10
    0x100008744:            a1 a1 89 4e  fmuld     %d6, %d14, %d16
    0x100008748:            e9 1f 7f e0  ldd       [%i5 - 0x20], %d20
    0x10000874c:            d1 1f 7f e8  ldd       [%i5 - 0x18], %d8
    0x100008750:            bf a7 88 cc  fsubd     %d30, %d12, %d62
    0x100008754:            bd a6 09 52  fmuld     %d24, %d18, %d30
    0x100008758:            cd 1f 3f e8  ldd       [%i4 - 0x18], %d6
    0x10000875c:            ff 3f 7f c0  std       %d62, [%i5 - 0x40]
    0x100008760:            bb a6 88 5c  faddd     %d26, %d28, %d60
    0x100008764:            99 a6 09 56  fmuld     %d24, %d22, %d12
    0x100008768:            fb 3f 7f c8  std       %d60, [%i5 - 0x38]
    0x10000876c:            bf a4 09 56  fmuld     %d16, %d22, %d62
    0x100008770:            b5 a4 09 52  fmuld     %d16, %d18, %d26
    0x100008774:            e5 1f 3f e0  ldd       [%i4 - 0x20], %d18
    0x100008778:            a1 a1 09 4e  fmuld     %d4, %d14, %d16
    0x10000877c:            ed 1f 7f f0  ldd       [%i5 - 0x10], %d22
    0x100008780:            f1 1f 7f f8  ldd       [%i5 - 0x8], %d24
    0x100008784:            b9 a7 88 df  fsubd     %d30, %d62, %d28
    0x100008788:            bd a2 89 54  fmuld     %d10, %d20, %d30
    0x10000878c:            c9 1f 3f f8  ldd       [%i4 - 0x8], %d4
    0x100008790:            f9 3f 7f d0  std       %d28, [%i5 - 0x30]
    0x100008794:            bb a3 08 5a  faddd     %d12, %d26, %d60
    0x100008798:            b5 a2 89 48  fmuld     %d10, %d8, %d26
    0x10000879c:            fb 3f 7f d8  std       %d60, [%i5 - 0x28]
    0x1000087a0:            04 4f ff c6  ble,pt    %icc, -0xe8   <0x1000086b8>
    0x1000087a4:            b9 a4 09 48  fmuld     %d16, %d8, %d28
    0x1000087a8:            bf a4 09 54  fmuld     %d16, %d20, %d62
    0x1000087ac:            99 a1 89 4e  fmuld     %d6, %d14, %d12
    0x1000087b0:            91 a1 09 4e  fmuld     %d4, %d14, %d8
    0x1000087b4:            bb a7 88 dc  fsubd     %d30, %d28, %d60
    0x1000087b8:            fd 1f 3f f0  ldd       [%i4 - 0x10], %d30
    0x1000087bc:            d5 1f 60 00  ldd       [%i5], %d10
    0x1000087c0:            89 a6 88 5f  faddd     %d26, %d62, %d4
    0x1000087c4:            e9 1f 60 08  ldd       [%i5 + 0x8], %d20
    0x1000087c8:            b5 a4 89 58  fmuld     %d18, %d24, %d26
    0x1000087cc:            b9 a3 09 56  fmuld     %d12, %d22, %d28
    0x1000087d0:            a5 a4 89 56  fmuld     %d18, %d22, %d18
    0x1000087d4:            b1 a3 09 58  fmuld     %d12, %d24, %d24
    0x1000087d8:            c9 3f 7f e8  std       %d4, [%i5 - 0x18]
    0x1000087dc:            ad a7 89 54  fmuld     %d30, %d20, %d22
    0x1000087e0:            fb 3f 7f e0  std       %d60, [%i5 - 0x20]
    0x1000087e4:            a1 a7 89 4a  fmuld     %d30, %d10, %d16
    0x1000087e8:            99 a2 09 4a  fmuld     %d8, %d10, %d12
    0x1000087ec:            89 a2 09 54  fmuld     %d8, %d20, %d4
    0x1000087f0:            8d a6 88 5c  faddd     %d26, %d28, %d6
    0x1000087f4:            80 a6 c0 17  cmp       %i3, %l7
    0x1000087f8:            cd 3f 7f f8  std       %d6, [%i5 - 0x8]
    0x1000087fc:            bf a4 88 d8  fsubd     %d18, %d24, %d62
    0x100008800:            ff 3f 7f f0  std       %d62, [%i5 - 0x10]
    0x100008804:            bd a4 08 c4  fsubd     %d16, %d4, %d30
    0x100008808:            b4 06 a0 06  add       %i2, 0x6, %i2
    0x10000880c:            fd 3f 60 00  std       %d30, [%i5]
    0x100008810:            a6 06 80 19  add       %i2, %i1, %l3
    0x100008814:            bb a5 88 4c  faddd     %d22, %d12, %d60
    0x100008818:            fb 3f 60 08  std       %d60, [%i5 + 0x8]
    0x10000881c:            14 40 00 1b  bg,pn     %icc, +0x6c   <0x100008888>
    0x100008820:            01 00 00 00  nop
    0x100008824:            b6 06 e0 01  add       %i3, 0x1, %i3
    0x100008828:            b9 3c e0 00  sra       %l3, 0x0, %i4
    0x10000882c:            bb 2f 30 03  sllx      %i4, 0x3, %i5
    0x100008830:            ac 07 40 15  add       %i5, %l5, %l6
    0x100008834:            cd 1d a0 08  ldd       [%l6 + 0x8], %d6
    0x100008838:            a5 3e a0 00  sra       %i2, 0x0, %l2
    0x10000883c:            a3 2c b0 03  sllx      %l2, 0x3, %l1
    0x100008840:            a1 a1 89 4e  fmuld     %d6, %d14, %d16
    0x100008844:            a0 04 40 14  add       %l1, %l4, %l0
    0x100008848:            e5 1d 00 11  ldd       [%l4 + %l1], %d18
    0x10000884c:            e9 1c 20 08  ldd       [%l0 + 0x8], %d20
    0x100008850:            ed 1d 40 1d  ldd       [%l5 + %i5], %d22
    0x100008854:            80 a6 c0 17  cmp       %i3, %l7
    0x100008858:            89 a4 09 54  fmuld     %d16, %d20, %d4
    0x10000885c:            bf a5 89 52  fmuld     %d22, %d18, %d62
    0x100008860:            95 a5 89 54  fmuld     %d22, %d20, %d10
    0x100008864:            99 a4 09 52  fmuld     %d16, %d18, %d12
    0x100008868:            a6 04 e0 02  add       %l3, 0x2, %l3
    0x10000886c:            b4 06 a0 02  add       %i2, 0x2, %i2
    0x100008870:            b9 a7 c8 c4  fsubd     %d62, %d4, %d28
    0x100008874:            f9 3d 00 11  std       %d28, [%l4 + %l1]
    0x100008878:            b1 a2 88 4c  faddd     %d10, %d12, %d24
    0x10000887c:            f1 3c 20 08  std       %d24, [%l0 + 0x8]
    0x100008880:            04 4f ff ea  ble,pt    %icc, -0x58   <0x100008828>
    0x100008884:            b6 06 e0 01  add       %i3, 0x1, %i3
    0x100008888:            81 c7 e0 08  ret
    0x10000888c:            81 e8 20 00  restore   %g0, 0x0, %g0
    0x100008890:            3f f0 00 00  0x3ff00000
    0x100008894:            00 00 00 00  illtrap   0x0
    0x100008898:            00 00 00 00  illtrap   0x0
    0x10000889c:            00 00 00 00  illtrap   0x0
    0x1000088a0:            00 00 00 00  illtrap   0x0
    0x1000088a4:            00 00 00 00  illtrap   0x0
    0x1000088a8:            00 00 00 00  illtrap   0x0
    0x1000088ac:            00 00 00 00  illtrap   0x0
Scale()
    0x1000088b0:            9d e3 bf 40  save      %sp, -0xc0, %sp
    0x1000088b4:            b0 90 00 18  orcc      %g0, %i0, %i0
    0x1000088b8:            04 40 00 4f  ble,pn    %icc, +0x13c  <0x1000089f4>
    0x1000088bc:            29 00 04 00  sethi     %hi(0x100000), %l4
    0x1000088c0:            f2 23 a8 af  st        %i1, [%sp + 0x8af]
    0x1000088c4:            c1 03 a8 af  ld        [%sp + 0x8af], %f0
    0x1000088c8:            a6 15 20 08  or        %l4, 0x8, %l3
    0x1000088cc:            a5 2c f0 0c  sllx      %l3, 0xc, %l2
    0x1000088d0:            d1 1c a8 90  ldd       [%l2 + 0x890], %d8
    0x1000088d4:            80 a6 20 06  cmp       %i0, 0x6
    0x1000088d8:            89 a0 19 00  fitod     %f0, %d4
    0x1000088dc:            b8 10 20 00  clr       %i4
    0x1000088e0:            b2 06 3f ff  add       %i0, -0x1, %i1
    0x1000088e4:            b6 10 20 00  clr       %i3
    0x1000088e8:            aa 10 00 18  mov       %i0, %l5
    0x1000088ec:            95 a2 09 c4  fdivd     %d8, %d4, %d10
    0x1000088f0:            06 40 00 33  bl,pn     %icc, +0xcc   <0x1000089bc>
    0x1000088f4:            01 00 00 00  nop
    0x1000088f8:            c9 1e a0 00  ldd       [%i2], %d4
    0x1000088fc:            c5 1e a0 08  ldd       [%i2 + 0x8], %d2
    0x100008900:            d1 1e a0 10  ldd       [%i2 + 0x10], %d8
    0x100008904:            ba 06 a0 20  add       %i2, 0x20, %i5
    0x100008908:            b8 10 20 02  mov       0x2, %i4
    0x10000890c:            cd 1e a0 18  ldd       [%i2 + 0x18], %d6
    0x100008910:            b0 05 7f fc  add       %l5, -0x4, %i0
    0x100008914:            c1 6f 61 28  prefetch  [%i5 + 0x128], #n_reads
    0x100008918:            b8 07 20 04  add       %i4, 0x4, %i4
    0x10000891c:            ed 1f 60 00  ldd       [%i5], %d22
    0x100008920:            ba 07 60 40  add       %i5, 0x40, %i5
    0x100008924:            a5 a1 09 4a  fmuld     %d4, %d10, %d18
    0x100008928:            e5 3f 7f a0  std       %d18, [%i5 - 0x60]
    0x10000892c:            80 a7 00 18  cmp       %i4, %i0
    0x100008930:            b6 06 e0 08  add       %i3, 0x8, %i3
    0x100008934:            b1 a0 89 4a  fmuld     %d2, %d10, %d24
    0x100008938:            e9 1f 7f c8  ldd       [%i5 - 0x38], %d20
    0x10000893c:            f1 3f 7f a8  std       %d24, [%i5 - 0x58]
    0x100008940:            b9 a2 09 4a  fmuld     %d8, %d10, %d28
    0x100008944:            f5 1f 7f d0  ldd       [%i5 - 0x30], %d26
    0x100008948:            f9 3f 7f b0  std       %d28, [%i5 - 0x50]
    0x10000894c:            bd a1 89 4a  fmuld     %d6, %d10, %d30
    0x100008950:            dd 1f 7f d8  ldd       [%i5 - 0x28], %d14
    0x100008954:            fd 3f 7f b8  std       %d30, [%i5 - 0x48]
    0x100008958:            bf a5 89 4a  fmuld     %d22, %d10, %d62
    0x10000895c:            c9 1f 7f e0  ldd       [%i5 - 0x20], %d4
    0x100008960:            ff 3f 7f c0  std       %d62, [%i5 - 0x40]
    0x100008964:            8d a5 09 4a  fmuld     %d20, %d10, %d6
    0x100008968:            c5 1f 7f e8  ldd       [%i5 - 0x18], %d2
    0x10000896c:            cd 3f 7f c8  std       %d6, [%i5 - 0x38]
    0x100008970:            99 a6 89 4a  fmuld     %d26, %d10, %d12
    0x100008974:            d1 1f 7f f0  ldd       [%i5 - 0x10], %d8
    0x100008978:            d9 3f 7f d0  std       %d12, [%i5 - 0x30]
    0x10000897c:            a1 a3 89 4a  fmuld     %d14, %d10, %d16
    0x100008980:            cd 1f 7f f8  ldd       [%i5 - 0x8], %d6
    0x100008984:            04 4f ff e4  ble,pt    %icc, -0x70   <0x100008914>
    0x100008988:            e1 3f 7f d8  std       %d16, [%i5 - 0x28]
    0x10000898c:            99 a1 89 4a  fmuld     %d6, %d10, %d12
    0x100008990:            d9 3f 7f f8  std       %d12, [%i5 - 0x8]
    0x100008994:            9d a2 09 4a  fmuld     %d8, %d10, %d14
    0x100008998:            80 a7 00 19  cmp       %i4, %i1
    0x10000899c:            dd 3f 7f f0  std       %d14, [%i5 - 0x10]
    0x1000089a0:            85 a0 89 4a  fmuld     %d2, %d10, %d2
    0x1000089a4:            c5 3f 7f e8  std       %d2, [%i5 - 0x18]
    0x1000089a8:            b6 06 e0 04  add       %i3, 0x4, %i3
    0x1000089ac:            a1 a1 09 4a  fmuld     %d4, %d10, %d16
    0x1000089b0:            e1 3f 7f e0  std       %d16, [%i5 - 0x20]
    0x1000089b4:            14 40 00 10  bg,pn     %icc, +0x40   <0x1000089f4>
    0x1000089b8:            01 00 00 00  nop
    0x1000089bc:            a3 3e e0 00  sra       %i3, 0x0, %l1
    0x1000089c0:            a1 2c 70 03  sllx      %l1, 0x3, %l0
    0x1000089c4:            c5 1e 80 10  ldd       [%i2 + %l0], %d2
    0x1000089c8:            9e 04 00 1a  add       %l0, %i2, %o7
    0x1000089cc:            b8 07 20 01  add       %i4, 0x1, %i4
    0x1000089d0:            a5 a0 89 4a  fmuld     %d2, %d10, %d18
    0x1000089d4:            e5 3e 80 10  std       %d18, [%i2 + %l0]
    0x1000089d8:            f1 1b e0 08  ldd       [%o7 + 0x8], %d24
    0x1000089dc:            80 a7 00 19  cmp       %i4, %i1
    0x1000089e0:            b6 06 e0 02  add       %i3, 0x2, %i3
    0x1000089e4:            b9 a6 09 4a  fmuld     %d24, %d10, %d28
    0x1000089e8:            f9 3b e0 08  std       %d28, [%o7 + 0x8]
    0x1000089ec:            04 4f ff f5  ble,pt    %icc, -0x2c   <0x1000089c0>
    0x1000089f0:            a3 3e e0 00  sra       %i3, 0x0, %l1
    0x1000089f4:            81 c7 e0 08  ret
    0x1000089f8:            81 e8 20 00  restore   %g0, 0x0, %g0
Transpose()
    0x1000089fc:            9d e3 bf 00  save      %sp, -0x100, %sp
    0x100008a00:            f8 23 a8 b7  st        %i4, [%sp + 0x8b7]
    0x100008a04:            e6 5f a8 af  ldx       [%fp + 0x8af], %l3
    0x100008a08:            f6 23 a8 cb  st        %i3, [%sp + 0x8cb]
    0x100008a0c:            a4 27 40 1c  sub       %i5, %i4, %l2
    0x100008a10:            21 00 04 00  sethi     %hi(0x100000), %l0
    0x100008a14:            85 2c a0 01  sll       %l2, 0x1, %g2
    0x100008a18:            a8 14 21 11  or        %l0, 0x111, %l4
    0x100008a1c:            ab 2d 30 0c  sllx      %l4, 0xc, %l5
    0x100008a20:            c2 05 64 ec  ld        [%l5 + 0x4ec], %g1
    0x100008a24:            af 38 a0 1f  sra       %g2, 0x1f, %l7
    0x100008a28:            81 85 e0 00  wr        %l7, 0x0, %y
    0x100008a2c:            a2 f8 80 01  sdivcc    %g2, %g1, %l1
    0x100008a30:            b8 10 00 1a  mov       %i2, %i4
    0x100008a34:            ba 10 00 19  mov       %i1, %i5
    0x100008a38:            1e 40 00 03  bvc,pn    %icc, +0xc    <0x100008a44>
    0x100008a3c:            89 3c a0 1f  sra       %l2, 0x1f, %g4
    0x100008a40:            23 20 00 00  sethi     %hi(0x80000000), %l1
    0x100008a44:            86 4c 40 01  mulx      %l1, %g1, %g3
    0x100008a48:            81 81 20 00  wr        %g4, 0x0, %y
    0x100008a4c:            8a 04 60 01  add       %l1, 0x1, %g5
    0x100008a50:            b4 10 00 11  mov       %l1, %i2
    0x100008a54:            80 a0 c0 02  cmp       %g3, %g2
    0x100008a58:            b5 66 40 05  movne     %icc, %g5, %i2
    0x100008a5c:            a0 fc 80 1a  sdivcc    %l2, %i2, %l0
    0x100008a60:            f4 23 a8 bb  st        %i2, [%sp + 0x8bb]
    0x100008a64:            1e 40 00 03  bvc,pn    %icc, +0xc    <0x100008a70>
    0x100008a68:            11 00 04 00  sethi     %hi(0x100000), %o0
    0x100008a6c:            21 20 00 00  sethi     %hi(0x80000000), %l0
    0x100008a70:            92 12 21 11  or        %o0, 0x111, %o1
    0x100008a74:            95 2a 70 0c  sllx      %o1, 0xc, %o2
    0x100008a78:            d0 02 a4 78  ld        [%o2 + 0x478], %o0
    0x100008a7c:            97 3e 20 1f  sra       %i0, 0x1f, %o3
    0x100008a80:            81 82 e0 00  wr        %o3, 0x0, %y
    0x100008a84:            b2 fe 00 08  sdivcc    %i0, %o0, %i1
    0x100008a88:            1e 40 00 03  bvc,pn    %icc, +0xc    <0x100008a94>
    0x100008a8c:            99 3e 20 00  sra       %i0, 0x0, %o4
    0x100008a90:            33 20 00 00  sethi     %hi(0x80000000), %i1
    0x100008a94:            82 06 e0 01  add       %i3, 0x1, %g1
    0x100008a98:            b7 3a 20 00  sra       %o0, 0x0, %i3
    0x100008a9c:            93 38 60 00  sra       %g1, 0x0, %o1
    0x100008aa0:            9f 3e a0 00  sra       %i2, 0x0, %o7
    0x100008aa4:            ac 22 40 1b  sub       %o1, %i3, %l6
    0x100008aa8:            9a 20 00 0f  neg       %o7, %o5
    0x100008aac:            f2 23 a8 af  st        %i1, [%sp + 0x8af]
    0x100008ab0:            af 33 70 3f  srlx      %o5, 0x3f, %l7
    0x100008ab4:            b0 03 00 13  add       %o4, %l3, %i0
    0x100008ab8:            b3 35 b0 3f  srlx      %l6, 0x3f, %i1
    0x100008abc:            f0 23 a8 b3  st        %i0, [%sp + 0x8b3]
    0x100008ac0:            80 8d c0 19  btst      %i1, %l7
    0x100008ac4:            ee 23 a8 c7  st        %l7, [%sp + 0x8c7]
    0x100008ac8:            02 40 00 94  be,pn     %icc, +0x250  <0x100008d18>
    0x100008acc:            b6 06 bf ff  add       %i2, -0x1, %i3
    0x100008ad0:            c4 03 a8 b3  ld        [%sp + 0x8b3], %g2
    0x100008ad4:            ee 03 a8 af  ld        [%sp + 0x8af], %l7
    0x100008ad8:            c2 23 a8 df  st        %g1, [%sp + 0x8df]
    0x100008adc:            f2 03 a8 b7  ld        [%sp + 0x8b7], %i1
    0x100008ae0:            b1 3d e0 00  sra       %l7, 0x0, %i0
    0x100008ae4:            94 4a 40 18  mulx      %o1, %i0, %o2
    0x100008ae8:            97 38 a0 00  sra       %g2, 0x0, %o3
    0x100008aec:            98 4a c0 18  mulx      %o3, %i0, %o4
    0x100008af0:            87 2b 20 01  sll       %o4, 0x1, %g3
    0x100008af4:            b4 48 40 03  mulx      %g1, %g3, %i2
    0x100008af8:            c6 23 a8 d3  st        %g3, [%sp + 0x8d3]
    0x100008afc:            a9 28 a0 01  sll       %g2, 0x1, %l4
    0x100008b00:            ac 4e 40 14  mulx      %i1, %l4, %l6
    0x100008b04:            aa 4c 00 14  mulx      %l0, %l4, %l5
    0x100008b08:            9b 2e 60 01  sll       %i1, 0x1, %o5
    0x100008b0c:            b0 06 80 0d  add       %i2, %o5, %i0
    0x100008b10:            9f 2a a0 01  sll       %o2, 0x1, %o7
    0x100008b14:            88 02 3f ff  add       %o0, -0x1, %g4
    0x100008b18:            82 03 c0 16  add       %o7, %l6, %g1
    0x100008b1c:            c2 23 a8 cf  st        %g1, [%sp + 0x8cf]
    0x100008b20:            b5 2d e0 01  sll       %l7, 0x1, %i2
    0x100008b24:            f4 23 a8 d7  st        %i2, [%sp + 0x8d7]
    0x100008b28:            a4 04 3f ff  add       %l0, -0x1, %l2
    0x100008b2c:            c8 23 a8 db  st        %g4, [%sp + 0x8db]
    0x100008b30:            85 2c 20 01  sll       %l0, 0x1, %g2
    0x100008b34:            f0 23 a8 fb  st        %i0, [%sp + 0x8fb]
    0x100008b38:            9a 10 20 00  clr       %o5
    0x100008b3c:            d8 03 a8 cf  ld        [%sp + 0x8cf], %o4
    0x100008b40:            d6 03 a8 fb  ld        [%sp + 0x8fb], %o3
    0x100008b44:            94 10 20 00  clr       %o2
    0x100008b48:            92 10 00 0b  mov       %o3, %o1
    0x100008b4c:            90 10 00 0c  mov       %o4, %o0
    0x100008b50:            80 a4 20 00  cmp       %l0, 0x0
    0x100008b54:            04 40 00 56  ble,pn    %icc, +0x158  <0x100008cac>
    0x100008b58:            8a 10 20 00  clr       %g5
    0x100008b5c:            88 10 00 08  mov       %o0, %g4
    0x100008b60:            86 10 00 09  mov       %o1, %g3
    0x100008b64:            ac 10 20 00  clr       %l6
    0x100008b68:            80 a4 20 05  cmp       %l0, 0x5
    0x100008b6c:            a6 10 00 03  mov       %g3, %l3
    0x100008b70:            9e 10 00 04  mov       %g4, %o7
    0x100008b74:            06 40 00 38  bl,pn     %icc, +0xe0   <0x100008c54>
    0x100008b78:            01 00 00 00  nop
    0x100008b7c:            b1 3d 20 00  sra       %l4, 0x0, %i0
    0x100008b80:            b5 2e 30 03  sllx      %i0, 0x3, %i2
    0x100008b84:            b2 4e a0 06  mulx      %i2, 0x6, %i1
    0x100008b88:            a3 38 e0 00  sra       %g3, 0x0, %l1
    0x100008b8c:            83 2c 70 03  sllx      %l1, 0x3, %g1
    0x100008b90:            b1 39 20 00  sra       %g4, 0x0, %i0
    0x100008b94:            a3 2e 30 03  sllx      %i0, 0x3, %l1
    0x100008b98:            ae 07 40 01  add       %i5, %g1, %l7
    0x100008b9c:            ac 10 20 01  mov       0x1, %l6
    0x100008ba0:            b2 06 60 08  add       %i1, 0x8, %i1
    0x100008ba4:            c1 1f 40 01  ldd       [%i5 + %g1], %d0
    0x100008ba8:            82 05 e0 10  add       %l7, 0x10, %g1
    0x100008bac:            c1 3f 00 11  std       %d0, [%i4 + %l1]
    0x100008bb0:            ae 07 00 11  add       %i4, %l1, %l7
    0x100008bb4:            9e 01 00 14  add       %g4, %l4, %o7
    0x100008bb8:            c1 18 7f f8  ldd       [%g1 - 0x8], %d0
    0x100008bbc:            a2 05 c0 1a  add       %l7, %i2, %l1
    0x100008bc0:            c1 3d e0 08  std       %d0, [%l7 + 0x8]
    0x100008bc4:            b0 04 3f fc  add       %l0, -0x4, %i0
    0x100008bc8:            c1 68 60 68  prefetch  [%g1 + 0x68], #n_reads
    0x100008bcc:            ed 6c 40 19  prefetch  [%l1 + %i1], #n_writes_strong
    0x100008bd0:            ac 05 a0 04  add       %l6, 0x4, %l6
    0x100008bd4:            c5 18 60 00  ldd       [%g1], %d2
    0x100008bd8:            82 00 60 40  add       %g1, 0x40, %g1
    0x100008bdc:            80 a5 80 18  cmp       %l6, %i0
    0x100008be0:            a6 04 e0 08  add       %l3, 0x8, %l3
    0x100008be4:            c5 3c 60 00  std       %d2, [%l1]
    0x100008be8:            c9 18 7f c8  ldd       [%g1 - 0x38], %d4
    0x100008bec:            9e 03 c0 14  add       %o7, %l4, %o7
    0x100008bf0:            c9 3c 60 08  std       %d4, [%l1 + 0x8]
    0x100008bf4:            a2 04 40 1a  add       %l1, %i2, %l1
    0x100008bf8:            cd 18 7f d0  ldd       [%g1 - 0x30], %d6
    0x100008bfc:            cd 3c 60 00  std       %d6, [%l1]
    0x100008c00:            d1 18 7f d8  ldd       [%g1 - 0x28], %d8
    0x100008c04:            ae 03 c0 14  add       %o7, %l4, %l7
    0x100008c08:            d1 3c 60 08  std       %d8, [%l1 + 0x8]
    0x100008c0c:            a2 04 40 1a  add       %l1, %i2, %l1
    0x100008c10:            d5 18 7f e0  ldd       [%g1 - 0x20], %d10
    0x100008c14:            d5 3c 60 00  std       %d10, [%l1]
    0x100008c18:            d9 18 7f e8  ldd       [%g1 - 0x18], %d12
    0x100008c1c:            9e 05 c0 14  add       %l7, %l4, %o7
    0x100008c20:            d9 3c 60 08  std       %d12, [%l1 + 0x8]
    0x100008c24:            ae 04 40 1a  add       %l1, %i2, %l7
    0x100008c28:            dd 18 7f f0  ldd       [%g1 - 0x10], %d14
    0x100008c2c:            dd 3e 80 11  std       %d14, [%i2 + %l1]
    0x100008c30:            e1 18 7f f8  ldd       [%g1 - 0x8], %d16
    0x100008c34:            9e 03 c0 14  add       %o7, %l4, %o7
    0x100008c38:            e1 3d e0 08  std       %d16, [%l7 + 0x8]
    0x100008c3c:            04 4f ff e3  ble,pt    %icc, -0x74   <0x100008bc8>
    0x100008c40:            a2 05 c0 1a  add       %l7, %i2, %l1
    0x100008c44:            80 a5 80 12  cmp       %l6, %l2
    0x100008c48:            a6 04 e0 02  add       %l3, 0x2, %l3
    0x100008c4c:            14 40 00 12  bg,pn     %icc, +0x48   <0x100008c94>
    0x100008c50:            01 00 00 00  nop
    0x100008c54:            ac 05 a0 01  add       %l6, 0x1, %l6
    0x100008c58:            b3 3c e0 00  sra       %l3, 0x0, %i1
    0x100008c5c:            a3 2e 70 03  sllx      %i1, 0x3, %l1
    0x100008c60:            af 3b e0 00  sra       %o7, 0x0, %l7
    0x100008c64:            83 2d f0 03  sllx      %l7, 0x3, %g1
    0x100008c68:            b0 04 40 1d  add       %l1, %i5, %i0
    0x100008c6c:            f5 1f 40 11  ldd       [%i5 + %l1], %d26
    0x100008c70:            b4 00 40 1c  add       %g1, %i4, %i2
    0x100008c74:            f5 3f 00 01  std       %d26, [%i4 + %g1]
    0x100008c78:            80 a5 80 12  cmp       %l6, %l2
    0x100008c7c:            f9 1e 20 08  ldd       [%i0 + 0x8], %d28
    0x100008c80:            a6 04 e0 02  add       %l3, 0x2, %l3
    0x100008c84:            9e 03 c0 14  add       %o7, %l4, %o7
    0x100008c88:            f9 3e a0 08  std       %d28, [%i2 + 0x8]
    0x100008c8c:            04 4f ff f3  ble,pt    %icc, -0x34   <0x100008c58>
    0x100008c90:            ac 05 a0 01  add       %l6, 0x1, %l6
    0x100008c94:            8a 01 60 01  add       %g5, 0x1, %g5
    0x100008c98:            80 a1 40 12  cmp       %g5, %l2
    0x100008c9c:            86 00 c0 14  add       %g3, %l4, %g3
    0x100008ca0:            88 01 20 02  add       %g4, 0x2, %g4
    0x100008ca4:            04 4f ff b1  ble,pt    %icc, -0x13c  <0x100008b68>
    0x100008ca8:            ac 10 20 00  clr       %l6
    0x100008cac:            94 02 a0 01  add       %o2, 0x1, %o2
    0x100008cb0:            80 a2 80 1b  cmp       %o2, %i3
    0x100008cb4:            90 02 00 15  add       %o0, %l5, %o0
    0x100008cb8:            92 02 40 02  add       %o1, %g2, %o1
    0x100008cbc:            04 4f ff a6  ble,pt    %icc, -0x168  <0x100008b54>
    0x100008cc0:            80 a4 20 00  cmp       %l0, 0x0
    0x100008cc4:            9a 03 60 01  add       %o5, 0x1, %o5
    0x100008cc8:            80 a3 40 1b  cmp       %o5, %i3
    0x100008ccc:            96 02 c0 15  add       %o3, %l5, %o3
    0x100008cd0:            98 03 00 02  add       %o4, %g2, %o4
    0x100008cd4:            04 4f ff 9d  ble,pt    %icc, -0x18c  <0x100008b48>
    0x100008cd8:            94 10 20 00  clr       %o2
    0x100008cdc:            ec 03 a8 cf  ld        [%sp + 0x8cf], %l6
    0x100008ce0:            c8 03 a8 df  ld        [%sp + 0x8df], %g4
    0x100008ce4:            f2 03 a8 fb  ld        [%sp + 0x8fb], %i1
    0x100008ce8:            f0 03 a8 d3  ld        [%sp + 0x8d3], %i0
    0x100008cec:            f4 03 a8 d7  ld        [%sp + 0x8d7], %i2
    0x100008cf0:            c6 03 a8 db  ld        [%sp + 0x8db], %g3
    0x100008cf4:            82 01 20 01  add       %g4, 0x1, %g1
    0x100008cf8:            ae 06 40 18  add       %i1, %i0, %l7
    0x100008cfc:            c2 23 a8 df  st        %g1, [%sp + 0x8df]
    0x100008d00:            a6 05 80 1a  add       %l6, %i2, %l3
    0x100008d04:            e6 23 a8 cf  st        %l3, [%sp + 0x8cf]
    0x100008d08:            80 a0 40 03  cmp       %g1, %g3
    0x100008d0c:            ee 23 a8 fb  st        %l7, [%sp + 0x8fb]
    0x100008d10:            04 4f ff 8b  ble,pt    %icc, -0x1d4  <0x100008b3c>
    0x100008d14:            9a 10 20 00  clr       %o5
    0x100008d18:            ec 03 a8 cb  ld        [%sp + 0x8cb], %l6
    0x100008d1c:            e8 03 a8 c7  ld        [%sp + 0x8c7], %l4
    0x100008d20:            ab 3d a0 00  sra       %l6, 0x0, %l5
    0x100008d24:            84 20 00 15  neg       %l5, %g2
    0x100008d28:            87 30 b0 3f  srlx      %g2, 0x3f, %g3
    0x100008d2c:            80 8d 00 03  btst      %g3, %l4
    0x100008d30:            ea 73 a8 bf  stx       %l5, [%sp + 0x8bf]
    0x100008d34:            02 40 00 8e  be,pn     %icc, +0x238  <0x100008f6c>
    0x100008d38:            a2 05 bf ff  add       %l6, -0x1, %l1
    0x100008d3c:            d0 03 a8 af  ld        [%sp + 0x8af], %o0
    0x100008d40:            e2 23 a8 eb  st        %l1, [%sp + 0x8eb]
    0x100008d44:            da 03 a8 b3  ld        [%sp + 0x8b3], %o5
    0x100008d48:            c0 23 a8 f7  clr       [%sp + 0x8f7]
    0x100008d4c:            d4 03 a8 b7  ld        [%sp + 0x8b7], %o2
    0x100008d50:            ab 3b 60 00  sra       %o5, 0x0, %l5
    0x100008d54:            a9 2b 60 01  sll       %o5, 0x1, %l4
    0x100008d58:            98 4a 80 14  mulx      %o2, %l4, %o4
    0x100008d5c:            d8 23 a8 f3  st        %o4, [%sp + 0x8f3]
    0x100008d60:            89 3a 20 00  sra       %o0, 0x0, %g4
    0x100008d64:            a6 4d 40 04  mulx      %l5, %g4, %l3
    0x100008d68:            aa 4c 00 14  mulx      %l0, %l4, %l5
    0x100008d6c:            9f 2c e0 01  sll       %l3, 0x1, %o7
    0x100008d70:            93 2a a0 01  sll       %o2, 0x1, %o1
    0x100008d74:            8b 2a 20 01  sll       %o0, 0x1, %g5
    0x100008d78:            de 23 a8 e3  st        %o7, [%sp + 0x8e3]
    0x100008d7c:            a4 04 3f ff  add       %l0, -0x1, %l2
    0x100008d80:            ca 23 a8 e7  st        %g5, [%sp + 0x8e7]
    0x100008d84:            83 2c 20 01  sll       %l0, 0x1, %g1
    0x100008d88:            d2 23 a8 ef  st        %o1, [%sp + 0x8ef]
    0x100008d8c:            98 10 20 00  clr       %o4
    0x100008d90:            d4 03 a8 ef  ld        [%sp + 0x8ef], %o2
    0x100008d94:            d6 03 a8 f3  ld        [%sp + 0x8f3], %o3
    0x100008d98:            88 10 20 00  clr       %g4
    0x100008d9c:            86 10 00 0a  mov       %o2, %g3
    0x100008da0:            84 10 00 0b  mov       %o3, %g2
    0x100008da4:            80 a4 20 00  cmp       %l0, 0x0
    0x100008da8:            04 40 00 56  ble,pn    %icc, +0x158  <0x100008f00>
    0x100008dac:            92 10 20 00  clr       %o1
    0x100008db0:            90 10 00 02  mov       %g2, %o0
    0x100008db4:            8a 10 00 03  mov       %g3, %g5
    0x100008db8:            ae 10 20 00  clr       %l7
    0x100008dbc:            80 a4 20 05  cmp       %l0, 0x5
    0x100008dc0:            a6 10 00 05  mov       %g5, %l3
    0x100008dc4:            9e 10 00 08  mov       %o0, %o7
    0x100008dc8:            06 40 00 38  bl,pn     %icc, +0xe0   <0x100008ea8>
    0x100008dcc:            01 00 00 00  nop
    0x100008dd0:            a3 3d 20 00  sra       %l4, 0x0, %l1
    0x100008dd4:            a3 2c 70 03  sllx      %l1, 0x3, %l1
    0x100008dd8:            9a 4c 60 06  mulx      %l1, 0x6, %o5
    0x100008ddc:            ad 39 60 00  sra       %g5, 0x0, %l6
    0x100008de0:            b1 2d b0 03  sllx      %l6, 0x3, %i0
    0x100008de4:            b2 03 60 08  add       %o5, 0x8, %i1
    0x100008de8:            b4 07 40 18  add       %i5, %i0, %i2
    0x100008dec:            9b 3a 20 00  sra       %o0, 0x0, %o5
    0x100008df0:            ac 06 a0 10  add       %i2, 0x10, %l6
    0x100008df4:            ae 10 20 01  mov       0x1, %l7
    0x100008df8:            cd 1f 40 18  ldd       [%i5 + %i0], %d6
    0x100008dfc:            b1 2b 70 03  sllx      %o5, 0x3, %i0
    0x100008e00:            cd 3f 00 18  std       %d6, [%i4 + %i0]
    0x100008e04:            b4 07 00 18  add       %i4, %i0, %i2
    0x100008e08:            9e 02 00 14  add       %o0, %l4, %o7
    0x100008e0c:            d1 1d bf f8  ldd       [%l6 - 0x8], %d8
    0x100008e10:            b0 04 3f fc  add       %l0, -0x4, %i0
    0x100008e14:            d1 3e a0 08  std       %d8, [%i2 + 0x8]
    0x100008e18:            b4 06 80 11  add       %i2, %l1, %i2
    0x100008e1c:            c1 6d a0 68  prefetch  [%l6 + 0x68], #n_reads
    0x100008e20:            ed 6e 80 19  prefetch  [%i2 + %i1], #n_writes_strong
    0x100008e24:            ae 05 e0 04  add       %l7, 0x4, %l7
    0x100008e28:            d5 1d a0 00  ldd       [%l6], %d10
    0x100008e2c:            ac 05 a0 40  add       %l6, 0x40, %l6
    0x100008e30:            80 a5 c0 18  cmp       %l7, %i0
    0x100008e34:            a6 04 e0 08  add       %l3, 0x8, %l3
    0x100008e38:            d5 3e a0 00  std       %d10, [%i2]
    0x100008e3c:            d9 1d bf c8  ldd       [%l6 - 0x38], %d12
    0x100008e40:            9e 03 c0 14  add       %o7, %l4, %o7
    0x100008e44:            d9 3e a0 08  std       %d12, [%i2 + 0x8]
    0x100008e48:            9a 06 80 11  add       %i2, %l1, %o5
    0x100008e4c:            dd 1d bf d0  ldd       [%l6 - 0x30], %d14
    0x100008e50:            dd 3c 40 1a  std       %d14, [%l1 + %i2]
    0x100008e54:            e1 1d bf d8  ldd       [%l6 - 0x28], %d16
    0x100008e58:            9e 03 c0 14  add       %o7, %l4, %o7
    0x100008e5c:            e1 3b 60 08  std       %d16, [%o5 + 0x8]
    0x100008e60:            b4 03 40 11  add       %o5, %l1, %i2
    0x100008e64:            e5 1d bf e0  ldd       [%l6 - 0x20], %d18
    0x100008e68:            e5 3c 40 0d  std       %d18, [%l1 + %o5]
    0x100008e6c:            e9 1d bf e8  ldd       [%l6 - 0x18], %d20
    0x100008e70:            9a 03 c0 14  add       %o7, %l4, %o5
    0x100008e74:            e9 3e a0 08  std       %d20, [%i2 + 0x8]
    0x100008e78:            b4 06 80 11  add       %i2, %l1, %i2
    0x100008e7c:            ed 1d bf f0  ldd       [%l6 - 0x10], %d22
    0x100008e80:            ed 3e a0 00  std       %d22, [%i2]
    0x100008e84:            f1 1d bf f8  ldd       [%l6 - 0x8], %d24
    0x100008e88:            9e 03 40 14  add       %o5, %l4, %o7
    0x100008e8c:            f1 3e a0 08  std       %d24, [%i2 + 0x8]
    0x100008e90:            04 4f ff e3  ble,pt    %icc, -0x74   <0x100008e1c>
    0x100008e94:            b4 06 80 11  add       %i2, %l1, %i2
    0x100008e98:            80 a5 c0 12  cmp       %l7, %l2
    0x100008e9c:            a6 04 e0 02  add       %l3, 0x2, %l3
    0x100008ea0:            14 40 00 12  bg,pn     %icc, +0x48   <0x100008ee8>
    0x100008ea4:            01 00 00 00  nop
    0x100008ea8:            ae 05 e0 01  add       %l7, 0x1, %l7
    0x100008eac:            ad 3c e0 00  sra       %l3, 0x0, %l6
    0x100008eb0:            b3 2d b0 03  sllx      %l6, 0x3, %i1
    0x100008eb4:            9b 3b e0 00  sra       %o7, 0x0, %o5
    0x100008eb8:            b1 2b 70 03  sllx      %o5, 0x3, %i0
    0x100008ebc:            a2 06 40 1d  add       %i1, %i5, %l1
    0x100008ec0:            fd 1f 40 19  ldd       [%i5 + %i1], %d30
    0x100008ec4:            b4 06 00 1c  add       %i0, %i4, %i2
    0x100008ec8:            fd 3f 00 18  std       %d30, [%i4 + %i0]
    0x100008ecc:            80 a5 c0 12  cmp       %l7, %l2
    0x100008ed0:            c1 1c 60 08  ldd       [%l1 + 0x8], %d0
    0x100008ed4:            a6 04 e0 02  add       %l3, 0x2, %l3
    0x100008ed8:            9e 03 c0 14  add       %o7, %l4, %o7
    0x100008edc:            c1 3e a0 08  std       %d0, [%i2 + 0x8]
    0x100008ee0:            04 4f ff f3  ble,pt    %icc, -0x34   <0x100008eac>
    0x100008ee4:            ae 05 e0 01  add       %l7, 0x1, %l7
    0x100008ee8:            92 02 60 01  add       %o1, 0x1, %o1
    0x100008eec:            80 a2 40 12  cmp       %o1, %l2
    0x100008ef0:            8a 01 40 14  add       %g5, %l4, %g5
    0x100008ef4:            90 02 20 02  add       %o0, 0x2, %o0
    0x100008ef8:            04 4f ff b1  ble,pt    %icc, -0x13c  <0x100008dbc>
    0x100008efc:            ae 10 20 00  clr       %l7
    0x100008f00:            88 01 20 01  add       %g4, 0x1, %g4
    0x100008f04:            80 a1 00 1b  cmp       %g4, %i3
    0x100008f08:            84 00 80 15  add       %g2, %l5, %g2
    0x100008f0c:            86 00 c0 01  add       %g3, %g1, %g3
    0x100008f10:            04 4f ff a6  ble,pt    %icc, -0x168  <0x100008da8>
    0x100008f14:            80 a4 20 00  cmp       %l0, 0x0
    0x100008f18:            98 03 20 01  add       %o4, 0x1, %o4
    0x100008f1c:            80 a3 00 1b  cmp       %o4, %i3
    0x100008f20:            94 02 80 15  add       %o2, %l5, %o2
    0x100008f24:            96 02 c0 01  add       %o3, %g1, %o3
    0x100008f28:            04 4f ff 9d  ble,pt    %icc, -0x18c  <0x100008d9c>
    0x100008f2c:            88 10 20 00  clr       %g4
    0x100008f30:            d8 03 a8 e3  ld        [%sp + 0x8e3], %o4
    0x100008f34:            d6 03 a8 ef  ld        [%sp + 0x8ef], %o3
    0x100008f38:            d0 03 a8 f3  ld        [%sp + 0x8f3], %o0
    0x100008f3c:            e2 03 a8 f7  ld        [%sp + 0x8f7], %l1
    0x100008f40:            d2 03 a8 e7  ld        [%sp + 0x8e7], %o1
    0x100008f44:            de 03 a8 eb  ld        [%sp + 0x8eb], %o7
    0x100008f48:            94 02 c0 0c  add       %o3, %o4, %o2
    0x100008f4c:            9a 04 60 01  add       %l1, 0x1, %o5
    0x100008f50:            d4 23 a8 ef  st        %o2, [%sp + 0x8ef]
    0x100008f54:            8a 02 00 09  add       %o0, %o1, %g5
    0x100008f58:            ca 23 a8 f3  st        %g5, [%sp + 0x8f3]
    0x100008f5c:            80 a3 40 0f  cmp       %o5, %o7
    0x100008f60:            da 23 a8 f7  st        %o5, [%sp + 0x8f7]
    0x100008f64:            04 4f ff 8b  ble,pt    %icc, -0x1d4  <0x100008d90>
    0x100008f68:            98 10 20 00  clr       %o4
    0x100008f6c:            e6 03 a8 bb  ld        [%sp + 0x8bb], %l3
    0x100008f70:            80 a4 e0 00  cmp       %l3, 0x0
    0x100008f74:            04 40 00 7b  ble,pn    %icc, +0x1ec  <0x100009160>
    0x100008f78:            ec 03 a8 af  ld        [%sp + 0x8af], %l6
    0x100008f7c:            e8 03 a8 b3  ld        [%sp + 0x8b3], %l4
    0x100008f80:            ea 5b a8 bf  ldx       [%sp + 0x8bf], %l5
    0x100008f84:            e6 03 a8 b7  ld        [%sp + 0x8b7], %l3
    0x100008f88:            83 3d a0 00  sra       %l6, 0x0, %g1
    0x100008f8c:            b4 4d 40 01  mulx      %l5, %g1, %i2
    0x100008f90:            af 3d 20 00  sra       %l4, 0x0, %l7
    0x100008f94:            84 4d c0 01  mulx      %l7, %g1, %g2
    0x100008f98:            87 38 a0 00  sra       %g2, 0x0, %g3
    0x100008f9c:            8a 48 c0 15  mulx      %g3, %l5, %g5
    0x100008fa0:            ab 2d 20 01  sll       %l4, 0x1, %l5
    0x100008fa4:            a8 4c c0 15  mulx      %l3, %l5, %l4
    0x100008fa8:            88 4c 00 15  mulx      %l0, %l5, %g4
    0x100008fac:            a4 01 40 13  add       %g5, %l3, %l2
    0x100008fb0:            a3 2e a0 01  sll       %i2, 0x1, %l1
    0x100008fb4:            84 05 00 11  add       %l4, %l1, %g2
    0x100008fb8:            83 2c a0 01  sll       %l2, 0x1, %g1
    0x100008fbc:            86 10 20 00  clr       %g3
    0x100008fc0:            ae 04 3f ff  add       %l0, -0x1, %l7
    0x100008fc4:            8b 2c 20 01  sll       %l0, 0x1, %g5
    0x100008fc8:            94 10 20 00  clr       %o2
    0x100008fcc:            92 10 00 01  mov       %g1, %o1
    0x100008fd0:            90 10 00 02  mov       %g2, %o0
    0x100008fd4:            80 a4 20 00  cmp       %l0, 0x0
    0x100008fd8:            04 40 00 56  ble,pn    %icc, +0x158  <0x100009130>
    0x100008fdc:            9a 10 20 00  clr       %o5
    0x100008fe0:            98 10 00 08  mov       %o0, %o4
    0x100008fe4:            96 10 00 09  mov       %o1, %o3
    0x100008fe8:            a8 10 20 00  clr       %l4
    0x100008fec:            80 a4 20 05  cmp       %l0, 0x5
    0x100008ff0:            a4 10 00 0b  mov       %o3, %l2
    0x100008ff4:            9e 10 00 0c  mov       %o4, %o7
    0x100008ff8:            06 40 00 38  bl,pn     %icc, +0xe0   <0x1000090d8>
    0x100008ffc:            01 00 00 00  nop
    0x100009000:            a7 3d 60 00  sra       %l5, 0x0, %l3
    0x100009004:            a3 2c f0 03  sllx      %l3, 0x3, %l1
    0x100009008:            ac 4c 60 06  mulx      %l1, 0x6, %l6
    0x10000900c:            b1 3a e0 00  sra       %o3, 0x0, %i0
    0x100009010:            b5 2e 30 03  sllx      %i0, 0x3, %i2
    0x100009014:            a6 07 40 1a  add       %i5, %i2, %l3
    0x100009018:            b1 3b 20 00  sra       %o4, 0x0, %i0
    0x10000901c:            b2 05 a0 08  add       %l6, 0x8, %i1
    0x100009020:            ac 04 e0 10  add       %l3, 0x10, %l6
    0x100009024:            a8 10 20 01  mov       0x1, %l4
    0x100009028:            e5 1f 40 1a  ldd       [%i5 + %i2], %d18
    0x10000902c:            b5 2e 30 03  sllx      %i0, 0x3, %i2
    0x100009030:            e5 3f 00 1a  std       %d18, [%i4 + %i2]
    0x100009034:            a6 07 00 1a  add       %i4, %i2, %l3
    0x100009038:            9e 03 00 15  add       %o4, %l5, %o7
    0x10000903c:            e9 1d bf f8  ldd       [%l6 - 0x8], %d20
    0x100009040:            b4 04 c0 11  add       %l3, %l1, %i2
    0x100009044:            e9 3c e0 08  std       %d20, [%l3 + 0x8]
    0x100009048:            b0 04 3f fc  add       %l0, -0x4, %i0
    0x10000904c:            c1 6d a0 68  prefetch  [%l6 + 0x68], #n_reads
    0x100009050:            ed 6e 80 19  prefetch  [%i2 + %i1], #n_writes_strong
    0x100009054:            a8 05 20 04  add       %l4, 0x4, %l4
    0x100009058:            ed 1d a0 00  ldd       [%l6], %d22
    0x10000905c:            ac 05 a0 40  add       %l6, 0x40, %l6
    0x100009060:            80 a5 00 18  cmp       %l4, %i0
    0x100009064:            a4 04 a0 08  add       %l2, 0x8, %l2
    0x100009068:            ed 3e a0 00  std       %d22, [%i2]
    0x10000906c:            f1 1d bf c8  ldd       [%l6 - 0x38], %d24
    0x100009070:            9e 03 c0 15  add       %o7, %l5, %o7
    0x100009074:            f1 3e a0 08  std       %d24, [%i2 + 0x8]
    0x100009078:            b4 06 80 11  add       %i2, %l1, %i2
    0x10000907c:            f5 1d bf d0  ldd       [%l6 - 0x30], %d26
    0x100009080:            f5 3e a0 00  std       %d26, [%i2]
    0x100009084:            f9 1d bf d8  ldd       [%l6 - 0x28], %d28
    0x100009088:            a6 03 c0 15  add       %o7, %l5, %l3
    0x10000908c:            f9 3e a0 08  std       %d28, [%i2 + 0x8]
    0x100009090:            b4 06 80 11  add       %i2, %l1, %i2
    0x100009094:            fd 1d bf e0  ldd       [%l6 - 0x20], %d30
    0x100009098:            fd 3e a0 00  std       %d30, [%i2]
    0x10000909c:            c1 1d bf e8  ldd       [%l6 - 0x18], %d0
    0x1000090a0:            9e 04 c0 15  add       %l3, %l5, %o7
    0x1000090a4:            c1 3e a0 08  std       %d0, [%i2 + 0x8]
    0x1000090a8:            a6 06 80 11  add       %i2, %l1, %l3
    0x1000090ac:            c5 1d bf f0  ldd       [%l6 - 0x10], %d2
    0x1000090b0:            c5 3c 40 1a  std       %d2, [%l1 + %i2]
    0x1000090b4:            c9 1d bf f8  ldd       [%l6 - 0x8], %d4
    0x1000090b8:            9e 03 c0 15  add       %o7, %l5, %o7
    0x1000090bc:            c9 3c e0 08  std       %d4, [%l3 + 0x8]
    0x1000090c0:            04 4f ff e3  ble,pt    %icc, -0x74   <0x10000904c>
    0x1000090c4:            b4 04 c0 11  add       %l3, %l1, %i2
    0x1000090c8:            80 a5 00 17  cmp       %l4, %l7
    0x1000090cc:            a4 04 a0 02  add       %l2, 0x2, %l2
    0x1000090d0:            14 40 00 12  bg,pn     %icc, +0x48   <0x100009118>
    0x1000090d4:            01 00 00 00  nop
    0x1000090d8:            a8 05 20 01  add       %l4, 0x1, %l4
    0x1000090dc:            a7 3c a0 00  sra       %l2, 0x0, %l3
    0x1000090e0:            ad 2c f0 03  sllx      %l3, 0x3, %l6
    0x1000090e4:            a3 3b e0 00  sra       %o7, 0x0, %l1
    0x1000090e8:            b1 2c 70 03  sllx      %l1, 0x3, %i0
    0x1000090ec:            b2 05 80 1d  add       %l6, %i5, %i1
    0x1000090f0:            c5 1f 40 16  ldd       [%i5 + %l6], %d2
    0x1000090f4:            b4 06 00 1c  add       %i0, %i4, %i2
    0x1000090f8:            c5 3f 00 18  std       %d2, [%i4 + %i0]
    0x1000090fc:            80 a5 00 17  cmp       %l4, %l7
    0x100009100:            c9 1e 60 08  ldd       [%i1 + 0x8], %d4
    0x100009104:            a4 04 a0 02  add       %l2, 0x2, %l2
    0x100009108:            9e 03 c0 15  add       %o7, %l5, %o7
    0x10000910c:            c9 3e a0 08  std       %d4, [%i2 + 0x8]
    0x100009110:            04 4f ff f3  ble,pt    %icc, -0x34   <0x1000090dc>
    0x100009114:            a8 05 20 01  add       %l4, 0x1, %l4
    0x100009118:            9a 03 60 01  add       %o5, 0x1, %o5
    0x10000911c:            80 a3 40 17  cmp       %o5, %l7
    0x100009120:            96 02 c0 15  add       %o3, %l5, %o3
    0x100009124:            98 03 20 02  add       %o4, 0x2, %o4
    0x100009128:            04 4f ff b1  ble,pt    %icc, -0x13c  <0x100008fec>
    0x10000912c:            a8 10 20 00  clr       %l4
    0x100009130:            94 02 a0 01  add       %o2, 0x1, %o2
    0x100009134:            80 a2 80 1b  cmp       %o2, %i3
    0x100009138:            90 02 00 04  add       %o0, %g4, %o0
    0x10000913c:            92 02 40 05  add       %o1, %g5, %o1
    0x100009140:            04 4f ff a6  ble,pt    %icc, -0x168  <0x100008fd8>
    0x100009144:            80 a4 20 00  cmp       %l0, 0x0
    0x100009148:            86 00 e0 01  add       %g3, 0x1, %g3
    0x10000914c:            80 a0 c0 1b  cmp       %g3, %i3
    0x100009150:            82 00 40 04  add       %g1, %g4, %g1
    0x100009154:            84 00 80 05  add       %g2, %g5, %g2
    0x100009158:            04 4f ff 9d  ble,pt    %icc, -0x18c  <0x100008fcc>
    0x10000915c:            94 10 20 00  clr       %o2
    0x100009160:            81 c7 e0 08  ret
    0x100009164:            81 e8 20 00  restore   %g0, 0x0, %g0
    0x100009168:            00 00 00 00  illtrap   0x0
    0x10000916c:            00 00 00 00  illtrap   0x0
    0x100009170:            00 00 00 00  illtrap   0x0
    0x100009174:            00 00 00 00  illtrap   0x0
    0x100009178:            00 00 00 00  illtrap   0x0
    0x10000917c:            00 00 00 00  illtrap   0x0
CopyColumn()
    0x100009180:            90 90 00 08  orcc      %g0, %o0, %o0
    0x100009184:            04 40 00 7b  ble,pn    %icc, +0x1ec  <0x100009370>
    0x100009188:            96 02 3f ff  add       %o0, -0x1, %o3
    0x10000918c:            80 a2 e0 03  cmp       %o3, 0x3
    0x100009190:            06 40 00 0b  bl,pn     %icc, +0x2c   <0x1000091bc>
    0x100009194:            84 22 80 09  sub       %o2, %o1, %g2
    0x100009198:            87 3a 20 00  sra       %o0, 0x0, %g3
    0x10000919c:            91 38 b0 3f  srax      %g2, 0x3f, %o0
    0x1000091a0:            98 18 80 08  xor       %g2, %o0, %o4
    0x1000091a4:            83 28 f0 04  sllx      %g3, 0x4, %g1
    0x1000091a8:            8a 23 00 08  sub       %o4, %o0, %g5
    0x1000091ac:            9a 00 60 08  add       %g1, 0x8, %o5
    0x1000091b0:            80 a1 40 0d  cmp       %g5, %o5
    0x1000091b4:            16 68 00 35  bge,pt    %xcc, +0xd4   <0x100009288>
    0x1000091b8:            90 10 20 00  clr       %o0
    0x1000091bc:            98 02 e0 01  add       %o3, 0x1, %o4
    0x1000091c0:            80 a3 20 04  cmp       %o4, 0x4
    0x1000091c4:            86 10 20 00  clr       %g3
    0x1000091c8:            84 10 20 00  clr       %g2
    0x1000091cc:            06 40 00 20  bl,pn     %icc, +0x80   <0x10000924c>
    0x1000091d0:            01 00 00 00  nop
    0x1000091d4:            98 10 00 09  mov       %o1, %o4
    0x1000091d8:            82 10 00 0a  mov       %o2, %g1
    0x1000091dc:            9a 22 e0 03  sub       %o3, 0x3, %o5
    0x1000091e0:            c1 6b 20 a8  prefetch  [%o4 + 0xa8], #n_reads
    0x1000091e4:            ed 68 60 a8  prefetch  [%g1 + 0xa8], #n_writes_strong
    0x1000091e8:            86 00 e0 04  add       %g3, 0x4, %g3
    0x1000091ec:            c1 1b 20 00  ldd       [%o4], %d0
    0x1000091f0:            98 03 20 40  add       %o4, 0x40, %o4
    0x1000091f4:            80 a0 c0 0d  cmp       %g3, %o5
    0x1000091f8:            82 00 60 40  add       %g1, 0x40, %g1
    0x1000091fc:            c1 38 7f c0  std       %d0, [%g1 - 0x40]
    0x100009200:            84 00 a0 08  add       %g2, 0x8, %g2
    0x100009204:            e1 1b 3f c8  ldd       [%o4 - 0x38], %d16
    0x100009208:            e1 38 7f c8  std       %d16, [%g1 - 0x38]
    0x10000920c:            e5 1b 3f d0  ldd       [%o4 - 0x30], %d18
    0x100009210:            e5 38 7f d0  std       %d18, [%g1 - 0x30]
    0x100009214:            e9 1b 3f d8  ldd       [%o4 - 0x28], %d20
    0x100009218:            e9 38 7f d8  std       %d20, [%g1 - 0x28]
    0x10000921c:            ed 1b 3f e0  ldd       [%o4 - 0x20], %d22
    0x100009220:            ed 38 7f e0  std       %d22, [%g1 - 0x20]
    0x100009224:            f1 1b 3f e8  ldd       [%o4 - 0x18], %d24
    0x100009228:            f1 38 7f e8  std       %d24, [%g1 - 0x18]
    0x10000922c:            f5 1b 3f f0  ldd       [%o4 - 0x10], %d26
    0x100009230:            f5 38 7f f0  std       %d26, [%g1 - 0x10]
    0x100009234:            f9 1b 3f f8  ldd       [%o4 - 0x8], %d28
    0x100009238:            04 4f ff ea  ble,pt    %icc, -0x58   <0x1000091e0>
    0x10000923c:            f9 38 7f f8  std       %d28, [%g1 - 0x8]
    0x100009240:            80 a0 c0 0b  cmp       %g3, %o3
    0x100009244:            14 40 00 0f  bg,pn     %icc, +0x3c   <0x100009280>
    0x100009248:            01 00 00 00  nop
    0x10000924c:            86 00 e0 01  add       %g3, 0x1, %g3
    0x100009250:            89 38 a0 00  sra       %g2, 0x0, %g4
    0x100009254:            8b 29 30 03  sllx      %g4, 0x3, %g5
    0x100009258:            c9 1a 40 05  ldd       [%o1 + %g5], %d4
    0x10000925c:            90 01 40 09  add       %g5, %o1, %o0
    0x100009260:            c9 3a 80 05  std       %d4, [%o2 + %g5]
    0x100009264:            88 01 40 0a  add       %g5, %o2, %g4
    0x100009268:            cd 1a 20 08  ldd       [%o0 + 0x8], %d6
    0x10000926c:            80 a0 c0 0b  cmp       %g3, %o3
    0x100009270:            84 00 a0 02  add       %g2, 0x2, %g2
    0x100009274:            cd 39 20 08  std       %d6, [%g4 + 0x8]
    0x100009278:            04 4f ff f6  ble,pt    %icc, -0x28   <0x100009250>
    0x10000927c:            86 00 e0 01  add       %g3, 0x1, %g3
    0x100009280:            81 c3 e0 08  retl
    0x100009284:            01 00 00 00  nop
    0x100009288:            86 02 e0 01  add       %o3, 0x1, %g3
    0x10000928c:            80 a0 e0 06  cmp       %g3, 0x6
    0x100009290:            98 10 20 00  clr       %o4
    0x100009294:            06 40 00 2a  bl,pn     %icc, +0xa8   <0x10000933c>
    0x100009298:            01 00 00 00  nop
    0x10000929c:            c5 1a 60 00  ldd       [%o1], %d2
    0x1000092a0:            c9 1a 60 08  ldd       [%o1 + 0x8], %d4
    0x1000092a4:            90 10 20 02  mov       0x2, %o0
    0x1000092a8:            cd 1a 60 10  ldd       [%o1 + 0x10], %d6
    0x1000092ac:            88 02 60 20  add       %o1, 0x20, %g4
    0x1000092b0:            8a 10 00 0a  mov       %o2, %g5
    0x1000092b4:            c1 1a 60 18  ldd       [%o1 + 0x18], %d0
    0x1000092b8:            9a 22 e0 03  sub       %o3, 0x3, %o5
    0x1000092bc:            c1 69 20 a8  prefetch  [%g4 + 0xa8], #n_reads
    0x1000092c0:            ed 69 60 a8  prefetch  [%g5 + 0xa8], #n_writes_strong
    0x1000092c4:            90 02 20 04  add       %o0, 0x4, %o0
    0x1000092c8:            d1 19 20 00  ldd       [%g4], %d8
    0x1000092cc:            88 01 20 40  add       %g4, 0x40, %g4
    0x1000092d0:            c5 39 60 00  std       %d2, [%g5]
    0x1000092d4:            80 a2 00 0d  cmp       %o0, %o5
    0x1000092d8:            8a 01 60 40  add       %g5, 0x40, %g5
    0x1000092dc:            98 03 20 08  add       %o4, 0x8, %o4
    0x1000092e0:            d5 19 3f c8  ldd       [%g4 - 0x38], %d10
    0x1000092e4:            c9 39 7f c8  std       %d4, [%g5 - 0x38]
    0x1000092e8:            d9 19 3f d0  ldd       [%g4 - 0x30], %d12
    0x1000092ec:            cd 39 7f d0  std       %d6, [%g5 - 0x30]
    0x1000092f0:            dd 19 3f d8  ldd       [%g4 - 0x28], %d14
    0x1000092f4:            c1 39 7f d8  std       %d0, [%g5 - 0x28]
    0x1000092f8:            c5 19 3f e0  ldd       [%g4 - 0x20], %d2
    0x1000092fc:            d1 39 7f e0  std       %d8, [%g5 - 0x20]
    0x100009300:            c9 19 3f e8  ldd       [%g4 - 0x18], %d4
    0x100009304:            d5 39 7f e8  std       %d10, [%g5 - 0x18]
    0x100009308:            cd 19 3f f0  ldd       [%g4 - 0x10], %d6
    0x10000930c:            d9 39 7f f0  std       %d12, [%g5 - 0x10]
    0x100009310:            c1 19 3f f8  ldd       [%g4 - 0x8], %d0
    0x100009314:            04 4f ff ea  ble,pt    %icc, -0x58   <0x1000092bc>
    0x100009318:            dd 39 7f f8  std       %d14, [%g5 - 0x8]
    0x10000931c:            c5 39 60 00  std       %d2, [%g5]
    0x100009320:            c9 39 60 08  std       %d4, [%g5 + 0x8]
    0x100009324:            80 a2 00 0b  cmp       %o0, %o3
    0x100009328:            cd 39 60 10  std       %d6, [%g5 + 0x10]
    0x10000932c:            98 03 20 04  add       %o4, 0x4, %o4
    0x100009330:            c1 39 60 18  std       %d0, [%g5 + 0x18]
    0x100009334:            14 40 00 0f  bg,pn     %icc, +0x3c   <0x100009370>
    0x100009338:            01 00 00 00  nop
    0x10000933c:            90 02 20 01  add       %o0, 0x1, %o0
    0x100009340:            9b 3b 20 00  sra       %o4, 0x0, %o5
    0x100009344:            89 2b 70 03  sllx      %o5, 0x3, %g4
    0x100009348:            fd 1a 40 04  ldd       [%o1 + %g4], %d30
    0x10000934c:            84 01 00 09  add       %g4, %o1, %g2
    0x100009350:            c5 18 a0 08  ldd       [%g2 + 0x8], %d2
    0x100009354:            8a 01 00 0a  add       %g4, %o2, %g5
    0x100009358:            fd 3a 80 04  std       %d30, [%o2 + %g4]
    0x10000935c:            80 a2 00 0b  cmp       %o0, %o3
    0x100009360:            98 03 20 02  add       %o4, 0x2, %o4
    0x100009364:            c5 39 60 08  std       %d2, [%g5 + 0x8]
    0x100009368:            04 4f ff f6  ble,pt    %icc, -0x28   <0x100009340>
    0x10000936c:            90 02 20 01  add       %o0, 0x1, %o0
    0x100009370:            81 c3 e0 08  retl
    0x100009374:            01 00 00 00  nop
    0x100009378:            00 00 00 00  illtrap   0x0
    0x10000937c:            00 00 00 00  illtrap   0x0
    0x100009380:            00 00 00 00  illtrap   0x0
    0x100009384:            00 00 00 00  illtrap   0x0
    0x100009388:            00 00 00 00  illtrap   0x0
    0x10000938c:            00 00 00 00  illtrap   0x0
Reverse()
    0x100009390:            9d e3 bf 50  save      %sp, -0xb0, %sp
    0x100009394:            b0 90 00 18  orcc      %g0, %i0, %i0
    0x100009398:            04 40 00 3e  ble,pn    %icc, +0xf8   <0x100009490>
    0x10000939c:            b6 06 7f ff  add       %i1, -0x1, %i3
    0x1000093a0:            a8 10 20 00  clr       %l4
    0x1000093a4:            a6 06 3f ff  add       %i0, -0x1, %l3
    0x1000093a8:            aa 10 20 00  clr       %l5
    0x1000093ac:            80 a6 60 00  cmp       %i1, 0x0
    0x1000093b0:            04 40 00 22  ble,pn    %icc, +0x88   <0x100009438>
    0x1000093b4:            b8 10 20 00  clr       %i4
    0x1000093b8:            80 a6 60 03  cmp       %i1, 0x3
    0x1000093bc:            ae 10 20 00  clr       %l7
    0x1000093c0:            ba 10 00 14  mov       %l4, %i5
    0x1000093c4:            06 40 00 15  bl,pn     %icc, +0x54   <0x100009418>
    0x1000093c8:            01 00 00 00  nop
    0x1000093cc:            ac 0d 20 01  and       %l4, 0x1, %l6
    0x1000093d0:            ae 10 20 01  mov       0x1, %l7
    0x1000093d4:            bb 3d 20 01  sra       %l4, 0x1, %i5
    0x1000093d8:            b8 10 00 16  mov       %l6, %i4
    0x1000093dc:            b0 06 7f fe  add       %i1, -0x2, %i0
    0x1000093e0:            ae 05 e0 02  add       %l7, 0x2, %l7
    0x1000093e4:            a1 2f 20 01  sll       %i4, 0x1, %l0
    0x1000093e8:            a2 0f 60 01  and       %i5, 0x1, %l1
    0x1000093ec:            99 3f 60 01  sra       %i5, 0x1, %o4
    0x1000093f0:            9a 04 00 11  add       %l0, %l1, %o5
    0x1000093f4:            80 a5 c0 18  cmp       %l7, %i0
    0x1000093f8:            97 2b 60 01  sll       %o5, 0x1, %o3
    0x1000093fc:            94 0b 20 01  and       %o4, 0x1, %o2
    0x100009400:            bb 3f 60 02  sra       %i5, 0x2, %i5
    0x100009404:            04 4f ff f7  ble,pt    %icc, -0x24   <0x1000093e0>
    0x100009408:            b8 02 c0 0a  add       %o3, %o2, %i4
    0x10000940c:            80 a5 c0 1b  cmp       %l7, %i3
    0x100009410:            14 40 00 0a  bg,pn     %icc, +0x28   <0x100009438>
    0x100009414:            01 00 00 00  nop
    0x100009418:            ae 05 e0 01  add       %l7, 0x1, %l7
    0x10000941c:            92 0f 60 01  and       %i5, 0x1, %o1
    0x100009420:            91 2f 20 01  sll       %i4, 0x1, %o0
    0x100009424:            80 a5 c0 1b  cmp       %l7, %i3
    0x100009428:            bb 3f 60 01  sra       %i5, 0x1, %i5
    0x10000942c:            b8 02 00 09  add       %o0, %o1, %i4
    0x100009430:            04 4f ff fb  ble,pt    %icc, -0x14   <0x10000941c>
    0x100009434:            ae 05 e0 01  add       %l7, 0x1, %l7
    0x100009438:            80 a7 00 14  cmp       %i4, %l4
    0x10000943c:            04 40 00 11  ble,pn    %icc, +0x44   <0x100009480>
    0x100009440:            a8 05 20 01  add       %l4, 0x1, %l4
    0x100009444:            8b 2f 20 01  sll       %i4, 0x1, %g5
    0x100009448:            89 39 60 00  sra       %g5, 0x0, %g4
    0x10000944c:            87 3d 60 00  sra       %l5, 0x0, %g3
    0x100009450:            83 29 30 03  sllx      %g4, 0x3, %g1
    0x100009454:            c5 1e 80 01  ldd       [%i2 + %g1], %d2
    0x100009458:            85 28 f0 03  sllx      %g3, 0x3, %g2
    0x10000945c:            c1 1e 80 02  ldd       [%i2 + %g2], %d0
    0x100009460:            c1 3e 80 01  std       %d0, [%i2 + %g1]
    0x100009464:            c5 3e 80 02  std       %d2, [%i2 + %g2]
    0x100009468:            ba 00 80 1a  add       %g2, %i2, %i5
    0x10000946c:            c1 1f 60 08  ldd       [%i5 + 0x8], %d0
    0x100009470:            b8 00 40 1a  add       %g1, %i2, %i4
    0x100009474:            c9 1f 20 08  ldd       [%i4 + 0x8], %d4
    0x100009478:            c1 3f 20 08  std       %d0, [%i4 + 0x8]
    0x10000947c:            c9 3f 60 08  std       %d4, [%i5 + 0x8]
    0x100009480:            80 a5 00 13  cmp       %l4, %l3
    0x100009484:            aa 05 60 02  add       %l5, 0x2, %l5
    0x100009488:            04 4f ff ca  ble,pt    %icc, -0xd8   <0x1000093b0>
    0x10000948c:            80 a6 60 00  cmp       %i1, 0x0
    0x100009490:            81 c7 e0 08  ret
    0x100009494:            81 e8 20 00  restore   %g0, 0x0, %g0
    0x100009498:            00 00 00 00  illtrap   0x0
    0x10000949c:            00 00 00 00  illtrap   0x0
    0x1000094a0:            00 00 00 00  illtrap   0x0
    0x1000094a4:            00 00 00 00  illtrap   0x0
    0x1000094a8:            00 00 00 00  illtrap   0x0
    0x1000094ac:            00 00 00 00  illtrap   0x0
FFT1DOnce()
    0x1000094b0:            9d e3 bf 40  save      %sp, -0xc0, %sp
    0x1000094b4:            b4 90 00 1a  orcc      %g0, %i2, %i2
    0x1000094b8:            04 40 00 3e  ble,pn    %icc, +0xf8   <0x1000095b0>
    0x1000094bc:            82 10 20 00  clr       %g1
    0x1000094c0:            ac 06 bf ff  add       %i2, -0x1, %l6
    0x1000094c4:            ae 10 20 00  clr       %l7
    0x1000094c8:            a0 06 7f ff  add       %i1, -0x1, %l0
    0x1000094cc:            80 a6 60 00  cmp       %i1, 0x0
    0x1000094d0:            04 40 00 22  ble,pn    %icc, +0x88   <0x100009558>
    0x1000094d4:            aa 10 20 00  clr       %l5
    0x1000094d8:            80 a6 60 03  cmp       %i1, 0x3
    0x1000094dc:            a6 10 20 00  clr       %l3
    0x1000094e0:            a4 10 00 01  mov       %g1, %l2
    0x1000094e4:            06 40 00 15  bl,pn     %icc, +0x54   <0x100009538>
    0x1000094e8:            01 00 00 00  nop
    0x1000094ec:            96 08 60 01  and       %g1, 0x1, %o3
    0x1000094f0:            a6 10 20 01  mov       0x1, %l3
    0x1000094f4:            a5 38 60 01  sra       %g1, 0x1, %l2
    0x1000094f8:            aa 10 00 0b  mov       %o3, %l5
    0x1000094fc:            ba 06 7f fe  add       %i1, -0x2, %i5
    0x100009500:            a6 04 e0 02  add       %l3, 0x2, %l3
    0x100009504:            9f 2d 60 01  sll       %l5, 0x1, %o7
    0x100009508:            94 0c a0 01  and       %l2, 0x1, %o2
    0x10000950c:            9b 3c a0 01  sra       %l2, 0x1, %o5
    0x100009510:            a4 03 c0 0a  add       %o7, %o2, %l2
    0x100009514:            80 a4 c0 1d  cmp       %l3, %i5
    0x100009518:            ab 2c a0 01  sll       %l2, 0x1, %l5
    0x10000951c:            84 0b 60 01  and       %o5, 0x1, %g2
    0x100009520:            a5 3b 60 01  sra       %o5, 0x1, %l2
    0x100009524:            04 4f ff f7  ble,pt    %icc, -0x24   <0x100009500>
    0x100009528:            aa 05 40 02  add       %l5, %g2, %l5
    0x10000952c:            80 a4 c0 10  cmp       %l3, %l0
    0x100009530:            14 40 00 0a  bg,pn     %icc, +0x28   <0x100009558>
    0x100009534:            01 00 00 00  nop
    0x100009538:            a6 04 e0 01  add       %l3, 0x1, %l3
    0x10000953c:            92 0c a0 01  and       %l2, 0x1, %o1
    0x100009540:            a9 2d 60 01  sll       %l5, 0x1, %l4
    0x100009544:            80 a4 c0 10  cmp       %l3, %l0
    0x100009548:            a5 3c a0 01  sra       %l2, 0x1, %l2
    0x10000954c:            aa 05 00 09  add       %l4, %o1, %l5
    0x100009550:            04 4f ff fb  ble,pt    %icc, -0x14   <0x10000953c>
    0x100009554:            a6 04 e0 01  add       %l3, 0x1, %l3
    0x100009558:            80 a5 40 01  cmp       %l5, %g1
    0x10000955c:            04 40 00 11  ble,pn    %icc, +0x44   <0x1000095a0>
    0x100009560:            82 00 60 01  add       %g1, 0x1, %g1
    0x100009564:            85 2d 60 01  sll       %l5, 0x1, %g2
    0x100009568:            89 38 a0 00  sra       %g2, 0x0, %g4
    0x10000956c:            ab 3d e0 00  sra       %l7, 0x0, %l5
    0x100009570:            a3 29 30 03  sllx      %g4, 0x3, %l1
    0x100009574:            fb 1f 00 11  ldd       [%i4 + %l1], %d60
    0x100009578:            9b 2d 70 03  sllx      %l5, 0x3, %o5
    0x10000957c:            c5 1f 00 0d  ldd       [%i4 + %o5], %d2
    0x100009580:            c5 3f 00 11  std       %d2, [%i4 + %l1]
    0x100009584:            fb 3f 00 0d  std       %d60, [%i4 + %o5]
    0x100009588:            a4 03 40 1c  add       %o5, %i4, %l2
    0x10000958c:            e5 1c a0 08  ldd       [%l2 + 0x8], %d18
    0x100009590:            ba 04 40 1c  add       %l1, %i4, %i5
    0x100009594:            f5 1f 60 08  ldd       [%i5 + 0x8], %d26
    0x100009598:            e5 3f 60 08  std       %d18, [%i5 + 0x8]
    0x10000959c:            f5 3c a0 08  std       %d26, [%l2 + 0x8]
    0x1000095a0:            80 a0 40 16  cmp       %g1, %l6
    0x1000095a4:            ae 05 e0 02  add       %l7, 0x2, %l7
    0x1000095a8:            04 4f ff ca  ble,pt    %icc, -0xd8   <0x1000094d0>
    0x1000095ac:            80 a6 60 00  cmp       %i1, 0x0
    0x1000095b0:            80 a6 60 01  cmp       %i1, 0x1
    0x1000095b4:            06 40 01 8b  bl,pn     %icc, +0x62c  <0x100009be0>
    0x1000095b8:            92 10 20 01  mov       0x1, %o1
    0x1000095bc:            f0 23 a8 af  st        %i0, [%sp + 0x8af]
    0x1000095c0:            c1 03 a8 af  ld        [%sp + 0x8af], %f0
    0x1000095c4:            83 3e a0 1f  sra       %i2, 0x1f, %g1
    0x1000095c8:            85 a0 19 00  fitod     %f0, %d2
    0x1000095cc:            81 80 60 00  wr        %g1, 0x0, %y
    0x1000095d0:            86 10 20 01  mov       0x1, %g3
    0x1000095d4:            91 28 c0 09  sll       %g3, %o1, %o0
    0x1000095d8:            8a fe 80 08  sdivcc    %i2, %o0, %g5
    0x1000095dc:            2e 48 00 02  bvs,a,pt  %icc, +0x8    <0x1000095e4>
    0x1000095e0:            0b 20 00 00  sethi     %hi(0x80000000), %g5
    0x1000095e4:            80 a1 60 00  cmp       %g5, 0x0
    0x1000095e8:            04 40 01 7a  ble,pn    %icc, +0x5e8  <0x100009bd0>
    0x1000095ec:            84 01 7f ff  add       %g5, -0x1, %g2
    0x1000095f0:            ad 32 20 1f  srl       %o0, 0x1f, %l6
    0x1000095f4:            ae 02 00 16  add       %o0, %l6, %l7
    0x1000095f8:            83 3d e0 01  sra       %l7, 0x1, %g1
    0x1000095fc:            a8 00 7f ff  add       %g1, -0x1, %l4
    0x100009600:            bb 2d 20 01  sll       %l4, 0x1, %i5
    0x100009604:            a1 3f 60 00  sra       %i5, 0x0, %l0
    0x100009608:            89 2c 30 03  sllx      %l0, 0x3, %g4
    0x10000960c:            87 2a 20 01  sll       %o0, 0x1, %g3
    0x100009610:            ac 01 00 1b  add       %g4, %i3, %l6
    0x100009614:            8a 0d ff fe  and       %l7, -0x2, %g5
    0x100009618:            90 10 20 00  clr       %o0
    0x10000961c:            88 10 20 00  clr       %g4
    0x100009620:            80 a0 60 00  cmp       %g1, 0x0
    0x100009624:            04 40 01 65  ble,pn    %icc, +0x594  <0x100009bb8>
    0x100009628:            80 a5 20 07  cmp       %l4, 0x7
    0x10000962c:            95 39 20 00  sra       %g4, 0x0, %o2
    0x100009630:            af 2a b0 03  sllx      %o2, 0x3, %l7
    0x100009634:            a7 39 60 00  sra       %g5, 0x0, %l3
    0x100009638:            94 05 c0 1c  add       %l7, %i4, %o2
    0x10000963c:            b1 2c f0 03  sllx      %l3, 0x3, %i0
    0x100009640:            06 40 00 1d  bl,pn     %icc, +0x74   <0x1000096b4>
    0x100009644:            ae 06 00 1c  add       %i0, %i4, %l7
    0x100009648:            9a 25 c0 16  sub       %l7, %l6, %o5
    0x10000964c:            b1 3b 70 3f  srax      %o5, 0x3f, %i0
    0x100009650:            a6 1b 40 18  xor       %o5, %i0, %l3
    0x100009654:            ba 24 c0 18  sub       %l3, %i0, %i5
    0x100009658:            a3 28 70 04  sllx      %g1, 0x4, %l1
    0x10000965c:            b0 04 60 08  add       %l1, 0x8, %i0
    0x100009660:            a0 25 c0 0a  sub       %l7, %o2, %l0
    0x100009664:            97 3c 30 3f  srax      %l0, 0x3f, %o3
    0x100009668:            80 a7 40 18  cmp       %i5, %i0
    0x10000966c:            98 1c 00 0b  xor       %l0, %o3, %o4
    0x100009670:            9e 22 80 16  sub       %o2, %l6, %o7
    0x100009674:            ba 10 20 00  clr       %i5
    0x100009678:            9a 23 00 0b  sub       %o4, %o3, %o5
    0x10000967c:            a5 3b f0 3f  srax      %o7, 0x3f, %l2
    0x100009680:            bb 66 f0 01  movge     %xcc, 0x1, %i5
    0x100009684:            aa 1b c0 12  xor       %o7, %l2, %l5
    0x100009688:            a2 10 20 00  clr       %l1
    0x10000968c:            80 a3 40 18  cmp       %o5, %i0
    0x100009690:            a3 66 f0 01  movge     %xcc, 0x1, %l1
    0x100009694:            a6 25 40 12  sub       %l5, %l2, %l3
    0x100009698:            a0 10 20 00  clr       %l0
    0x10000969c:            80 a4 c0 18  cmp       %l3, %i0
    0x1000096a0:            a1 66 f0 01  movge     %xcc, 0x1, %l0
    0x1000096a4:            98 0f 40 11  and       %i5, %l1, %o4
    0x1000096a8:            80 8b 00 10  btst      %l0, %o4
    0x1000096ac:            12 48 00 8d  bne,pt    %icc, +0x234  <0x1000098e0>
    0x1000096b0:            9a 10 20 00  clr       %o5
    0x1000096b4:            80 a0 60 04  cmp       %g1, 0x4
    0x1000096b8:            a0 10 20 00  clr       %l0
    0x1000096bc:            ba 10 20 00  clr       %i5
    0x1000096c0:            06 40 00 67  bl,pn     %icc, +0x19c  <0x10000985c>
    0x1000096c4:            01 00 00 00  nop
    0x1000096c8:            aa 10 00 0a  mov       %o2, %l5
    0x1000096cc:            a2 10 00 17  mov       %l7, %l1
    0x1000096d0:            9a 10 00 16  mov       %l6, %o5
    0x1000096d4:            b0 00 7f fc  add       %g1, -0x4, %i0
    0x1000096d8:            c1 6b 60 88  prefetch  [%o5 + 0x88], #n_reads
    0x1000096dc:            c1 6c 60 88  prefetch  [%l1 + 0x88], #n_reads
    0x1000096e0:            a0 04 20 04  add       %l0, 0x4, %l0
    0x1000096e4:            aa 05 60 40  add       %l5, 0x40, %l5
    0x1000096e8:            e1 1b 60 08  ldd       [%o5 + 0x8], %d16
    0x1000096ec:            80 a4 00 18  cmp       %l0, %i0
    0x1000096f0:            a2 04 60 40  add       %l1, 0x40, %l1
    0x1000096f4:            f1 1b 60 00  ldd       [%o5], %d24
    0x1000096f8:            9a 03 60 40  add       %o5, 0x40, %o5
    0x1000096fc:            ba 07 60 08  add       %i5, 0x8, %i5
    0x100009700:            e9 1c 7f c8  ldd       [%l1 - 0x38], %d20
    0x100009704:            b5 a4 09 42  fmuld     %d16, %d2, %d26
    0x100009708:            ff 1c 7f c0  ldd       [%l1 - 0x40], %d62
    0x10000970c:            91 a6 09 54  fmuld     %d24, %d20, %d8
    0x100009710:            bb a6 09 5f  fmuld     %d24, %d62, %d60
    0x100009714:            a5 a6 89 54  fmuld     %d26, %d20, %d18
    0x100009718:            95 a6 89 5f  fmuld     %d26, %d62, %d10
    0x10000971c:            b7 a7 48 d2  fsubd     %d60, %d18, %d58
    0x100009720:            a1 a2 08 4a  faddd     %d8, %d10, %d16
    0x100009724:            c9 1d 7f c0  ldd       [%l5 - 0x40], %d4
    0x100009728:            d9 1d 7f c8  ldd       [%l5 - 0x38], %d12
    0x10000972c:            9d a1 08 db  fsubd     %d4, %d58, %d14
    0x100009730:            dd 3c 7f c0  std       %d14, [%l1 - 0x40]
    0x100009734:            8d a3 08 d0  fsubd     %d12, %d16, %d6
    0x100009738:            cd 3c 7f c8  std       %d6, [%l1 - 0x38]
    0x10000973c:            ad a1 08 5b  faddd     %d4, %d58, %d22
    0x100009740:            ed 3d 7f c0  std       %d22, [%l5 - 0x40]
    0x100009744:            b1 a3 08 50  faddd     %d12, %d16, %d24
    0x100009748:            f1 3d 7f c8  std       %d24, [%l5 - 0x38]
    0x10000974c:            e9 1b 7f d8  ldd       [%o5 - 0x28], %d20
    0x100009750:            e5 1b 7f d0  ldd       [%o5 - 0x30], %d18
    0x100009754:            b5 a5 09 42  fmuld     %d20, %d2, %d26
    0x100009758:            ff 1c 7f d8  ldd       [%l1 - 0x28], %d62
    0x10000975c:            d5 1c 7f d0  ldd       [%l1 - 0x30], %d10
    0x100009760:            8d a4 89 5f  fmuld     %d18, %d62, %d6
    0x100009764:            bb a4 89 4a  fmuld     %d18, %d10, %d60
    0x100009768:            91 a6 89 5f  fmuld     %d26, %d62, %d8
    0x10000976c:            9d a6 89 4a  fmuld     %d26, %d10, %d14
    0x100009770:            a1 a7 48 c8  fsubd     %d60, %d8, %d16
    0x100009774:            b1 a1 88 4e  faddd     %d6, %d14, %d24
    0x100009778:            d9 1d 7f d0  ldd       [%l5 - 0x30], %d12
    0x10000977c:            f7 1d 7f d8  ldd       [%l5 - 0x28], %d58
    0x100009780:            89 a3 08 d0  fsubd     %d12, %d16, %d4
    0x100009784:            c9 3c 7f d0  std       %d4, [%l1 - 0x30]
    0x100009788:            ad a6 c8 d8  fsubd     %d58, %d24, %d22
    0x10000978c:            ed 3c 7f d8  std       %d22, [%l1 - 0x28]
    0x100009790:            a9 a3 08 50  faddd     %d12, %d16, %d20
    0x100009794:            e9 3d 7f d0  std       %d20, [%l5 - 0x30]
    0x100009798:            a5 a6 c8 58  faddd     %d58, %d24, %d18
    0x10000979c:            e5 3d 7f d8  std       %d18, [%l5 - 0x28]
    0x1000097a0:            c1 6d 60 68  prefetch  [%l5 + 0x68], #n_reads
    0x1000097a4:            ff 1b 7f e8  ldd       [%o5 - 0x18], %d62
    0x1000097a8:            d5 1b 7f e0  ldd       [%o5 - 0x20], %d10
    0x1000097ac:            b5 a7 c9 42  fmuld     %d62, %d2, %d26
    0x1000097b0:            d1 1c 7f e8  ldd       [%l1 - 0x18], %d8
    0x1000097b4:            dd 1c 7f e0  ldd       [%l1 - 0x20], %d14
    0x1000097b8:            ad a2 89 48  fmuld     %d10, %d8, %d22
    0x1000097bc:            bb a2 89 4e  fmuld     %d10, %d14, %d60
    0x1000097c0:            8d a6 89 48  fmuld     %d26, %d8, %d6
    0x1000097c4:            89 a6 89 4e  fmuld     %d26, %d14, %d4
    0x1000097c8:            a5 a7 48 c6  fsubd     %d60, %d6, %d18
    0x1000097cc:            b1 a5 88 44  faddd     %d22, %d4, %d24
    0x1000097d0:            e9 1d 7f e0  ldd       [%l5 - 0x20], %d20
    0x1000097d4:            f7 1d 7f e8  ldd       [%l5 - 0x18], %d58
    0x1000097d8:            99 a5 08 d2  fsubd     %d20, %d18, %d12
    0x1000097dc:            d9 3c 7f e0  std       %d12, [%l1 - 0x20]
    0x1000097e0:            a1 a6 c8 d8  fsubd     %d58, %d24, %d16
    0x1000097e4:            e1 3c 7f e8  std       %d16, [%l1 - 0x18]
    0x1000097e8:            bf a5 08 52  faddd     %d20, %d18, %d62
    0x1000097ec:            ff 3d 7f e0  std       %d62, [%l5 - 0x20]
    0x1000097f0:            95 a6 c8 58  faddd     %d58, %d24, %d10
    0x1000097f4:            d5 3d 7f e8  std       %d10, [%l5 - 0x18]
    0x1000097f8:            d1 1b 7f f8  ldd       [%o5 - 0x8], %d8
    0x1000097fc:            dd 1b 7f f0  ldd       [%o5 - 0x10], %d14
    0x100009800:            b5 a2 09 42  fmuld     %d8, %d2, %d26
    0x100009804:            cd 1c 7f f8  ldd       [%l1 - 0x8], %d6
    0x100009808:            c9 1c 7f f0  ldd       [%l1 - 0x10], %d4
    0x10000980c:            a1 a3 89 46  fmuld     %d14, %d6, %d16
    0x100009810:            bb a3 89 44  fmuld     %d14, %d4, %d60
    0x100009814:            ad a6 89 46  fmuld     %d26, %d6, %d22
    0x100009818:            99 a6 89 44  fmuld     %d26, %d4, %d12
    0x10000981c:            95 a7 48 d6  fsubd     %d60, %d22, %d10
    0x100009820:            b1 a4 08 4c  faddd     %d16, %d12, %d24
    0x100009824:            ff 1d 7f f0  ldd       [%l5 - 0x10], %d62
    0x100009828:            f7 1d 7f f8  ldd       [%l5 - 0x8], %d58
    0x10000982c:            a9 a7 c8 ca  fsubd     %d62, %d10, %d20
    0x100009830:            e9 3c 7f f0  std       %d20, [%l1 - 0x10]
    0x100009834:            a5 a6 c8 d8  fsubd     %d58, %d24, %d18
    0x100009838:            e5 3c 7f f8  std       %d18, [%l1 - 0x8]
    0x10000983c:            91 a7 c8 4a  faddd     %d62, %d10, %d8
    0x100009840:            d1 3d 7f f0  std       %d8, [%l5 - 0x10]
    0x100009844:            9d a6 c8 58  faddd     %d58, %d24, %d14
    0x100009848:            04 4f ff a4  ble,pt    %icc, -0x170  <0x1000096d8>
    0x10000984c:            dd 3d 7f f8  std       %d14, [%l5 - 0x8]
    0x100009850:            80 a4 00 14  cmp       %l0, %l4
    0x100009854:            14 40 00 21  bg,pn     %icc, +0x84   <0x1000098d8>
    0x100009858:            01 00 00 00  nop
    0x10000985c:            a0 04 20 01  add       %l0, 0x1, %l0
    0x100009860:            97 3f 60 00  sra       %i5, 0x0, %o3
    0x100009864:            9b 2a f0 03  sllx      %o3, 0x3, %o5
    0x100009868:            9e 03 40 16  add       %o5, %l6, %o7
    0x10000986c:            d9 1b e0 08  ldd       [%o7 + 0x8], %d12
    0x100009870:            aa 03 40 17  add       %o5, %l7, %l5
    0x100009874:            e1 1d 60 08  ldd       [%l5 + 0x8], %d16
    0x100009878:            b5 a3 09 42  fmuld     %d12, %d2, %d26
    0x10000987c:            e5 1d c0 0d  ldd       [%l7 + %o5], %d18
    0x100009880:            fb 1d 80 0d  ldd       [%l6 + %o5], %d60
    0x100009884:            e9 1a 80 0d  ldd       [%o2 + %o5], %d20
    0x100009888:            a4 03 40 0a  add       %o5, %o2, %l2
    0x10000988c:            ad a7 49 52  fmuld     %d60, %d18, %d22
    0x100009890:            95 a6 89 50  fmuld     %d26, %d16, %d10
    0x100009894:            91 a7 49 50  fmuld     %d60, %d16, %d8
    0x100009898:            bf a6 89 52  fmuld     %d26, %d18, %d62
    0x10000989c:            d9 1c a0 08  ldd       [%l2 + 0x8], %d12
    0x1000098a0:            80 a4 00 14  cmp       %l0, %l4
    0x1000098a4:            ba 07 60 02  add       %i5, 0x2, %i5
    0x1000098a8:            b7 a5 88 ca  fsubd     %d22, %d10, %d58
    0x1000098ac:            89 a2 08 5f  faddd     %d8, %d62, %d4
    0x1000098b0:            b1 a5 08 db  fsubd     %d20, %d58, %d24
    0x1000098b4:            f1 3d c0 0d  std       %d24, [%l7 + %o5]
    0x1000098b8:            9d a3 08 c4  fsubd     %d12, %d4, %d14
    0x1000098bc:            dd 3d 60 08  std       %d14, [%l5 + 0x8]
    0x1000098c0:            8d a5 08 5b  faddd     %d20, %d58, %d6
    0x1000098c4:            cd 3a 80 0d  std       %d6, [%o2 + %o5]
    0x1000098c8:            a1 a3 08 44  faddd     %d12, %d4, %d16
    0x1000098cc:            e1 3c a0 08  std       %d16, [%l2 + 0x8]
    0x1000098d0:            04 4f ff e4  ble,pt    %icc, -0x70   <0x100009860>
    0x1000098d4:            a0 04 20 01  add       %l0, 0x1, %l0
    0x1000098d8:            10 80 00 b9  ba        +0x2e4        <0x100009bbc>
    0x1000098dc:            90 02 20 01  add       %o0, 0x1, %o0
    0x1000098e0:            80 a0 60 06  cmp       %g1, 0x6
    0x1000098e4:            ba 10 20 00  clr       %i5
    0x1000098e8:            06 40 00 95  bl,pn     %icc, +0x254  <0x100009b3c>
    0x1000098ec:            01 00 00 00  nop
    0x1000098f0:            e1 1d a0 08  ldd       [%l6 + 0x8], %d16
    0x1000098f4:            d9 1d e0 08  ldd       [%l7 + 0x8], %d12
    0x1000098f8:            fb 1d e0 00  ldd       [%l7], %d60
    0x1000098fc:            f7 1d a0 00  ldd       [%l6], %d58
    0x100009900:            f5 1d a0 10  ldd       [%l6 + 0x10], %d26
    0x100009904:            b1 a4 09 42  fmuld     %d16, %d2, %d24
    0x100009908:            9d a6 c9 5d  fmuld     %d58, %d60, %d14
    0x10000990c:            ff 1d a0 18  ldd       [%l6 + 0x18], %d62
    0x100009910:            91 a6 c9 4c  fmuld     %d58, %d12, %d8
    0x100009914:            a1 a0 00 42  fmovd     %d2, %d16
    0x100009918:            e9 1d e0 10  ldd       [%l7 + 0x10], %d20
    0x10000991c:            e5 1d e0 18  ldd       [%l7 + 0x18], %d18
    0x100009920:            9a 10 20 02  mov       0x2, %o5
    0x100009924:            a2 05 a0 20  add       %l6, 0x20, %l1
    0x100009928:            95 a6 09 5d  fmuld     %d24, %d60, %d10
    0x10000992c:            98 05 e0 20  add       %l7, 0x20, %o4
    0x100009930:            ad a6 09 4c  fmuld     %d24, %d12, %d22
    0x100009934:            f1 1a a0 00  ldd       [%o2], %d24
    0x100009938:            fb 1a a0 08  ldd       [%o2 + 0x8], %d60
    0x10000993c:            96 02 a0 10  add       %o2, 0x10, %o3
    0x100009940:            b7 a2 08 4a  faddd     %d8, %d10, %d58
    0x100009944:            9e 00 7f fc  add       %g1, -0x4, %o7
    0x100009948:            ad a3 88 d6  fsubd     %d14, %d22, %d22
    0x10000994c:            c1 6c 60 88  prefetch  [%l1 + 0x88], #n_reads
    0x100009950:            c1 6b 20 88  prefetch  [%o4 + 0x88], #n_reads
    0x100009954:            9a 03 60 04  add       %o5, 0x4, %o5
    0x100009958:            96 02 e0 40  add       %o3, 0x40, %o3
    0x10000995c:            cd 1c 60 00  ldd       [%l1], %d6
    0x100009960:            9d a7 c9 50  fmuld     %d62, %d16, %d14
    0x100009964:            80 a3 40 0f  cmp       %o5, %o7
    0x100009968:            c9 1b 20 00  ldd       [%o4], %d4
    0x10000996c:            98 03 20 40  add       %o4, 0x40, %o4
    0x100009970:            ba 07 60 08  add       %i5, 0x8, %i5
    0x100009974:            d1 1c 60 08  ldd       [%l1 + 0x8], %d8
    0x100009978:            a2 04 60 40  add       %l1, 0x40, %l1
    0x10000997c:            95 a6 89 54  fmuld     %d26, %d20, %d10
    0x100009980:            99 a6 89 52  fmuld     %d26, %d18, %d12
    0x100009984:            fd 1b 3f c8  ldd       [%o4 - 0x38], %d30
    0x100009988:            bf a6 08 d6  fsubd     %d24, %d22, %d62
    0x10000998c:            a9 a3 89 54  fmuld     %d14, %d20, %d20
    0x100009990:            c5 1a ff c0  ldd       [%o3 - 0x40], %d2
    0x100009994:            ff 3b 3f a0  std       %d62, [%o4 - 0x60]
    0x100009998:            b5 a6 08 56  faddd     %d24, %d22, %d26
    0x10000999c:            b1 a3 89 52  fmuld     %d14, %d18, %d24
    0x1000099a0:            a5 a7 48 db  fsubd     %d60, %d58, %d18
    0x1000099a4:            ed 1a ff c8  ldd       [%o3 - 0x38], %d22
    0x1000099a8:            e5 3b 3f a8  std       %d18, [%o4 - 0x58]
    0x1000099ac:            b7 a7 48 5b  faddd     %d60, %d58, %d58
    0x1000099b0:            f5 3a ff b0  std       %d26, [%o3 - 0x50]
    0x1000099b4:            b5 a3 08 54  faddd     %d12, %d20, %d26
    0x1000099b8:            f7 3a ff b8  std       %d58, [%o3 - 0x48]
    0x1000099bc:            bb a2 88 d8  fsubd     %d10, %d24, %d60
    0x1000099c0:            b7 a2 09 50  fmuld     %d8, %d16, %d58
    0x1000099c4:            d9 1c 7f d0  ldd       [%l1 - 0x30], %d12
    0x1000099c8:            d5 1b 3f d0  ldd       [%o4 - 0x30], %d10
    0x1000099cc:            a5 a1 89 44  fmuld     %d6, %d4, %d18
    0x1000099d0:            dd 1c 7f d8  ldd       [%l1 - 0x28], %d14
    0x1000099d4:            a9 a1 89 5e  fmuld     %d6, %d30, %d20
    0x1000099d8:            cd 1b 3f d8  ldd       [%o4 - 0x28], %d6
    0x1000099dc:            bf a0 88 dd  fsubd     %d2, %d60, %d62
    0x1000099e0:            b1 a6 c9 44  fmuld     %d58, %d4, %d24
    0x1000099e4:            d1 1a ff d0  ldd       [%o3 - 0x30], %d8
    0x1000099e8:            ff 3b 3f b0  std       %d62, [%o4 - 0x50]
    0x1000099ec:            85 a0 88 5d  faddd     %d2, %d60, %d2
    0x1000099f0:            b7 a6 c9 5e  fmuld     %d58, %d30, %d58
    0x1000099f4:            bf a5 88 da  fsubd     %d22, %d26, %d62
    0x1000099f8:            c9 1a ff d8  ldd       [%o3 - 0x28], %d4
    0x1000099fc:            ff 3b 3f b8  std       %d62, [%o4 - 0x48]
    0x100009a00:            bb a5 88 5a  faddd     %d22, %d26, %d60
    0x100009a04:            c5 3a ff c0  std       %d2, [%o3 - 0x40]
    0x100009a08:            b5 a5 08 58  faddd     %d20, %d24, %d26
    0x100009a0c:            fb 3a ff c8  std       %d60, [%o3 - 0x38]
    0x100009a10:            bb a4 88 db  fsubd     %d18, %d58, %d60
    0x100009a14:            c1 6a e0 68  prefetch  [%o3 + 0x68], #n_reads
    0x100009a18:            b7 a3 89 50  fmuld     %d14, %d16, %d58
    0x100009a1c:            dd 1c 7f e0  ldd       [%l1 - 0x20], %d14
    0x100009a20:            c5 1b 3f e0  ldd       [%o4 - 0x20], %d2
    0x100009a24:            a9 a3 09 4a  fmuld     %d12, %d10, %d20
    0x100009a28:            e5 1c 7f e8  ldd       [%l1 - 0x18], %d18
    0x100009a2c:            ad a3 09 46  fmuld     %d12, %d6, %d22
    0x100009a30:            fd 1b 3f e8  ldd       [%o4 - 0x18], %d30
    0x100009a34:            bf a2 08 dd  fsubd     %d8, %d60, %d62
    0x100009a38:            b1 a6 c9 4a  fmuld     %d58, %d10, %d24
    0x100009a3c:            d9 1a ff e0  ldd       [%o3 - 0x20], %d12
    0x100009a40:            ff 3b 3f c0  std       %d62, [%o4 - 0x40]
    0x100009a44:            91 a2 08 5d  faddd     %d8, %d60, %d8
    0x100009a48:            8d a6 c9 46  fmuld     %d58, %d6, %d6
    0x100009a4c:            bf a1 08 da  fsubd     %d4, %d26, %d62
    0x100009a50:            d5 1a ff e8  ldd       [%o3 - 0x18], %d10
    0x100009a54:            ff 3b 3f c8  std       %d62, [%o4 - 0x38]
    0x100009a58:            bb a1 08 5a  faddd     %d4, %d26, %d60
    0x100009a5c:            d1 3a ff d0  std       %d8, [%o3 - 0x30]
    0x100009a60:            91 a5 88 58  faddd     %d22, %d24, %d8
    0x100009a64:            fb 3a ff d8  std       %d60, [%o3 - 0x28]
    0x100009a68:            b7 a5 08 c6  fsubd     %d20, %d6, %d58
    0x100009a6c:            ad a4 89 50  fmuld     %d18, %d16, %d22
    0x100009a70:            f5 1c 7f f0  ldd       [%l1 - 0x10], %d26
    0x100009a74:            e9 1b 3f f0  ldd       [%o4 - 0x10], %d20
    0x100009a78:            b9 a3 89 42  fmuld     %d14, %d2, %d28
    0x100009a7c:            ff 1c 7f f8  ldd       [%l1 - 0x8], %d62
    0x100009a80:            89 a3 89 5e  fmuld     %d14, %d30, %d4
    0x100009a84:            e5 1b 3f f8  ldd       [%o4 - 0x8], %d18
    0x100009a88:            bb a3 08 db  fsubd     %d12, %d58, %d60
    0x100009a8c:            8d a5 89 42  fmuld     %d22, %d2, %d6
    0x100009a90:            f1 1a ff f0  ldd       [%o3 - 0x10], %d24
    0x100009a94:            fb 3b 3f d0  std       %d60, [%o4 - 0x30]
    0x100009a98:            9d a3 08 5b  faddd     %d12, %d58, %d14
    0x100009a9c:            99 a5 89 5e  fmuld     %d22, %d30, %d12
    0x100009aa0:            85 a2 88 c8  fsubd     %d10, %d8, %d2
    0x100009aa4:            fb 1a ff f8  ldd       [%o3 - 0x8], %d60
    0x100009aa8:            c5 3b 3f d8  std       %d2, [%o4 - 0x28]
    0x100009aac:            ad a2 88 48  faddd     %d10, %d8, %d22
    0x100009ab0:            dd 3a ff e0  std       %d14, [%o3 - 0x20]
    0x100009ab4:            b7 a1 08 46  faddd     %d4, %d6, %d58
    0x100009ab8:            ed 3a ff e8  std       %d22, [%o3 - 0x18]
    0x100009abc:            04 4f ff a4  ble,pt    %icc, -0x170  <0x10000994c>
    0x100009ac0:            ad a7 08 cc  fsubd     %d28, %d12, %d22
    0x100009ac4:            9d a7 c9 50  fmuld     %d62, %d16, %d14
    0x100009ac8:            85 a0 00 50  fmovd     %d16, %d2
    0x100009acc:            99 a6 89 52  fmuld     %d26, %d18, %d12
    0x100009ad0:            89 a7 48 5b  faddd     %d60, %d58, %d4
    0x100009ad4:            c9 3a ff f8  std       %d4, [%o3 - 0x8]
    0x100009ad8:            a1 a7 48 db  fsubd     %d60, %d58, %d16
    0x100009adc:            d1 1a e0 00  ldd       [%o3], %d8
    0x100009ae0:            e1 3b 3f e8  std       %d16, [%o4 - 0x18]
    0x100009ae4:            b5 a6 89 54  fmuld     %d26, %d20, %d26
    0x100009ae8:            8d a6 08 56  faddd     %d24, %d22, %d6
    0x100009aec:            bf a6 08 d6  fsubd     %d24, %d22, %d62
    0x100009af0:            d5 1a e0 08  ldd       [%o3 + 0x8], %d10
    0x100009af4:            cd 3a ff f0  std       %d6, [%o3 - 0x10]
    0x100009af8:            ff 3b 3f e0  std       %d62, [%o4 - 0x20]
    0x100009afc:            b7 a3 89 52  fmuld     %d14, %d18, %d58
    0x100009b00:            bb a3 89 54  fmuld     %d14, %d20, %d60
    0x100009b04:            80 a3 40 14  cmp       %o5, %l4
    0x100009b08:            ba 07 60 04  add       %i5, 0x4, %i5
    0x100009b0c:            89 a6 88 db  fsubd     %d26, %d58, %d4
    0x100009b10:            a9 a3 08 5d  faddd     %d12, %d60, %d20
    0x100009b14:            b1 a2 08 44  faddd     %d8, %d4, %d24
    0x100009b18:            f1 3a e0 00  std       %d24, [%o3]
    0x100009b1c:            ad a2 88 54  faddd     %d10, %d20, %d22
    0x100009b20:            ed 3a e0 08  std       %d22, [%o3 + 0x8]
    0x100009b24:            a5 a2 88 d4  fsubd     %d10, %d20, %d18
    0x100009b28:            e5 3b 3f f8  std       %d18, [%o4 - 0x8]
    0x100009b2c:            8d a2 08 c4  fsubd     %d8, %d4, %d6
    0x100009b30:            cd 3b 3f f0  std       %d6, [%o4 - 0x10]
    0x100009b34:            14 40 00 21  bg,pn     %icc, +0x84   <0x100009bb8>
    0x100009b38:            01 00 00 00  nop
    0x100009b3c:            9a 03 60 01  add       %o5, 0x1, %o5
    0x100009b40:            99 3f 60 00  sra       %i5, 0x0, %o4
    0x100009b44:            9f 2b 30 03  sllx      %o4, 0x3, %o7
    0x100009b48:            d9 1d c0 0f  ldd       [%l7 + %o7], %d12
    0x100009b4c:            96 03 c0 16  add       %o7, %l6, %o3
    0x100009b50:            cd 1a e0 08  ldd       [%o3 + 0x8], %d6
    0x100009b54:            a4 03 c0 17  add       %o7, %l7, %l2
    0x100009b58:            c9 1c a0 08  ldd       [%l2 + 0x8], %d4
    0x100009b5c:            b5 a1 89 42  fmuld     %d6, %d2, %d26
    0x100009b60:            fb 1d 80 0f  ldd       [%l6 + %o7], %d60
    0x100009b64:            e9 1a 80 0f  ldd       [%o2 + %o7], %d20
    0x100009b68:            aa 03 c0 0a  add       %o7, %o2, %l5
    0x100009b6c:            ad a7 49 4c  fmuld     %d60, %d12, %d22
    0x100009b70:            bf a7 49 44  fmuld     %d60, %d4, %d62
    0x100009b74:            a1 a6 89 44  fmuld     %d26, %d4, %d16
    0x100009b78:            a5 a6 89 4c  fmuld     %d26, %d12, %d18
    0x100009b7c:            cd 1d 60 08  ldd       [%l5 + 0x8], %d6
    0x100009b80:            80 a3 40 14  cmp       %o5, %l4
    0x100009b84:            ba 07 60 02  add       %i5, 0x2, %i5
    0x100009b88:            91 a5 88 d0  fsubd     %d22, %d16, %d8
    0x100009b8c:            9d a7 c8 52  faddd     %d62, %d18, %d14
    0x100009b90:            95 a5 08 48  faddd     %d20, %d8, %d10
    0x100009b94:            d5 3a 80 0f  std       %d10, [%o2 + %o7]
    0x100009b98:            b7 a5 08 c8  fsubd     %d20, %d8, %d58
    0x100009b9c:            f7 3d c0 0f  std       %d58, [%l7 + %o7]
    0x100009ba0:            b1 a1 88 4e  faddd     %d6, %d14, %d24
    0x100009ba4:            f1 3d 60 08  std       %d24, [%l5 + 0x8]
    0x100009ba8:            89 a1 88 ce  fsubd     %d6, %d14, %d4
    0x100009bac:            c9 3c a0 08  std       %d4, [%l2 + 0x8]
    0x100009bb0:            04 4f ff e4  ble,pt    %icc, -0x70   <0x100009b40>
    0x100009bb4:            9a 03 60 01  add       %o5, 0x1, %o5
    0x100009bb8:            90 02 20 01  add       %o0, 0x1, %o0
    0x100009bbc:            80 a2 00 02  cmp       %o0, %g2
    0x100009bc0:            88 01 00 03  add       %g4, %g3, %g4
    0x100009bc4:            8a 01 40 03  add       %g5, %g3, %g5
    0x100009bc8:            04 4f fe 97  ble,pt    %icc, -0x5a4  <0x100009624>
    0x100009bcc:            80 a0 60 00  cmp       %g1, 0x0
    0x100009bd0:            92 02 60 01  add       %o1, 0x1, %o1
    0x100009bd4:            80 a2 40 19  cmp       %o1, %i1
    0x100009bd8:            04 4f fe 7d  ble,pt    %icc, -0x60c  <0x1000095cc>
    0x100009bdc:            83 3e a0 1f  sra       %i2, 0x1f, %g1
    0x100009be0:            81 c7 e0 08  ret
    0x100009be4:            81 e8 20 00  restore   %g0, 0x0, %g0
PrintArray()
    0x100009be8:            9d e3 bf 50  save      %sp, -0xb0, %sp
    0x100009bec:            3b 00 04 00  sethi     %hi(0x100000), %i5
    0x100009bf0:            ba 17 61 12  or        %i5, 0x112, %i5
    0x100009bf4:            b7 2f 70 0c  sllx      %i5, 0xc, %i3
    0x100009bf8:            c2 06 e0 c0  ld        [%i3 + 0xc0], %g1
    0x100009bfc:            80 a0 60 00  cmp       %g1, 0x0
    0x100009c00:            04 40 00 39  ble,pn    %icc, +0xe4   <0x100009ce4>
    0x100009c04:            39 00 04 00  sethi     %hi(0x100000), %i4
    0x100009c08:            ae 17 21 12  or        %i4, 0x112, %l7
    0x100009c0c:            b9 2d f0 0c  sllx      %l7, 0xc, %i4
    0x100009c10:            2d 00 04 00  sethi     %hi(0x100000), %l6
    0x100009c14:            aa 15 a0 10  or        %l6, 0x10, %l5
    0x100009c18:            ba 06 3f ff  add       %i0, -0x1, %i5
    0x100009c1c:            a7 2d 70 0c  sllx      %l5, 0xc, %l3
    0x100009c20:            a0 04 ed 18  add       %l3, 0xd18, %l0
    0x100009c24:            e4 07 21 74  ld        [%i4 + 0x174], %l2
    0x100009c28:            a2 10 20 00  clr       %l1
    0x100009c2c:            80 a0 60 00  cmp       %g1, 0x0
    0x100009c30:            b0 00 40 12  add       %g1, %l2, %i0
    0x100009c34:            04 40 00 28  ble,pn    %icc, +0xa0   <0x100009cd4>
    0x100009c38:            a9 3e 20 00  sra       %i0, 0x0, %l4
    0x100009c3c:            9e 4c 40 14  mulx      %l1, %l4, %o7
    0x100009c40:            af 2b e0 01  sll       %o7, 0x1, %l7
    0x100009c44:            ac 10 20 00  clr       %l6
    0x100009c48:            8b 3d e0 00  sra       %l7, 0x0, %g5
    0x100009c4c:            89 29 70 03  sllx      %g5, 0x3, %g4
    0x100009c50:            d2 5e 40 04  ldx       [%i1 + %g4], %o1
    0x100009c54:            86 01 00 19  add       %g4, %i1, %g3
    0x100009c58:            d4 58 e0 08  ldx       [%g3 + 0x8], %o2
    0x100009c5c:            40 04 1c b9  call      +0x1072e4     <0x100110f40>
    0x100009c60:            90 10 00 10  mov       %l0, %o0
    0x100009c64:            c2 06 e0 c0  ld        [%i3 + 0xc0], %g1
    0x100009c68:            b4 4c 40 01  mulx      %l1, %g1, %i2
    0x100009c6c:            84 05 80 1a  add       %l6, %i2, %g2
    0x100009c70:            80 a0 80 1d  cmp       %g2, %i5
    0x100009c74:            02 40 00 07  be,pn     %icc, +0x1c   <0x100009c90>
    0x100009c78:            9a 06 a0 01  add       %i2, 0x1, %o5
    0x100009c7c:            40 04 1c f1  call      +0x1073c4     <0x100111040>
    0x100009c80:            90 10 20 2c  mov       0x2c, %o0
    0x100009c84:            c2 06 e0 c0  ld        [%i3 + 0xc0], %g1
    0x100009c88:            b4 4c 40 01  mulx      %l1, %g1, %i2
    0x100009c8c:            9a 06 a0 01  add       %i2, 0x1, %o5
    0x100009c90:            90 03 40 16  add       %o5, %l6, %o0
    0x100009c94:            99 3a 20 1f  sra       %o0, 0x1f, %o4
    0x100009c98:            96 0b 20 07  and       %o4, 0x7, %o3
    0x100009c9c:            94 02 00 0b  add       %o0, %o3, %o2
    0x100009ca0:            92 2a a0 07  andn      %o2, 0x7, %o1
    0x100009ca4:            80 a2 00 09  cmp       %o0, %o1
    0x100009ca8:            12 40 00 05  bne,pn    %icc, +0x14   <0x100009cbc>
    0x100009cac:            ac 05 a0 01  add       %l6, 0x1, %l6
    0x100009cb0:            40 04 1c e4  call      +0x107390     <0x100111040>
    0x100009cb4:            90 10 20 0a  mov       0xa, %o0
    0x100009cb8:            c2 06 e0 c0  ld        [%i3 + 0xc0], %g1
    0x100009cbc:            80 a5 80 01  cmp       %l6, %g1
    0x100009cc0:            ae 05 e0 02  add       %l7, 0x2, %l7
    0x100009cc4:            06 4f ff e2  bl,pt     %icc, -0x78   <0x100009c4c>
    0x100009cc8:            8b 3d e0 00  sra       %l7, 0x0, %g5
    0x100009ccc:            f4 07 21 74  ld        [%i4 + 0x174], %i2
    0x100009cd0:            b0 00 40 1a  add       %g1, %i2, %i0
    0x100009cd4:            a2 04 60 01  add       %l1, 0x1, %l1
    0x100009cd8:            80 a4 40 01  cmp       %l1, %g1
    0x100009cdc:            06 4f ff d6  bl,pt     %icc, -0xa8   <0x100009c34>
    0x100009ce0:            80 a0 60 00  cmp       %g1, 0x0
    0x100009ce4:            40 04 1c d7  call      +0x10735c     <0x100111040>
    0x100009ce8:            90 10 20 0a  mov       0xa, %o0
    0x100009cec:            b0 10 20 0a  mov       0xa, %i0
    0x100009cf0:            40 04 1c d4  call      +0x107350     <0x100111040>
    0x100009cf4:            81 e8 20 00  restore   %g0, 0x0, %g0
printerr()
    0x100009cf8:            19 00 04 00  sethi     %hi(0x100000), %o4
    0x100009cfc:            1b 00 04 00  sethi     %hi(0x100000), %o5
    0x100009d00:            96 13 21 11  or        %o4, 0x111, %o3
    0x100009d04:            9a 13 60 10  or        %o5, 0x10, %o5
    0x100009d08:            94 10 00 08  mov       %o0, %o2
    0x100009d0c:            93 2b 70 0c  sllx      %o5, 0xc, %o1
    0x100009d10:            91 2a f0 0c  sllx      %o3, 0xc, %o0
    0x100009d14:            82 10 00 0f  mov       %o7, %g1
    0x100009d18:            92 02 6d 48  add       %o1, 0xd48, %o1
    0x100009d1c:            90 02 27 c0  add       %o0, 0x7c0, %o0
    0x100009d20:            40 04 1d 08  call      +0x107420     <0x100111140>
    0x100009d24:            9e 10 00 01  mov       %g1, %o7
    0x100009d28:            00 00 00 00  illtrap   0x0
    0x100009d2c:            00 00 00 00  illtrap   0x0
    0x100009d30:            00 00 00 00  illtrap   0x0
    0x100009d34:            00 00 00 00  illtrap   0x0
    0x100009d38:            00 00 00 00  illtrap   0x0
    0x100009d3c:            00 00 00 00  illtrap   0x0
log_2()
    0x100009d40:            80 a2 20 01  cmp       %o0, 0x1
    0x100009d44:            9a 10 20 00  clr       %o5
    0x100009d48:            04 40 00 0d  ble,pn    %icc, +0x34   <0x100009d7c>
    0x100009d4c:            98 10 20 01  mov       0x1, %o4
    0x100009d50:            80 a3 00 08  cmp       %o4, %o0
    0x100009d54:            02 40 00 0d  be,pn     %icc, +0x34   <0x100009d88>
    0x100009d58:            99 2b 20 01  sll       %o4, 0x1, %o4
    0x100009d5c:            80 a3 00 08  cmp       %o4, %o0
    0x100009d60:            16 40 00 07  bge,pn    %icc, +0x1c   <0x100009d7c>
    0x100009d64:            9a 03 60 01  add       %o5, 0x1, %o5
    0x100009d68:            80 a3 60 31  cmp       %o5, 0x31
    0x100009d6c:            04 4f ff fa  ble,pt    %icc, -0x18   <0x100009d54>
    0x100009d70:            80 a3 00 08  cmp       %o4, %o0
    0x100009d74:            10 80 00 05  ba        +0x14         <0x100009d88>
    0x100009d78:            9a 10 3f ff  mov       -0x1, %o5
    0x100009d7c:            80 a3 00 08  cmp       %o4, %o0
    0x100009d80:            32 40 00 02  bne,a,pn  %icc, +0x8    <0x100009d88>
    0x100009d84:            9a 10 3f ff  mov       -0x1, %o5
    0x100009d88:            81 c3 e0 08  retl
    0x100009d8c:            91 3b 60 00  sra       %o5, 0x0, %o0
    0x100009d90:            00 00 00 00  illtrap   0x0
    0x100009d94:            00 00 00 00  illtrap   0x0
    0x100009d98:            00 00 00 00  illtrap   0x0
    0x100009d9c:            00 00 00 00  illtrap   0x0
    0x100009da0:            3f f0 00 00  0x3ff00000
    0x100009da4:            00 00 00 00  illtrap   0x0
    0x100009da8:            3f a5 55 51  fbo,a     -0x6aaabc     <0xff95f2ec>
    0x100009dac:            2e 39 20 17  illtrap   0x392017
    0x100009db0:            bf df ff ff  flush     [%i7 - 0x1]
    0x100009db4:            ff ff 53 8b  0xffff538b
    0x100009db8:            bf a7 d2 ec  0xbfa7d2ec
    0x100009dbc:            18 2e 65 66  illtrap   0x2e6566
    0x100009dc0:            bf 41 74 4f  rd        %pc, %i7
    0x100009dc4:            e6 87 83 36  lduwa     [%fp + %l6] 0x19, %l3	<ASI_AIUSL>
    0x100009dc8:            c0 41 45 d1  ldsw      [%g5 + %l1], %g0
    0x100009dcc:            13 d1 ae 68  0x13d1ae68
    0x100009dd0:            bf e0 00 00  save      %g0, %g0, %i7
    0x100009dd4:            00 00 00 00  illtrap   0x0
    0x100009dd8:            bd a8 f9 17  0xbda8f917
    0x100009ddc:            d3 81 64 a1  lda       [%g5 + 0x4a1] %asi, %f9
    0x100009de0:            c0 52 b0 27  ldsh      [%o2 - 0xfd9], %g0
    0x100009de4:            03 86 fe 61  fbne      +0x1bf984     <0x1001c9768>
    0x100009de8:            c0 57 8a 6d  ldsh      [%fp + %o5], %g0
    0x100009dec:            21 48 f5 c5  fbn,a,pt  %fcc0, +0x3d714 <0x100047500>
    0x100009df0:            40 b3 fd 16  call      +0x2cff458    <0x102d09248>
    0x100009df4:            f3 20 cd 73  st        %f25, [%g3 + %l3]
    0x100009df8:            c0 2d d0 91  clrb      [%l7 + %l1]
    0x100009dfc:            12 f4 1d a5  0x12f41da5
    0x100009e00:            40 c2 bb e4  call      +0x30aef90    <0x1030b8d90>
    0x100009e04:            8d ed 51 14  restore   %l5, %l4, %g6
    0x100009e08:            3f 81 11 0e  fbo,a     +0x44438      <0x10004e240>
    0x100009e0c:            b1 93 30 12  0xb1933012
    0x100009e10:            c0 34 00 02  clrh      [%l0 + %g2]
    0x100009e14:            c7 e7 b8 76  casa      [%fp] %asi, %l6, %g3	<ASI_PST16_S>
    0x100009e18:            3f f9 21 fb  0x3ff921fb
    0x100009e1c:            54 44 2d 18  call      +0x5110b460   <0x15111527c>
    0x100009e20:            3c 91 a6 26  bpos,a    +0x469898     <0x1004736b8>
    0x100009e24:            33 14 5c 07  sethi     %hi(0x51701c00), %i1
    0x100009e28:            3c 91 a6 26  bpos,a    +0x469898     <0x1004736c0>
    0x100009e2c:            30 00 00 00  illtrap   0x0
    0x100009e30:            3a e8 a2 e0  0x3ae8a2e0
    0x100009e34:            37 07 34 4a  sethi     %hi(0x1cd12800), %i3
    0x100009e38:            3e c7 1a 52  0x3ec71a52
    0x100009e3c:            06 51 6d 8f  0x06516d8f
    0x100009e40:            c0 41 7f 4a  ldsw      [%g5 - 0xb6], %g0
    0x100009e44:            cc 41 9d 84  ldsw      [%g6 + %g4], %g6
    0x100009e48:            c0 42 86 44  ldsw      [%o2 + %g4], %g0
    0x100009e4c:            66 d2 f5 11  call      -0x64b42bbc   <0x9b4c7290>
    0x100009e50:            40 9b 05 43  call      +0x26c150c    <0x1026cb35c>
    0x100009e54:            85 4e 40 6b  0x854e406b
    0x100009e58:            40 12 d9 7c  call      +0x4b65f0     <0x1004c0448>
    0x100009e5c:            7f 33 21 d2  call      -0x33378b8    <0xfccd25a4>
    0x100009e60:            3c aa 79 39  bpos,a    -0x561b1c     <0xffaa8344>
    0x100009e64:            4c 9e 8a 0a  call      +0x327a2828   <0x1327ac68c>
    0x100009e68:            3c aa 79 39  bpos,a    -0x561b1c     <0xffaa834c>
    0x100009e6c:            4c 9e 80 00  call      +0x327a0000   <0x1327a9e6c>
    0x100009e70:            3a 14 14 a2  illtrap   0x1414a2
    0x100009e74:            b3 9b d8 37  0xb39bd837
    0x100009e78:            40 1f 6a 7a  call      +0x7da9e8     <0x1007e4860>
    0x100009e7c:            29 55 38 5e  fbl,a,pn  %fcc1, -0xb1e88 <0xfff57ff4>
    0x100009e80:            3c b6 0f af  bpos,a    -0x27c144     <0xffd8dd3c>
    0x100009e84:            bf d9 73 09  flush     [%g5 - 0xcf7]
    0x100009e88:            3c b6 0f af  bpos,a    -0x27c144     <0xffd8dd44>
    0x100009e8c:            bf d9 40 00  flush     [%g5]
    0x100009e90:            3a 49 84 4c  bcc,a,pt  %icc, +0x61130 <0x10006afc0>
    0x100009e94:            90 15 cd 0c  or        %l7, %o4, %o0
    0x100009e98:            3f e4 5f 30  0x3fe45f30
    0x100009e9c:            6d c9 c8 83  call      -0x48d8ddf4   <0xb727c0a8>
    0x100009ea0:            3f e0 00 00  0x3fe00000
    0x100009ea4:            00 00 00 00  illtrap   0x0
    0x100009ea8:            3f f9 21 fb  0x3ff921fb
    0x100009eac:            54 44 00 00  call      +0x51100000   <0x151109eac>
    0x100009eb0:            3d 86 8c 23  fbule,a   +0x1a308c     <0x1001acf3c>
    0x100009eb4:            4c 4c 66 29  call      +0x313198a4   <0x131323758>
    0x100009eb8:            3f 10 40 bf  sethi     %hi(0x4102fc00), %i7
    0x100009ebc:            e3 b0 3e 21  stqa      %f17, [-0x1df] %asi
    0x100009ec0:            bf c5 55 55  jmpl      %l5 + %l5, %i7
    0x100009ec4:            55 55 55 46  call      +0x55555518   <0x15555f3dc>
    0x100009ec8:            3d e5 d7 71  0x3de5d771
    0x100009ecc:            42 38 78 77  call      +0x8e1e1dc    <0x108e280a8>
    0x100009ed0:            c0 61 32 5f  0xc061325f
    0x100009ed4:            3d 01 28 cc  sethi     %hi(0x4a33000), %fp
    0x100009ed8:            40 b9 2d 90  call      +0x2e4b640    <0x102e55518>
    0x100009edc:            40 df 29 de  call      +0x37ca778    <0x1037d4654>
    0x100009ee0:            c0 34 0e e7  clrh      [%l0 + %g7]
    0x100009ee4:            d6 9c 29 93  ldda      [%l0 + 0x993] %asi, %o3
    0x100009ee8:            40 bf c7 7d  call      +0x2ff1df4    <0x102ffbcdc>
    0x100009eec:            e6 66 5f aa  0xe6665faa
    0x100009ef0:            3d 86 8c 23  fbule,a   +0x1a308c     <0x1001acf7c>
    0x100009ef4:            4c 4c 00 00  call      +0x31300000   <0x131309ef4>
    0x100009ef8:            3b 29 8a 2e  sethi     %hi(0xa628b800), %i5
    0x100009efc:            03 70 73 45  fbne,pn   %fcc3, +0x1cd14 <0x100026c10>
cos()
    0x100009f00:            9d e3 bf 20  save      %sp, -0xe0, %sp
    0x100009f04:            c1 27 a7 f7  st        %f0, [%fp + 0x7f7]
    0x100009f08:            3b 00 00 00  sethi     %hi(0x0), %i5
    0x100009f0c:            39 1f ff ff  sethi     %hi(0x7ffffc00), %i4
    0x100009f10:            c3 27 a7 fb  st        %f1, [%fp + 0x7fb]
    0x100009f14:            b4 07 23 ff  add       %i4, 0x3ff, %i2
    0x100009f18:            b6 17 60 01  or        %i5, 0x1, %i3
    0x100009f1c:            33 00 00 27  sethi     %hi(0x9c00), %i1
    0x100009f20:            b1 2e f0 20  sllx      %i3, 0x20, %i0
    0x100009f24:            2f 0f fa 60  sethi     %hi(0x3fe98000), %l7
    0x100009f28:            b2 16 00 19  or        %i0, %i1, %i1
    0x100009f2c:            81 41 40 00  rd        %pc, %g0
    0x100009f30:            d0 07 a7 f7  ld        [%fp + 0x7f7], %o0
    0x100009f34:            92 0a 00 1a  and       %o0, %i2, %o1
    0x100009f38:            80 a2 40 17  cmp       %o1, %l7
    0x100009f3c:            06 40 01 94  bl,pn     %icc, +0x650  <0x10000a58c>
    0x100009f40:            b4 06 61 a0  add       %i1, 0x1a0, %i2
    0x100009f44:            ad 3a 60 14  sra       %o1, 0x14, %l6
    0x100009f48:            80 a5 a4 02  cmp       %l6, 0x402
    0x100009f4c:            16 40 00 b2  bge,pn    %icc, +0x2c8  <0x10000a214>
    0x100009f50:            29 00 03 ff  sethi     %hi(0xffc00), %l4
    0x100009f54:            b5 a0 01 40  fabsd     %d0, %d26
    0x100009f58:            a6 05 23 ff  add       %l4, 0x3ff, %l3
    0x100009f5c:            a4 10 24 0d  mov       0x40d, %l2
    0x100009f60:            e1 1e a0 68  ldd       [%i2 + 0x68], %d16
    0x100009f64:            9e 0a 40 13  and       %o1, %l3, %o7
    0x100009f68:            23 00 04 00  sethi     %hi(0x100000), %l1
    0x100009f6c:            f7 1e a0 08  ldd       [%i2 + 0x8], %d58
    0x100009f70:            a0 24 80 16  sub       %l2, %l6, %l0
    0x100009f74:            9a 13 c0 11  or        %o7, %l1, %o5
    0x100009f78:            f3 1e a0 70  ldd       [%i2 + 0x70], %d56
    0x100009f7c:            19 00 00 00  sethi     %hi(0x0), %o4
    0x100009f80:            a5 3b 40 10  sra       %o5, %l0, %l2
    0x100009f84:            f1 1e a0 10  ldd       [%i2 + 0x10], %d24
    0x100009f88:            96 13 20 01  or        %o4, 0x1, %o3
    0x100009f8c:            0b 00 00 3c  sethi     %hi(0xf000), %g5
    0x100009f90:            fa 07 a7 fb  ld        [%fp + 0x7fb], %i5
    0x100009f94:            95 2a f0 20  sllx      %o3, 0x20, %o2
    0x100009f98:            a6 04 bf f6  add       %l2, -0xa, %l3
    0x100009f9c:            88 12 80 05  or        %o2, %g5, %g4
    0x100009fa0:            83 3c e0 00  sra       %l3, 0x0, %g1
    0x100009fa4:            b0 01 21 58  add       %g4, 0x158, %i0
    0x100009fa8:            b9 28 70 03  sllx      %g1, 0x3, %i4
    0x100009fac:            dd 1f 00 18  ldd       [%i4 + %i0], %d14
    0x100009fb0:            37 00 00 00  sethi     %hi(0x0), %i3
    0x100009fb4:            b2 04 c0 13  add       %l3, %l3, %i1
    0x100009fb8:            ae 16 e0 01  or        %i3, 0x1, %l7
    0x100009fbc:            a9 3e 60 00  sra       %i1, 0x0, %l4
    0x100009fc0:            9b 2d f0 20  sllx      %l7, 0x20, %o5
    0x100009fc4:            90 04 be c8  add       %l2, -0x138, %o0
    0x100009fc8:            bd a6 88 ce  fsubd     %d26, %d14, %d30
    0x100009fcc:            ac 04 be dc  add       %l2, -0x124, %l6
    0x100009fd0:            aa 04 bf 91  add       %l2, -0x6f, %l5
    0x100009fd4:            9e 04 bf a5  add       %l2, -0x5b, %o7
    0x100009fd8:            21 00 00 34  sethi     %hi(0xd000), %l0
    0x100009fdc:            a2 1d 80 08  xor       %l6, %o0, %l1
    0x100009fe0:            98 1b c0 15  xor       %o7, %l5, %o4
    0x100009fe4:            96 13 40 10  or        %o5, %l0, %o3
    0x100009fe8:            94 04 bd ff  add       %l2, -0x201, %o2
    0x100009fec:            ab a7 89 5e  fmuld     %d30, %d30, %d52
    0x100009ff0:            8a 04 be 13  add       %l2, -0x1ed, %g5
    0x100009ff4:            b8 05 20 01  add       %l4, 0x1, %i4
    0x100009ff8:            a5 a7 89 50  fmuld     %d30, %d16, %d18
    0x100009ffc:            b6 02 e1 f8  add       %o3, 0x1f8, %i3
    0x10000a000:            82 13 00 11  or        %o4, %l1, %g1
    0x10000a004:            88 19 40 0a  xor       %g5, %o2, %g4
    0x10000a008:            b1 2d 30 03  sllx      %l4, 0x3, %i0
    0x10000a00c:            af 2f 30 03  sllx      %i4, 0x3, %l7
    0x10000a010:            ff 1e 00 1b  ldd       [%i0 + %i3], %d62
    0x10000a014:            80 90 40 04  orcc      %g1, %g4, %g0
    0x10000a018:            bb a5 49 5b  fmuld     %d52, %d58, %d60
    0x10000a01c:            af a5 48 59  faddd     %d52, %d56, %d54
    0x10000a020:            dd 1d c0 1b  ldd       [%l7 + %i3], %d14
    0x10000a024:            ad a4 89 55  fmuld     %d18, %d52, %d22
    0x10000a028:            99 a7 48 58  faddd     %d60, %d24, %d12
    0x10000a02c:            a9 a5 89 57  fmuld     %d22, %d54, %d20
    0x10000a030:            a1 a5 49 4c  fmuld     %d52, %d12, %d16
    0x10000a034:            16 40 00 72  bge,pn    %icc, +0x1c8  <0x10000a1fc>
    0x10000a038:            b9 a7 88 54  faddd     %d30, %d20, %d28
    0x10000a03c:            80 a4 e0 65  cmp       %l3, 0x65
    0x10000a040:            14 40 00 25  bg,pn     %icc, +0x94   <0x10000a0d4>
    0x10000a044:            d9 1e a0 78  ldd       [%i2 + 0x78], %d12
    0x10000a048:            2f 30 01 b7  sethi     %hi(0xc006dc00), %l7
    0x10000a04c:            33 15 11 00  sethi     %hi(0x54440000), %i1
    0x10000a050:            e9 1e a0 80  ldd       [%i2 + 0x80], %d20
    0x10000a054:            90 05 e2 05  add       %l7, 0x205, %o0
    0x10000a058:            ba 27 40 19  sub       %i5, %i1, %i5
    0x10000a05c:            b9 a3 08 da  fsubd     %d12, %d26, %d28
    0x10000a060:            aa 02 40 08  add       %o1, %o0, %l5
    0x10000a064:            ad 37 60 10  srl       %i5, 0x10, %l6
    0x10000a068:            80 95 40 16  orcc      %l5, %l6, %g0
    0x10000a06c:            12 40 00 08  bne,pn    %icc, +0x20   <0x10000a08c>
    0x10000a070:            bf a7 08 54  faddd     %d28, %d20, %d62
    0x10000a074:            f5 1e a0 88  ldd       [%i2 + 0x88], %d26
    0x10000a078:            ed 1e a0 90  ldd       [%i2 + 0x90], %d22
    0x10000a07c:            b9 a7 08 5a  faddd     %d28, %d26, %d28
    0x10000a080:            81 a7 08 56  faddd     %d28, %d22, %d0
    0x10000a084:            81 c7 e0 08  ret
    0x10000a088:            81 e8 20 00  restore   %g0, 0x0, %g0
    0x10000a08c:            b3 a7 c9 5f  fmuld     %d62, %d62, %d56
    0x10000a090:            ed 1e a0 a0  ldd       [%i2 + 0xa0], %d22
    0x10000a094:            f5 1e a0 a8  ldd       [%i2 + 0xa8], %d26
    0x10000a098:            d9 1e a0 98  ldd       [%i2 + 0x98], %d12
    0x10000a09c:            e1 1e a0 b0  ldd       [%i2 + 0xb0], %d16
    0x10000a0a0:            a9 a6 48 5a  faddd     %d56, %d26, %d20
    0x10000a0a4:            eb 1e a0 80  ldd       [%i2 + 0x80], %d52
    0x10000a0a8:            9d a6 48 56  faddd     %d56, %d22, %d14
    0x10000a0ac:            b7 a7 c9 4c  fmuld     %d62, %d12, %d58
    0x10000a0b0:            bf a6 49 54  fmuld     %d56, %d20, %d62
    0x10000a0b4:            bd a6 49 4e  fmuld     %d56, %d14, %d30
    0x10000a0b8:            a5 a7 c8 50  faddd     %d62, %d16, %d18
    0x10000a0bc:            b1 a6 c9 5e  fmuld     %d58, %d30, %d24
    0x10000a0c0:            bb a6 09 52  fmuld     %d24, %d18, %d60
    0x10000a0c4:            af a7 48 55  faddd     %d60, %d52, %d54
    0x10000a0c8:            81 a7 08 57  faddd     %d28, %d54, %d0
    0x10000a0cc:            81 c7 e0 08  ret
    0x10000a0d0:            81 e8 20 00  restore   %g0, 0x0, %g0
    0x10000a0d4:            80 a4 e1 2e  cmp       %l3, 0x12e
    0x10000a0d8:            14 40 00 25  bg,pn     %icc, +0x94   <0x10000a16c>
    0x10000a0dc:            f1 1e a0 b8  ldd       [%i2 + 0xb8], %d24
    0x10000a0e0:            0b 1f cc c0  sethi     %hi(0x7f330000), %g5
    0x10000a0e4:            09 2f fb 49  sethi     %hi(0xbfed2400), %g4
    0x10000a0e8:            fb 1e a0 c0  ldd       [%i2 + 0xc0], %d60
    0x10000a0ec:            82 27 40 05  sub       %i5, %g5, %g1
    0x10000a0f0:            b6 01 22 84  add       %g4, 0x284, %i3
    0x10000a0f4:            b1 30 60 10  srl       %g1, 0x10, %i0
    0x10000a0f8:            b9 a6 88 d8  fsubd     %d26, %d24, %d28
    0x10000a0fc:            b8 02 40 1b  add       %o1, %i3, %i4
    0x10000a100:            80 97 00 18  orcc      %i4, %i0, %g0
    0x10000a104:            12 40 00 08  bne,pn    %icc, +0x20   <0x10000a124>
    0x10000a108:            af a7 08 dd  fsubd     %d28, %d60, %d54
    0x10000a10c:            e1 1e a0 c8  ldd       [%i2 + 0xc8], %d16
    0x10000a110:            e5 1e a0 d0  ldd       [%i2 + 0xd0], %d18
    0x10000a114:            b9 a7 08 d0  fsubd     %d28, %d16, %d28
    0x10000a118:            81 a7 08 d2  fsubd     %d28, %d18, %d0
    0x10000a11c:            81 c7 e0 08  ret
    0x10000a120:            81 e8 20 00  restore   %g0, 0x0, %g0
    0x10000a124:            b3 a5 c9 57  fmuld     %d54, %d54, %d56
    0x10000a128:            e5 1e a0 a0  ldd       [%i2 + 0xa0], %d18
    0x10000a12c:            e1 1e a0 a8  ldd       [%i2 + 0xa8], %d16
    0x10000a130:            f5 1e a0 98  ldd       [%i2 + 0x98], %d26
    0x10000a134:            ed 1e a0 b0  ldd       [%i2 + 0xb0], %d22
    0x10000a138:            b1 a6 48 50  faddd     %d56, %d16, %d24
    0x10000a13c:            eb 1e a0 c0  ldd       [%i2 + 0xc0], %d52
    0x10000a140:            bb a6 48 52  faddd     %d56, %d18, %d60
    0x10000a144:            b7 a5 c9 5a  fmuld     %d54, %d26, %d58
    0x10000a148:            af a6 49 58  fmuld     %d56, %d24, %d54
    0x10000a14c:            99 a6 49 5d  fmuld     %d56, %d60, %d12
    0x10000a150:            a9 a5 c8 56  faddd     %d54, %d22, %d20
    0x10000a154:            9d a6 c9 4c  fmuld     %d58, %d12, %d14
    0x10000a158:            bf a3 89 54  fmuld     %d14, %d20, %d62
    0x10000a15c:            bd a7 c8 d5  fsubd     %d62, %d52, %d30
    0x10000a160:            81 a7 08 5e  faddd     %d28, %d30, %d0
    0x10000a164:            81 c7 e0 08  ret
    0x10000a168:            81 e8 20 00  restore   %g0, 0x0, %g0
    0x10000a16c:            dd 1e a0 d8  ldd       [%i2 + 0xd8], %d14
    0x10000a170:            1f 0a 55 40  sethi     %hi(0x29550000), %o7
    0x10000a174:            1b 2f f8 25  sethi     %hi(0xbfe09400), %o5
    0x10000a178:            ff 1e a0 e0  ldd       [%i2 + 0xe0], %d62
    0x10000a17c:            98 27 40 0f  sub       %i5, %o7, %o4
    0x10000a180:            96 03 61 86  add       %o5, 0x186, %o3
    0x10000a184:            95 33 20 10  srl       %o4, 0x10, %o2
    0x10000a188:            92 02 40 0b  add       %o1, %o3, %o1
    0x10000a18c:            b9 a3 88 da  fsubd     %d14, %d26, %d28
    0x10000a190:            80 92 40 0a  orcc      %o1, %o2, %g0
    0x10000a194:            12 40 00 08  bne,pn    %icc, +0x20   <0x10000a1b4>
    0x10000a198:            bd a7 08 5f  faddd     %d28, %d62, %d30
    0x10000a19c:            d9 1e a0 e8  ldd       [%i2 + 0xe8], %d12
    0x10000a1a0:            e9 1e a0 f0  ldd       [%i2 + 0xf0], %d20
    0x10000a1a4:            b9 a7 08 4c  faddd     %d28, %d12, %d28
    0x10000a1a8:            81 a7 08 54  faddd     %d28, %d20, %d0
    0x10000a1ac:            81 c7 e0 08  ret
    0x10000a1b0:            81 e8 20 00  restore   %g0, 0x0, %g0
    0x10000a1b4:            b3 a7 89 5e  fmuld     %d30, %d30, %d56
    0x10000a1b8:            e9 1e a0 a0  ldd       [%i2 + 0xa0], %d20
    0x10000a1bc:            d9 1e a0 a8  ldd       [%i2 + 0xa8], %d12
    0x10000a1c0:            dd 1e a0 98  ldd       [%i2 + 0x98], %d14
    0x10000a1c4:            e5 1e a0 b0  ldd       [%i2 + 0xb0], %d18
    0x10000a1c8:            a1 a6 48 54  faddd     %d56, %d20, %d16
    0x10000a1cc:            eb 1e a0 e0  ldd       [%i2 + 0xe0], %d52
    0x10000a1d0:            bf a6 48 4c  faddd     %d56, %d12, %d62
    0x10000a1d4:            b5 a7 89 4e  fmuld     %d30, %d14, %d26
    0x10000a1d8:            bb a6 49 50  fmuld     %d56, %d16, %d60
    0x10000a1dc:            bd a6 49 5f  fmuld     %d56, %d62, %d30
    0x10000a1e0:            b1 a6 89 5d  fmuld     %d26, %d60, %d24
    0x10000a1e4:            b7 a7 88 52  faddd     %d30, %d18, %d58
    0x10000a1e8:            ad a6 09 5b  fmuld     %d24, %d58, %d22
    0x10000a1ec:            af a5 88 55  faddd     %d22, %d52, %d54
    0x10000a1f0:            81 a7 08 57  faddd     %d28, %d54, %d0
    0x10000a1f4:            81 c7 e0 08  ret
    0x10000a1f8:            81 e8 20 00  restore   %g0, 0x0, %g0
    0x10000a1fc:            ad a3 89 50  fmuld     %d14, %d16, %d22
    0x10000a200:            b9 a7 c9 5c  fmuld     %d62, %d28, %d28
    0x10000a204:            af a7 08 d6  fsubd     %d28, %d22, %d54
    0x10000a208:            81 a3 88 d7  fsubd     %d14, %d54, %d0
    0x10000a20c:            81 c7 e0 08  ret
    0x10000a210:            81 e8 20 00  restore   %g0, 0x0, %g0
    0x10000a214:            80 a5 a4 12  cmp       %l6, 0x412
    0x10000a218:            16 40 00 8f  bge,pn    %icc, +0x23c  <0x10000a454>
    0x10000a21c:            f7 1e a0 f8  ldd       [%i2 + 0xf8], %d58
    0x10000a220:            80 90 00 08  tst       %o0
    0x10000a224:            06 40 00 06  bl,pn     %icc, +0x18   <0x10000a23c>
    0x10000a228:            b1 a0 09 5b  fmuld     %d0, %d58, %d24
    0x10000a22c:            e5 1e a1 00  ldd       [%i2 + 0x100], %d18
    0x10000a230:            b5 a6 08 52  faddd     %d24, %d18, %d26
    0x10000a234:            10 80 00 05  ba        +0x14         <0x10000a248>
    0x10000a238:            91 a0 1a 5a  fdtoi     %d26, %f8
    0x10000a23c:            fb 1e a0 30  ldd       [%i2 + 0x30], %d60
    0x10000a240:            b5 a6 08 5d  faddd     %d24, %d60, %d26
    0x10000a244:            91 a0 1a 5a  fdtoi     %d26, %f8
    0x10000a248:            ab a0 19 08  fitod     %f8, %d52
    0x10000a24c:            f3 1e a1 18  ldd       [%i2 + 0x118], %d56
    0x10000a250:            ef 1e a1 08  ldd       [%i2 + 0x108], %d54
    0x10000a254:            fd 1e a1 10  ldd       [%i2 + 0x110], %d30
    0x10000a258:            99 a6 08 d5  fsubd     %d24, %d52, %d12
    0x10000a25c:            bf a5 49 57  fmuld     %d52, %d54, %d62
    0x10000a260:            9d a5 49 5e  fmuld     %d52, %d30, %d14
    0x10000a264:            a9 a0 01 4c  fabsd     %d12, %d20
    0x10000a268:            81 ad 0a d9  fcmped    %fcc0, %d20, %d56
    0x10000a26c:            1d 40 00 4e  fbule,pn  %fcc0, +0x138  <0x10000a3a4>
    0x10000a270:            a1 a0 08 df  fsubd     %d0, %d62, %d16
    0x10000a274:            89 a0 1a 55  fdtoi     %d52, %f4
    0x10000a278:            c9 23 a8 af  st        %f4, [%sp + 0x8af]
    0x10000a27c:            b9 a4 08 ce  fsubd     %d16, %d14, %d28
    0x10000a280:            8d a0 18 dc  fdtos     %d28, %f6
    0x10000a284:            a9 a7 09 5c  fmuld     %d28, %d28, %d20
    0x10000a288:            9c 03 a0 00  add       %sp, 0x0, %sp
    0x10000a28c:            9c 03 a0 00  add       %sp, 0x0, %sp
    0x10000a290:            9c 03 a0 00  add       %sp, 0x0, %sp
    0x10000a294:            9c 03 a0 00  add       %sp, 0x0, %sp
    0x10000a298:            9c 03 a0 00  add       %sp, 0x0, %sp
    0x10000a29c:            e4 03 a8 af  ld        [%sp + 0x8af], %l2
    0x10000a2a0:            b1 a0 19 26  fstod     %f6, %d24
    0x10000a2a4:            a2 04 a0 01  add       %l2, 0x1, %l1
    0x10000a2a8:            80 8c 60 01  btst      0x1, %l1
    0x10000a2ac:            ad a4 08 d8  fsubd     %d16, %d24, %d22
    0x10000a2b0:            ad a5 88 ce  fsubd     %d22, %d14, %d22
    0x10000a2b4:            12 40 00 1a  bne,pn    %icc, +0x68   <0x10000a31c>
    0x10000a2b8:            a0 0c 60 03  and       %l1, 0x3, %l0
    0x10000a2bc:            eb 1e a1 30  ldd       [%i2 + 0x130], %d52
    0x10000a2c0:            d9 1e a1 28  ldd       [%i2 + 0x128], %d12
    0x10000a2c4:            a1 a5 09 54  fmuld     %d20, %d20, %d16
    0x10000a2c8:            f7 1e a1 40  ldd       [%i2 + 0x140], %d58
    0x10000a2cc:            9d a5 08 55  faddd     %d20, %d52, %d14
    0x10000a2d0:            ef 1e a1 38  ldd       [%i2 + 0x138], %d54
    0x10000a2d4:            bb a7 09 4c  fmuld     %d28, %d12, %d60
    0x10000a2d8:            fd 1e a1 48  ldd       [%i2 + 0x148], %d30
    0x10000a2dc:            a5 a5 08 5b  faddd     %d20, %d58, %d18
    0x10000a2e0:            f5 1e a1 20  ldd       [%i2 + 0x120], %d26
    0x10000a2e4:            bf a5 09 4e  fmuld     %d20, %d14, %d62
    0x10000a2e8:            b3 a7 49 50  fmuld     %d60, %d16, %d56
    0x10000a2ec:            ab a5 09 52  fmuld     %d20, %d18, %d52
    0x10000a2f0:            b9 a7 09 5a  fmuld     %d28, %d26, %d28
    0x10000a2f4:            99 a7 c8 57  faddd     %d62, %d54, %d12
    0x10000a2f8:            9d a5 48 5e  faddd     %d52, %d30, %d14
    0x10000a2fc:            b7 a7 09 54  fmuld     %d28, %d20, %d58
    0x10000a300:            a1 a6 49 4c  fmuld     %d56, %d12, %d16
    0x10000a304:            bb a4 09 4e  fmuld     %d16, %d14, %d60
    0x10000a308:            a5 a5 88 5d  faddd     %d22, %d60, %d18
    0x10000a30c:            b5 a6 c8 52  faddd     %d58, %d18, %d26
    0x10000a310:            b1 a6 08 5a  faddd     %d24, %d26, %d24
    0x10000a314:            10 80 00 1f  ba        +0x7c         <0x10000a390>
    0x10000a318:            99 a0 00 d8  fnegd     %d24, %d12
    0x10000a31c:            f5 1e a0 38  ldd       [%i2 + 0x38], %d26
    0x10000a320:            f9 1e a0 48  ldd       [%i2 + 0x48], %d28
    0x10000a324:            d9 1e a0 40  ldd       [%i2 + 0x40], %d12
    0x10000a328:            bd a5 09 5a  fmuld     %d20, %d26, %d30
    0x10000a32c:            ff 1e a0 58  ldd       [%i2 + 0x58], %d62
    0x10000a330:            bb a5 08 5c  faddd     %d20, %d28, %d60
    0x10000a334:            eb 1e a0 30  ldd       [%i2 + 0x30], %d52
    0x10000a338:            a1 a5 08 4c  faddd     %d20, %d12, %d16
    0x10000a33c:            f3 1e a0 50  ldd       [%i2 + 0x50], %d56
    0x10000a340:            9d a5 08 5f  faddd     %d20, %d62, %d14
    0x10000a344:            f9 1e a0 60  ldd       [%i2 + 0x60], %d28
    0x10000a348:            a5 a7 89 54  fmuld     %d30, %d20, %d18
    0x10000a34c:            f5 1e 61 a0  ldd       [%i1 + 0x1a0], %d26
    0x10000a350:            af a5 09 5d  fmuld     %d20, %d60, %d54
    0x10000a354:            99 a5 89 55  fmuld     %d22, %d52, %d12
    0x10000a358:            a9 a5 09 4e  fmuld     %d20, %d14, %d20
    0x10000a35c:            b7 a4 89 50  fmuld     %d18, %d16, %d58
    0x10000a360:            bd a5 c8 59  faddd     %d54, %d56, %d30
    0x10000a364:            a1 a6 09 55  fmuld     %d24, %d52, %d16
    0x10000a368:            9d a6 08 cc  fsubd     %d24, %d12, %d14
    0x10000a36c:            bf a5 08 5c  faddd     %d20, %d28, %d62
    0x10000a370:            bb a6 c9 5e  fmuld     %d58, %d30, %d60
    0x10000a374:            a5 a5 89 4e  fmuld     %d22, %d14, %d18
    0x10000a378:            b3 a4 09 58  fmuld     %d16, %d24, %d56
    0x10000a37c:            ad a7 49 5f  fmuld     %d60, %d62, %d22
    0x10000a380:            b1 a4 88 d6  fsubd     %d18, %d22, %d24
    0x10000a384:            af a6 48 d8  fsubd     %d56, %d24, %d54
    0x10000a388:            b1 a5 c8 5a  faddd     %d54, %d26, %d24
    0x10000a38c:            99 a0 00 d8  fnegd     %d24, %d12
    0x10000a390:            80 a4 20 01  cmp       %l0, 0x1
    0x10000a394:            99 a8 a0 58  fmovdle   %icc, %d24, %d12
    0x10000a398:            81 a0 00 4c  fmovd     %d12, %d0
    0x10000a39c:            81 c7 e0 08  ret
    0x10000a3a0:            81 e8 20 00  restore   %g0, 0x0, %g0
    0x10000a3a4:            e9 1e a1 50  ldd       [%i2 + 0x150], %d20
    0x10000a3a8:            85 a0 1a 55  fdtoi     %d52, %f2
    0x10000a3ac:            fb 1e a1 58  ldd       [%i2 + 0x158], %d60
    0x10000a3b0:            c5 23 a8 af  st        %f2, [%sp + 0x8af]
    0x10000a3b4:            9d a5 49 54  fmuld     %d52, %d20, %d14
    0x10000a3b8:            a5 a5 49 5d  fmuld     %d52, %d60, %d18
    0x10000a3bc:            99 a4 08 ce  fsubd     %d16, %d14, %d12
    0x10000a3c0:            ab a3 08 d2  fsubd     %d12, %d18, %d52
    0x10000a3c4:            ea 03 a8 af  ld        [%sp + 0x8af], %l5
    0x10000a3c8:            bd a4 08 cc  fsubd     %d16, %d12, %d30
    0x10000a3cc:            a8 05 60 01  add       %l5, 0x1, %l4
    0x10000a3d0:            80 8d 20 01  btst      0x1, %l4
    0x10000a3d4:            a1 a3 08 d5  fsubd     %d12, %d52, %d16
    0x10000a3d8:            af a5 49 55  fmuld     %d52, %d52, %d54
    0x10000a3dc:            b3 a7 88 ce  fsubd     %d30, %d14, %d56
    0x10000a3e0:            b1 a4 08 d2  fsubd     %d16, %d18, %d24
    0x10000a3e4:            b7 a6 08 59  faddd     %d24, %d56, %d58
    0x10000a3e8:            12 40 00 0c  bne,pn    %icc, +0x30   <0x10000a418>
    0x10000a3ec:            a6 0d 20 03  and       %l4, 0x3, %l3
    0x10000a3f0:            f3 1e a0 68  ldd       [%i2 + 0x68], %d56
    0x10000a3f4:            f1 1e a0 70  ldd       [%i2 + 0x70], %d24
    0x10000a3f8:            ad a5 49 59  fmuld     %d52, %d56, %d22
    0x10000a3fc:            b5 a5 c8 58  faddd     %d54, %d24, %d26
    0x10000a400:            af a5 89 57  fmuld     %d22, %d54, %d54
    0x10000a404:            bf a5 c9 5a  fmuld     %d54, %d26, %d62
    0x10000a408:            b7 a6 c8 5f  faddd     %d58, %d62, %d58
    0x10000a40c:            b9 a5 48 5b  faddd     %d52, %d58, %d28
    0x10000a410:            10 80 00 0c  ba        +0x30         <0x10000a440>
    0x10000a414:            99 a0 00 dc  fnegd     %d28, %d12
    0x10000a418:            fd 1e a0 08  ldd       [%i2 + 0x8], %d30
    0x10000a41c:            9d a5 49 5b  fmuld     %d52, %d58, %d14
    0x10000a420:            fb 1e a0 10  ldd       [%i2 + 0x10], %d60
    0x10000a424:            e5 1e 61 a0  ldd       [%i1 + 0x1a0], %d18
    0x10000a428:            ab a5 c9 5e  fmuld     %d54, %d30, %d52
    0x10000a42c:            a9 a5 48 5d  faddd     %d52, %d60, %d20
    0x10000a430:            99 a5 c9 54  fmuld     %d54, %d20, %d12
    0x10000a434:            a1 a3 88 cc  fsubd     %d14, %d12, %d16
    0x10000a438:            b9 a4 88 d0  fsubd     %d18, %d16, %d28
    0x10000a43c:            99 a0 00 dc  fnegd     %d28, %d12
    0x10000a440:            80 a4 e0 01  cmp       %l3, 0x1
    0x10000a444:            99 a8 a0 5c  fmovdle   %icc, %d28, %d12
    0x10000a448:            81 a0 00 4c  fmovd     %d12, %d0
    0x10000a44c:            81 c7 e0 08  ret
    0x10000a450:            81 e8 20 00  restore   %g0, 0x0, %g0
    0x10000a454:            80 a5 a7 ff  cmp       %l6, 0x7ff
    0x10000a458:            06 40 00 05  bl,pn     %icc, +0x14   <0x10000a46c>
    0x10000a45c:            01 00 00 00  nop
    0x10000a460:            81 a0 09 c0  fdivd     %d0, %d0, %d0
    0x10000a464:            81 c7 e0 08  ret
    0x10000a468:            81 e8 20 00  restore   %g0, 0x0, %g0
    0x10000a46c:            40 00 06 2d  call      +0x18b4       <0x10000bd20>
    0x10000a470:            92 07 a7 e7  add       %fp, 0x7e7, %o1
    0x10000a474:            ed 1f a7 e7  ldd       [%fp + 0x7e7], %d22
    0x10000a478:            ac 02 20 01  add       %o0, 0x1, %l6
    0x10000a47c:            f5 1f a7 ef  ldd       [%fp + 0x7ef], %d26
    0x10000a480:            80 8d a0 01  btst      0x1, %l6
    0x10000a484:            b9 a5 88 5a  faddd     %d22, %d26, %d28
    0x10000a488:            81 a0 18 dc  fdtos     %d28, %f0
    0x10000a48c:            a9 a7 09 5c  fmuld     %d28, %d28, %d20
    0x10000a490:            b1 a0 19 20  fstod     %f0, %d24
    0x10000a494:            bf a5 88 d8  fsubd     %d22, %d24, %d62
    0x10000a498:            12 40 00 1a  bne,pn    %icc, +0x68   <0x10000a500>
    0x10000a49c:            ad a7 c8 5a  faddd     %d62, %d26, %d22
    0x10000a4a0:            eb 1e a1 30  ldd       [%i2 + 0x130], %d52
    0x10000a4a4:            a5 a5 09 54  fmuld     %d20, %d20, %d18
    0x10000a4a8:            d9 1e a1 28  ldd       [%i2 + 0x128], %d12
    0x10000a4ac:            dd 1e a1 40  ldd       [%i2 + 0x140], %d14
    0x10000a4b0:            a1 a5 08 55  faddd     %d20, %d52, %d16
    0x10000a4b4:            f5 1e a1 38  ldd       [%i2 + 0x138], %d26
    0x10000a4b8:            b3 a7 09 4c  fmuld     %d28, %d12, %d56
    0x10000a4bc:            fd 1e a1 48  ldd       [%i2 + 0x148], %d30
    0x10000a4c0:            b7 a5 08 4e  faddd     %d20, %d14, %d58
    0x10000a4c4:            ef 1e a1 20  ldd       [%i2 + 0x120], %d54
    0x10000a4c8:            bf a5 09 50  fmuld     %d20, %d16, %d62
    0x10000a4cc:            99 a6 49 52  fmuld     %d56, %d18, %d12
    0x10000a4d0:            bb a5 09 5b  fmuld     %d20, %d58, %d60
    0x10000a4d4:            b9 a7 09 57  fmuld     %d28, %d54, %d28
    0x10000a4d8:            ab a7 c8 5a  faddd     %d62, %d26, %d52
    0x10000a4dc:            9d a7 48 5e  faddd     %d60, %d30, %d14
    0x10000a4e0:            b7 a7 09 54  fmuld     %d28, %d20, %d58
    0x10000a4e4:            a1 a3 09 55  fmuld     %d12, %d52, %d16
    0x10000a4e8:            a5 a4 09 4e  fmuld     %d16, %d14, %d18
    0x10000a4ec:            b3 a5 88 52  faddd     %d22, %d18, %d56
    0x10000a4f0:            af a6 c8 59  faddd     %d58, %d56, %d54
    0x10000a4f4:            b1 a6 08 57  faddd     %d24, %d54, %d24
    0x10000a4f8:            10 80 00 1f  ba        +0x7c         <0x10000a574>
    0x10000a4fc:            99 a0 00 d8  fnegd     %d24, %d12
    0x10000a500:            d9 1e a0 38  ldd       [%i2 + 0x38], %d12
    0x10000a504:            dd 1e a0 48  ldd       [%i2 + 0x48], %d14
    0x10000a508:            e1 1e a0 40  ldd       [%i2 + 0x40], %d16
    0x10000a50c:            b5 a5 09 4c  fmuld     %d20, %d12, %d26
    0x10000a510:            e5 1e a0 58  ldd       [%i2 + 0x58], %d18
    0x10000a514:            bd a5 08 4e  faddd     %d20, %d14, %d30
    0x10000a518:            eb 1e a0 30  ldd       [%i2 + 0x30], %d52
    0x10000a51c:            b7 a5 08 50  faddd     %d20, %d16, %d58
    0x10000a520:            ef 1e a0 50  ldd       [%i2 + 0x50], %d54
    0x10000a524:            bf a5 08 52  faddd     %d20, %d18, %d62
    0x10000a528:            f9 1e a0 60  ldd       [%i2 + 0x60], %d28
    0x10000a52c:            b3 a6 89 54  fmuld     %d26, %d20, %d56
    0x10000a530:            f5 1e a0 00  ldd       [%i2], %d26
    0x10000a534:            bb a5 09 5e  fmuld     %d20, %d30, %d60
    0x10000a538:            99 a5 89 55  fmuld     %d22, %d52, %d12
    0x10000a53c:            a9 a5 09 5f  fmuld     %d20, %d62, %d20
    0x10000a540:            a1 a6 49 5b  fmuld     %d56, %d58, %d16
    0x10000a544:            9d a7 48 57  faddd     %d60, %d54, %d14
    0x10000a548:            bd a6 09 55  fmuld     %d24, %d52, %d30
    0x10000a54c:            a5 a6 08 cc  fsubd     %d24, %d12, %d18
    0x10000a550:            bf a5 08 5c  faddd     %d20, %d28, %d62
    0x10000a554:            af a4 09 4e  fmuld     %d16, %d14, %d54
    0x10000a558:            b7 a5 89 52  fmuld     %d22, %d18, %d58
    0x10000a55c:            b3 a7 89 58  fmuld     %d30, %d24, %d56
    0x10000a560:            ad a5 c9 5f  fmuld     %d54, %d62, %d22
    0x10000a564:            b1 a6 c8 d6  fsubd     %d58, %d22, %d24
    0x10000a568:            bb a6 48 d8  fsubd     %d56, %d24, %d60
    0x10000a56c:            b1 a7 48 5a  faddd     %d60, %d26, %d24
    0x10000a570:            99 a0 00 d8  fnegd     %d24, %d12
    0x10000a574:            ba 0d a0 03  and       %l6, 0x3, %i5
    0x10000a578:            80 a7 60 01  cmp       %i5, 0x1
    0x10000a57c:            99 a8 a0 58  fmovdle   %icc, %d24, %d12
    0x10000a580:            81 a0 00 4c  fmovd     %d12, %d0
    0x10000a584:            81 c7 e0 08  ret
    0x10000a588:            81 e8 20 00  restore   %g0, 0x0, %g0
    0x10000a58c:            11 0f f1 40  sethi     %hi(0x3fc50000), %o0
    0x10000a590:            80 a2 40 08  cmp       %o1, %o0
    0x10000a594:            14 40 00 24  bg,pn     %icc, +0x90   <0x10000a624>
    0x10000a598:            ad 3a 60 14  sra       %o1, 0x14, %l6
    0x10000a59c:            80 a5 a3 c9  cmp       %l6, 0x3c9
    0x10000a5a0:            16 40 00 05  bge,pn    %icc, +0x14   <0x10000a5b4>
    0x10000a5a4:            d9 1e 61 a0  ldd       [%i1 + 0x1a0], %d12
    0x10000a5a8:            81 a3 08 c0  fsubd     %d12, %d0, %d0
    0x10000a5ac:            81 c7 e0 08  ret
    0x10000a5b0:            81 e8 20 00  restore   %g0, 0x0, %g0
    0x10000a5b4:            80 a5 a3 f8  cmp       %l6, 0x3f8
    0x10000a5b8:            16 40 00 0b  bge,pn    %icc, +0x2c   <0x10000a5e4>
    0x10000a5bc:            bd a0 09 40  fmuld     %d0, %d0, %d30
    0x10000a5c0:            f9 1e a0 08  ldd       [%i2 + 0x8], %d28
    0x10000a5c4:            e9 1e a0 10  ldd       [%i2 + 0x10], %d20
    0x10000a5c8:            fb 1e 61 a0  ldd       [%i1 + 0x1a0], %d60
    0x10000a5cc:            a5 a7 89 5c  fmuld     %d30, %d28, %d18
    0x10000a5d0:            b5 a4 88 54  faddd     %d18, %d20, %d26
    0x10000a5d4:            b1 a7 89 5a  fmuld     %d30, %d26, %d24
    0x10000a5d8:            81 a6 08 5d  faddd     %d24, %d60, %d0
    0x10000a5dc:            81 c7 e0 08  ret
    0x10000a5e0:            81 e8 20 00  restore   %g0, 0x0, %g0
    0x10000a5e4:            f5 1e a0 18  ldd       [%i2 + 0x18], %d26
    0x10000a5e8:            f1 1e a0 28  ldd       [%i2 + 0x28], %d24
    0x10000a5ec:            fb 1e a0 20  ldd       [%i2 + 0x20], %d60
    0x10000a5f0:            99 a7 89 5a  fmuld     %d30, %d26, %d12
    0x10000a5f4:            ef 1e a0 30  ldd       [%i2 + 0x30], %d54
    0x10000a5f8:            b7 a7 88 58  faddd     %d30, %d24, %d58
    0x10000a5fc:            eb 1e 61 a0  ldd       [%i1 + 0x1a0], %d52
    0x10000a600:            ad a7 89 5d  fmuld     %d30, %d60, %d22
    0x10000a604:            b3 a3 09 5e  fmuld     %d12, %d30, %d56
    0x10000a608:            bf a5 89 5b  fmuld     %d22, %d58, %d62
    0x10000a60c:            9d a7 88 59  faddd     %d30, %d56, %d14
    0x10000a610:            bd a7 c8 57  faddd     %d62, %d54, %d30
    0x10000a614:            a1 a3 89 5e  fmuld     %d14, %d30, %d16
    0x10000a618:            81 a4 08 55  faddd     %d16, %d52, %d0
    0x10000a61c:            81 c7 e0 08  ret
    0x10000a620:            81 e8 20 00  restore   %g0, 0x0, %g0
    0x10000a624:            ab a0 09 40  fmuld     %d0, %d0, %d52
    0x10000a628:            e5 1e a0 48  ldd       [%i2 + 0x48], %d18
    0x10000a62c:            95 a0 18 c0  fdtos     %d0, %f10
    0x10000a630:            fb 1e a0 58  ldd       [%i2 + 0x58], %d60
    0x10000a634:            f3 1e a0 38  ldd       [%i2 + 0x38], %d56
    0x10000a638:            f7 1e a0 40  ldd       [%i2 + 0x40], %d58
    0x10000a63c:            ad a5 48 52  faddd     %d52, %d18, %d22
    0x10000a640:            af a5 49 55  fmuld     %d52, %d52, %d54
    0x10000a644:            fd 1e a0 50  ldd       [%i2 + 0x50], %d30
    0x10000a648:            99 a5 48 5d  faddd     %d52, %d60, %d12
    0x10000a64c:            f9 1e a0 30  ldd       [%i2 + 0x30], %d28
    0x10000a650:            b1 a0 19 2a  fstod     %f10, %d24
    0x10000a654:            f5 1e a0 60  ldd       [%i2 + 0x60], %d26
    0x10000a658:            9d a5 48 5b  faddd     %d52, %d58, %d14
    0x10000a65c:            e9 1e 61 a0  ldd       [%i1 + 0x1a0], %d20
    0x10000a660:            a1 a5 c9 59  fmuld     %d54, %d56, %d16
    0x10000a664:            bf a5 49 56  fmuld     %d52, %d22, %d62
    0x10000a668:            bb a5 49 4c  fmuld     %d52, %d12, %d60
    0x10000a66c:            a5 a0 08 d8  fsubd     %d0, %d24, %d18
    0x10000a670:            ad a6 08 40  faddd     %d24, %d0, %d22
    0x10000a674:            af a6 09 5c  fmuld     %d24, %d28, %d54
    0x10000a678:            b7 a4 09 4e  fmuld     %d16, %d14, %d58
    0x10000a67c:            99 a7 c8 5e  faddd     %d62, %d30, %d12
    0x10000a680:            b3 a4 89 5c  fmuld     %d18, %d28, %d56
    0x10000a684:            ab a7 48 5a  faddd     %d60, %d26, %d52
    0x10000a688:            b9 a5 c9 58  fmuld     %d54, %d24, %d28
    0x10000a68c:            bd a6 c9 4c  fmuld     %d58, %d12, %d30
    0x10000a690:            9d a6 49 56  fmuld     %d56, %d22, %d14
    0x10000a694:            bf a7 89 55  fmuld     %d30, %d52, %d62
    0x10000a698:            a1 a3 88 5f  faddd     %d14, %d62, %d16
    0x10000a69c:            a5 a7 08 50  faddd     %d28, %d16, %d18
    0x10000a6a0:            81 a4 88 54  faddd     %d18, %d20, %d0
    0x10000a6a4:            81 c7 e0 08  ret
    0x10000a6a8:            81 e8 20 00  restore   %g0, 0x0, %g0
    0x10000a6ac:            00 00 00 00  illtrap   0x0
    0x10000a6b0:            00 00 00 00  illtrap   0x0
    0x10000a6b4:            00 00 00 00  illtrap   0x0
    0x10000a6b8:            00 00 00 00  illtrap   0x0
    0x10000a6bc:            00 00 00 00  illtrap   0x0
    0x10000a6c0:            3f 81 11 0e  fbo,a     +0x44438      <0x10004eaf8>
    0x10000a6c4:            b1 93 30 12  0xb1933012
    0x10000a6c8:            c0 34 00 02  clrh      [%l0 + %g2]
    0x10000a6cc:            c7 e7 b8 76  casa      [%fp] %asi, %l6, %g3	<ASI_PST16_S>
    0x10000a6d0:            3e c7 1a 52  0x3ec71a52
    0x10000a6d4:            06 51 6d 8f  0x06516d8f
    0x10000a6d8:            c0 41 7f 4a  ldsw      [%g5 - 0xb6], %g0
    0x10000a6dc:            cc 41 9d 84  ldsw      [%g6 + %g4], %g6
    0x10000a6e0:            c0 42 86 44  ldsw      [%o2 + %g4], %g0
    0x10000a6e4:            66 d2 f5 11  call      -0x64b42bbc   <0x9b4c7b28>
    0x10000a6e8:            40 9b 05 43  call      +0x26c150c    <0x1026cbbf4>
    0x10000a6ec:            85 4e 40 6b  0x854e406b
    0x10000a6f0:            bf c5 55 55  jmpl      %l5 + %l5, %i7
    0x10000a6f4:            55 55 55 46  call      +0x55555518   <0x15555fc0c>
    0x10000a6f8:            3d e5 d7 71  0x3de5d771
    0x10000a6fc:            42 38 78 77  call      +0x8e1e1dc    <0x108e288d8>
    0x10000a700:            c0 61 32 5f  0xc061325f
    0x10000a704:            3d 01 28 cc  sethi     %hi(0x4a33000), %fp
    0x10000a708:            40 b9 2d 90  call      +0x2e4b640    <0x102e55d48>
    0x10000a70c:            40 df 29 de  call      +0x37ca778    <0x1037d4e84>
    0x10000a710:            c0 34 0e e7  clrh      [%l0 + %g7]
    0x10000a714:            d6 9c 29 93  ldda      [%l0 + 0x993] %asi, %o3
    0x10000a718:            40 bf c7 7d  call      +0x2ff1df4    <0x102ffc50c>
    0x10000a71c:            e6 66 5f aa  0xe6665faa
    0x10000a720:            3f a5 55 51  fbo,a     -0x6aaabc     <0xff95fc64>
    0x10000a724:            2e 39 20 17  illtrap   0x392017
    0x10000a728:            bf df ff ff  flush     [%i7 - 0x1]
    0x10000a72c:            ff ff 53 8b  0xffff538b
    0x10000a730:            40 09 21 fb  call      +0x2487ec     <0x100252f1c>
    0x10000a734:            54 44 2d 18  call      +0x5110b460   <0x151115b94>
    0x10000a738:            3c a1 a6 26  bpos,a    -0x796768     <0xff873fd0>
    0x10000a73c:            33 14 5c 07  sethi     %hi(0x51701c00), %i1
    0x10000a740:            3c a1 a6 26  bpos,a    -0x796768     <0xff873fd8>
    0x10000a744:            33 14 40 00  sethi     %hi(0x51000000), %i1
    0x10000a748:            3a 2c 06 e0  illtrap   0x2c06e0
    0x10000a74c:            e6 89 48 12  lduba     [%g5 + %l2] 0x40, %l3
    0x10000a750:            40 19 21 fb  call      +0x6487ec     <0x100652f3c>
    0x10000a754:            54 44 2d 18  call      +0x5110b460   <0x151115bb4>
    0x10000a758:            3c b1 a6 26  bpos,a    -0x396768     <0xffc73ff0>
    0x10000a75c:            33 14 5c 07  sethi     %hi(0x51701c00), %i1
    0x10000a760:            3c b1 a6 26  bpos,a    -0x396768     <0xffc73ff8>
    0x10000a764:            33 14 40 00  sethi     %hi(0x51000000), %i1
    0x10000a768:            3a 3c 06 e0  illtrap   0x3c06e0
    0x10000a76c:            e6 89 48 12  lduba     [%g5 + %l2] 0x40, %l3
    0x10000a770:            3f e4 5f 30  0x3fe45f30
    0x10000a774:            6d c9 c8 83  call      -0x48d8ddf4   <0xb727c980>
    0x10000a778:            3f e0 00 00  0x3fe00000
    0x10000a77c:            00 00 00 00  illtrap   0x0
    0x10000a780:            bf e0 00 00  save      %g0, %g0, %i7
    0x10000a784:            00 00 00 00  illtrap   0x0
    0x10000a788:            3f f9 21 fb  0x3ff921fb
    0x10000a78c:            54 44 00 00  call      +0x51100000   <0x15110a78c>
    0x10000a790:            3d 86 8c 23  fbule,a   +0x1a308c     <0x1001ad81c>
    0x10000a794:            4c 4c 66 29  call      +0x313198a4   <0x131324038>
    0x10000a798:            3f 10 40 bf  sethi     %hi(0x4102fc00), %i7
    0x10000a79c:            e3 b0 3e 21  stqa      %f17, [-0x1df] %asi
    0x10000a7a0:            bd a8 f9 17  0xbda8f917
    0x10000a7a4:            d3 81 64 a1  lda       [%g5 + 0x4a1] %asi, %f9
    0x10000a7a8:            c0 52 b0 27  ldsh      [%o2 - 0xfd9], %g0
    0x10000a7ac:            03 86 fe 61  fbne      +0x1bf984     <0x1001ca130>
    0x10000a7b0:            c0 57 8a 6d  ldsh      [%fp + %o5], %g0
    0x10000a7b4:            21 48 f5 c5  fbn,a,pt  %fcc0, +0x3d714 <0x100047ec8>
    0x10000a7b8:            40 b3 fd 16  call      +0x2cff458    <0x102d09c10>
    0x10000a7bc:            f3 20 cd 73  st        %f25, [%g3 + %l3]
    0x10000a7c0:            c0 2d d0 91  clrb      [%l7 + %l1]
    0x10000a7c4:            12 f4 1d a5  0x12f41da5
    0x10000a7c8:            40 c2 bb e4  call      +0x30aef90    <0x1030b9758>
    0x10000a7cc:            8d ed 51 14  restore   %l5, %l4, %g6
    0x10000a7d0:            3f f0 00 00  0x3ff00000
    0x10000a7d4:            00 00 00 00  illtrap   0x0
    0x10000a7d8:            3d 86 8c 23  fbule,a   +0x1a308c     <0x1001ad864>
    0x10000a7dc:            4c 4c 00 00  call      +0x31300000   <0x13130a7dc>
    0x10000a7e0:            3b 29 8a 2e  sethi     %hi(0xa628b800), %i5
    0x10000a7e4:            03 70 73 45  fbne,pn   %fcc3, +0x1cd14 <0x1000274f8>
    0x10000a7e8:            00 00 00 00  illtrap   0x0
    0x10000a7ec:            00 00 00 00  illtrap   0x0
    0x10000a7f0:            00 00 00 00  illtrap   0x0
    0x10000a7f4:            00 00 00 00  illtrap   0x0
    0x10000a7f8:            00 00 00 00  illtrap   0x0
    0x10000a7fc:            00 00 00 00  illtrap   0x0
sin()
    0x10000a800:            9d e3 bf 10  save      %sp, -0xf0, %sp
    0x10000a804:            c1 27 a7 f7  st        %f0, [%fp + 0x7f7]
    0x10000a808:            39 1f ff ff  sethi     %hi(0x7ffffc00), %i4
    0x10000a80c:            3b 00 00 00  sethi     %hi(0x0), %i5
    0x10000a810:            c3 27 a7 fb  st        %f1, [%fp + 0x7fb]
    0x10000a814:            b4 07 23 ff  add       %i4, 0x3ff, %i2
    0x10000a818:            ba 17 60 01  or        %i5, 0x1, %i5
    0x10000a81c:            b1 2f 70 20  sllx      %i5, 0x20, %i0
    0x10000a820:            33 00 00 29  sethi     %hi(0xa400), %i1
    0x10000a824:            37 0f fa 60  sethi     %hi(0x3fe98000), %i3
    0x10000a828:            8a 16 00 19  or        %i0, %i1, %g5
    0x10000a82c:            81 41 40 00  rd        %pc, %g0
    0x10000a830:            f8 07 a7 f7  ld        [%fp + 0x7f7], %i4
    0x10000a834:            ba 0f 00 1a  and       %i4, %i2, %i5
    0x10000a838:            80 a7 40 1b  cmp       %i5, %i3
    0x10000a83c:            06 40 01 82  bl,pn     %icc, +0x608  <0x10000ae44>
    0x10000a840:            b4 01 62 c8  add       %g5, 0x2c8, %i2
    0x10000a844:            93 3f 60 14  sra       %i5, 0x14, %o1
    0x10000a848:            80 a2 64 02  cmp       %o1, 0x402
    0x10000a84c:            16 40 00 a6  bge,pn    %icc, +0x298  <0x10000aae4>
    0x10000a850:            31 00 03 ff  sethi     %hi(0xffc00), %i0
    0x10000a854:            b5 a0 01 40  fabsd     %d0, %d26
    0x10000a858:            ae 06 23 ff  add       %i0, 0x3ff, %l7
    0x10000a85c:            b2 10 24 0d  mov       0x40d, %i1
    0x10000a860:            e1 1e bf f8  ldd       [%i2 - 0x8], %d16
    0x10000a864:            90 0f 40 17  and       %i5, %l7, %o0
    0x10000a868:            37 00 04 00  sethi     %hi(0x100000), %i3
    0x10000a86c:            fb 1e a0 58  ldd       [%i2 + 0x58], %d60
    0x10000a870:            ac 26 40 09  sub       %i1, %o1, %l6
    0x10000a874:            aa 12 00 1b  or        %o0, %i3, %l5
    0x10000a878:            f3 19 62 c8  ldd       [%g5 + 0x2c8], %d56
    0x10000a87c:            29 00 00 00  sethi     %hi(0x0), %l4
    0x10000a880:            a3 3d 40 16  sra       %l5, %l6, %l1
    0x10000a884:            ef 1e a0 60  ldd       [%i2 + 0x60], %d54
    0x10000a888:            a6 15 20 01  or        %l4, 0x1, %l3
    0x10000a88c:            1b 00 00 3c  sethi     %hi(0xf000), %o5
    0x10000a890:            e0 07 a7 fb  ld        [%fp + 0x7fb], %l0
    0x10000a894:            9f 2c f0 20  sllx      %l3, 0x20, %o7
    0x10000a898:            a4 04 7f f6  add       %l1, -0xa, %l2
    0x10000a89c:            98 13 c0 0d  or        %o7, %o5, %o4
    0x10000a8a0:            97 3c a0 00  sra       %l2, 0x0, %o3
    0x10000a8a4:            94 03 21 58  add       %o4, 0x158, %o2
    0x10000a8a8:            93 2a f0 03  sllx      %o3, 0x3, %o1
    0x10000a8ac:            dd 1a 40 0a  ldd       [%o1 + %o2], %d14
    0x10000a8b0:            0b 00 00 00  sethi     %hi(0x0), %g5
    0x10000a8b4:            82 04 80 12  add       %l2, %l2, %g1
    0x10000a8b8:            88 11 60 01  or        %g5, 0x1, %g4
    0x10000a8bc:            a7 38 60 00  sra       %g1, 0x0, %l3
    0x10000a8c0:            b1 29 30 20  sllx      %g4, 0x20, %i0
    0x10000a8c4:            2f 00 00 34  sethi     %hi(0xd000), %l7
    0x10000a8c8:            bd a6 88 ce  fsubd     %d26, %d14, %d30
    0x10000a8cc:            b6 04 7e 64  add       %l1, -0x19c, %i3
    0x10000a8d0:            b2 16 00 17  or        %i0, %l7, %i1
    0x10000a8d4:            90 04 7e 78  add       %l1, -0x188, %o0
    0x10000a8d8:            ac 04 7f 2d  add       %l1, -0xd3, %l6
    0x10000a8dc:            aa 04 7f 41  add       %l1, -0xbf, %l5
    0x10000a8e0:            98 04 e0 01  add       %l3, 0x1, %o4
    0x10000a8e4:            a8 06 61 f8  add       %i1, 0x1f8, %l4
    0x10000a8e8:            9e 1a 00 1b  xor       %o0, %i3, %o7
    0x10000a8ec:            ab a7 89 5e  fmuld     %d30, %d30, %d52
    0x10000a8f0:            9a 1d 40 16  xor       %l5, %l6, %o5
    0x10000a8f4:            97 2c f0 03  sllx      %l3, 0x3, %o3
    0x10000a8f8:            a5 a7 89 50  fmuld     %d30, %d16, %d18
    0x10000a8fc:            95 2b 30 03  sllx      %o4, 0x3, %o2
    0x10000a900:            f1 1a c0 14  ldd       [%o3 + %l4], %d24
    0x10000a904:            80 93 40 0f  orcc      %o5, %o7, %g0
    0x10000a908:            f9 1a 80 14  ldd       [%o2 + %l4], %d28
    0x10000a90c:            ad a5 49 5d  fmuld     %d52, %d60, %d22
    0x10000a910:            b7 a5 48 59  faddd     %d52, %d56, %d58
    0x10000a914:            bf a4 89 55  fmuld     %d18, %d52, %d62
    0x10000a918:            99 a5 88 57  faddd     %d22, %d54, %d12
    0x10000a91c:            a9 a7 c9 5b  fmuld     %d62, %d58, %d20
    0x10000a920:            9d a5 49 4c  fmuld     %d52, %d12, %d14
    0x10000a924:            16 40 00 64  bge,pn    %icc, +0x190  <0x10000aab4>
    0x10000a928:            a1 a7 88 54  faddd     %d30, %d20, %d16
    0x10000a92c:            80 a4 a0 c9  cmp       %l2, 0xc9
    0x10000a930:            14 40 00 31  bg,pn     %icc, +0xc4   <0x10000a9f4>
    0x10000a934:            d9 1e a0 68  ldd       [%i2 + 0x68], %d12
    0x10000a938:            e9 1e a0 70  ldd       [%i2 + 0x70], %d20
    0x10000a93c:            17 2f fd b7  sethi     %hi(0xbff6dc00), %o3
    0x10000a940:            15 15 11 00  sethi     %hi(0x54440000), %o2
    0x10000a944:            92 02 e2 05  add       %o3, 0x205, %o1
    0x10000a948:            8a 24 00 0a  sub       %l0, %o2, %g5
    0x10000a94c:            b9 a3 08 da  fsubd     %d12, %d26, %d28
    0x10000a950:            82 07 40 09  add       %i5, %o1, %g1
    0x10000a954:            89 31 60 10  srl       %g5, 0x10, %g4
    0x10000a958:            80 90 40 04  orcc      %g1, %g4, %g0
    0x10000a95c:            bd a7 08 54  faddd     %d28, %d20, %d30
    0x10000a960:            12 40 00 0e  bne,pn    %icc, +0x38   <0x10000a998>
    0x10000a964:            80 a7 20 00  cmp       %i4, 0x0
    0x10000a968:            f7 1e a0 78  ldd       [%i2 + 0x78], %d58
    0x10000a96c:            06 40 00 06  bl,pn     %icc, +0x18   <0x10000a984>
    0x10000a970:            bf a7 08 5b  faddd     %d28, %d58, %d62
    0x10000a974:            ed 1e a0 80  ldd       [%i2 + 0x80], %d22
    0x10000a978:            81 a7 c8 56  faddd     %d62, %d22, %d0
    0x10000a97c:            81 c7 e0 08  ret
    0x10000a980:            81 e8 20 00  restore   %g0, 0x0, %g0
    0x10000a984:            f9 1e a0 80  ldd       [%i2 + 0x80], %d28
    0x10000a988:            a5 a7 c8 5c  faddd     %d62, %d28, %d18
    0x10000a98c:            81 a0 00 d2  fnegd     %d18, %d0
    0x10000a990:            81 c7 e0 08  ret
    0x10000a994:            81 e8 20 00  restore   %g0, 0x0, %g0
    0x10000a998:            a9 a7 89 5e  fmuld     %d30, %d30, %d20
    0x10000a99c:            f1 1e a0 18  ldd       [%i2 + 0x18], %d24
    0x10000a9a0:            ed 1e a0 10  ldd       [%i2 + 0x10], %d22
    0x10000a9a4:            f7 1e a0 08  ldd       [%i2 + 0x8], %d58
    0x10000a9a8:            ef 1e a0 20  ldd       [%i2 + 0x20], %d54
    0x10000a9ac:            bf a5 08 58  faddd     %d20, %d24, %d62
    0x10000a9b0:            eb 1e a0 70  ldd       [%i2 + 0x70], %d52
    0x10000a9b4:            a1 a7 89 5b  fmuld     %d30, %d58, %d16
    0x10000a9b8:            99 a5 08 56  faddd     %d20, %d22, %d12
    0x10000a9bc:            bd a5 09 5f  fmuld     %d20, %d62, %d30
    0x10000a9c0:            9d a5 09 4c  fmuld     %d20, %d12, %d14
    0x10000a9c4:            b3 a7 88 57  faddd     %d30, %d54, %d56
    0x10000a9c8:            bb a4 09 4e  fmuld     %d16, %d14, %d60
    0x10000a9cc:            b5 a7 49 59  fmuld     %d60, %d56, %d26
    0x10000a9d0:            06 40 00 05  bl,pn     %icc, +0x14   <0x10000a9e4>
    0x10000a9d4:            b1 a6 88 55  faddd     %d26, %d52, %d24
    0x10000a9d8:            81 a7 08 58  faddd     %d28, %d24, %d0
    0x10000a9dc:            81 c7 e0 08  ret
    0x10000a9e0:            81 e8 20 00  restore   %g0, 0x0, %g0
    0x10000a9e4:            a5 a0 00 dc  fnegd     %d28, %d18
    0x10000a9e8:            81 a4 88 d8  fsubd     %d18, %d24, %d0
    0x10000a9ec:            81 c7 e0 08  ret
    0x10000a9f0:            81 e8 20 00  restore   %g0, 0x0, %g0
    0x10000a9f4:            f3 1e a0 88  ldd       [%i2 + 0x88], %d56
    0x10000a9f8:            25 15 11 00  sethi     %hi(0x54440000), %l2
    0x10000a9fc:            23 2f f9 b7  sethi     %hi(0xbfe6dc00), %l1
    0x10000aa00:            fb 1e a0 90  ldd       [%i2 + 0x90], %d60
    0x10000aa04:            a0 24 00 12  sub       %l0, %l2, %l0
    0x10000aa08:            9e 04 62 05  add       %l1, 0x205, %o7
    0x10000aa0c:            9b 34 20 10  srl       %l0, 0x10, %o5
    0x10000aa10:            98 07 40 0f  add       %i5, %o7, %o4
    0x10000aa14:            b9 a6 88 d9  fsubd     %d26, %d56, %d28
    0x10000aa18:            80 93 00 0d  orcc      %o4, %o5, %g0
    0x10000aa1c:            b5 a7 08 dd  fsubd     %d28, %d60, %d26
    0x10000aa20:            12 40 00 0e  bne,pn    %icc, +0x38   <0x10000aa58>
    0x10000aa24:            80 a7 20 00  cmp       %i4, 0x0
    0x10000aa28:            dd 1e a0 98  ldd       [%i2 + 0x98], %d14
    0x10000aa2c:            06 40 00 06  bl,pn     %icc, +0x18   <0x10000aa44>
    0x10000aa30:            a1 a7 08 ce  fsubd     %d28, %d14, %d16
    0x10000aa34:            e9 1e a0 a0  ldd       [%i2 + 0xa0], %d20
    0x10000aa38:            81 a4 08 d4  fsubd     %d16, %d20, %d0
    0x10000aa3c:            81 c7 e0 08  ret
    0x10000aa40:            81 e8 20 00  restore   %g0, 0x0, %g0
    0x10000aa44:            f9 1e a0 a0  ldd       [%i2 + 0xa0], %d28
    0x10000aa48:            99 a4 08 dc  fsubd     %d16, %d28, %d12
    0x10000aa4c:            81 a0 00 cc  fnegd     %d12, %d0
    0x10000aa50:            81 c7 e0 08  ret
    0x10000aa54:            81 e8 20 00  restore   %g0, 0x0, %g0
    0x10000aa58:            b3 a6 89 5a  fmuld     %d26, %d26, %d56
    0x10000aa5c:            ff 1e a0 18  ldd       [%i2 + 0x18], %d62
    0x10000aa60:            dd 1e a0 08  ldd       [%i2 + 0x8], %d14
    0x10000aa64:            e9 1e a0 10  ldd       [%i2 + 0x10], %d20
    0x10000aa68:            e5 1e a0 20  ldd       [%i2 + 0x20], %d18
    0x10000aa6c:            a1 a6 48 5f  faddd     %d56, %d62, %d16
    0x10000aa70:            b7 a6 89 4e  fmuld     %d26, %d14, %d58
    0x10000aa74:            eb 1e a0 90  ldd       [%i2 + 0x90], %d52
    0x10000aa78:            bb a6 48 54  faddd     %d56, %d20, %d60
    0x10000aa7c:            b5 a6 49 50  fmuld     %d56, %d16, %d26
    0x10000aa80:            b1 a6 49 5d  fmuld     %d56, %d60, %d24
    0x10000aa84:            ad a6 88 52  faddd     %d26, %d18, %d22
    0x10000aa88:            af a6 c9 58  fmuld     %d58, %d24, %d54
    0x10000aa8c:            bd a5 c9 56  fmuld     %d54, %d22, %d30
    0x10000aa90:            06 40 00 05  bl,pn     %icc, +0x14   <0x10000aaa4>
    0x10000aa94:            bf a7 88 d5  fsubd     %d30, %d52, %d62
    0x10000aa98:            81 a7 08 5f  faddd     %d28, %d62, %d0
    0x10000aa9c:            81 c7 e0 08  ret
    0x10000aaa0:            81 e8 20 00  restore   %g0, 0x0, %g0
    0x10000aaa4:            99 a0 00 dc  fnegd     %d28, %d12
    0x10000aaa8:            81 a3 08 df  fsubd     %d12, %d62, %d0
    0x10000aaac:            81 c7 e0 08  ret
    0x10000aab0:            81 e8 20 00  restore   %g0, 0x0, %g0
    0x10000aab4:            b9 a7 09 50  fmuld     %d28, %d16, %d28
    0x10000aab8:            80 a7 20 00  cmp       %i4, 0x0
    0x10000aabc:            af a6 09 4e  fmuld     %d24, %d14, %d54
    0x10000aac0:            06 40 00 05  bl,pn     %icc, +0x14   <0x10000aad4>
    0x10000aac4:            bd a5 c8 5c  faddd     %d54, %d28, %d30
    0x10000aac8:            81 a6 08 5e  faddd     %d24, %d30, %d0
    0x10000aacc:            81 c7 e0 08  ret
    0x10000aad0:            81 e8 20 00  restore   %g0, 0x0, %g0
    0x10000aad4:            ad a0 00 d8  fnegd     %d24, %d22
    0x10000aad8:            81 a5 88 de  fsubd     %d22, %d30, %d0
    0x10000aadc:            81 c7 e0 08  ret
    0x10000aae0:            81 e8 20 00  restore   %g0, 0x0, %g0
    0x10000aae4:            80 a2 64 12  cmp       %o1, 0x412
    0x10000aae8:            16 40 00 8b  bge,pn    %icc, +0x22c  <0x10000ad14>
    0x10000aaec:            f7 1e a0 a8  ldd       [%i2 + 0xa8], %d58
    0x10000aaf0:            80 90 00 1c  tst       %i4
    0x10000aaf4:            06 40 00 06  bl,pn     %icc, +0x18   <0x10000ab0c>
    0x10000aaf8:            b1 a0 09 5b  fmuld     %d0, %d58, %d24
    0x10000aafc:            e5 1e a0 b0  ldd       [%i2 + 0xb0], %d18
    0x10000ab00:            b5 a6 08 52  faddd     %d24, %d18, %d26
    0x10000ab04:            10 80 00 05  ba        +0x14         <0x10000ab18>
    0x10000ab08:            91 a0 1a 5a  fdtoi     %d26, %f8
    0x10000ab0c:            fb 1e a0 b8  ldd       [%i2 + 0xb8], %d60
    0x10000ab10:            b5 a6 08 5d  faddd     %d24, %d60, %d26
    0x10000ab14:            91 a0 1a 5a  fdtoi     %d26, %f8
    0x10000ab18:            ab a0 19 08  fitod     %f8, %d52
    0x10000ab1c:            f3 1e a0 d0  ldd       [%i2 + 0xd0], %d56
    0x10000ab20:            ef 1e a0 c0  ldd       [%i2 + 0xc0], %d54
    0x10000ab24:            fd 1e a0 c8  ldd       [%i2 + 0xc8], %d30
    0x10000ab28:            99 a6 08 d5  fsubd     %d24, %d52, %d12
    0x10000ab2c:            bf a5 49 57  fmuld     %d52, %d54, %d62
    0x10000ab30:            9d a5 49 5e  fmuld     %d52, %d30, %d14
    0x10000ab34:            a9 a0 01 4c  fabsd     %d12, %d20
    0x10000ab38:            81 ad 0a d9  fcmped    %fcc0, %d20, %d56
    0x10000ab3c:            1d 40 00 4c  fbule,pn  %fcc0, +0x130  <0x10000ac6c>
    0x10000ab40:            a1 a0 08 df  fsubd     %d0, %d62, %d16
    0x10000ab44:            89 a0 1a 55  fdtoi     %d52, %f4
    0x10000ab48:            c9 23 a8 af  st        %f4, [%sp + 0x8af]
    0x10000ab4c:            b9 a4 08 ce  fsubd     %d16, %d14, %d28
    0x10000ab50:            8d a0 18 dc  fdtos     %d28, %f6
    0x10000ab54:            a9 a7 09 5c  fmuld     %d28, %d28, %d20
    0x10000ab58:            9c 03 a0 00  add       %sp, 0x0, %sp
    0x10000ab5c:            9c 03 a0 00  add       %sp, 0x0, %sp
    0x10000ab60:            9c 03 a0 00  add       %sp, 0x0, %sp
    0x10000ab64:            9c 03 a0 00  add       %sp, 0x0, %sp
    0x10000ab68:            9c 03 a0 00  add       %sp, 0x0, %sp
    0x10000ab6c:            e8 03 a8 af  ld        [%sp + 0x8af], %l4
    0x10000ab70:            b1 a0 19 26  fstod     %f6, %d24
    0x10000ab74:            80 8d 20 01  btst      0x1, %l4
    0x10000ab78:            ad a4 08 d8  fsubd     %d16, %d24, %d22
    0x10000ab7c:            ad a5 88 ce  fsubd     %d22, %d14, %d22
    0x10000ab80:            12 40 00 1a  bne,pn    %icc, +0x68   <0x10000abe8>
    0x10000ab84:            a6 0d 20 03  and       %l4, 0x3, %l3
    0x10000ab88:            eb 1e a0 38  ldd       [%i2 + 0x38], %d52
    0x10000ab8c:            d9 1e a0 30  ldd       [%i2 + 0x30], %d12
    0x10000ab90:            a1 a5 09 54  fmuld     %d20, %d20, %d16
    0x10000ab94:            f7 1e a0 48  ldd       [%i2 + 0x48], %d58
    0x10000ab98:            9d a5 08 55  faddd     %d20, %d52, %d14
    0x10000ab9c:            ef 1e a0 40  ldd       [%i2 + 0x40], %d54
    0x10000aba0:            bb a7 09 4c  fmuld     %d28, %d12, %d60
    0x10000aba4:            fd 1e a0 50  ldd       [%i2 + 0x50], %d30
    0x10000aba8:            a5 a5 08 5b  faddd     %d20, %d58, %d18
    0x10000abac:            f5 1e a0 28  ldd       [%i2 + 0x28], %d26
    0x10000abb0:            bf a5 09 4e  fmuld     %d20, %d14, %d62
    0x10000abb4:            b3 a7 49 50  fmuld     %d60, %d16, %d56
    0x10000abb8:            ab a5 09 52  fmuld     %d20, %d18, %d52
    0x10000abbc:            b9 a7 09 5a  fmuld     %d28, %d26, %d28
    0x10000abc0:            99 a7 c8 57  faddd     %d62, %d54, %d12
    0x10000abc4:            9d a5 48 5e  faddd     %d52, %d30, %d14
    0x10000abc8:            b7 a7 09 54  fmuld     %d28, %d20, %d58
    0x10000abcc:            a1 a6 49 4c  fmuld     %d56, %d12, %d16
    0x10000abd0:            bb a4 09 4e  fmuld     %d16, %d14, %d60
    0x10000abd4:            a5 a5 88 5d  faddd     %d22, %d60, %d18
    0x10000abd8:            b5 a6 c8 52  faddd     %d58, %d18, %d26
    0x10000abdc:            b1 a6 08 5a  faddd     %d24, %d26, %d24
    0x10000abe0:            10 80 00 1f  ba        +0x7c         <0x10000ac5c>
    0x10000abe4:            81 a0 00 d8  fnegd     %d24, %d0
    0x10000abe8:            f5 1e a0 d8  ldd       [%i2 + 0xd8], %d26
    0x10000abec:            f9 1e a0 e8  ldd       [%i2 + 0xe8], %d28
    0x10000abf0:            d9 1e a0 e0  ldd       [%i2 + 0xe0], %d12
    0x10000abf4:            bd a5 09 5a  fmuld     %d20, %d26, %d30
    0x10000abf8:            ff 1e a0 f8  ldd       [%i2 + 0xf8], %d62
    0x10000abfc:            bb a5 08 5c  faddd     %d20, %d28, %d60
    0x10000ac00:            eb 1e a0 b8  ldd       [%i2 + 0xb8], %d52
    0x10000ac04:            a1 a5 08 4c  faddd     %d20, %d12, %d16
    0x10000ac08:            f3 1e a0 f0  ldd       [%i2 + 0xf0], %d56
    0x10000ac0c:            9d a5 08 5f  faddd     %d20, %d62, %d14
    0x10000ac10:            f9 1e a1 00  ldd       [%i2 + 0x100], %d28
    0x10000ac14:            a5 a7 89 54  fmuld     %d30, %d20, %d18
    0x10000ac18:            f5 1e a1 08  ldd       [%i2 + 0x108], %d26
    0x10000ac1c:            af a5 09 5d  fmuld     %d20, %d60, %d54
    0x10000ac20:            99 a5 89 55  fmuld     %d22, %d52, %d12
    0x10000ac24:            a9 a5 09 4e  fmuld     %d20, %d14, %d20
    0x10000ac28:            b7 a4 89 50  fmuld     %d18, %d16, %d58
    0x10000ac2c:            bd a5 c8 59  faddd     %d54, %d56, %d30
    0x10000ac30:            a1 a6 09 55  fmuld     %d24, %d52, %d16
    0x10000ac34:            9d a6 08 cc  fsubd     %d24, %d12, %d14
    0x10000ac38:            bf a5 08 5c  faddd     %d20, %d28, %d62
    0x10000ac3c:            bb a6 c9 5e  fmuld     %d58, %d30, %d60
    0x10000ac40:            a5 a5 89 4e  fmuld     %d22, %d14, %d18
    0x10000ac44:            b3 a4 09 58  fmuld     %d16, %d24, %d56
    0x10000ac48:            ad a7 49 5f  fmuld     %d60, %d62, %d22
    0x10000ac4c:            b1 a4 88 d6  fsubd     %d18, %d22, %d24
    0x10000ac50:            af a6 48 d8  fsubd     %d56, %d24, %d54
    0x10000ac54:            b1 a5 c8 5a  faddd     %d54, %d26, %d24
    0x10000ac58:            81 a0 00 d8  fnegd     %d24, %d0
    0x10000ac5c:            80 a4 e0 01  cmp       %l3, 0x1
    0x10000ac60:            81 a8 a0 58  fmovdle   %icc, %d24, %d0
    0x10000ac64:            81 c7 e0 08  ret
    0x10000ac68:            81 e8 20 00  restore   %g0, 0x0, %g0
    0x10000ac6c:            e9 1e a1 10  ldd       [%i2 + 0x110], %d20
    0x10000ac70:            85 a0 1a 55  fdtoi     %d52, %f2
    0x10000ac74:            fb 1e a1 18  ldd       [%i2 + 0x118], %d60
    0x10000ac78:            c5 23 a8 af  st        %f2, [%sp + 0x8af]
    0x10000ac7c:            9d a5 49 54  fmuld     %d52, %d20, %d14
    0x10000ac80:            a5 a5 49 5d  fmuld     %d52, %d60, %d18
    0x10000ac84:            99 a4 08 ce  fsubd     %d16, %d14, %d12
    0x10000ac88:            bd a4 08 cc  fsubd     %d16, %d12, %d30
    0x10000ac8c:            ec 03 a8 af  ld        [%sp + 0x8af], %l6
    0x10000ac90:            ab a3 08 d2  fsubd     %d12, %d18, %d52
    0x10000ac94:            80 8d a0 01  btst      0x1, %l6
    0x10000ac98:            b3 a7 88 ce  fsubd     %d30, %d14, %d56
    0x10000ac9c:            a1 a3 08 d5  fsubd     %d12, %d52, %d16
    0x10000aca0:            af a5 49 55  fmuld     %d52, %d52, %d54
    0x10000aca4:            b1 a4 08 d2  fsubd     %d16, %d18, %d24
    0x10000aca8:            b7 a6 08 59  faddd     %d24, %d56, %d58
    0x10000acac:            12 40 00 0c  bne,pn    %icc, +0x30   <0x10000acdc>
    0x10000acb0:            aa 0d a0 03  and       %l6, 0x3, %l5
    0x10000acb4:            f3 1e bf f8  ldd       [%i2 - 0x8], %d56
    0x10000acb8:            f1 19 62 c8  ldd       [%g5 + 0x2c8], %d24
    0x10000acbc:            ad a5 49 59  fmuld     %d52, %d56, %d22
    0x10000acc0:            b5 a5 c8 58  faddd     %d54, %d24, %d26
    0x10000acc4:            af a5 89 57  fmuld     %d22, %d54, %d54
    0x10000acc8:            bf a5 c9 5a  fmuld     %d54, %d26, %d62
    0x10000accc:            b7 a6 c8 5f  faddd     %d58, %d62, %d58
    0x10000acd0:            b9 a5 48 5b  faddd     %d52, %d58, %d28
    0x10000acd4:            10 80 00 0c  ba        +0x30         <0x10000ad04>
    0x10000acd8:            81 a0 00 dc  fnegd     %d28, %d0
    0x10000acdc:            9d a5 49 5b  fmuld     %d52, %d58, %d14
    0x10000ace0:            fd 1e a0 58  ldd       [%i2 + 0x58], %d30
    0x10000ace4:            fb 1e a0 60  ldd       [%i2 + 0x60], %d60
    0x10000ace8:            e5 1e a1 08  ldd       [%i2 + 0x108], %d18
    0x10000acec:            ab a5 c9 5e  fmuld     %d54, %d30, %d52
    0x10000acf0:            a9 a5 48 5d  faddd     %d52, %d60, %d20
    0x10000acf4:            99 a5 c9 54  fmuld     %d54, %d20, %d12
    0x10000acf8:            a1 a3 88 cc  fsubd     %d14, %d12, %d16
    0x10000acfc:            b9 a4 88 d0  fsubd     %d18, %d16, %d28
    0x10000ad00:            81 a0 00 dc  fnegd     %d28, %d0
    0x10000ad04:            80 a5 60 01  cmp       %l5, 0x1
    0x10000ad08:            81 a8 a0 5c  fmovdle   %icc, %d28, %d0
    0x10000ad0c:            81 c7 e0 08  ret
    0x10000ad10:            81 e8 20 00  restore   %g0, 0x0, %g0
    0x10000ad14:            80 a2 67 ff  cmp       %o1, 0x7ff
    0x10000ad18:            06 40 00 05  bl,pn     %icc, +0x14   <0x10000ad2c>
    0x10000ad1c:            01 00 00 00  nop
    0x10000ad20:            81 a0 09 c0  fdivd     %d0, %d0, %d0
    0x10000ad24:            81 c7 e0 08  ret
    0x10000ad28:            81 e8 20 00  restore   %g0, 0x0, %g0
    0x10000ad2c:            40 00 03 fd  call      +0xff4        <0x10000bd20>
    0x10000ad30:            92 07 a7 df  add       %fp, 0x7df, %o1
    0x10000ad34:            ed 1f a7 df  ldd       [%fp + 0x7df], %d22
    0x10000ad38:            80 8a 20 01  btst      0x1, %o0
    0x10000ad3c:            f5 1f a7 e7  ldd       [%fp + 0x7e7], %d26
    0x10000ad40:            b9 a5 88 5a  faddd     %d22, %d26, %d28
    0x10000ad44:            81 a0 18 dc  fdtos     %d28, %f0
    0x10000ad48:            a9 a7 09 5c  fmuld     %d28, %d28, %d20
    0x10000ad4c:            b1 a0 19 20  fstod     %f0, %d24
    0x10000ad50:            bf a5 88 d8  fsubd     %d22, %d24, %d62
    0x10000ad54:            12 40 00 1a  bne,pn    %icc, +0x68   <0x10000adbc>
    0x10000ad58:            ad a7 c8 5a  faddd     %d62, %d26, %d22
    0x10000ad5c:            eb 1e a0 38  ldd       [%i2 + 0x38], %d52
    0x10000ad60:            a5 a5 09 54  fmuld     %d20, %d20, %d18
    0x10000ad64:            d9 1e a0 30  ldd       [%i2 + 0x30], %d12
    0x10000ad68:            dd 1e a0 48  ldd       [%i2 + 0x48], %d14
    0x10000ad6c:            a1 a5 08 55  faddd     %d20, %d52, %d16
    0x10000ad70:            f5 1e a0 40  ldd       [%i2 + 0x40], %d26
    0x10000ad74:            b3 a7 09 4c  fmuld     %d28, %d12, %d56
    0x10000ad78:            fd 1e a0 50  ldd       [%i2 + 0x50], %d30
    0x10000ad7c:            b7 a5 08 4e  faddd     %d20, %d14, %d58
    0x10000ad80:            ef 1e a0 28  ldd       [%i2 + 0x28], %d54
    0x10000ad84:            bf a5 09 50  fmuld     %d20, %d16, %d62
    0x10000ad88:            99 a6 49 52  fmuld     %d56, %d18, %d12
    0x10000ad8c:            bb a5 09 5b  fmuld     %d20, %d58, %d60
    0x10000ad90:            b9 a7 09 57  fmuld     %d28, %d54, %d28
    0x10000ad94:            ab a7 c8 5a  faddd     %d62, %d26, %d52
    0x10000ad98:            9d a7 48 5e  faddd     %d60, %d30, %d14
    0x10000ad9c:            b7 a7 09 54  fmuld     %d28, %d20, %d58
    0x10000ada0:            a1 a3 09 55  fmuld     %d12, %d52, %d16
    0x10000ada4:            a5 a4 09 4e  fmuld     %d16, %d14, %d18
    0x10000ada8:            b3 a5 88 52  faddd     %d22, %d18, %d56
    0x10000adac:            af a6 c8 59  faddd     %d58, %d56, %d54
    0x10000adb0:            b1 a6 08 57  faddd     %d24, %d54, %d24
    0x10000adb4:            10 80 00 1f  ba        +0x7c         <0x10000ae30>
    0x10000adb8:            81 a0 00 d8  fnegd     %d24, %d0
    0x10000adbc:            d9 1e a0 d8  ldd       [%i2 + 0xd8], %d12
    0x10000adc0:            dd 1e a0 e8  ldd       [%i2 + 0xe8], %d14
    0x10000adc4:            e1 1e a0 e0  ldd       [%i2 + 0xe0], %d16
    0x10000adc8:            b5 a5 09 4c  fmuld     %d20, %d12, %d26
    0x10000adcc:            e5 1e a0 f8  ldd       [%i2 + 0xf8], %d18
    0x10000add0:            bd a5 08 4e  faddd     %d20, %d14, %d30
    0x10000add4:            eb 1e a0 b8  ldd       [%i2 + 0xb8], %d52
    0x10000add8:            b7 a5 08 50  faddd     %d20, %d16, %d58
    0x10000addc:            ef 1e a0 f0  ldd       [%i2 + 0xf0], %d54
    0x10000ade0:            bf a5 08 52  faddd     %d20, %d18, %d62
    0x10000ade4:            f9 1e a1 00  ldd       [%i2 + 0x100], %d28
    0x10000ade8:            b3 a6 89 54  fmuld     %d26, %d20, %d56
    0x10000adec:            f5 1e a1 08  ldd       [%i2 + 0x108], %d26
    0x10000adf0:            bb a5 09 5e  fmuld     %d20, %d30, %d60
    0x10000adf4:            99 a5 89 55  fmuld     %d22, %d52, %d12
    0x10000adf8:            a9 a5 09 5f  fmuld     %d20, %d62, %d20
    0x10000adfc:            a1 a6 49 5b  fmuld     %d56, %d58, %d16
    0x10000ae00:            9d a7 48 57  faddd     %d60, %d54, %d14
    0x10000ae04:            bd a6 09 55  fmuld     %d24, %d52, %d30
    0x10000ae08:            a5 a6 08 cc  fsubd     %d24, %d12, %d18
    0x10000ae0c:            bf a5 08 5c  faddd     %d20, %d28, %d62
    0x10000ae10:            af a4 09 4e  fmuld     %d16, %d14, %d54
    0x10000ae14:            b7 a5 89 52  fmuld     %d22, %d18, %d58
    0x10000ae18:            b3 a7 89 58  fmuld     %d30, %d24, %d56
    0x10000ae1c:            ad a5 c9 5f  fmuld     %d54, %d62, %d22
    0x10000ae20:            b1 a6 c8 d6  fsubd     %d58, %d22, %d24
    0x10000ae24:            bb a6 48 d8  fsubd     %d56, %d24, %d60
    0x10000ae28:            b1 a7 48 5a  faddd     %d60, %d26, %d24
    0x10000ae2c:            81 a0 00 d8  fnegd     %d24, %d0
    0x10000ae30:            ae 0a 20 03  and       %o0, 0x3, %l7
    0x10000ae34:            80 a5 e0 01  cmp       %l7, 0x1
    0x10000ae38:            81 a8 a0 58  fmovdle   %icc, %d24, %d0
    0x10000ae3c:            81 c7 e0 08  ret
    0x10000ae40:            81 e8 20 00  restore   %g0, 0x0, %g0
    0x10000ae44:            39 0f f1 40  sethi     %hi(0x3fc50000), %i4
    0x10000ae48:            80 a7 40 1c  cmp       %i5, %i4
    0x10000ae4c:            14 40 00 23  bg,pn     %icc, +0x8c   <0x10000aed8>
    0x10000ae50:            93 3f 60 14  sra       %i5, 0x14, %o1
    0x10000ae54:            80 a2 63 c9  cmp       %o1, 0x3c9
    0x10000ae58:            16 40 00 06  bge,pn    %icc, +0x18   <0x10000ae70>
    0x10000ae5c:            80 a2 63 f8  cmp       %o1, 0x3f8
    0x10000ae60:            95 a0 1a 40  fdtoi     %d0, %f10
    0x10000ae64:            d5 27 a7 f3  st        %f10, [%fp + 0x7f3]
    0x10000ae68:            81 c7 e0 08  ret
    0x10000ae6c:            81 e8 20 00  restore   %g0, 0x0, %g0
    0x10000ae70:            16 40 00 0b  bge,pn    %icc, +0x2c   <0x10000ae9c>
    0x10000ae74:            af a0 09 40  fmuld     %d0, %d0, %d54
    0x10000ae78:            e5 1e bf f8  ldd       [%i2 - 0x8], %d18
    0x10000ae7c:            fb 19 62 c8  ldd       [%g5 + 0x2c8], %d60
    0x10000ae80:            ad a0 09 52  fmuld     %d0, %d18, %d22
    0x10000ae84:            99 a5 c8 5d  faddd     %d54, %d60, %d12
    0x10000ae88:            a9 a5 89 57  fmuld     %d22, %d54, %d20
    0x10000ae8c:            ab a5 09 4c  fmuld     %d20, %d12, %d52
    0x10000ae90:            81 a0 08 55  faddd     %d0, %d52, %d0
    0x10000ae94:            81 c7 e0 08  ret
    0x10000ae98:            81 e8 20 00  restore   %g0, 0x0, %g0
    0x10000ae9c:            e9 1e a0 10  ldd       [%i2 + 0x10], %d20
    0x10000aea0:            eb 1e a0 18  ldd       [%i2 + 0x18], %d52
    0x10000aea4:            f7 1e a0 08  ldd       [%i2 + 0x8], %d58
    0x10000aea8:            bf a5 c8 54  faddd     %d54, %d20, %d62
    0x10000aeac:            f1 1e a0 20  ldd       [%i2 + 0x20], %d24
    0x10000aeb0:            bd a5 c8 55  faddd     %d54, %d52, %d30
    0x10000aeb4:            b9 a0 09 5b  fmuld     %d0, %d58, %d28
    0x10000aeb8:            b5 a5 c9 5f  fmuld     %d54, %d62, %d26
    0x10000aebc:            af a5 c9 5e  fmuld     %d54, %d30, %d54
    0x10000aec0:            a1 a7 09 5a  fmuld     %d28, %d26, %d16
    0x10000aec4:            9d a5 c8 58  faddd     %d54, %d24, %d14
    0x10000aec8:            b3 a4 09 4e  fmuld     %d16, %d14, %d56
    0x10000aecc:            81 a0 08 59  faddd     %d0, %d56, %d0
    0x10000aed0:            81 c7 e0 08  ret
    0x10000aed4:            81 e8 20 00  restore   %g0, 0x0, %g0
    0x10000aed8:            ab a0 09 40  fmuld     %d0, %d0, %d52
    0x10000aedc:            f3 1e a0 38  ldd       [%i2 + 0x38], %d56
    0x10000aee0:            e5 1e a0 48  ldd       [%i2 + 0x48], %d18
    0x10000aee4:            fb 1e a0 30  ldd       [%i2 + 0x30], %d60
    0x10000aee8:            fd 1e a0 40  ldd       [%i2 + 0x40], %d30
    0x10000aeec:            99 a5 48 59  faddd     %d52, %d56, %d12
    0x10000aef0:            b7 a5 49 55  fmuld     %d52, %d52, %d58
    0x10000aef4:            ed 1e a0 28  ldd       [%i2 + 0x28], %d22
    0x10000aef8:            af a0 09 5d  fmuld     %d0, %d60, %d54
    0x10000aefc:            a9 a5 48 52  faddd     %d52, %d18, %d20
    0x10000af00:            f9 1e a0 50  ldd       [%i2 + 0x50], %d28
    0x10000af04:            bf a0 09 56  fmuld     %d0, %d22, %d62
    0x10000af08:            b5 a5 49 4c  fmuld     %d52, %d12, %d26
    0x10000af0c:            b1 a5 49 54  fmuld     %d52, %d20, %d24
    0x10000af10:            a1 a5 c9 5b  fmuld     %d54, %d58, %d16
    0x10000af14:            ad a7 c9 55  fmuld     %d62, %d52, %d22
    0x10000af18:            9d a6 88 5e  faddd     %d26, %d30, %d14
    0x10000af1c:            b3 a6 08 5c  faddd     %d24, %d28, %d56
    0x10000af20:            bb a4 09 4e  fmuld     %d16, %d14, %d60
    0x10000af24:            a5 a7 49 59  fmuld     %d60, %d56, %d18
    0x10000af28:            99 a5 88 52  faddd     %d22, %d18, %d12
    0x10000af2c:            81 a0 08 4c  faddd     %d0, %d12, %d0
    0x10000af30:            81 c7 e0 08  ret
    0x10000af34:            81 e8 20 00  restore   %g0, 0x0, %g0
    0x10000af38:            00 00 00 00  illtrap   0x0
    0x10000af3c:            00 00 00 00  illtrap   0x0
    0x10000af40:            3f f0 00 00  0x3ff00000
    0x10000af44:            00 00 00 00  illtrap   0x0
    0x10000af48:            3f 81 11 0e  fbo,a     +0x44438      <0x10004f380>
    0x10000af4c:            b1 93 30 12  0xb1933012
    0x10000af50:            c0 34 00 02  clrh      [%l0 + %g2]
    0x10000af54:            c7 e7 b8 76  casa      [%fp] %asi, %l6, %g3	<ASI_PST16_S>
    0x10000af58:            3f a5 55 51  fbo,a     -0x6aaabc     <0xff96049c>
    0x10000af5c:            2e 39 20 17  illtrap   0x392017
    0x10000af60:            bf df ff ff  flush     [%i7 - 0x1]
    0x10000af64:            ff ff 53 8b  0xffff538b
    0x10000af68:            3e c7 1a 52  0x3ec71a52
    0x10000af6c:            06 51 6d 8f  0x06516d8f
    0x10000af70:            c0 41 7f 4a  ldsw      [%g5 - 0xb6], %g0
    0x10000af74:            cc 41 9d 84  ldsw      [%g6 + %g4], %g6
    0x10000af78:            c0 42 86 44  ldsw      [%o2 + %g4], %g0
    0x10000af7c:            66 d2 f5 11  call      -0x64b42bbc   <0x9b4c83c0>
    0x10000af80:            40 9b 05 43  call      +0x26c150c    <0x1026cc48c>
    0x10000af84:            85 4e 40 6b  0x854e406b
    0x10000af88:            bf a7 d2 ec  0xbfa7d2ec
    0x10000af8c:            18 2e 65 66  illtrap   0x2e6566
    0x10000af90:            bf 41 74 4f  rd        %pc, %i7
    0x10000af94:            e6 87 83 36  lduwa     [%fp + %l6] 0x19, %l3	<ASI_AIUSL>
    0x10000af98:            c0 41 45 d1  ldsw      [%g5 + %l1], %g0
    0x10000af9c:            13 d1 ae 68  0x13d1ae68
    0x10000afa0:            bf e0 00 00  save      %g0, %g0, %i7
    0x10000afa4:            00 00 00 00  illtrap   0x0
    0x10000afa8:            bf c5 55 55  jmpl      %l5 + %l5, %i7
    0x10000afac:            55 55 55 46  call      +0x55555518   <0x1555604c4>
    0x10000afb0:            3d e5 d7 71  0x3de5d771
    0x10000afb4:            42 38 78 77  call      +0x8e1e1dc    <0x108e29190>
    0x10000afb8:            c0 61 32 5f  0xc061325f
    0x10000afbc:            3d 01 28 cc  sethi     %hi(0x4a33000), %fp
    0x10000afc0:            40 b9 2d 90  call      +0x2e4b640    <0x102e56600>
    0x10000afc4:            40 df 29 de  call      +0x37ca778    <0x1037d573c>
    0x10000afc8:            c0 34 0e e7  clrh      [%l0 + %g7]
    0x10000afcc:            d6 9c 29 93  ldda      [%l0 + 0x993] %asi, %o3
    0x10000afd0:            40 bf c7 7d  call      +0x2ff1df4    <0x102ffcdc4>
    0x10000afd4:            e6 66 5f aa  0xe6665faa
    0x10000afd8:            bd a8 f9 17  0xbda8f917
    0x10000afdc:            d3 81 64 a1  lda       [%g5 + 0x4a1] %asi, %f9
    0x10000afe0:            c0 52 b0 27  ldsh      [%o2 - 0xfd9], %g0
    0x10000afe4:            03 86 fe 61  fbne      +0x1bf984     <0x1001ca968>
    0x10000afe8:            c0 57 8a 6d  ldsh      [%fp + %o5], %g0
    0x10000afec:            21 48 f5 c5  fbn,a,pt  %fcc0, +0x3d714 <0x100048700>
    0x10000aff0:            40 b3 fd 16  call      +0x2cff458    <0x102d0a448>
    0x10000aff4:            f3 20 cd 73  st        %f25, [%g3 + %l3]
    0x10000aff8:            c0 2d d0 91  clrb      [%l7 + %l1]
    0x10000affc:            12 f4 1d a5  0x12f41da5
    0x10000b000:            40 c2 bb e4  call      +0x30aef90    <0x1030b9f90>
    0x10000b004:            8d ed 51 14  restore   %l5, %l4, %g6
    0x10000b008:            3f f9 21 fb  0x3ff921fb
    0x10000b00c:            54 44 2d 18  call      +0x5110b460   <0x15111646c>
    0x10000b010:            3c 91 a6 26  bpos,a    +0x469898     <0x1004748a8>
    0x10000b014:            33 14 5c 07  sethi     %hi(0x51701c00), %i1
    0x10000b018:            3c 91 a6 26  bpos,a    +0x469898     <0x1004748b0>
    0x10000b01c:            30 00 00 00  illtrap   0x0
    0x10000b020:            3a e8 a2 e0  0x3ae8a2e0
    0x10000b024:            37 07 34 4a  sethi     %hi(0x1cd12800), %i3
    0x10000b028:            40 09 21 fb  call      +0x2487ec     <0x100253814>
    0x10000b02c:            54 44 2d 18  call      +0x5110b460   <0x15111648c>
    0x10000b030:            3c a1 a6 26  bpos,a    -0x796768     <0xff8748c8>
    0x10000b034:            33 14 5c 07  sethi     %hi(0x51701c00), %i1
    0x10000b038:            3c a1 a6 26  bpos,a    -0x796768     <0xff8748d0>
    0x10000b03c:            33 14 40 00  sethi     %hi(0x51000000), %i1
    0x10000b040:            3a 2c 06 e0  illtrap   0x2c06e0
    0x10000b044:            e6 89 48 12  lduba     [%g5 + %l2] 0x40, %l3
    0x10000b048:            40 12 d9 7c  call      +0x4b65f0     <0x1004c1638>
    0x10000b04c:            7f 33 21 d2  call      -0x33378b8    <0xfccd3794>
    0x10000b050:            3c aa 79 39  bpos,a    -0x561b1c     <0xffaa9534>
    0x10000b054:            4c 9e 8a 0a  call      +0x327a2828   <0x1327ad87c>
    0x10000b058:            3c aa 79 39  bpos,a    -0x561b1c     <0xffaa953c>
    0x10000b05c:            4c 9e 80 00  call      +0x327a0000   <0x1327ab05c>
    0x10000b060:            3a 14 14 a2  illtrap   0x1414a2
    0x10000b064:            b3 9b d8 37  0xb39bd837
    0x10000b068:            40 19 21 fb  call      +0x6487ec     <0x100653854>
    0x10000b06c:            54 44 2d 18  call      +0x5110b460   <0x1511164cc>
    0x10000b070:            3c b1 a6 26  bpos,a    -0x396768     <0xffc74908>
    0x10000b074:            33 14 5c 07  sethi     %hi(0x51701c00), %i1
    0x10000b078:            3c b1 a6 26  bpos,a    -0x396768     <0xffc74910>
    0x10000b07c:            33 14 40 00  sethi     %hi(0x51000000), %i1
    0x10000b080:            3a 3c 06 e0  illtrap   0x3c06e0
    0x10000b084:            e6 89 48 12  lduba     [%g5 + %l2] 0x40, %l3
    0x10000b088:            40 1f 6a 7a  call      +0x7da9e8     <0x1007e5a70>
    0x10000b08c:            29 55 38 5e  fbl,a,pn  %fcc1, -0xb1e88 <0xfff59204>
    0x10000b090:            3c b6 0f af  bpos,a    -0x27c144     <0xffd8ef4c>
    0x10000b094:            bf d9 73 09  flush     [%g5 - 0xcf7]
    0x10000b098:            3c b6 0f af  bpos,a    -0x27c144     <0xffd8ef54>
    0x10000b09c:            bf d9 40 00  flush     [%g5]
    0x10000b0a0:            3a 49 84 4c  bcc,a,pt  %icc, +0x61130 <0x10006c1d0>
    0x10000b0a4:            90 15 cd 0c  or        %l7, %o4, %o0
    0x10000b0a8:            3f e4 5f 30  0x3fe45f30
    0x10000b0ac:            6d c9 c8 83  call      -0x48d8ddf4   <0xb727d2b8>
    0x10000b0b0:            3f e0 00 00  0x3fe00000
    0x10000b0b4:            00 00 00 00  illtrap   0x0
    0x10000b0b8:            3f f9 21 fb  0x3ff921fb
    0x10000b0bc:            54 44 00 00  call      +0x51100000   <0x15110b0bc>
    0x10000b0c0:            3d 86 8c 23  fbule,a   +0x1a308c     <0x1001ae14c>
    0x10000b0c4:            4c 4c 66 29  call      +0x313198a4   <0x131324968>
    0x10000b0c8:            3f 10 40 bf  sethi     %hi(0x4102fc00), %i7
    0x10000b0cc:            e3 b0 3e 21  stqa      %f17, [-0x1df] %asi
    0x10000b0d0:            3d 86 8c 23  fbule,a   +0x1a308c     <0x1001ae15c>
    0x10000b0d4:            4c 4c 00 00  call      +0x31300000   <0x13130b0d4>
    0x10000b0d8:            3b 29 8a 2e  sethi     %hi(0xa628b800), %i5
    0x10000b0dc:            03 70 73 45  fbne,pn   %fcc3, +0x1cd14 <0x100027df0>
sincos()
    0x10000b0e0:            9d e3 bf 20  save      %sp, -0xe0, %sp
    0x10000b0e4:            c1 27 a7 f7  st        %f0, [%fp + 0x7f7]
    0x10000b0e8:            3b 00 00 00  sethi     %hi(0x0), %i5
    0x10000b0ec:            39 1f ff ff  sethi     %hi(0x7ffffc00), %i4
    0x10000b0f0:            c3 27 a7 fb  st        %f1, [%fp + 0x7fb]
    0x10000b0f4:            b6 17 60 01  or        %i5, 0x1, %i3
    0x10000b0f8:            ae 07 23 ff  add       %i4, 0x3ff, %l7
    0x10000b0fc:            b0 10 00 19  mov       %i1, %i0
    0x10000b100:            ad 2e f0 20  sllx      %i3, 0x20, %l6
    0x10000b104:            2b 00 00 2b  sethi     %hi(0xac00), %l5
    0x10000b108:            33 0f fa 60  sethi     %hi(0x3fe98000), %i1
    0x10000b10c:            a6 15 80 15  or        %l6, %l5, %l3
    0x10000b110:            9c 03 a0 00  add       %sp, 0x0, %sp
    0x10000b114:            9c 03 a0 00  add       %sp, 0x0, %sp
    0x10000b118:            9c 03 a0 00  add       %sp, 0x0, %sp
    0x10000b11c:            9c 03 a0 00  add       %sp, 0x0, %sp
    0x10000b120:            9c 03 a0 00  add       %sp, 0x0, %sp
    0x10000b124:            e2 07 a7 f7  ld        [%fp + 0x7f7], %l1
    0x10000b128:            a0 0c 40 17  and       %l1, %l7, %l0
    0x10000b12c:            80 a4 00 19  cmp       %l0, %i1
    0x10000b130:            06 40 02 79  bl,pn     %icc, +0x9e4  <0x10000bb14>
    0x10000b134:            ba 04 e3 40  add       %l3, 0x340, %i5
    0x10000b138:            a5 3c 20 14  sra       %l0, 0x14, %l2
    0x10000b13c:            80 a4 a4 02  cmp       %l2, 0x402
    0x10000b140:            16 40 01 64  bge,pn    %icc, +0x590  <0x10000b6d0>
    0x10000b144:            39 00 03 ff  sethi     %hi(0xffc00), %i4
    0x10000b148:            af a0 01 40  fabsd     %d0, %d54
    0x10000b14c:            ae 07 23 ff  add       %i4, 0x3ff, %l7
    0x10000b150:            b6 10 24 0d  mov       0x40d, %i3
    0x10000b154:            fb 1f 60 08  ldd       [%i5 + 0x8], %d60
    0x10000b158:            aa 0c 00 17  and       %l0, %l7, %l5
    0x10000b15c:            2d 00 04 00  sethi     %hi(0x100000), %l6
    0x10000b160:            e1 1f 60 18  ldd       [%i5 + 0x18], %d16
    0x10000b164:            90 26 c0 12  sub       %i3, %l2, %o0
    0x10000b168:            b2 15 40 16  or        %l5, %l6, %i1
    0x10000b16c:            f7 1f 60 10  ldd       [%i5 + 0x10], %d58
    0x10000b170:            27 00 00 00  sethi     %hi(0x0), %l3
    0x10000b174:            a9 3e 40 08  sra       %i1, %o0, %l4
    0x10000b178:            d9 1f 60 20  ldd       [%i5 + 0x20], %d12
    0x10000b17c:            9e 14 e0 01  or        %l3, 0x1, %o7
    0x10000b180:            19 00 00 3c  sethi     %hi(0xf000), %o4
    0x10000b184:            e4 07 a7 fb  ld        [%fp + 0x7fb], %l2
    0x10000b188:            9b 2b f0 20  sllx      %o7, 0x20, %o5
    0x10000b18c:            aa 05 3f f6  add       %l4, -0xa, %l5
    0x10000b190:            96 13 40 0c  or        %o5, %o4, %o3
    0x10000b194:            95 3d 60 00  sra       %l5, 0x0, %o2
    0x10000b198:            92 02 e1 58  add       %o3, 0x158, %o1
    0x10000b19c:            8b 2a b0 03  sllx      %o2, 0x3, %g5
    0x10000b1a0:            e5 19 40 09  ldd       [%g5 + %o1], %d18
    0x10000b1a4:            09 00 00 00  sethi     %hi(0x0), %g4
    0x10000b1a8:            b8 05 3d ff  add       %l4, -0x201, %i4
    0x10000b1ac:            ae 05 3e 13  add       %l4, -0x1ed, %l7
    0x10000b1b0:            90 05 3f 2d  add       %l4, -0xd3, %o0
    0x10000b1b4:            b6 05 3f 41  add       %l4, -0xbf, %i3
    0x10000b1b8:            82 11 20 01  or        %g4, 0x1, %g1
    0x10000b1bc:            9f a5 c8 d2  fsubd     %d54, %d18, %d46
    0x10000b1c0:            9e 05 3e c8  add       %l4, -0x138, %o7
    0x10000b1c4:            b2 05 3e dc  add       %l4, -0x124, %i1
    0x10000b1c8:            98 05 3f 91  add       %l4, -0x6f, %o4
    0x10000b1cc:            96 05 3f a5  add       %l4, -0x5b, %o3
    0x10000b1d0:            8a 05 40 15  add       %l5, %l5, %g5
    0x10000b1d4:            a6 1d c0 1c  xor       %l7, %i4, %l3
    0x10000b1d8:            9a 1e c0 08  xor       %i3, %o0, %o5
    0x10000b1dc:            94 1e 40 0f  xor       %i1, %o7, %o2
    0x10000b1e0:            b3 a3 c9 4f  fmuld     %d46, %d46, %d56
    0x10000b1e4:            af 39 60 00  sra       %g5, 0x0, %l7
    0x10000b1e8:            ad 28 70 20  sllx      %g1, 0x20, %l6
    0x10000b1ec:            bf a3 c9 5d  fmuld     %d46, %d60, %d62
    0x10000b1f0:            90 05 3e 64  add       %l4, -0x19c, %o0
    0x10000b1f4:            92 1a c0 0c  xor       %o3, %o4, %o1
    0x10000b1f8:            39 00 00 34  sethi     %hi(0xd000), %i4
    0x10000b1fc:            b6 05 3e 78  add       %l4, -0x188, %i3
    0x10000b200:            88 13 40 13  or        %o5, %l3, %g4
    0x10000b204:            a6 05 e0 01  add       %l7, 0x1, %l3
    0x10000b208:            9b a6 49 50  fmuld     %d56, %d16, %d44
    0x10000b20c:            9d a6 48 5b  faddd     %d56, %d58, %d14
    0x10000b210:            b6 1e c0 08  xor       %i3, %o0, %i3
    0x10000b214:            82 12 40 0a  or        %o1, %o2, %g1
    0x10000b218:            97 a7 c9 59  fmuld     %d62, %d56, %d42
    0x10000b21c:            9e 15 80 1c  or        %l6, %i4, %o7
    0x10000b220:            91 2d f0 03  sllx      %l7, 0x3, %o0
    0x10000b224:            9e 03 e1 f8  add       %o7, 0x1f8, %o7
    0x10000b228:            b2 10 40 04  or        %g1, %g4, %i1
    0x10000b22c:            af 2c f0 03  sllx      %l3, 0x3, %l7
    0x10000b230:            e7 1a 00 0f  ldd       [%o0 + %o7], %d50
    0x10000b234:            80 96 40 1b  orcc      %i1, %i3, %g0
    0x10000b238:            a9 a3 48 4c  faddd     %d44, %d12, %d20
    0x10000b23c:            eb 1d c0 0f  ldd       [%l7 + %o7], %d52
    0x10000b240:            a3 a2 c9 4e  fmuld     %d42, %d14, %d48
    0x10000b244:            a5 a6 49 54  fmuld     %d56, %d20, %d18
    0x10000b248:            16 40 01 0f  bge,pn    %icc, +0x43c  <0x10000b684>
    0x10000b24c:            bb a3 c8 51  faddd     %d46, %d48, %d60
    0x10000b250:            80 a5 60 65  cmp       %l5, 0x65
    0x10000b254:            14 40 00 32  bg,pn     %icc, +0xc8   <0x10000b31c>
    0x10000b258:            dd 1f 60 c8  ldd       [%i5 + 0xc8], %d14
    0x10000b25c:            80 a4 60 00  cmp       %l1, 0x0
    0x10000b260:            f3 1f 60 d0  ldd       [%i5 + 0xd0], %d56
    0x10000b264:            0b 30 01 b7  sethi     %hi(0xc006dc00), %g5
    0x10000b268:            09 15 11 00  sethi     %hi(0x54440000), %g4
    0x10000b26c:            a9 a4 c9 52  fmuld     %d50, %d18, %d20
    0x10000b270:            a3 a3 88 d7  fsubd     %d14, %d54, %d48
    0x10000b274:            97 a5 49 5d  fmuld     %d52, %d60, %d42
    0x10000b278:            ab a5 08 4b  faddd     %d20, %d42, %d52
    0x10000b27c:            06 40 00 05  bl,pn     %icc, +0x14   <0x10000b290>
    0x10000b280:            82 01 62 05  add       %g5, 0x205, %g1
    0x10000b284:            9f a4 c8 55  faddd     %d50, %d52, %d46
    0x10000b288:            10 80 00 05  ba        +0x14         <0x10000b29c>
    0x10000b28c:            94 24 80 04  sub       %l2, %g4, %o2
    0x10000b290:            9b a0 00 d3  fnegd     %d50, %d44
    0x10000b294:            94 24 80 04  sub       %l2, %g4, %o2
    0x10000b298:            9f a3 48 d5  fsubd     %d44, %d52, %d46
    0x10000b29c:            df 3e 20 00  std       %d46, [%i0]
    0x10000b2a0:            92 04 00 01  add       %l0, %g1, %o1
    0x10000b2a4:            b1 32 a0 10  srl       %o2, 0x10, %i0
    0x10000b2a8:            80 92 40 18  orcc      %o1, %i0, %g0
    0x10000b2ac:            12 40 00 09  bne,pn    %icc, +0x24   <0x10000b2d0>
    0x10000b2b0:            a7 a4 48 59  faddd     %d48, %d56, %d50
    0x10000b2b4:            ff 1f 60 d8  ldd       [%i5 + 0xd8], %d62
    0x10000b2b8:            e1 1f 60 e0  ldd       [%i5 + 0xe0], %d16
    0x10000b2bc:            b7 a4 48 5f  faddd     %d48, %d62, %d58
    0x10000b2c0:            99 a6 c8 50  faddd     %d58, %d16, %d12
    0x10000b2c4:            d9 3e a0 00  std       %d12, [%i2]
    0x10000b2c8:            81 c7 e0 08  ret
    0x10000b2cc:            81 e8 20 00  restore   %g0, 0x0, %g0
    0x10000b2d0:            9f a4 c9 53  fmuld     %d50, %d50, %d46
    0x10000b2d4:            e1 1f 60 30  ldd       [%i5 + 0x30], %d16
    0x10000b2d8:            f7 1f 60 28  ldd       [%i5 + 0x28], %d58
    0x10000b2dc:            ff 1f 60 38  ldd       [%i5 + 0x38], %d62
    0x10000b2e0:            ef 1f 60 40  ldd       [%i5 + 0x40], %d54
    0x10000b2e4:            97 a4 c9 5b  fmuld     %d50, %d58, %d42
    0x10000b2e8:            9b a3 c8 50  faddd     %d46, %d16, %d44
    0x10000b2ec:            eb 1f 60 d0  ldd       [%i5 + 0xd0], %d52
    0x10000b2f0:            99 a3 c8 5f  faddd     %d46, %d62, %d12
    0x10000b2f4:            9d a3 c9 4d  fmuld     %d46, %d44, %d14
    0x10000b2f8:            a7 a3 c9 4c  fmuld     %d46, %d12, %d50
    0x10000b2fc:            a9 a2 c9 4e  fmuld     %d42, %d14, %d20
    0x10000b300:            b3 a4 c8 57  faddd     %d50, %d54, %d56
    0x10000b304:            a5 a5 09 59  fmuld     %d20, %d56, %d18
    0x10000b308:            bb a4 88 55  faddd     %d18, %d52, %d60
    0x10000b30c:            a3 a4 48 5d  faddd     %d48, %d60, %d48
    0x10000b310:            e3 3e a0 00  std       %d48, [%i2]
    0x10000b314:            81 c7 e0 08  ret
    0x10000b318:            81 e8 20 00  restore   %g0, 0x0, %g0
    0x10000b31c:            80 a5 60 c9  cmp       %l5, 0xc9
    0x10000b320:            14 40 00 3a  bg,pn     %icc, +0xe8   <0x10000b408>
    0x10000b324:            df 1f 60 e8  ldd       [%i5 + 0xe8], %d46
    0x10000b328:            9d a5 49 52  fmuld     %d52, %d18, %d14
    0x10000b32c:            97 a4 c9 5d  fmuld     %d50, %d60, %d42
    0x10000b330:            f3 1f 60 f0  ldd       [%i5 + 0xf0], %d56
    0x10000b334:            27 15 11 00  sethi     %hi(0x54440000), %l3
    0x10000b338:            1f 2f fd b7  sethi     %hi(0xbff6dc00), %o7
    0x10000b33c:            a4 24 80 13  sub       %l2, %l3, %l2
    0x10000b340:            9a 03 e2 05  add       %o7, 0x205, %o5
    0x10000b344:            a3 a3 c8 d7  fsubd     %d46, %d54, %d48
    0x10000b348:            99 34 a0 10  srl       %l2, 0x10, %o4
    0x10000b34c:            96 04 00 0d  add       %l0, %o5, %o3
    0x10000b350:            80 92 c0 0c  orcc      %o3, %o4, %g0
    0x10000b354:            a9 a2 c8 ce  fsubd     %d42, %d14, %d20
    0x10000b358:            bb a4 48 59  faddd     %d48, %d56, %d60
    0x10000b35c:            a5 a5 48 d4  fsubd     %d52, %d20, %d18
    0x10000b360:            e5 3e a0 00  std       %d18, [%i2]
    0x10000b364:            12 40 00 10  bne,pn    %icc, +0x40   <0x10000b3a4>
    0x10000b368:            80 a4 60 00  cmp       %l1, 0x0
    0x10000b36c:            d9 1f 60 f8  ldd       [%i5 + 0xf8], %d12
    0x10000b370:            06 40 00 07  bl,pn     %icc, +0x1c   <0x10000b38c>
    0x10000b374:            9b a4 48 4c  faddd     %d48, %d12, %d44
    0x10000b378:            e1 1f 61 00  ldd       [%i5 + 0x100], %d16
    0x10000b37c:            b7 a3 48 50  faddd     %d44, %d16, %d58
    0x10000b380:            f7 3e 20 00  std       %d58, [%i0]
    0x10000b384:            81 c7 e0 08  ret
    0x10000b388:            81 e8 20 00  restore   %g0, 0x0, %g0
    0x10000b38c:            e3 1f 61 00  ldd       [%i5 + 0x100], %d48
    0x10000b390:            ab a3 48 51  faddd     %d44, %d48, %d52
    0x10000b394:            b7 a0 00 d5  fnegd     %d52, %d58
    0x10000b398:            f7 3e 20 00  std       %d58, [%i0]
    0x10000b39c:            81 c7 e0 08  ret
    0x10000b3a0:            81 e8 20 00  restore   %g0, 0x0, %g0
    0x10000b3a4:            b3 a7 49 5d  fmuld     %d60, %d60, %d56
    0x10000b3a8:            e1 1f 60 30  ldd       [%i5 + 0x30], %d16
    0x10000b3ac:            eb 1f 60 38  ldd       [%i5 + 0x38], %d52
    0x10000b3b0:            f7 1f 60 28  ldd       [%i5 + 0x28], %d58
    0x10000b3b4:            df 1f 60 40  ldd       [%i5 + 0x40], %d46
    0x10000b3b8:            99 a6 48 55  faddd     %d56, %d52, %d12
    0x10000b3bc:            ef 1f 60 f0  ldd       [%i5 + 0xf0], %d54
    0x10000b3c0:            9b a6 48 50  faddd     %d56, %d16, %d44
    0x10000b3c4:            a9 a7 49 5b  fmuld     %d60, %d58, %d20
    0x10000b3c8:            9d a6 49 4c  fmuld     %d56, %d12, %d14
    0x10000b3cc:            97 a6 49 4d  fmuld     %d56, %d44, %d42
    0x10000b3d0:            a5 a3 88 4f  faddd     %d14, %d46, %d18
    0x10000b3d4:            bb a5 09 4b  fmuld     %d20, %d42, %d60
    0x10000b3d8:            bf a7 49 52  fmuld     %d60, %d18, %d62
    0x10000b3dc:            06 40 00 06  bl,pn     %icc, +0x18   <0x10000b3f4>
    0x10000b3e0:            a7 a7 c8 57  faddd     %d62, %d54, %d50
    0x10000b3e4:            a7 a4 48 53  faddd     %d48, %d50, %d50
    0x10000b3e8:            e7 3e 20 00  std       %d50, [%i0]
    0x10000b3ec:            81 c7 e0 08  ret
    0x10000b3f0:            81 e8 20 00  restore   %g0, 0x0, %g0
    0x10000b3f4:            af a0 00 d1  fnegd     %d48, %d54
    0x10000b3f8:            a7 a5 c8 d3  fsubd     %d54, %d50, %d50
    0x10000b3fc:            e7 3e 20 00  std       %d50, [%i0]
    0x10000b400:            81 c7 e0 08  ret
    0x10000b404:            81 e8 20 00  restore   %g0, 0x0, %g0
    0x10000b408:            80 a5 61 2e  cmp       %l5, 0x12e
    0x10000b40c:            14 40 00 32  bg,pn     %icc, +0xc8   <0x10000b4d4>
    0x10000b410:            d7 1f 61 08  ldd       [%i5 + 0x108], %d42
    0x10000b414:            a9 a5 49 5d  fmuld     %d52, %d60, %d20
    0x10000b418:            bb a4 c9 52  fmuld     %d50, %d18, %d60
    0x10000b41c:            80 a4 60 00  cmp       %l1, 0x0
    0x10000b420:            e5 1f 61 10  ldd       [%i5 + 0x110], %d18
    0x10000b424:            33 2f fb 49  sethi     %hi(0xbfed2400), %i1
    0x10000b428:            11 1f cc c0  sethi     %hi(0x7f330000), %o0
    0x10000b42c:            a3 a5 c8 cb  fsubd     %d54, %d42, %d48
    0x10000b430:            bf a7 48 54  faddd     %d60, %d20, %d62
    0x10000b434:            06 40 00 05  bl,pn     %icc, +0x14   <0x10000b448>
    0x10000b438:            a8 06 62 84  add       %i1, 0x284, %l4
    0x10000b43c:            9d a4 c8 5f  faddd     %d50, %d62, %d14
    0x10000b440:            10 80 00 05  ba        +0x14         <0x10000b454>
    0x10000b444:            ae 24 80 08  sub       %l2, %o0, %l7
    0x10000b448:            9f a0 00 d3  fnegd     %d50, %d46
    0x10000b44c:            ae 24 80 08  sub       %l2, %o0, %l7
    0x10000b450:            9d a3 c8 df  fsubd     %d46, %d62, %d14
    0x10000b454:            aa 04 00 14  add       %l0, %l4, %l5
    0x10000b458:            ad 35 e0 10  srl       %l7, 0x10, %l6
    0x10000b45c:            9b a4 48 d2  fsubd     %d48, %d18, %d44
    0x10000b460:            80 95 40 16  orcc      %l5, %l6, %g0
    0x10000b464:            12 40 00 09  bne,pn    %icc, +0x24   <0x10000b488>
    0x10000b468:            dd 3e 20 00  std       %d14, [%i0]
    0x10000b46c:            eb 1f 61 18  ldd       [%i5 + 0x118], %d52
    0x10000b470:            e1 1f 61 20  ldd       [%i5 + 0x120], %d16
    0x10000b474:            b7 a4 48 d5  fsubd     %d48, %d52, %d58
    0x10000b478:            99 a6 c8 d0  fsubd     %d58, %d16, %d12
    0x10000b47c:            d9 3e a0 00  std       %d12, [%i2]
    0x10000b480:            81 c7 e0 08  ret
    0x10000b484:            81 e8 20 00  restore   %g0, 0x0, %g0
    0x10000b488:            9d a3 49 4d  fmuld     %d44, %d44, %d14
    0x10000b48c:            e1 1f 60 30  ldd       [%i5 + 0x30], %d16
    0x10000b490:            f7 1f 60 28  ldd       [%i5 + 0x28], %d58
    0x10000b494:            eb 1f 60 38  ldd       [%i5 + 0x38], %d52
    0x10000b498:            ef 1f 60 40  ldd       [%i5 + 0x40], %d54
    0x10000b49c:            a9 a3 49 5b  fmuld     %d44, %d58, %d20
    0x10000b4a0:            9f a3 88 50  faddd     %d14, %d16, %d46
    0x10000b4a4:            e5 1f 61 10  ldd       [%i5 + 0x110], %d18
    0x10000b4a8:            99 a3 88 55  faddd     %d14, %d52, %d12
    0x10000b4ac:            97 a3 89 4f  fmuld     %d14, %d46, %d42
    0x10000b4b0:            9b a3 89 4c  fmuld     %d14, %d12, %d44
    0x10000b4b4:            bb a5 09 4b  fmuld     %d20, %d42, %d60
    0x10000b4b8:            a7 a3 48 57  faddd     %d44, %d54, %d50
    0x10000b4bc:            bf a7 49 53  fmuld     %d60, %d50, %d62
    0x10000b4c0:            b3 a7 c8 d2  fsubd     %d62, %d18, %d56
    0x10000b4c4:            a3 a4 48 59  faddd     %d48, %d56, %d48
    0x10000b4c8:            e3 3e a0 00  std       %d48, [%i2]
    0x10000b4cc:            81 c7 e0 08  ret
    0x10000b4d0:            81 e8 20 00  restore   %g0, 0x0, %g0
    0x10000b4d4:            80 a5 61 92  cmp       %l5, 0x192
    0x10000b4d8:            14 40 00 3a  bg,pn     %icc, +0xe8   <0x10000b5c0>
    0x10000b4dc:            d7 1f 61 28  ldd       [%i5 + 0x128], %d42
    0x10000b4e0:            a9 a5 49 52  fmuld     %d52, %d18, %d20
    0x10000b4e4:            a7 a4 c9 5d  fmuld     %d50, %d60, %d50
    0x10000b4e8:            fb 1f 61 30  ldd       [%i5 + 0x130], %d60
    0x10000b4ec:            13 15 11 00  sethi     %hi(0x54440000), %o1
    0x10000b4f0:            0b 2f f9 b7  sethi     %hi(0xbfe6dc00), %g5
    0x10000b4f4:            88 24 80 09  sub       %l2, %o1, %g4
    0x10000b4f8:            82 01 62 05  add       %g5, 0x205, %g1
    0x10000b4fc:            a3 a5 c8 cb  fsubd     %d54, %d42, %d48
    0x10000b500:            b9 31 20 10  srl       %g4, 0x10, %i4
    0x10000b504:            b6 04 00 01  add       %l0, %g1, %i3
    0x10000b508:            80 96 c0 1c  orcc      %i3, %i4, %g0
    0x10000b50c:            a5 a4 c8 d4  fsubd     %d50, %d20, %d18
    0x10000b510:            b3 a4 48 dd  fsubd     %d48, %d60, %d56
    0x10000b514:            bf a5 48 d2  fsubd     %d52, %d18, %d62
    0x10000b518:            ff 3e a0 00  std       %d62, [%i2]
    0x10000b51c:            12 40 00 10  bne,pn    %icc, +0x40   <0x10000b55c>
    0x10000b520:            80 a4 60 00  cmp       %l1, 0x0
    0x10000b524:            dd 1f 61 38  ldd       [%i5 + 0x138], %d14
    0x10000b528:            06 40 00 07  bl,pn     %icc, +0x1c   <0x10000b544>
    0x10000b52c:            9b a4 48 ce  fsubd     %d48, %d14, %d44
    0x10000b530:            d9 1f 61 40  ldd       [%i5 + 0x140], %d12
    0x10000b534:            9f a3 48 cc  fsubd     %d44, %d12, %d46
    0x10000b538:            df 3e 20 00  std       %d46, [%i0]
    0x10000b53c:            81 c7 e0 08  ret
    0x10000b540:            81 e8 20 00  restore   %g0, 0x0, %g0
    0x10000b544:            e3 1f 61 40  ldd       [%i5 + 0x140], %d48
    0x10000b548:            a1 a3 48 d1  fsubd     %d44, %d48, %d16
    0x10000b54c:            9f a0 00 d0  fnegd     %d16, %d46
    0x10000b550:            df 3e 20 00  std       %d46, [%i0]
    0x10000b554:            81 c7 e0 08  ret
    0x10000b558:            81 e8 20 00  restore   %g0, 0x0, %g0
    0x10000b55c:            97 a6 49 59  fmuld     %d56, %d56, %d42
    0x10000b560:            d9 1f 60 30  ldd       [%i5 + 0x30], %d12
    0x10000b564:            e1 1f 60 38  ldd       [%i5 + 0x38], %d16
    0x10000b568:            df 1f 60 28  ldd       [%i5 + 0x28], %d46
    0x10000b56c:            e9 1f 60 40  ldd       [%i5 + 0x40], %d20
    0x10000b570:            9d a2 c8 50  faddd     %d42, %d16, %d14
    0x10000b574:            f7 1f 61 30  ldd       [%i5 + 0x130], %d58
    0x10000b578:            9b a2 c8 4c  faddd     %d42, %d12, %d44
    0x10000b57c:            a5 a6 49 4f  fmuld     %d56, %d46, %d18
    0x10000b580:            a7 a2 c9 4e  fmuld     %d42, %d14, %d50
    0x10000b584:            bb a2 c9 4d  fmuld     %d42, %d44, %d60
    0x10000b588:            bf a4 c8 54  faddd     %d50, %d20, %d62
    0x10000b58c:            b3 a4 89 5d  fmuld     %d18, %d60, %d56
    0x10000b590:            af a6 49 5f  fmuld     %d56, %d62, %d54
    0x10000b594:            06 40 00 06  bl,pn     %icc, +0x18   <0x10000b5ac>
    0x10000b598:            ab a5 c8 db  fsubd     %d54, %d58, %d52
    0x10000b59c:            ab a4 48 55  faddd     %d48, %d52, %d52
    0x10000b5a0:            eb 3e 20 00  std       %d52, [%i0]
    0x10000b5a4:            81 c7 e0 08  ret
    0x10000b5a8:            81 e8 20 00  restore   %g0, 0x0, %g0
    0x10000b5ac:            af a0 00 d1  fnegd     %d48, %d54
    0x10000b5b0:            ab a5 c8 d5  fsubd     %d54, %d52, %d52
    0x10000b5b4:            eb 3e 20 00  std       %d52, [%i0]
    0x10000b5b8:            81 c7 e0 08  ret
    0x10000b5bc:            81 e8 20 00  restore   %g0, 0x0, %g0
    0x10000b5c0:            a5 a4 c9 52  fmuld     %d50, %d18, %d18
    0x10000b5c4:            e9 1f 61 48  ldd       [%i5 + 0x148], %d20
    0x10000b5c8:            80 a4 60 00  cmp       %l1, 0x0
    0x10000b5cc:            19 2f f8 25  sethi     %hi(0xbfe09400), %o4
    0x10000b5d0:            bf a5 49 5d  fmuld     %d52, %d60, %d62
    0x10000b5d4:            f3 1f 61 50  ldd       [%i5 + 0x150], %d56
    0x10000b5d8:            17 0a 55 40  sethi     %hi(0x29550000), %o3
    0x10000b5dc:            a3 a5 08 d7  fsubd     %d20, %d54, %d48
    0x10000b5e0:            b7 a4 88 5f  faddd     %d18, %d62, %d58
    0x10000b5e4:            06 40 00 05  bl,pn     %icc, +0x14   <0x10000b5f8>
    0x10000b5e8:            94 03 21 86  add       %o4, 0x186, %o2
    0x10000b5ec:            bb a4 c8 5b  faddd     %d50, %d58, %d60
    0x10000b5f0:            10 80 00 05  ba        +0x14         <0x10000b604>
    0x10000b5f4:            9e 24 80 0b  sub       %l2, %o3, %o7
    0x10000b5f8:            97 a0 00 d3  fnegd     %d50, %d42
    0x10000b5fc:            9e 24 80 0b  sub       %l2, %o3, %o7
    0x10000b600:            bb a2 c8 db  fsubd     %d42, %d58, %d60
    0x10000b604:            fb 3e 20 00  std       %d60, [%i0]
    0x10000b608:            9a 04 00 0a  add       %l0, %o2, %o5
    0x10000b60c:            b1 33 e0 10  srl       %o7, 0x10, %i0
    0x10000b610:            80 93 40 18  orcc      %o5, %i0, %g0
    0x10000b614:            12 40 00 09  bne,pn    %icc, +0x24   <0x10000b638>
    0x10000b618:            a7 a4 48 59  faddd     %d48, %d56, %d50
    0x10000b61c:            d9 1f 61 58  ldd       [%i5 + 0x158], %d12
    0x10000b620:            df 1f 61 60  ldd       [%i5 + 0x160], %d46
    0x10000b624:            9d a4 48 4c  faddd     %d48, %d12, %d14
    0x10000b628:            9b a3 88 4f  faddd     %d14, %d46, %d44
    0x10000b62c:            db 3e a0 00  std       %d44, [%i2]
    0x10000b630:            81 c7 e0 08  ret
    0x10000b634:            81 e8 20 00  restore   %g0, 0x0, %g0
    0x10000b638:            b3 a4 c9 53  fmuld     %d50, %d50, %d56
    0x10000b63c:            dd 1f 60 28  ldd       [%i5 + 0x28], %d14
    0x10000b640:            d9 1f 60 38  ldd       [%i5 + 0x38], %d12
    0x10000b644:            df 1f 60 30  ldd       [%i5 + 0x30], %d46
    0x10000b648:            a9 a4 c9 4e  fmuld     %d50, %d14, %d20
    0x10000b64c:            ef 1f 60 40  ldd       [%i5 + 0x40], %d54
    0x10000b650:            9b a6 48 4c  faddd     %d56, %d12, %d44
    0x10000b654:            f7 1f 61 50  ldd       [%i5 + 0x150], %d58
    0x10000b658:            bb a6 48 4f  faddd     %d56, %d46, %d60
    0x10000b65c:            a7 a6 49 4d  fmuld     %d56, %d44, %d50
    0x10000b660:            97 a6 49 5d  fmuld     %d56, %d60, %d42
    0x10000b664:            bf a4 c8 57  faddd     %d50, %d54, %d62
    0x10000b668:            a5 a5 09 4b  fmuld     %d20, %d42, %d18
    0x10000b66c:            ab a4 89 5f  fmuld     %d18, %d62, %d52
    0x10000b670:            a1 a5 48 5b  faddd     %d52, %d58, %d16
    0x10000b674:            a3 a4 48 50  faddd     %d48, %d16, %d48
    0x10000b678:            e3 3e a0 00  std       %d48, [%i2]
    0x10000b67c:            81 c7 e0 08  ret
    0x10000b680:            81 e8 20 00  restore   %g0, 0x0, %g0
    0x10000b684:            bf a5 49 52  fmuld     %d52, %d18, %d62
    0x10000b688:            80 a4 60 00  cmp       %l1, 0x0
    0x10000b68c:            a3 a4 c9 5d  fmuld     %d50, %d60, %d48
    0x10000b690:            a9 a5 49 5d  fmuld     %d52, %d60, %d20
    0x10000b694:            a5 a4 c9 52  fmuld     %d50, %d18, %d18
    0x10000b698:            b7 a4 48 df  fsubd     %d48, %d62, %d58
    0x10000b69c:            a1 a4 88 54  faddd     %d18, %d20, %d16
    0x10000b6a0:            ab a5 48 db  fsubd     %d52, %d58, %d52
    0x10000b6a4:            06 40 00 06  bl,pn     %icc, +0x18   <0x10000b6bc>
    0x10000b6a8:            eb 3e a0 00  std       %d52, [%i2]
    0x10000b6ac:            97 a4 c8 50  faddd     %d50, %d16, %d42
    0x10000b6b0:            d7 3e 20 00  std       %d42, [%i0]
    0x10000b6b4:            81 c7 e0 08  ret
    0x10000b6b8:            81 e8 20 00  restore   %g0, 0x0, %g0
    0x10000b6bc:            a7 a0 00 d3  fnegd     %d50, %d50
    0x10000b6c0:            97 a4 c8 d0  fsubd     %d50, %d16, %d42
    0x10000b6c4:            d7 3e 20 00  std       %d42, [%i0]
    0x10000b6c8:            81 c7 e0 08  ret
    0x10000b6cc:            81 e8 20 00  restore   %g0, 0x0, %g0
    0x10000b6d0:            80 a4 a4 12  cmp       %l2, 0x412
    0x10000b6d4:            16 40 00 ae  bge,pn    %icc, +0x2b8  <0x10000b98c>
    0x10000b6d8:            fb 1f 61 68  ldd       [%i5 + 0x168], %d60
    0x10000b6dc:            80 90 00 11  tst       %l1
    0x10000b6e0:            06 40 00 06  bl,pn     %icc, +0x18   <0x10000b6f8>
    0x10000b6e4:            af a0 09 5d  fmuld     %d0, %d60, %d54
    0x10000b6e8:            dd 1f 61 70  ldd       [%i5 + 0x170], %d14
    0x10000b6ec:            9b a5 c8 4e  faddd     %d54, %d14, %d44
    0x10000b6f0:            10 80 00 05  ba        +0x14         <0x10000b704>
    0x10000b6f4:            91 a0 1a 4d  fdtoi     %d44, %f8
    0x10000b6f8:            df 1f 60 60  ldd       [%i5 + 0x60], %d46
    0x10000b6fc:            9b a5 c8 4f  faddd     %d54, %d46, %d44
    0x10000b700:            91 a0 1a 4d  fdtoi     %d44, %f8
    0x10000b704:            99 a0 19 08  fitod     %f8, %d12
    0x10000b708:            f3 1f 61 88  ldd       [%i5 + 0x188], %d56
    0x10000b70c:            e3 1f 61 78  ldd       [%i5 + 0x178], %d48
    0x10000b710:            e9 1f 61 80  ldd       [%i5 + 0x180], %d20
    0x10000b714:            a5 a5 c8 cc  fsubd     %d54, %d12, %d18
    0x10000b718:            b7 a3 09 51  fmuld     %d12, %d48, %d58
    0x10000b71c:            b5 a3 09 54  fmuld     %d12, %d20, %d26
    0x10000b720:            a1 a0 01 52  fabsd     %d18, %d16
    0x10000b724:            81 ac 0a d9  fcmped    %fcc0, %d16, %d56
    0x10000b728:            1d 40 00 5b  fbule,pn  %fcc0, +0x16c  <0x10000b894>
    0x10000b72c:            9d a0 08 db  fsubd     %d0, %d58, %d14
    0x10000b730:            db 1f 60 98  ldd       [%i5 + 0x98], %d44
    0x10000b734:            f3 1f 60 78  ldd       [%i5 + 0x78], %d56
    0x10000b738:            8d a0 1a 4c  fdtoi     %d12, %f6
    0x10000b73c:            d7 1f 60 a8  ldd       [%i5 + 0xa8], %d42
    0x10000b740:            e5 1f 60 70  ldd       [%i5 + 0x70], %d18
    0x10000b744:            bd a3 88 da  fsubd     %d14, %d26, %d30
    0x10000b748:            ef 1f 60 b8  ldd       [%i5 + 0xb8], %d54
    0x10000b74c:            eb 1f 60 88  ldd       [%i5 + 0x88], %d52
    0x10000b750:            e7 1f 60 a0  ldd       [%i5 + 0xa0], %d50
    0x10000b754:            e1 1f 60 60  ldd       [%i5 + 0x60], %d16
    0x10000b758:            89 a0 18 de  fdtos     %d30, %f4
    0x10000b75c:            b9 a7 89 5e  fmuld     %d30, %d30, %d28
    0x10000b760:            d9 1f 60 90  ldd       [%i5 + 0x90], %d12
    0x10000b764:            9f a7 89 52  fmuld     %d30, %d18, %d46
    0x10000b768:            e5 1f 60 c0  ldd       [%i5 + 0xc0], %d18
    0x10000b76c:            cd 23 a8 af  st        %f6, [%sp + 0x8af]
    0x10000b770:            ed 1c e3 40  ldd       [%l3 + 0x340], %d22
    0x10000b774:            b1 a0 19 24  fstod     %f4, %d24
    0x10000b778:            bf a7 09 4d  fmuld     %d28, %d44, %d62
    0x10000b77c:            db 1f 60 b0  ldd       [%i5 + 0xb0], %d44
    0x10000b780:            b7 a7 08 59  faddd     %d28, %d56, %d58
    0x10000b784:            a3 a7 09 5c  fmuld     %d28, %d28, %d48
    0x10000b788:            bb a7 08 4b  faddd     %d28, %d42, %d60
    0x10000b78c:            d7 1f 60 80  ldd       [%i5 + 0x80], %d42
    0x10000b790:            b3 a7 08 57  faddd     %d28, %d54, %d56
    0x10000b794:            af a3 88 d8  fsubd     %d14, %d24, %d54
    0x10000b798:            a9 a7 c9 5c  fmuld     %d62, %d28, %d20
    0x10000b79c:            dd 1f 60 68  ldd       [%i5 + 0x68], %d14
    0x10000b7a0:            bf a7 08 55  faddd     %d28, %d52, %d62
    0x10000b7a4:            b7 a7 09 5b  fmuld     %d28, %d58, %d58
    0x10000b7a8:            ab a7 08 53  faddd     %d28, %d50, %d52
    0x10000b7ac:            bb a7 09 5d  fmuld     %d28, %d60, %d60
    0x10000b7b0:            a7 a3 c9 51  fmuld     %d46, %d48, %d50
    0x10000b7b4:            e2 03 a8 af  ld        [%sp + 0x8af], %l1
    0x10000b7b8:            b5 a5 c8 da  fsubd     %d54, %d26, %d26
    0x10000b7bc:            b3 a7 09 59  fmuld     %d28, %d56, %d56
    0x10000b7c0:            af a6 c8 4b  faddd     %d58, %d42, %d54
    0x10000b7c4:            9f a7 09 5f  fmuld     %d28, %d62, %d46
    0x10000b7c8:            a0 0c 60 03  and       %l1, 0x3, %l0
    0x10000b7cc:            9b a7 48 4d  faddd     %d60, %d44, %d44
    0x10000b7d0:            bb a5 09 55  fmuld     %d20, %d52, %d60
    0x10000b7d4:            80 a4 20 02  cmp       %l0, 0x2
    0x10000b7d8:            ab a6 09 50  fmuld     %d24, %d16, %d52
    0x10000b7dc:            97 a6 89 50  fmuld     %d26, %d16, %d42
    0x10000b7e0:            a3 a6 48 52  faddd     %d56, %d18, %d48
    0x10000b7e4:            a5 a3 c8 4c  faddd     %d46, %d12, %d18
    0x10000b7e8:            b7 a4 c9 57  fmuld     %d50, %d54, %d58
    0x10000b7ec:            a9 a7 49 4d  fmuld     %d60, %d44, %d20
    0x10000b7f0:            bf a7 89 4e  fmuld     %d30, %d14, %d62
    0x10000b7f4:            b3 a6 08 cb  fsubd     %d24, %d42, %d56
    0x10000b7f8:            af a5 49 58  fmuld     %d52, %d24, %d54
    0x10000b7fc:            a1 a6 c9 52  fmuld     %d58, %d18, %d16
    0x10000b800:            99 a5 09 51  fmuld     %d20, %d48, %d12
    0x10000b804:            9b a7 c9 5c  fmuld     %d62, %d28, %d44
    0x10000b808:            9f a6 89 59  fmuld     %d26, %d56, %d46
    0x10000b80c:            9d a6 88 50  faddd     %d26, %d16, %d14
    0x10000b810:            bb a3 c8 cc  fsubd     %d46, %d12, %d60
    0x10000b814:            a7 a3 48 4e  faddd     %d44, %d14, %d50
    0x10000b818:            97 a5 c8 dd  fsubd     %d54, %d60, %d42
    0x10000b81c:            ab a6 08 53  faddd     %d24, %d50, %d52
    0x10000b820:            06 40 00 10  bl,pn     %icc, +0x40   <0x10000b860>
    0x10000b824:            bf a2 c8 56  faddd     %d42, %d22, %d62
    0x10000b828:            02 40 00 08  be,pn     %icc, +0x20   <0x10000b848>
    0x10000b82c:            80 a4 20 03  cmp       %l0, 0x3
    0x10000b830:            12 40 01 2f  bne,pn    %icc, +0x4bc  <0x10000bcec>
    0x10000b834:            9f a0 00 df  fnegd     %d62, %d46
    0x10000b838:            df 3e 20 00  std       %d46, [%i0]
    0x10000b83c:            eb 3e a0 00  std       %d52, [%i2]
    0x10000b840:            81 c7 e0 08  ret
    0x10000b844:            81 e8 20 00  restore   %g0, 0x0, %g0
    0x10000b848:            b7 a0 00 d5  fnegd     %d52, %d58
    0x10000b84c:            f7 3e 20 00  std       %d58, [%i0]
    0x10000b850:            99 a0 00 df  fnegd     %d62, %d12
    0x10000b854:            d9 3e a0 00  std       %d12, [%i2]
    0x10000b858:            81 c7 e0 08  ret
    0x10000b85c:            81 e8 20 00  restore   %g0, 0x0, %g0
    0x10000b860:            80 a4 20 00  cmp       %l0, 0x0
    0x10000b864:            02 40 00 08  be,pn     %icc, +0x20   <0x10000b884>
    0x10000b868:            80 a4 20 01  cmp       %l0, 0x1
    0x10000b86c:            12 40 01 20  bne,pn    %icc, +0x480  <0x10000bcec>
    0x10000b870:            bb a0 00 d5  fnegd     %d52, %d60
    0x10000b874:            ff 3e 20 00  std       %d62, [%i0]
    0x10000b878:            fb 3e a0 00  std       %d60, [%i2]
    0x10000b87c:            81 c7 e0 08  ret
    0x10000b880:            81 e8 20 00  restore   %g0, 0x0, %g0
    0x10000b884:            eb 3e 20 00  std       %d52, [%i0]
    0x10000b888:            ff 3e a0 00  std       %d62, [%i2]
    0x10000b88c:            81 c7 e0 08  ret
    0x10000b890:            81 e8 20 00  restore   %g0, 0x0, %g0
    0x10000b894:            df 1f 61 90  ldd       [%i5 + 0x190], %d46
    0x10000b898:            85 a0 1a 4c  fdtoi     %d12, %f2
    0x10000b89c:            d7 1f 61 98  ldd       [%i5 + 0x198], %d42
    0x10000b8a0:            f3 1f 60 08  ldd       [%i5 + 0x8], %d56
    0x10000b8a4:            a5 a3 09 4f  fmuld     %d12, %d46, %d18
    0x10000b8a8:            ef 1f 60 18  ldd       [%i5 + 0x18], %d54
    0x10000b8ac:            ab a3 09 4b  fmuld     %d12, %d42, %d52
    0x10000b8b0:            e7 1f 60 10  ldd       [%i5 + 0x10], %d50
    0x10000b8b4:            e3 1f 60 20  ldd       [%i5 + 0x20], %d48
    0x10000b8b8:            c5 23 a8 af  st        %f2, [%sp + 0x8af]
    0x10000b8bc:            99 a3 88 d2  fsubd     %d14, %d18, %d12
    0x10000b8c0:            e9 1c e3 40  ldd       [%l3 + 0x340], %d20
    0x10000b8c4:            97 a3 08 d5  fsubd     %d12, %d52, %d42
    0x10000b8c8:            bb a3 88 cc  fsubd     %d14, %d12, %d60
    0x10000b8cc:            9b a2 c9 4b  fmuld     %d42, %d42, %d44
    0x10000b8d0:            bf a3 08 cb  fsubd     %d12, %d42, %d62
    0x10000b8d4:            e6 03 a8 af  ld        [%sp + 0x8af], %l3
    0x10000b8d8:            a1 a2 c9 59  fmuld     %d42, %d56, %d16
    0x10000b8dc:            9d a7 48 d2  fsubd     %d60, %d18, %d14
    0x10000b8e0:            a4 0c e0 03  and       %l3, 0x3, %l2
    0x10000b8e4:            80 a4 a0 02  cmp       %l2, 0x2
    0x10000b8e8:            9f a7 c8 d5  fsubd     %d62, %d52, %d46
    0x10000b8ec:            b7 a3 49 57  fmuld     %d44, %d54, %d58
    0x10000b8f0:            99 a3 48 53  faddd     %d44, %d50, %d12
    0x10000b8f4:            bb a4 09 4d  fmuld     %d16, %d44, %d60
    0x10000b8f8:            af a3 c8 4e  faddd     %d46, %d14, %d54
    0x10000b8fc:            a5 a6 c8 51  faddd     %d58, %d48, %d18
    0x10000b900:            b3 a7 49 4c  fmuld     %d60, %d12, %d56
    0x10000b904:            a7 a2 c9 57  fmuld     %d42, %d54, %d50
    0x10000b908:            ab a3 49 52  fmuld     %d44, %d18, %d52
    0x10000b90c:            bf a5 c8 59  faddd     %d54, %d56, %d62
    0x10000b910:            a1 a4 c8 d5  fsubd     %d50, %d52, %d16
    0x10000b914:            a3 a2 c8 5f  faddd     %d42, %d62, %d48
    0x10000b918:            06 40 00 10  bl,pn     %icc, +0x40   <0x10000b958>
    0x10000b91c:            9d a5 08 d0  fsubd     %d20, %d16, %d14
    0x10000b920:            02 40 00 08  be,pn     %icc, +0x20   <0x10000b940>
    0x10000b924:            80 a4 a0 03  cmp       %l2, 0x3
    0x10000b928:            12 40 00 f1  bne,pn    %icc, +0x3c4  <0x10000bcec>
    0x10000b92c:            a1 a0 00 ce  fnegd     %d14, %d16
    0x10000b930:            e1 3e 20 00  std       %d16, [%i0]
    0x10000b934:            e3 3e a0 00  std       %d48, [%i2]
    0x10000b938:            81 c7 e0 08  ret
    0x10000b93c:            81 e8 20 00  restore   %g0, 0x0, %g0
    0x10000b940:            b7 a0 00 d1  fnegd     %d48, %d58
    0x10000b944:            f7 3e 20 00  std       %d58, [%i0]
    0x10000b948:            9d a0 00 ce  fnegd     %d14, %d14
    0x10000b94c:            dd 3e a0 00  std       %d14, [%i2]
    0x10000b950:            81 c7 e0 08  ret
    0x10000b954:            81 e8 20 00  restore   %g0, 0x0, %g0
    0x10000b958:            80 a4 a0 00  cmp       %l2, 0x0
    0x10000b95c:            02 40 00 08  be,pn     %icc, +0x20   <0x10000b97c>
    0x10000b960:            80 a4 a0 01  cmp       %l2, 0x1
    0x10000b964:            12 40 00 e2  bne,pn    %icc, +0x388  <0x10000bcec>
    0x10000b968:            9b a0 00 d1  fnegd     %d48, %d44
    0x10000b96c:            dd 3e 20 00  std       %d14, [%i0]
    0x10000b970:            db 3e a0 00  std       %d44, [%i2]
    0x10000b974:            81 c7 e0 08  ret
    0x10000b978:            81 e8 20 00  restore   %g0, 0x0, %g0
    0x10000b97c:            e3 3e 20 00  std       %d48, [%i0]
    0x10000b980:            dd 3e a0 00  std       %d14, [%i2]
    0x10000b984:            81 c7 e0 08  ret
    0x10000b988:            81 e8 20 00  restore   %g0, 0x0, %g0
    0x10000b98c:            80 a4 a7 ff  cmp       %l2, 0x7ff
    0x10000b990:            06 40 00 07  bl,pn     %icc, +0x1c   <0x10000b9ac>
    0x10000b994:            01 00 00 00  nop
    0x10000b998:            a5 a0 09 c0  fdivd     %d0, %d0, %d18
    0x10000b99c:            e5 3e a0 00  std       %d18, [%i2]
    0x10000b9a0:            e5 3e 20 00  std       %d18, [%i0]
    0x10000b9a4:            81 c7 e0 08  ret
    0x10000b9a8:            81 e8 20 00  restore   %g0, 0x0, %g0
    0x10000b9ac:            40 00 00 dd  call      +0x374        <0x10000bd20>
    0x10000b9b0:            92 07 a7 e7  add       %fp, 0x7e7, %o1
    0x10000b9b4:            eb 1f a7 e7  ldd       [%fp + 0x7e7], %d52
    0x10000b9b8:            a8 0a 20 03  and       %o0, 0x3, %l4
    0x10000b9bc:            d7 1f a7 ef  ldd       [%fp + 0x7ef], %d42
    0x10000b9c0:            80 a5 20 02  cmp       %l4, 0x2
    0x10000b9c4:            df 1f 60 98  ldd       [%i5 + 0x98], %d46
    0x10000b9c8:            f7 1f 60 a8  ldd       [%i5 + 0xa8], %d58
    0x10000b9cc:            bd a5 48 4b  faddd     %d52, %d42, %d30
    0x10000b9d0:            e5 1f 60 70  ldd       [%i5 + 0x70], %d18
    0x10000b9d4:            f3 1f 60 78  ldd       [%i5 + 0x78], %d56
    0x10000b9d8:            e7 1f 60 b8  ldd       [%i5 + 0xb8], %d50
    0x10000b9dc:            ef 1f 60 a0  ldd       [%i5 + 0xa0], %d54
    0x10000b9e0:            b9 a7 89 5e  fmuld     %d30, %d30, %d28
    0x10000b9e4:            81 a0 18 de  fdtos     %d30, %f0
    0x10000b9e8:            e3 1f 60 88  ldd       [%i5 + 0x88], %d48
    0x10000b9ec:            9b a7 89 52  fmuld     %d30, %d18, %d44
    0x10000b9f0:            e9 1f 60 b0  ldd       [%i5 + 0xb0], %d20
    0x10000b9f4:            e5 1f 60 80  ldd       [%i5 + 0x80], %d18
    0x10000b9f8:            e1 1f 60 60  ldd       [%i5 + 0x60], %d16
    0x10000b9fc:            bf a7 09 4f  fmuld     %d28, %d46, %d62
    0x10000ba00:            b5 a0 19 20  fstod     %f0, %d26
    0x10000ba04:            d9 1f 60 90  ldd       [%i5 + 0x90], %d12
    0x10000ba08:            bb a7 08 5b  faddd     %d28, %d58, %d60
    0x10000ba0c:            9f a7 09 5c  fmuld     %d28, %d28, %d46
    0x10000ba10:            dd 1f 60 c0  ldd       [%i5 + 0xc0], %d14
    0x10000ba14:            b7 a7 08 59  faddd     %d28, %d56, %d58
    0x10000ba18:            f1 1f 60 68  ldd       [%i5 + 0x68], %d24
    0x10000ba1c:            af a7 08 57  faddd     %d28, %d54, %d54
    0x10000ba20:            ed 1f 60 00  ldd       [%i5], %d22
    0x10000ba24:            b3 a5 48 da  fsubd     %d52, %d26, %d56
    0x10000ba28:            bf a7 c9 5c  fmuld     %d62, %d28, %d62
    0x10000ba2c:            ab a7 08 53  faddd     %d28, %d50, %d52
    0x10000ba30:            bb a7 09 5d  fmuld     %d28, %d60, %d60
    0x10000ba34:            a7 a7 08 51  faddd     %d28, %d48, %d50
    0x10000ba38:            a3 a3 49 4f  fmuld     %d44, %d46, %d48
    0x10000ba3c:            b7 a7 09 5b  fmuld     %d28, %d58, %d58
    0x10000ba40:            9f a6 48 4b  faddd     %d56, %d42, %d46
    0x10000ba44:            b3 a7 c9 57  fmuld     %d62, %d54, %d56
    0x10000ba48:            9b a7 09 55  fmuld     %d28, %d52, %d44
    0x10000ba4c:            97 a7 48 54  faddd     %d60, %d20, %d42
    0x10000ba50:            af a7 09 53  fmuld     %d28, %d50, %d54
    0x10000ba54:            a9 a6 c8 52  faddd     %d58, %d18, %d20
    0x10000ba58:            a7 a6 89 50  fmuld     %d26, %d16, %d50
    0x10000ba5c:            ab a3 c9 50  fmuld     %d46, %d16, %d52
    0x10000ba60:            bf a3 48 4e  faddd     %d44, %d14, %d62
    0x10000ba64:            bb a6 49 4b  fmuld     %d56, %d42, %d60
    0x10000ba68:            a5 a5 c8 4c  faddd     %d54, %d12, %d18
    0x10000ba6c:            a1 a7 89 58  fmuld     %d30, %d24, %d16
    0x10000ba70:            b7 a4 49 54  fmuld     %d48, %d20, %d58
    0x10000ba74:            9d a6 88 d5  fsubd     %d26, %d52, %d14
    0x10000ba78:            a3 a4 c9 5a  fmuld     %d50, %d26, %d48
    0x10000ba7c:            97 a7 49 5f  fmuld     %d60, %d62, %d42
    0x10000ba80:            b3 a4 09 5c  fmuld     %d16, %d28, %d56
    0x10000ba84:            9b a6 c9 52  fmuld     %d58, %d18, %d44
    0x10000ba88:            99 a3 c9 4e  fmuld     %d46, %d14, %d12
    0x10000ba8c:            af a3 c8 4d  faddd     %d46, %d44, %d54
    0x10000ba90:            a9 a3 08 cb  fsubd     %d12, %d42, %d20
    0x10000ba94:            ab a6 48 57  faddd     %d56, %d54, %d52
    0x10000ba98:            a7 a4 48 d4  fsubd     %d48, %d20, %d50
    0x10000ba9c:            bf a6 88 55  faddd     %d26, %d52, %d62
    0x10000baa0:            06 40 00 10  bl,pn     %icc, +0x40   <0x10000bae0>
    0x10000baa4:            bb a4 c8 56  faddd     %d50, %d22, %d60
    0x10000baa8:            02 40 00 08  be,pn     %icc, +0x20   <0x10000bac8>
    0x10000baac:            80 a5 20 03  cmp       %l4, 0x3
    0x10000bab0:            12 40 00 8f  bne,pn    %icc, +0x23c  <0x10000bcec>
    0x10000bab4:            99 a0 00 dd  fnegd     %d60, %d12
    0x10000bab8:            d9 3e 20 00  std       %d12, [%i0]
    0x10000babc:            ff 3e a0 00  std       %d62, [%i2]
    0x10000bac0:            81 c7 e0 08  ret
    0x10000bac4:            81 e8 20 00  restore   %g0, 0x0, %g0
    0x10000bac8:            99 a0 00 df  fnegd     %d62, %d12
    0x10000bacc:            d9 3e 20 00  std       %d12, [%i0]
    0x10000bad0:            9d a0 00 dd  fnegd     %d60, %d14
    0x10000bad4:            dd 3e a0 00  std       %d14, [%i2]
    0x10000bad8:            81 c7 e0 08  ret
    0x10000badc:            81 e8 20 00  restore   %g0, 0x0, %g0
    0x10000bae0:            80 a5 20 00  cmp       %l4, 0x0
    0x10000bae4:            02 40 00 08  be,pn     %icc, +0x20   <0x10000bb04>
    0x10000bae8:            80 a5 20 01  cmp       %l4, 0x1
    0x10000baec:            12 40 00 80  bne,pn    %icc, +0x200  <0x10000bcec>
    0x10000baf0:            a1 a0 00 df  fnegd     %d62, %d16
    0x10000baf4:            fb 3e 20 00  std       %d60, [%i0]
    0x10000baf8:            e1 3e a0 00  std       %d16, [%i2]
    0x10000bafc:            81 c7 e0 08  ret
    0x10000bb00:            81 e8 20 00  restore   %g0, 0x0, %g0
    0x10000bb04:            ff 3e 20 00  std       %d62, [%i0]
    0x10000bb08:            fb 3e a0 00  std       %d60, [%i2]
    0x10000bb0c:            81 c7 e0 08  ret
    0x10000bb10:            81 e8 20 00  restore   %g0, 0x0, %g0
    0x10000bb14:            23 0f f1 40  sethi     %hi(0x3fc50000), %l1
    0x10000bb18:            80 a4 00 11  cmp       %l0, %l1
    0x10000bb1c:            14 40 00 3e  bg,pn     %icc, +0xf8   <0x10000bc14>
    0x10000bb20:            a5 3c 20 14  sra       %l0, 0x14, %l2
    0x10000bb24:            80 a4 a3 c9  cmp       %l2, 0x3c9
    0x10000bb28:            16 40 00 07  bge,pn    %icc, +0x1c   <0x10000bb44>
    0x10000bb2c:            e1 1c e3 40  ldd       [%l3 + 0x340], %d16
    0x10000bb30:            c1 3e 20 00  std       %d0, [%i0]
    0x10000bb34:            9d a4 08 c0  fsubd     %d16, %d0, %d14
    0x10000bb38:            dd 3e a0 00  std       %d14, [%i2]
    0x10000bb3c:            81 c7 e0 08  ret
    0x10000bb40:            81 e8 20 00  restore   %g0, 0x0, %g0
    0x10000bb44:            80 a4 a3 f8  cmp       %l2, 0x3f8
    0x10000bb48:            16 40 00 14  bge,pn    %icc, +0x50   <0x10000bb98>
    0x10000bb4c:            9b a0 09 40  fmuld     %d0, %d0, %d44
    0x10000bb50:            dd 1f 60 08  ldd       [%i5 + 0x8], %d14
    0x10000bb54:            d9 1f 60 18  ldd       [%i5 + 0x18], %d12
    0x10000bb58:            e7 1f 60 10  ldd       [%i5 + 0x10], %d50
    0x10000bb5c:            97 a0 09 4e  fmuld     %d0, %d14, %d42
    0x10000bb60:            e9 1f 60 20  ldd       [%i5 + 0x20], %d20
    0x10000bb64:            a5 a3 49 4c  fmuld     %d44, %d12, %d18
    0x10000bb68:            ef 1c e3 40  ldd       [%l3 + 0x340], %d54
    0x10000bb6c:            a3 a3 48 53  faddd     %d44, %d50, %d48
    0x10000bb70:            b3 a2 c9 4d  fmuld     %d42, %d44, %d56
    0x10000bb74:            ab a4 88 54  faddd     %d18, %d20, %d52
    0x10000bb78:            bf a6 49 51  fmuld     %d56, %d48, %d62
    0x10000bb7c:            bb a3 49 55  fmuld     %d44, %d52, %d60
    0x10000bb80:            9f a0 08 5f  faddd     %d0, %d62, %d46
    0x10000bb84:            df 3e 20 00  std       %d46, [%i0]
    0x10000bb88:            b7 a7 48 57  faddd     %d60, %d54, %d58
    0x10000bb8c:            f7 3e a0 00  std       %d58, [%i2]
    0x10000bb90:            81 c7 e0 08  ret
    0x10000bb94:            81 e8 20 00  restore   %g0, 0x0, %g0
    0x10000bb98:            e9 1f 60 38  ldd       [%i5 + 0x38], %d20
    0x10000bb9c:            e5 1f 60 48  ldd       [%i5 + 0x48], %d18
    0x10000bba0:            d7 1f 60 30  ldd       [%i5 + 0x30], %d42
    0x10000bba4:            f3 1f 60 50  ldd       [%i5 + 0x50], %d56
    0x10000bba8:            ab a3 48 54  faddd     %d44, %d20, %d52
    0x10000bbac:            e3 1f 60 58  ldd       [%i5 + 0x58], %d48
    0x10000bbb0:            b7 a3 49 52  fmuld     %d44, %d18, %d58
    0x10000bbb4:            af a3 48 4b  faddd     %d44, %d42, %d54
    0x10000bbb8:            fb 1f 60 28  ldd       [%i5 + 0x28], %d60
    0x10000bbbc:            a1 a3 49 59  fmuld     %d44, %d56, %d16
    0x10000bbc0:            e7 1f 60 40  ldd       [%i5 + 0x40], %d50
    0x10000bbc4:            bf a3 48 51  faddd     %d44, %d48, %d62
    0x10000bbc8:            97 a3 49 55  fmuld     %d44, %d52, %d42
    0x10000bbcc:            e5 1f 60 60  ldd       [%i5 + 0x60], %d18
    0x10000bbd0:            a9 a6 c9 4d  fmuld     %d58, %d44, %d20
    0x10000bbd4:            df 1c e3 40  ldd       [%l3 + 0x340], %d46
    0x10000bbd8:            9d a3 49 57  fmuld     %d44, %d54, %d14
    0x10000bbdc:            99 a0 09 5d  fmuld     %d0, %d60, %d12
    0x10000bbe0:            a3 a4 09 5f  fmuld     %d16, %d62, %d48
    0x10000bbe4:            af a2 c8 53  faddd     %d42, %d50, %d54
    0x10000bbe8:            ab a3 48 54  faddd     %d44, %d20, %d52
    0x10000bbec:            b3 a3 09 4e  fmuld     %d12, %d14, %d56
    0x10000bbf0:            9b a4 48 52  faddd     %d48, %d18, %d44
    0x10000bbf4:            bb a6 49 57  fmuld     %d56, %d54, %d60
    0x10000bbf8:            b7 a5 49 4d  fmuld     %d52, %d44, %d58
    0x10000bbfc:            bf a0 08 5d  faddd     %d0, %d60, %d62
    0x10000bc00:            ff 3e 20 00  std       %d62, [%i0]
    0x10000bc04:            a1 a6 c8 4f  faddd     %d58, %d46, %d16
    0x10000bc08:            e1 3e a0 00  std       %d16, [%i2]
    0x10000bc0c:            81 c7 e0 08  ret
    0x10000bc10:            81 e8 20 00  restore   %g0, 0x0, %g0
    0x10000bc14:            a1 a0 09 40  fmuld     %d0, %d0, %d16
    0x10000bc18:            95 a0 18 c0  fdtos     %d0, %f10
    0x10000bc1c:            e9 1f 60 70  ldd       [%i5 + 0x70], %d20
    0x10000bc20:            ff 1f 60 a8  ldd       [%i5 + 0xa8], %d62
    0x10000bc24:            d9 1f 60 78  ldd       [%i5 + 0x78], %d12
    0x10000bc28:            f7 1f 60 b8  ldd       [%i5 + 0xb8], %d58
    0x10000bc2c:            ab a0 09 54  fmuld     %d0, %d20, %d52
    0x10000bc30:            d7 1f 60 88  ldd       [%i5 + 0x88], %d42
    0x10000bc34:            bd a0 19 2a  fstod     %f10, %d30
    0x10000bc38:            9f a4 09 50  fmuld     %d16, %d16, %d46
    0x10000bc3c:            9b a4 08 5f  faddd     %d16, %d62, %d44
    0x10000bc40:            dd 1f 60 a0  ldd       [%i5 + 0xa0], %d14
    0x10000bc44:            ef 1f 60 98  ldd       [%i5 + 0x98], %d54
    0x10000bc48:            a7 a4 08 4c  faddd     %d16, %d12, %d50
    0x10000bc4c:            b7 a4 08 5b  faddd     %d16, %d58, %d58
    0x10000bc50:            e3 1f 60 b0  ldd       [%i5 + 0xb0], %d48
    0x10000bc54:            bb a4 08 4b  faddd     %d16, %d42, %d60
    0x10000bc58:            ab a5 49 4f  fmuld     %d52, %d46, %d52
    0x10000bc5c:            e9 1f 60 c0  ldd       [%i5 + 0xc0], %d20
    0x10000bc60:            b3 a4 08 4e  faddd     %d16, %d14, %d56
    0x10000bc64:            bf a4 09 4d  fmuld     %d16, %d44, %d62
    0x10000bc68:            dd 1f 60 60  ldd       [%i5 + 0x60], %d14
    0x10000bc6c:            af a3 c9 57  fmuld     %d46, %d54, %d54
    0x10000bc70:            97 a0 08 de  fsubd     %d0, %d30, %d42
    0x10000bc74:            db 1f 60 80  ldd       [%i5 + 0x80], %d44
    0x10000bc78:            a7 a4 09 53  fmuld     %d16, %d50, %d50
    0x10000bc7c:            e5 1f 60 68  ldd       [%i5 + 0x68], %d18
    0x10000bc80:            99 a7 88 40  faddd     %d30, %d0, %d12
    0x10000bc84:            b7 a4 09 5b  fmuld     %d16, %d58, %d58
    0x10000bc88:            f9 1c e3 40  ldd       [%l3 + 0x340], %d28
    0x10000bc8c:            bf a7 c8 51  faddd     %d62, %d48, %d62
    0x10000bc90:            bb a4 09 5d  fmuld     %d16, %d60, %d60
    0x10000bc94:            e3 1f 60 90  ldd       [%i5 + 0x90], %d48
    0x10000bc98:            9f a2 c9 4e  fmuld     %d42, %d14, %d46
    0x10000bc9c:            b3 a5 c9 59  fmuld     %d54, %d56, %d56
    0x10000bca0:            af a4 c8 4d  faddd     %d50, %d44, %d54
    0x10000bca4:            9b a6 c8 54  faddd     %d58, %d20, %d44
    0x10000bca8:            a9 a0 09 52  fmuld     %d0, %d18, %d20
    0x10000bcac:            a7 a3 c9 4c  fmuld     %d46, %d12, %d50
    0x10000bcb0:            97 a6 49 5f  fmuld     %d56, %d62, %d42
    0x10000bcb4:            b3 a7 48 51  faddd     %d60, %d48, %d56
    0x10000bcb8:            a5 a5 49 57  fmuld     %d52, %d54, %d18
    0x10000bcbc:            a3 a7 89 4e  fmuld     %d30, %d14, %d48
    0x10000bcc0:            b7 a5 09 50  fmuld     %d20, %d16, %d58
    0x10000bcc4:            bf a2 c9 4d  fmuld     %d42, %d44, %d62
    0x10000bcc8:            bb a4 89 59  fmuld     %d18, %d56, %d60
    0x10000bccc:            ab a4 49 5e  fmuld     %d48, %d30, %d52
    0x10000bcd0:            af a4 c8 5f  faddd     %d50, %d62, %d54
    0x10000bcd4:            a1 a6 c8 5d  faddd     %d58, %d60, %d16
    0x10000bcd8:            99 a5 48 57  faddd     %d52, %d54, %d12
    0x10000bcdc:            9d a0 08 50  faddd     %d0, %d16, %d14
    0x10000bce0:            dd 3e 20 00  std       %d14, [%i0]
    0x10000bce4:            9f a3 08 5c  faddd     %d12, %d28, %d46
    0x10000bce8:            df 3e a0 00  std       %d46, [%i2]
    0x10000bcec:            81 c7 e0 08  ret
    0x10000bcf0:            81 e8 20 00  restore   %g0, 0x0, %g0
    0x10000bcf4:            00 00 00 00  illtrap   0x0
    0x10000bcf8:            00 00 00 00  illtrap   0x0
    0x10000bcfc:            00 00 00 00  illtrap   0x0
    0x10000bd00:            00 00 00 00  illtrap   0x0
    0x10000bd04:            00 00 00 00  illtrap   0x0
    0x10000bd08:            43 30 00 00  call      +0xcc00000    <0x10cc0bd08>
    0x10000bd0c:            00 00 00 00  illtrap   0x0
    0x10000bd10:            00 00 00 00  illtrap   0x0
    0x10000bd14:            00 00 00 00  illtrap   0x0
    0x10000bd18:            00 00 00 00  illtrap   0x0
    0x10000bd1c:            00 00 00 00  illtrap   0x0
__libmopt__rem_pio2()
    0x10000bd20:            9d e3 bf 10  save      %sp, -0xf0, %sp
    0x10000bd24:            c1 27 a7 f7  st        %f0, [%fp + 0x7f7]
    0x10000bd28:            3b 00 00 00  sethi     %hi(0x0), %i5
    0x10000bd2c:            39 00 00 40  sethi     %hi(0x10000), %i4
    0x10000bd30:            bd a0 01 40  fabsd     %d0, %d30
    0x10000bd34:            b4 17 60 01  or        %i5, 0x1, %i2
    0x10000bd38:            c3 27 a7 fb  st        %f1, [%fp + 0x7fb]
    0x10000bd3c:            37 1f ff ff  sethi     %hi(0x7ffffc00), %i3
    0x10000bd40:            b1 2e b0 20  sllx      %i2, 0x20, %i0
    0x10000bd44:            a0 06 e3 ff  add       %i3, 0x3ff, %l0
    0x10000bd48:            82 16 00 1c  or        %i0, %i4, %g1
    0x10000bd4c:            2f 10 4e 40  sethi     %hi(0x41390000), %l7
    0x10000bd50:            d9 18 61 48  ldd       [%g1 + 0x148], %d12
    0x10000bd54:            b9 a7 89 4c  fmuld     %d30, %d12, %d28
    0x10000bd58:            9c 03 a0 00  add       %sp, 0x0, %sp
    0x10000bd5c:            9c 03 a0 00  add       %sp, 0x0, %sp
    0x10000bd60:            fa 07 a7 f7  ld        [%fp + 0x7f7], %i5
    0x10000bd64:            ac 0f 40 10  and       %i5, %l0, %l6
    0x10000bd68:            80 a5 80 17  cmp       %l6, %l7
    0x10000bd6c:            14 40 00 48  bg,pn     %icc, +0x120  <0x10000be8c>
    0x10000bd70:            b0 10 00 19  mov       %i1, %i0
    0x10000bd74:            1b 0f fa 48  sethi     %hi(0x3fe92000), %o5
    0x10000bd78:            98 03 61 fa  add       %o5, 0x1fa, %o4
    0x10000bd7c:            80 a5 80 0c  cmp       %l6, %o4
    0x10000bd80:            04 40 00 3e  ble,pn    %icc, +0xf8   <0x10000be78>
    0x10000bd84:            8a 00 61 48  add       %g1, 0x148, %g5
    0x10000bd88:            d9 19 60 18  ldd       [%g5 + 0x18], %d12
    0x10000bd8c:            89 3d a0 14  sra       %l6, 0x14, %g4
    0x10000bd90:            e1 19 60 08  ldd       [%g5 + 0x8], %d16
    0x10000bd94:            e5 19 60 10  ldd       [%g5 + 0x10], %d18
    0x10000bd98:            9d a7 08 4c  faddd     %d28, %d12, %d14
    0x10000bd9c:            91 a0 1a 4e  fdtoi     %d14, %f8
    0x10000bda0:            d1 23 a8 af  st        %f8, [%sp + 0x8af]
    0x10000bda4:            b1 a0 19 08  fitod     %f8, %d24
    0x10000bda8:            a9 a6 09 50  fmuld     %d24, %d16, %d20
    0x10000bdac:            b5 a6 09 52  fmuld     %d24, %d18, %d26
    0x10000bdb0:            9c 03 a0 00  add       %sp, 0x0, %sp
    0x10000bdb4:            9c 03 a0 00  add       %sp, 0x0, %sp
    0x10000bdb8:            9c 03 a0 00  add       %sp, 0x0, %sp
    0x10000bdbc:            9c 03 a0 00  add       %sp, 0x0, %sp
    0x10000bdc0:            f2 03 a8 af  ld        [%sp + 0x8af], %i1
    0x10000bdc4:            95 a7 88 d4  fsubd     %d30, %d20, %d10
    0x10000bdc8:            d5 27 a7 ef  st        %f10, [%fp + 0x7ef]
    0x10000bdcc:            81 41 40 00  rd        %pc, %g0
    0x10000bdd0:            d2 07 a7 ef  ld        [%fp + 0x7ef], %o1
    0x10000bdd4:            a2 0a 40 10  and       %o1, %l0, %l1
    0x10000bdd8:            91 3c 60 14  sra       %l1, 0x14, %o0
    0x10000bddc:            9e 21 00 08  sub       %g4, %o0, %o7
    0x10000bde0:            80 a3 e0 14  cmp       %o7, 0x14
    0x10000bde4:            04 40 00 14  ble,pn    %icc, +0x50   <0x10000be34>
    0x10000bde8:            ad a2 88 da  fsubd     %d10, %d26, %d22
    0x10000bdec:            f7 19 7f c0  ldd       [%g5 - 0x40], %d58
    0x10000bdf0:            94 01 7f c0  add       %g5, -0x40, %o2
    0x10000bdf4:            bf a6 09 5b  fmuld     %d24, %d58, %d62
    0x10000bdf8:            fb 1a a0 08  ldd       [%o2 + 0x8], %d60
    0x10000bdfc:            88 01 3f ec  add       %g4, -0x14, %g4
    0x10000be00:            94 02 a0 10  add       %o2, 0x10, %o2
    0x10000be04:            b5 a6 09 5d  fmuld     %d24, %d60, %d26
    0x10000be08:            95 a2 88 df  fsubd     %d10, %d62, %d10
    0x10000be0c:            d5 27 a7 ef  st        %f10, [%fp + 0x7ef]
    0x10000be10:            ad a2 88 da  fsubd     %d10, %d26, %d22
    0x10000be14:            81 41 40 00  rd        %pc, %g0
    0x10000be18:            e2 07 a7 ef  ld        [%fp + 0x7ef], %l1
    0x10000be1c:            9e 0c 40 10  and       %l1, %l0, %o7
    0x10000be20:            9b 3b e0 14  sra       %o7, 0x14, %o5
    0x10000be24:            98 21 00 0d  sub       %g4, %o5, %o4
    0x10000be28:            80 a3 20 14  cmp       %o4, 0x14
    0x10000be2c:            34 4f ff f2  bg,a,pt   %icc, -0x38   <0x10000bdf4>
    0x10000be30:            f7 1a a0 00  ldd       [%o2], %d58
    0x10000be34:            80 a7 60 00  cmp       %i5, 0x0
    0x10000be38:            16 40 00 0a  bge,pn    %icc, +0x28   <0x10000be60>
    0x10000be3c:            b3 a2 88 d6  fsubd     %d10, %d22, %d56
    0x10000be40:            b2 20 00 19  neg       %i1
    0x10000be44:            af a0 00 d6  fnegd     %d22, %d54
    0x10000be48:            ef 3e 20 00  std       %d54, [%i0]
    0x10000be4c:            ab a6 88 d9  fsubd     %d26, %d56, %d52
    0x10000be50:            eb 3e 20 08  std       %d52, [%i0 + 0x8]
    0x10000be54:            b1 3e 60 00  sra       %i1, 0x0, %i0
    0x10000be58:            81 c7 e0 08  ret
    0x10000be5c:            81 e8 20 00  restore   %g0, 0x0, %g0
    0x10000be60:            ed 3e 20 00  std       %d22, [%i0]
    0x10000be64:            bd a6 48 da  fsubd     %d56, %d26, %d30
    0x10000be68:            fd 3e 20 08  std       %d30, [%i0 + 0x8]
    0x10000be6c:            b1 3e 60 00  sra       %i1, 0x0, %i0
    0x10000be70:            81 c7 e0 08  ret
    0x10000be74:            81 e8 20 00  restore   %g0, 0x0, %g0
    0x10000be78:            c1 3e 60 00  std       %d0, [%i1]
    0x10000be7c:            c0 76 20 08  clrx      [%i0 + 0x8]
    0x10000be80:            b0 10 20 00  clr       %i0
    0x10000be84:            81 c7 e0 08  ret
    0x10000be88:            81 e8 20 00  restore   %g0, 0x0, %g0
    0x10000be8c:            29 1f fc 00  sethi     %hi(0x7ff00000), %l4
    0x10000be90:            80 a5 80 14  cmp       %l6, %l4
    0x10000be94:            16 40 00 41  bge,pn    %icc, +0x104  <0x10000bf98>
    0x10000be98:            2b 00 03 ff  sethi     %hi(0xffc00), %l5
    0x10000be9c:            e4 07 a7 fb  ld        [%fp + 0x7fb], %l2
    0x10000bea0:            a8 05 63 ff  add       %l5, 0x3ff, %l4
    0x10000bea4:            21 00 04 00  sethi     %hi(0x100000), %l0
    0x10000bea8:            9e 0d 80 14  and       %l6, %l4, %o7
    0x10000beac:            23 00 00 00  sethi     %hi(0x0), %l1
    0x10000beb0:            98 13 c0 10  or        %o7, %l0, %o4
    0x10000beb4:            8b 34 a0 1d  srl       %l2, 0x1d, %g5
    0x10000beb8:            89 2b 20 03  sll       %o4, 0x3, %g4
    0x10000bebc:            9a 14 60 01  or        %l1, 0x1, %o5
    0x10000bec0:            b2 11 00 05  or        %g4, %g5, %i1
    0x10000bec4:            f2 23 a8 af  st        %i1, [%sp + 0x8af]
    0x10000bec8:            13 00 00 2f  sethi     %hi(0xbc00), %o1
    0x10000becc:            95 2b 70 20  sllx      %o5, 0x20, %o2
    0x10000bed0:            90 0c a0 1f  and       %l2, 0x1f, %o0
    0x10000bed4:            35 00 3f ff  sethi     %hi(0xfffc00), %i2
    0x10000bed8:            82 12 80 09  or        %o2, %o1, %g1
    0x10000bedc:            c5 18 61 08  ldd       [%g1 + 0x108], %d2
    0x10000bee0:            b9 2a 20 13  sll       %o0, 0x13, %i4
    0x10000bee4:            ae 06 a3 ff  add       %i2, 0x3ff, %l7
    0x10000bee8:            b7 3c a0 05  sra       %l2, 0x5, %i3
    0x10000beec:            f8 23 a8 b7  st        %i4, [%sp + 0x8b7]
    0x10000bef0:            a7 3d a0 14  sra       %l6, 0x14, %l3
    0x10000bef4:            96 0e c0 17  and       %i3, %l7, %o3
    0x10000bef8:            d6 23 a8 b3  st        %o3, [%sp + 0x8b3]
    0x10000befc:            aa 04 fb ea  add       %l3, -0x416, %l5
    0x10000bf00:            81 a0 00 22  fmovs     %f2, %f0
    0x10000bf04:            80 a7 20 00  cmp       %i4, 0x0
    0x10000bf08:            c3 03 a8 af  ld        [%sp + 0x8af], %f1
    0x10000bf0c:            c9 03 a8 b7  ld        [%sp + 0x8b7], %f4
    0x10000bf10:            cd 03 a8 b3  ld        [%sp + 0x8b3], %f6
    0x10000bf14:            b1 a0 08 c2  fsubd     %d0, %d2, %d24
    0x10000bf18:            a9 a0 19 04  fitod     %f4, %d20
    0x10000bf1c:            e9 3f a7 e7  std       %d20, [%fp + 0x7e7]
    0x10000bf20:            ad a0 19 06  fitod     %f6, %d22
    0x10000bf24:            ed 3f a7 df  std       %d22, [%fp + 0x7df]
    0x10000bf28:            b5 a0 01 58  fabsd     %d24, %d26
    0x10000bf2c:            02 40 00 05  be,pn     %icc, +0x14   <0x10000bf40>
    0x10000bf30:            f5 3f a7 d7  std       %d26, [%fp + 0x7d7]
    0x10000bf34:            96 10 20 03  mov       0x3, %o3
    0x10000bf38:            10 80 00 07  ba        +0x1c         <0x10000bf54>
    0x10000bf3c:            92 10 00 18  mov       %i0, %o1
    0x10000bf40:            80 a2 e0 00  cmp       %o3, 0x0
    0x10000bf44:            ac 10 20 02  mov       0x2, %l6
    0x10000bf48:            96 10 20 01  mov       0x1, %o3
    0x10000bf4c:            97 66 40 16  movne     %icc, %l6, %o3
    0x10000bf50:            92 10 00 18  mov       %i0, %o1
    0x10000bf54:            95 3d 60 00  sra       %l5, 0x0, %o2
    0x10000bf58:            98 10 20 01  mov       0x1, %o4
    0x10000bf5c:            40 00 00 31  call      +0xc4         <0x10000c020>
    0x10000bf60:            90 07 a7 d7  add       %fp, 0x7d7, %o0
    0x10000bf64:            80 a7 60 00  cmp       %i5, 0x0
    0x10000bf68:            36 40 00 10  bge,a,pn  %icc, +0x40   <0x10000bfa8>
    0x10000bf6c:            b2 10 00 08  mov       %o0, %i1
    0x10000bf70:            d9 1e 20 00  ldd       [%i0], %d12
    0x10000bf74:            e1 1e 20 08  ldd       [%i0 + 0x8], %d16
    0x10000bf78:            b2 20 00 08  neg       %o0, %i1
    0x10000bf7c:            9d a0 00 cc  fnegd     %d12, %d14
    0x10000bf80:            dd 3e 20 00  std       %d14, [%i0]
    0x10000bf84:            a5 a0 00 d0  fnegd     %d16, %d18
    0x10000bf88:            e5 3e 20 08  std       %d18, [%i0 + 0x8]
    0x10000bf8c:            b1 3e 60 00  sra       %i1, 0x0, %i0
    0x10000bf90:            81 c7 e0 08  ret
    0x10000bf94:            81 e8 20 00  restore   %g0, 0x0, %g0
    0x10000bf98:            b9 a0 09 c0  fdivd     %d0, %d0, %d28
    0x10000bf9c:            b2 10 20 00  clr       %i1
    0x10000bfa0:            f9 3e 20 00  std       %d28, [%i0]
    0x10000bfa4:            f9 3e 20 08  std       %d28, [%i0 + 0x8]
    0x10000bfa8:            b1 3e 60 00  sra       %i1, 0x0, %i0
    0x10000bfac:            81 c7 e0 08  ret
    0x10000bfb0:            81 e8 20 00  restore   %g0, 0x0, %g0
    0x10000bfb4:            00 00 00 00  illtrap   0x0
    0x10000bfb8:            00 00 00 00  illtrap   0x0
    0x10000bfbc:            00 00 00 00  illtrap   0x0
    0x10000bfc0:            41 70 00 00  call      +0x5c00000    <0x105c0bfc0>
    0x10000bfc4:            00 00 00 00  illtrap   0x0
    0x10000bfc8:            43 38 00 00  call      +0xce00000    <0x10ce0bfc8>
    0x10000bfcc:            00 00 00 00  illtrap   0x0
    0x10000bfd0:            3e 70 00 00  0x3e700000
    0x10000bfd4:            00 00 00 00  illtrap   0x0
    0x10000bfd8:            00 00 00 00  illtrap   0x0
    0x10000bfdc:            00 00 00 00  illtrap   0x0
    0x10000bfe0:            44 b8 00 00  call      +0x12e00000   <0x112e0bfe0>
    0x10000bfe4:            00 00 00 00  illtrap   0x0
    0x10000bfe8:            3f f9 21 fb  0x3ff921fb
    0x10000bfec:            40 00 00 00  call      +0x0          <0x10000bfec>
    0x10000bff0:            3e 74 44 2d  0x3e74442d
    0x10000bff4:            00 00 00 00  illtrap   0x0
    0x10000bff8:            3c f8 46 98  0x3cf84698
    0x10000bffc:            80 00 00 00  add       %g0, %g0, %g0
    0x10000c000:            3b 78 cc 51  fble,a,pt %fcc3, +0x33144 <0x10003f144>
    0x10000c004:            60 00 00 00  call      -0x80000000   <0x8000c004>
    0x10000c008:            39 f0 1b 83  0x39f01b83
    0x10000c00c:            80 00 00 00  add       %g0, %g0, %g0
    0x10000c010:            00 00 00 00  illtrap   0x0
    0x10000c014:            00 00 00 00  illtrap   0x0
    0x10000c018:            00 00 00 00  illtrap   0x0
    0x10000c01c:            00 00 00 00  illtrap   0x0
__libmopt_rem_pio2m()
    0x10000c020:            9d e3 bd f0  save      %sp, -0x210, %sp
    0x10000c024:            8a 06 bf fd  add       %i2, -0x3, %g5
    0x10000c028:            19 15 55 55  sethi     %hi(0x55555400), %o4
    0x10000c02c:            dd 1e 20 00  ldd       [%i0], %d14
    0x10000c030:            96 1b 3e ab  xor       %o4, -0x155, %o3
    0x10000c034:            95 39 60 00  sra       %g5, 0x0, %o2
    0x10000c038:            92 4a 80 0b  mulx      %o2, %o3, %o1
    0x10000c03c:            ad 39 60 1f  sra       %g5, 0x1f, %l6
    0x10000c040:            03 00 00 00  sethi     %hi(0x0), %g1
    0x10000c044:            91 32 70 20  srlx      %o1, 0x20, %o0
    0x10000c048:            9e 10 60 01  or        %g1, 0x1, %o7
    0x10000c04c:            88 01 40 08  add       %g5, %o0, %g4
    0x10000c050:            a3 2b f0 20  sllx      %o7, 0x20, %l1
    0x10000c054:            bb 39 20 04  sra       %g4, 0x4, %i5
    0x10000c058:            25 00 00 40  sethi     %hi(0x10000), %l2
    0x10000c05c:            ae 27 40 16  sub       %i5, %l6, %l7
    0x10000c060:            a8 14 40 12  or        %l1, %l2, %l4
    0x10000c064:            9b 3d e0 1f  sra       %l7, 0x1f, %o5
    0x10000c068:            ac 05 21 68  add       %l4, 0x168, %l6
    0x10000c06c:            a6 2d c0 0d  andn      %l7, %o5, %l3
    0x10000c070:            80 a6 e0 03  cmp       %i3, 0x3
    0x10000c074:            a0 04 e0 01  add       %l3, 0x1, %l0
    0x10000c078:            ab 2c 20 02  sll       %l0, 0x2, %l5
    0x10000c07c:            98 25 40 10  sub       %l5, %l0, %o4
    0x10000c080:            97 2b 20 03  sll       %o4, 0x3, %o3
    0x10000c084:            12 40 00 48  bne,pn    %icc, +0x120  <0x10000c1a4>
    0x10000c088:            8a 26 80 0b  sub       %i2, %o3, %g5
    0x10000c08c:            a5 3c e0 00  sra       %l3, 0x0, %l2
    0x10000c090:            f5 1e 20 10  ldd       [%i0 + 0x10], %d26
    0x10000c094:            a8 04 a0 02  add       %l2, 0x2, %l4
    0x10000c098:            88 04 a0 01  add       %l2, 0x1, %g4
    0x10000c09c:            db 1e 20 08  ldd       [%i0 + 0x8], %d44
    0x10000c0a0:            a0 04 a0 03  add       %l2, 0x3, %l0
    0x10000c0a4:            9e 04 a0 04  add       %l2, 0x4, %o7
    0x10000c0a8:            9b 2d 30 03  sllx      %l4, 0x3, %o5
    0x10000c0ac:            99 29 30 03  sllx      %g4, 0x3, %o4
    0x10000c0b0:            a3 2c 30 03  sllx      %l0, 0x3, %l1
    0x10000c0b4:            97 2b f0 03  sllx      %o7, 0x3, %o3
    0x10000c0b8:            d9 1b 40 16  ldd       [%o5 + %l6], %d12
    0x10000c0bc:            d1 1c 40 16  ldd       [%l1 + %l6], %d8
    0x10000c0c0:            ae 04 a0 07  add       %l2, 0x7, %l7
    0x10000c0c4:            aa 04 a0 05  add       %l2, 0x5, %l5
    0x10000c0c8:            d5 1b 00 16  ldd       [%o4 + %l6], %d10
    0x10000c0cc:            94 04 a0 06  add       %l2, 0x6, %o2
    0x10000c0d0:            91 2d f0 03  sllx      %l7, 0x3, %o0
    0x10000c0d4:            fd 1a c0 16  ldd       [%o3 + %l6], %d30
    0x10000c0d8:            b7 a3 89 4c  fmuld     %d14, %d12, %d58
    0x10000c0dc:            bb 2d 70 03  sllx      %l5, 0x3, %i5
    0x10000c0e0:            83 2a b0 03  sllx      %o2, 0x3, %g1
    0x10000c0e4:            b3 a3 89 48  fmuld     %d14, %d8, %d56
    0x10000c0e8:            89 2c b0 03  sllx      %l2, 0x3, %g4
    0x10000c0ec:            f9 1f 40 16  ldd       [%i5 + %l6], %d28
    0x10000c0f0:            35 00 00 00  sethi     %hi(0x0), %i2
    0x10000c0f4:            8d a3 49 4a  fmuld     %d44, %d10, %d6
    0x10000c0f8:            df 18 40 16  ldd       [%g1 + %l6], %d46
    0x10000c0fc:            a6 16 a0 01  or        %i2, 0x1, %l3
    0x10000c100:            b4 10 20 05  mov       0x5, %i2
    0x10000c104:            a1 a6 89 4a  fmuld     %d26, %d10, %d16
    0x10000c108:            ef 19 00 16  ldd       [%g4 + %l6], %d54
    0x10000c10c:            29 00 00 2f  sethi     %hi(0xbc00), %l4
    0x10000c110:            93 2c f0 20  sllx      %l3, 0x20, %o1
    0x10000c114:            bb a3 49 48  fmuld     %d44, %d8, %d60
    0x10000c118:            e7 1a 00 16  ldd       [%o0 + %l6], %d50
    0x10000c11c:            9a 01 63 9f  add       %g5, 0x39f, %o5
    0x10000c120:            bf a3 49 4c  fmuld     %d44, %d12, %d62
    0x10000c124:            ab a3 89 5e  fmuld     %d14, %d30, %d52
    0x10000c128:            95 a6 c8 46  faddd     %d58, %d6, %d10
    0x10000c12c:            8d a3 89 4f  fmuld     %d14, %d46, %d6
    0x10000c130:            a3 a3 89 5c  fmuld     %d14, %d28, %d48
    0x10000c134:            bf a6 48 5f  faddd     %d56, %d62, %d62
    0x10000c138:            b3 a6 89 57  fmuld     %d26, %d54, %d56
    0x10000c13c:            b1 a5 48 5d  faddd     %d52, %d60, %d24
    0x10000c140:            ab a3 89 53  fmuld     %d14, %d50, %d52
    0x10000c144:            b7 a3 49 5e  fmuld     %d44, %d30, %d58
    0x10000c148:            af a3 49 4f  fmuld     %d44, %d46, %d54
    0x10000c14c:            bb a3 49 5c  fmuld     %d44, %d28, %d60
    0x10000c150:            9d a2 88 59  faddd     %d10, %d56, %d14
    0x10000c154:            dd 3f a7 5f  std       %d14, [%fp + 0x75f]
    0x10000c158:            a7 a6 89 4c  fmuld     %d26, %d12, %d50
    0x10000c15c:            a3 a4 48 5b  faddd     %d48, %d58, %d48
    0x10000c160:            99 a6 89 5e  fmuld     %d26, %d30, %d12
    0x10000c164:            b7 a7 c8 50  faddd     %d62, %d16, %d58
    0x10000c168:            a1 a6 89 48  fmuld     %d26, %d8, %d16
    0x10000c16c:            f7 3f a7 67  std       %d58, [%fp + 0x767]
    0x10000c170:            9f a1 88 5d  faddd     %d6, %d60, %d46
    0x10000c174:            95 a6 89 5c  fmuld     %d26, %d28, %d10
    0x10000c178:            9d a5 48 57  faddd     %d52, %d54, %d14
    0x10000c17c:            9b a6 08 53  faddd     %d24, %d50, %d44
    0x10000c180:            db 3f a7 6f  std       %d44, [%fp + 0x76f]
    0x10000c184:            bf a4 48 50  faddd     %d48, %d16, %d62
    0x10000c188:            ff 3f a7 77  std       %d62, [%fp + 0x777]
    0x10000c18c:            b3 a3 c8 4c  faddd     %d46, %d12, %d56
    0x10000c190:            f3 3f a7 7f  std       %d56, [%fp + 0x77f]
    0x10000c194:            91 a3 88 4a  faddd     %d14, %d10, %d8
    0x10000c198:            d1 3f a7 87  std       %d8, [%fp + 0x787]
    0x10000c19c:            10 80 00 49  ba        +0x124        <0x10000c2c0>
    0x10000c1a0:            ae 12 40 14  or        %o1, %l4, %l7
    0x10000c1a4:            b5 3c e0 00  sra       %l3, 0x0, %i2
    0x10000c1a8:            80 a6 e0 02  cmp       %i3, 0x2
    0x10000c1ac:            88 06 a0 02  add       %i2, 0x2, %g4
    0x10000c1b0:            9a 06 a0 03  add       %i2, 0x3, %o5
    0x10000c1b4:            9e 06 a0 04  add       %i2, 0x4, %o7
    0x10000c1b8:            a2 06 a0 05  add       %i2, 0x5, %l1
    0x10000c1bc:            96 06 a0 06  add       %i2, 0x6, %o3
    0x10000c1c0:            ab 29 30 03  sllx      %g4, 0x3, %l5
    0x10000c1c4:            94 06 a0 07  add       %i2, 0x7, %o2
    0x10000c1c8:            bb 2b 70 03  sllx      %o5, 0x3, %i5
    0x10000c1cc:            fb 1d 40 16  ldd       [%l5 + %l6], %d60
    0x10000c1d0:            af 2b f0 03  sllx      %o7, 0x3, %l7
    0x10000c1d4:            83 2c 70 03  sllx      %l1, 0x3, %g1
    0x10000c1d8:            f3 1f 40 16  ldd       [%i5 + %l6], %d56
    0x10000c1dc:            91 2a f0 03  sllx      %o3, 0x3, %o0
    0x10000c1e0:            ef 1d c0 16  ldd       [%l7 + %l6], %d54
    0x10000c1e4:            93 2a b0 03  sllx      %o2, 0x3, %o1
    0x10000c1e8:            d9 1a 00 16  ldd       [%o0 + %l6], %d12
    0x10000c1ec:            a3 a3 89 5d  fmuld     %d14, %d60, %d48
    0x10000c1f0:            eb 18 40 16  ldd       [%g1 + %l6], %d52
    0x10000c1f4:            bf a3 89 59  fmuld     %d14, %d56, %d62
    0x10000c1f8:            cd 1a 40 16  ldd       [%o1 + %l6], %d6
    0x10000c1fc:            9f a3 89 57  fmuld     %d14, %d54, %d46
    0x10000c200:            a1 a3 89 4c  fmuld     %d14, %d12, %d16
    0x10000c204:            9b a3 89 55  fmuld     %d14, %d52, %d44
    0x10000c208:            9d a3 89 46  fmuld     %d14, %d6, %d14
    0x10000c20c:            12 40 00 20  bne,pn    %icc, +0x80   <0x10000c28c>
    0x10000c210:            89 2e b0 03  sllx      %i2, 0x3, %g4
    0x10000c214:            a6 06 a0 01  add       %i2, 0x1, %l3
    0x10000c218:            f7 1e 20 08  ldd       [%i0 + 0x8], %d58
    0x10000c21c:            a5 2c f0 03  sllx      %l3, 0x3, %l2
    0x10000c220:            21 00 00 00  sethi     %hi(0x0), %l0
    0x10000c224:            cd 1c 80 16  ldd       [%l2 + %l6], %d6
    0x10000c228:            98 14 20 01  or        %l0, 0x1, %o4
    0x10000c22c:            b4 10 20 05  mov       0x5, %i2
    0x10000c230:            93 2b 30 20  sllx      %o4, 0x20, %o1
    0x10000c234:            29 00 00 2f  sethi     %hi(0xbc00), %l4
    0x10000c238:            a7 a6 c9 4c  fmuld     %d58, %d12, %d50
    0x10000c23c:            9a 01 63 9f  add       %g5, 0x39f, %o5
    0x10000c240:            b3 a6 c9 59  fmuld     %d58, %d56, %d56
    0x10000c244:            91 a6 c9 46  fmuld     %d58, %d6, %d8
    0x10000c248:            95 a6 c9 5d  fmuld     %d58, %d60, %d10
    0x10000c24c:            af a6 c9 57  fmuld     %d58, %d54, %d54
    0x10000c250:            9d a3 88 53  faddd     %d14, %d50, %d14
    0x10000c254:            99 a3 c8 59  faddd     %d46, %d56, %d12
    0x10000c258:            ab a6 c9 55  fmuld     %d58, %d52, %d52
    0x10000c25c:            9f a4 48 48  faddd     %d48, %d8, %d46
    0x10000c260:            df 3f a7 5f  std       %d46, [%fp + 0x75f]
    0x10000c264:            bf a7 c8 4a  faddd     %d62, %d10, %d62
    0x10000c268:            ff 3f a7 67  std       %d62, [%fp + 0x767]
    0x10000c26c:            d9 3f a7 6f  std       %d12, [%fp + 0x76f]
    0x10000c270:            9b a3 48 57  faddd     %d44, %d54, %d44
    0x10000c274:            db 3f a7 77  std       %d44, [%fp + 0x777]
    0x10000c278:            a3 a4 08 55  faddd     %d16, %d52, %d48
    0x10000c27c:            e3 3f a7 7f  std       %d48, [%fp + 0x77f]
    0x10000c280:            dd 3f a7 87  std       %d14, [%fp + 0x787]
    0x10000c284:            10 80 00 0f  ba        +0x3c         <0x10000c2c0>
    0x10000c288:            ae 12 40 14  or        %o1, %l4, %l7
    0x10000c28c:            e3 3f a7 5f  std       %d48, [%fp + 0x75f]
    0x10000c290:            35 00 00 00  sethi     %hi(0x0), %i2
    0x10000c294:            9a 01 63 9f  add       %g5, 0x39f, %o5
    0x10000c298:            ff 3f a7 67  std       %d62, [%fp + 0x767]
    0x10000c29c:            a8 16 a0 01  or        %i2, 0x1, %l4
    0x10000c2a0:            b4 10 20 05  mov       0x5, %i2
    0x10000c2a4:            df 3f a7 6f  std       %d46, [%fp + 0x76f]
    0x10000c2a8:            93 2d 30 20  sllx      %l4, 0x20, %o1
    0x10000c2ac:            29 00 00 2f  sethi     %hi(0xbc00), %l4
    0x10000c2b0:            db 3f a7 77  std       %d44, [%fp + 0x777]
    0x10000c2b4:            ae 12 40 14  or        %o1, %l4, %l7
    0x10000c2b8:            e1 3f a7 7f  std       %d16, [%fp + 0x77f]
    0x10000c2bc:            dd 3f a7 87  std       %d14, [%fp + 0x787]
    0x10000c2c0:            81 41 40 00  rd        %pc, %g0
    0x10000c2c4:            fb 1f a7 87  ldd       [%fp + 0x787], %d60
    0x10000c2c8:            a6 05 e3 c0  add       %l7, 0x3c0, %l3
    0x10000c2cc:            a9 2b 60 14  sll       %o5, 0x14, %l4
    0x10000c2d0:            ef 1c e0 10  ldd       [%l3 + 0x10], %d54
    0x10000c2d4:            93 2d 30 20  sllx      %l4, 0x20, %o1
    0x10000c2d8:            9e 10 20 04  mov       0x4, %o7
    0x10000c2dc:            eb 1d e3 c0  ldd       [%l7 + 0x3c0], %d52
    0x10000c2e0:            90 01 7f a0  add       %g5, -0x60, %o0
    0x10000c2e4:            a4 06 ff ff  add       %i3, -0x1, %l2
    0x10000c2e8:            df 1c e0 08  ldd       [%l3 + 0x8], %d46
    0x10000c2ec:            ae 07 a7 5f  add       %fp, 0x75f, %l7
    0x10000c2f0:            82 07 a6 af  add       %fp, 0x6af, %g1
    0x10000c2f4:            d2 77 a7 57  stx       %o1, [%fp + 0x757]
    0x10000c2f8:            bb a7 49 57  fmuld     %d60, %d54, %d60
    0x10000c2fc:            92 06 20 08  add       %i0, 0x8, %o1
    0x10000c300:            db 1c e0 18  ldd       [%l3 + 0x18], %d44
    0x10000c304:            e1 1f a7 57  ldd       [%fp + 0x757], %d16
    0x10000c308:            80 a3 e0 01  cmp       %o7, 0x1
    0x10000c30c:            06 40 00 68  bl,pn     %icc, +0x1a0  <0x10000c4ac>
    0x10000c310:            9b 3b e0 00  sra       %o7, 0x0, %o5
    0x10000c314:            a3 2b 70 03  sllx      %o5, 0x3, %l1
    0x10000c318:            aa 07 a6 b7  add       %fp, 0x6b7, %l5
    0x10000c31c:            f3 1c e0 20  ldd       [%l3 + 0x20], %d56
    0x10000c320:            96 04 40 17  add       %l1, %l7, %o3
    0x10000c324:            94 05 40 11  add       %l5, %l1, %o2
    0x10000c328:            80 a3 e0 06  cmp       %o7, 0x6
    0x10000c32c:            06 40 00 51  bl,pn     %icc, +0x144  <0x10000c470>
    0x10000c330:            01 00 00 00  nop
    0x10000c334:            c1 6a ff c0  prefetch  [%o3 - 0x40], #n_reads
    0x10000c338:            ed 6a a0 00  prefetch  [%o2], #n_writes_strong
    0x10000c33c:            9d a4 09 55  fmuld     %d16, %d52, %d14
    0x10000c340:            9a 22 e0 10  sub       %o3, 0x10, %o5
    0x10000c344:            9e 03 ff fe  add       %o7, -0x2, %o7
    0x10000c348:            c1 6c 40 17  prefetch  [%l1 + %l7], #n_reads
    0x10000c34c:            a2 22 a0 08  sub       %o2, 0x8, %l1
    0x10000c350:            c1 6a ff 40  prefetch  [%o3 - 0xc0], #n_reads
    0x10000c354:            ed 6a bf 40  prefetch  [%o2 - 0xc0], #n_writes_strong
    0x10000c358:            c1 6a ff 00  prefetch  [%o3 - 0x100], #n_reads
    0x10000c35c:            ed 6a bf 00  prefetch  [%o2 - 0x100], #n_writes_strong
    0x10000c360:            ed 6a bf c0  prefetch  [%o2 - 0x40], #n_writes_strong
    0x10000c364:            e3 1a ff f8  ldd       [%o3 - 0x8], %d48
    0x10000c368:            e7 1a e0 00  ldd       [%o3], %d50
    0x10000c36c:            c1 6a ff 80  prefetch  [%o3 - 0x80], #n_reads
    0x10000c370:            8d a7 48 53  faddd     %d60, %d50, %d6
    0x10000c374:            b7 a1 88 59  faddd     %d6, %d56, %d58
    0x10000c378:            91 a6 c8 d9  fsubd     %d58, %d56, %d8
    0x10000c37c:            95 a2 09 57  fmuld     %d8, %d54, %d10
    0x10000c380:            99 a1 88 c8  fsubd     %d6, %d8, %d12
    0x10000c384:            bb a2 88 51  faddd     %d10, %d48, %d60
    0x10000c388:            a1 a3 09 50  fmuld     %d12, %d16, %d16
    0x10000c38c:            bf a7 48 59  faddd     %d60, %d56, %d62
    0x10000c390:            a7 a7 c8 d9  fsubd     %d62, %d56, %d50
    0x10000c394:            a3 a7 48 d3  fsubd     %d60, %d50, %d48
    0x10000c398:            bb a4 c9 57  fmuld     %d50, %d54, %d60
    0x10000c39c:            e1 3a a0 00  std       %d16, [%o2]
    0x10000c3a0:            ed 6a bf 80  prefetch  [%o2 - 0x80], #n_writes_strong
    0x10000c3a4:            9e 03 ff fc  add       %o7, -0x4, %o7
    0x10000c3a8:            f7 1b 60 00  ldd       [%o5], %d58
    0x10000c3ac:            9a 23 60 20  sub       %o5, 0x20, %o5
    0x10000c3b0:            c1 6b 7f 10  prefetch  [%o5 - 0xf0], #n_reads
    0x10000c3b4:            80 a3 e0 04  cmp       %o7, 0x4
    0x10000c3b8:            a2 24 60 20  sub       %l1, 0x20, %l1
    0x10000c3bc:            91 a4 49 4e  fmuld     %d48, %d14, %d8
    0x10000c3c0:            95 a7 48 5b  faddd     %d60, %d58, %d10
    0x10000c3c4:            d1 3c 60 20  std       %d8, [%l1 + 0x20]
    0x10000c3c8:            a7 a3 89 55  fmuld     %d14, %d52, %d50
    0x10000c3cc:            9d a2 88 59  faddd     %d10, %d56, %d14
    0x10000c3d0:            8d a3 88 d9  fsubd     %d14, %d56, %d6
    0x10000c3d4:            99 a1 89 57  fmuld     %d6, %d54, %d12
    0x10000c3d8:            a3 a2 88 c6  fsubd     %d10, %d6, %d48
    0x10000c3dc:            e1 1b 60 18  ldd       [%o5 + 0x18], %d16
    0x10000c3e0:            ed 6c 7f 08  prefetch  [%l1 - 0xf8], #n_writes_strong
    0x10000c3e4:            bf a4 49 53  fmuld     %d48, %d50, %d62
    0x10000c3e8:            bb a3 08 50  faddd     %d12, %d16, %d60
    0x10000c3ec:            ff 3c 60 18  std       %d62, [%l1 + 0x18]
    0x10000c3f0:            99 a4 c9 55  fmuld     %d50, %d52, %d12
    0x10000c3f4:            b7 a7 48 59  faddd     %d60, %d56, %d58
    0x10000c3f8:            91 a6 c8 d9  fsubd     %d58, %d56, %d8
    0x10000c3fc:            8d a2 09 57  fmuld     %d8, %d54, %d6
    0x10000c400:            9d a7 48 c8  fsubd     %d60, %d8, %d14
    0x10000c404:            d5 1b 60 10  ldd       [%o5 + 0x10], %d10
    0x10000c408:            a3 a3 89 4c  fmuld     %d14, %d12, %d48
    0x10000c40c:            91 a1 88 4a  faddd     %d6, %d10, %d8
    0x10000c410:            e3 3c 60 10  std       %d48, [%l1 + 0x10]
    0x10000c414:            a7 a3 09 55  fmuld     %d12, %d52, %d50
    0x10000c418:            a1 a2 08 59  faddd     %d8, %d56, %d16
    0x10000c41c:            bf a4 08 d9  fsubd     %d16, %d56, %d62
    0x10000c420:            b7 a7 c9 57  fmuld     %d62, %d54, %d58
    0x10000c424:            9d a2 08 df  fsubd     %d8, %d62, %d14
    0x10000c428:            fb 1b 60 08  ldd       [%o5 + 0x8], %d60
    0x10000c42c:            8d a3 89 53  fmuld     %d14, %d50, %d6
    0x10000c430:            a3 a6 c8 5d  faddd     %d58, %d60, %d48
    0x10000c434:            cd 3c 60 08  std       %d6, [%l1 + 0x8]
    0x10000c438:            9d a4 c9 55  fmuld     %d50, %d52, %d14
    0x10000c43c:            95 a4 48 59  faddd     %d48, %d56, %d10
    0x10000c440:            99 a2 88 d9  fsubd     %d10, %d56, %d12
    0x10000c444:            bb a3 09 57  fmuld     %d12, %d54, %d60
    0x10000c448:            16 4f ff d7  bge,pt    %icc, -0xa4   <0x10000c3a4>
    0x10000c44c:            a3 a4 48 cc  fsubd     %d48, %d12, %d48
    0x10000c450:            bf a4 49 4e  fmuld     %d48, %d14, %d62
    0x10000c454:            ff 3c 60 00  std       %d62, [%l1]
    0x10000c458:            94 24 60 08  sub       %l1, 0x8, %o2
    0x10000c45c:            96 10 00 0d  mov       %o5, %o3
    0x10000c460:            a1 a3 89 55  fmuld     %d14, %d52, %d16
    0x10000c464:            80 a3 e0 01  cmp       %o7, 0x1
    0x10000c468:            06 40 00 11  bl,pn     %icc, +0x44   <0x10000c4ac>
    0x10000c46c:            01 00 00 00  nop
    0x10000c470:            cd 1a e0 00  ldd       [%o3], %d6
    0x10000c474:            91 a7 48 46  faddd     %d60, %d6, %d8
    0x10000c478:            9e 03 ff ff  add       %o7, -0x1, %o7
    0x10000c47c:            96 22 e0 08  sub       %o3, 0x8, %o3
    0x10000c480:            80 a3 e0 01  cmp       %o7, 0x1
    0x10000c484:            95 a2 08 59  faddd     %d8, %d56, %d10
    0x10000c488:            99 a2 88 d9  fsubd     %d10, %d56, %d12
    0x10000c48c:            bf a2 08 cc  fsubd     %d8, %d12, %d62
    0x10000c490:            bb a3 09 57  fmuld     %d12, %d54, %d60
    0x10000c494:            9d a7 c9 50  fmuld     %d62, %d16, %d14
    0x10000c498:            dd 3a a0 00  std       %d14, [%o2]
    0x10000c49c:            a1 a4 09 55  fmuld     %d16, %d52, %d16
    0x10000c4a0:            94 22 a0 08  sub       %o2, 0x8, %o2
    0x10000c4a4:            36 4f ff f4  bge,a,pt  %icc, -0x30   <0x10000c474>
    0x10000c4a8:            cd 1a e0 00  ldd       [%o3], %d6
    0x10000c4ac:            d9 1f a7 5f  ldd       [%fp + 0x75f], %d12
    0x10000c4b0:            80 a1 60 00  cmp       %g5, 0x0
    0x10000c4b4:            dd 1c e0 20  ldd       [%l3 + 0x20], %d14
    0x10000c4b8:            bb a7 48 4c  faddd     %d60, %d12, %d60
    0x10000c4bc:            bf a7 48 4e  faddd     %d60, %d14, %d62
    0x10000c4c0:            a7 a7 c8 ce  fsubd     %d62, %d14, %d50
    0x10000c4c4:            a3 a7 48 d3  fsubd     %d60, %d50, %d48
    0x10000c4c8:            b7 a4 c9 50  fmuld     %d50, %d16, %d58
    0x10000c4cc:            04 40 00 12  ble,pn    %icc, +0x48   <0x10000c514>
    0x10000c4d0:            b3 a4 49 50  fmuld     %d48, %d16, %d56
    0x10000c4d4:            cd 1f a6 bf  ldd       [%fp + 0x6bf], %d6
    0x10000c4d8:            e7 1f a6 c7  ldd       [%fp + 0x6c7], %d50
    0x10000c4dc:            b7 a1 88 53  faddd     %d6, %d50, %d58
    0x10000c4e0:            a3 a6 c8 4f  faddd     %d58, %d46, %d48
    0x10000c4e4:            95 a4 48 cf  fsubd     %d48, %d46, %d10
    0x10000c4e8:            91 a6 48 4a  faddd     %d56, %d10, %d8
    0x10000c4ec:            b3 a1 88 ca  fsubd     %d6, %d10, %d56
    0x10000c4f0:            f3 3f a6 bf  std       %d56, [%fp + 0x6bf]
    0x10000c4f4:            db 3f a6 af  std       %d44, [%fp + 0x6af]
    0x10000c4f8:            89 a0 1a 48  fdtoi     %d8, %f4
    0x10000c4fc:            c9 23 a8 af  st        %f4, [%sp + 0x8af]
    0x10000c500:            b3 a0 00 4d  fmovd     %d44, %d56
    0x10000c504:            81 41 40 00  rd        %pc, %g0
    0x10000c508:            d4 03 a8 af  ld        [%sp + 0x8af], %o2
    0x10000c50c:            10 80 00 1f  ba        +0x7c         <0x10000c588>
    0x10000c510:            80 a6 a0 00  cmp       %i2, 0x0
    0x10000c514:            80 a1 7f e8  cmp       %g5, -0x18
    0x10000c518:            04 40 00 12  ble,pn    %icc, +0x48   <0x10000c560>
    0x10000c51c:            d9 1c e0 20  ldd       [%l3 + 0x20], %d12
    0x10000c520:            e3 1f a6 bf  ldd       [%fp + 0x6bf], %d48
    0x10000c524:            db 3f a6 af  std       %d44, [%fp + 0x6af]
    0x10000c528:            8d a6 48 51  faddd     %d56, %d48, %d6
    0x10000c52c:            95 a1 88 4f  faddd     %d6, %d46, %d10
    0x10000c530:            91 a2 88 cf  fsubd     %d10, %d46, %d8
    0x10000c534:            bb a6 c8 48  faddd     %d58, %d8, %d60
    0x10000c538:            b3 a6 48 c8  fsubd     %d56, %d8, %d56
    0x10000c53c:            a1 a7 48 4c  faddd     %d60, %d12, %d16
    0x10000c540:            bf a4 08 cc  fsubd     %d16, %d12, %d62
    0x10000c544:            9d a7 48 df  fsubd     %d60, %d62, %d14
    0x10000c548:            85 a0 1a 4e  fdtoi     %d14, %f2
    0x10000c54c:            c5 23 a8 af  st        %f2, [%sp + 0x8af]
    0x10000c550:            81 41 40 00  rd        %pc, %g0
    0x10000c554:            d4 03 a8 af  ld        [%sp + 0x8af], %o2
    0x10000c558:            10 80 00 0c  ba        +0x30         <0x10000c588>
    0x10000c55c:            80 a6 a0 00  cmp       %i2, 0x0
    0x10000c560:            bb a6 c8 59  faddd     %d58, %d56, %d60
    0x10000c564:            80 a6 a0 00  cmp       %i2, 0x0
    0x10000c568:            9d a7 48 4f  faddd     %d60, %d46, %d14
    0x10000c56c:            a7 a3 88 cf  fsubd     %d14, %d46, %d50
    0x10000c570:            81 a0 1a 53  fdtoi     %d50, %f0
    0x10000c574:            c1 23 a8 af  st        %f0, [%sp + 0x8af]
    0x10000c578:            b7 a6 c8 d3  fsubd     %d58, %d50, %d58
    0x10000c57c:            f7 3f a6 af  std       %d58, [%fp + 0x6af]
    0x10000c580:            81 41 40 00  rd        %pc, %g0
    0x10000c584:            d4 03 a8 af  ld        [%sp + 0x8af], %o2
    0x10000c588:            06 40 00 0e  bl,pn     %icc, +0x38   <0x10000c5c0>
    0x10000c58c:            f3 3f a6 b7  std       %d56, [%fp + 0x6b7]
    0x10000c590:            aa 10 20 00  clr       %l5
    0x10000c594:            ba 07 a6 af  add       %fp, 0x6af, %i5
    0x10000c598:            ff 1f a6 af  ldd       [%fp + 0x6af], %d62
    0x10000c59c:            81 af ca 4d  fcmpd     %fcc0, %d62, %d44
    0x10000c5a0:            03 40 00 09  fbne,pn   %fcc0, +0x24   <0x10000c5c4>
    0x10000c5a4:            ba 07 60 08  add       %i5, 0x8, %i5
    0x10000c5a8:            aa 05 60 01  add       %l5, 0x1, %l5
    0x10000c5ac:            80 a5 40 1a  cmp       %l5, %i2
    0x10000c5b0:            24 4f ff fb  ble,a,pt  %icc, -0x14   <0x10000c59c>
    0x10000c5b4:            ff 1f 60 00  ldd       [%i5], %d62
    0x10000c5b8:            10 80 00 04  ba        +0x10         <0x10000c5c8>
    0x10000c5bc:            a0 26 80 15  sub       %i2, %l5, %l0
    0x10000c5c0:            aa 10 20 00  clr       %l5
    0x10000c5c4:            a0 26 80 15  sub       %i2, %l5, %l0
    0x10000c5c8:            80 a4 20 04  cmp       %l0, 0x4
    0x10000c5cc:            16 40 00 6d  bge,pn    %icc, +0x1b4  <0x10000c780>
    0x10000c5d0:            ba 06 a0 01  add       %i2, 0x1, %i5
    0x10000c5d4:            94 05 60 04  add       %l5, 0x4, %o2
    0x10000c5d8:            80 a7 40 0a  cmp       %i5, %o2
    0x10000c5dc:            14 40 00 60  bg,pn     %icc, +0x180  <0x10000c75c>
    0x10000c5e0:            b4 26 80 0a  sub       %i2, %o2, %i2
    0x10000c5e4:            e1 1e 20 00  ldd       [%i0], %d16
    0x10000c5e8:            97 3f 60 00  sra       %i5, 0x0, %o3
    0x10000c5ec:            9a 01 00 16  add       %g4, %l6, %o5
    0x10000c5f0:            a1 2a f0 03  sllx      %o3, 0x3, %l0
    0x10000c5f4:            97 2e a0 02  sll       %i2, 0x2, %o3
    0x10000c5f8:            96 22 c0 1a  sub       %o3, %i2, %o3
    0x10000c5fc:            b4 03 60 08  add       %o5, 0x8, %i2
    0x10000c600:            97 2a e0 03  sll       %o3, 0x3, %o3
    0x10000c604:            9a 06 80 10  add       %i2, %l0, %o5
    0x10000c608:            d9 1b 60 08  ldd       [%o5 + 0x8], %d12
    0x10000c60c:            90 02 c0 08  add       %o3, %o0, %o0
    0x10000c610:            9e 04 00 17  add       %l0, %l7, %o7
    0x10000c614:            80 a6 e0 01  cmp       %i3, 0x1
    0x10000c618:            04 40 00 48  ble,pn    %icc, +0x120  <0x10000c738>
    0x10000c61c:            b3 a4 09 4c  fmuld     %d16, %d12, %d56
    0x10000c620:            a2 10 00 0d  mov       %o5, %l1
    0x10000c624:            98 10 00 09  mov       %o1, %o4
    0x10000c628:            a0 10 20 01  mov       0x1, %l0
    0x10000c62c:            80 a4 a0 07  cmp       %l2, 0x7
    0x10000c630:            06 40 00 38  bl,pn     %icc, +0xe0   <0x10000c710>
    0x10000c634:            01 00 00 00  nop
    0x10000c638:            c1 6e 20 08  prefetch  [%i0 + 0x8], #n_reads
    0x10000c63c:            c1 6b 60 00  prefetch  [%o5], #n_reads
    0x10000c640:            aa 23 60 10  sub       %o5, 0x10, %l5
    0x10000c644:            a8 06 20 20  add       %i0, 0x20, %l4
    0x10000c648:            c1 6b 7f c0  prefetch  [%o5 - 0x40], #n_reads
    0x10000c64c:            a0 10 20 04  mov       0x4, %l0
    0x10000c650:            b4 06 ff fc  add       %i3, -0x4, %i2
    0x10000c654:            c1 6e 20 48  prefetch  [%i0 + 0x48], #n_reads
    0x10000c658:            c1 6e 20 88  prefetch  [%i0 + 0x88], #n_reads
    0x10000c65c:            c1 6b 7f 80  prefetch  [%o5 - 0x80], #n_reads
    0x10000c660:            c1 6e 20 c8  prefetch  [%i0 + 0xc8], #n_reads
    0x10000c664:            c1 6b 7f 40  prefetch  [%o5 - 0xc0], #n_reads
    0x10000c668:            dd 1b 60 00  ldd       [%o5], %d14
    0x10000c66c:            c1 6e 21 08  prefetch  [%i0 + 0x108], #n_reads
    0x10000c670:            c1 6b 7f 00  prefetch  [%o5 - 0x100], #n_reads
    0x10000c674:            f7 1e 20 08  ldd       [%i0 + 0x8], %d58
    0x10000c678:            d5 1e 20 10  ldd       [%i0 + 0x10], %d10
    0x10000c67c:            cd 1b 7f f8  ldd       [%o5 - 0x8], %d6
    0x10000c680:            bb a6 c9 4e  fmuld     %d58, %d14, %d60
    0x10000c684:            d9 1e 20 18  ldd       [%i0 + 0x18], %d12
    0x10000c688:            95 a2 89 46  fmuld     %d10, %d6, %d10
    0x10000c68c:            a7 a6 48 5d  faddd     %d56, %d60, %d50
    0x10000c690:            a0 04 20 04  add       %l0, 0x4, %l0
    0x10000c694:            e3 1d 60 00  ldd       [%l5], %d48
    0x10000c698:            aa 25 60 20  sub       %l5, 0x20, %l5
    0x10000c69c:            c1 6d 21 10  prefetch  [%l4 + 0x110], #n_reads
    0x10000c6a0:            80 a4 00 1a  cmp       %l0, %i2
    0x10000c6a4:            a8 05 20 20  add       %l4, 0x20, %l4
    0x10000c6a8:            b3 a3 09 51  fmuld     %d12, %d48, %d56
    0x10000c6ac:            91 a4 c8 4a  faddd     %d50, %d10, %d8
    0x10000c6b0:            d9 1d 3f e0  ldd       [%l4 - 0x20], %d12
    0x10000c6b4:            e7 1d 60 18  ldd       [%l5 + 0x18], %d50
    0x10000c6b8:            c1 6d 7f 08  prefetch  [%l5 - 0xf8], #n_reads
    0x10000c6bc:            bb a3 09 53  fmuld     %d12, %d50, %d60
    0x10000c6c0:            b7 a2 08 59  faddd     %d8, %d56, %d58
    0x10000c6c4:            dd 1d 3f e8  ldd       [%l4 - 0x18], %d14
    0x10000c6c8:            ff 1d 60 10  ldd       [%l5 + 0x10], %d62
    0x10000c6cc:            a3 a3 89 5f  fmuld     %d14, %d62, %d48
    0x10000c6d0:            a7 a6 c8 5d  faddd     %d58, %d60, %d50
    0x10000c6d4:            d5 1d 3f f0  ldd       [%l4 - 0x10], %d10
    0x10000c6d8:            cd 1d 60 08  ldd       [%l5 + 0x8], %d6
    0x10000c6dc:            95 a2 89 46  fmuld     %d10, %d6, %d10
    0x10000c6e0:            a7 a4 c8 51  faddd     %d50, %d48, %d50
    0x10000c6e4:            04 4f ff eb  ble,pt    %icc, -0x54   <0x10000c690>
    0x10000c6e8:            d9 1d 3f f8  ldd       [%l4 - 0x8], %d12
    0x10000c6ec:            f3 1d 60 00  ldd       [%l5], %d56
    0x10000c6f0:            91 a4 c8 4a  faddd     %d50, %d10, %d8
    0x10000c6f4:            98 10 00 14  mov       %l4, %o4
    0x10000c6f8:            a2 25 60 08  sub       %l5, 0x8, %l1
    0x10000c6fc:            80 a4 00 12  cmp       %l0, %l2
    0x10000c700:            bf a3 09 59  fmuld     %d12, %d56, %d62
    0x10000c704:            b3 a2 08 5f  faddd     %d8, %d62, %d56
    0x10000c708:            14 40 00 0c  bg,pn     %icc, +0x30   <0x10000c738>
    0x10000c70c:            01 00 00 00  nop
    0x10000c710:            cd 1c 60 00  ldd       [%l1], %d6
    0x10000c714:            d5 1b 20 00  ldd       [%o4], %d10
    0x10000c718:            a0 04 20 01  add       %l0, 0x1, %l0
    0x10000c71c:            a2 24 60 08  sub       %l1, 0x8, %l1
    0x10000c720:            98 03 20 08  add       %o4, 0x8, %o4
    0x10000c724:            80 a4 00 12  cmp       %l0, %l2
    0x10000c728:            91 a2 89 46  fmuld     %d10, %d6, %d8
    0x10000c72c:            b3 a6 48 48  faddd     %d56, %d8, %d56
    0x10000c730:            24 4f ff f9  ble,a,pt  %icc, -0x1c   <0x10000c714>
    0x10000c734:            cd 1c 60 00  ldd       [%l1], %d6
    0x10000c738:            f3 3b e0 00  std       %d56, [%o7]
    0x10000c73c:            ba 07 60 01  add       %i5, 0x1, %i5
    0x10000c740:            9a 03 60 08  add       %o5, 0x8, %o5
    0x10000c744:            9e 03 e0 08  add       %o7, 0x8, %o7
    0x10000c748:            80 a7 40 0a  cmp       %i5, %o2
    0x10000c74c:            24 4f ff b2  ble,a,pt  %icc, -0x138  <0x10000c614>
    0x10000c750:            d9 1b 60 08  ldd       [%o5 + 0x8], %d12
    0x10000c754:            ba 02 23 ff  add       %o0, 0x3ff, %i5
    0x10000c758:            a9 2f 60 14  sll       %i5, 0x14, %l4
    0x10000c75c:            a1 3a a0 00  sra       %o2, 0x0, %l0
    0x10000c760:            b4 10 00 0a  mov       %o2, %i2
    0x10000c764:            9b 2c 30 03  sllx      %l0, 0x3, %o5
    0x10000c768:            9e 02 bf ff  add       %o2, -0x1, %o7
    0x10000c76c:            fb 1b 40 17  ldd       [%o5 + %l7], %d60
    0x10000c770:            95 2d 30 20  sllx      %l4, 0x20, %o2
    0x10000c774:            d4 77 a7 57  stx       %o2, [%fp + 0x757]
    0x10000c778:            10 bf fe e3  ba        -0x474        <0x10000c304>
    0x10000c77c:            bb a7 49 57  fmuld     %d60, %d54, %d60
    0x10000c780:            97 3d 60 00  sra       %l5, 0x0, %o3
    0x10000c784:            d1 1c e0 30  ldd       [%l3 + 0x30], %d8
    0x10000c788:            ac 04 3f fd  add       %l0, -0x3, %l6
    0x10000c78c:            9b 2a f0 03  sllx      %o3, 0x3, %o5
    0x10000c790:            e3 1c e0 28  ldd       [%l3 + 0x28], %d48
    0x10000c794:            b6 07 a7 7f  add       %fp, 0x77f, %i3
    0x10000c798:            96 03 40 01  add       %o5, %g1, %o3
    0x10000c79c:            df 1b 40 01  ldd       [%o5 + %g1], %d46
    0x10000c7a0:            b4 10 20 04  mov       0x4, %i2
    0x10000c7a4:            d5 1a e0 18  ldd       [%o3 + 0x18], %d10
    0x10000c7a8:            80 a5 a0 0c  cmp       %l6, 0xc
    0x10000c7ac:            f7 1a e0 10  ldd       [%o3 + 0x10], %d58
    0x10000c7b0:            ef 1a e0 08  ldd       [%o3 + 0x8], %d54
    0x10000c7b4:            a1 a3 c9 48  fmuld     %d46, %d8, %d16
    0x10000c7b8:            b3 a2 89 51  fmuld     %d10, %d48, %d56
    0x10000c7bc:            eb 1c e0 38  ldd       [%l3 + 0x38], %d52
    0x10000c7c0:            99 a6 c9 48  fmuld     %d58, %d8, %d12
    0x10000c7c4:            e7 1c e0 40  ldd       [%l3 + 0x40], %d50
    0x10000c7c8:            9d a6 c9 51  fmuld     %d58, %d48, %d14
    0x10000c7cc:            cd 1c e0 28  ldd       [%l3 + 0x28], %d6
    0x10000c7d0:            bf a5 c9 48  fmuld     %d54, %d8, %d62
    0x10000c7d4:            d5 1c e0 30  ldd       [%l3 + 0x30], %d10
    0x10000c7d8:            9b a5 c9 55  fmuld     %d54, %d52, %d44
    0x10000c7dc:            d1 1c e0 38  ldd       [%l3 + 0x38], %d8
    0x10000c7e0:            b3 a6 48 4c  faddd     %d56, %d12, %d56
    0x10000c7e4:            b7 a3 c9 53  fmuld     %d46, %d50, %d58
    0x10000c7e8:            fd 1c e0 48  ldd       [%l3 + 0x48], %d30
    0x10000c7ec:            af a5 c9 51  fmuld     %d54, %d48, %d54
    0x10000c7f0:            bb a3 88 5f  faddd     %d14, %d62, %d60
    0x10000c7f4:            ab a3 c9 55  fmuld     %d46, %d52, %d52
    0x10000c7f8:            99 a3 c9 51  fmuld     %d46, %d48, %d12
    0x10000c7fc:            d9 3f a7 5f  std       %d12, [%fp + 0x75f]
    0x10000c800:            a7 a6 48 4d  faddd     %d56, %d44, %d50
    0x10000c804:            bf a5 c8 50  faddd     %d54, %d16, %d62
    0x10000c808:            ff 3f a7 67  std       %d62, [%fp + 0x767]
    0x10000c80c:            9d a7 48 55  faddd     %d60, %d52, %d14
    0x10000c810:            dd 3f a7 6f  std       %d14, [%fp + 0x76f]
    0x10000c814:            a3 a4 c8 5b  faddd     %d50, %d58, %d48
    0x10000c818:            e3 3f a7 77  std       %d48, [%fp + 0x777]
    0x10000c81c:            06 40 00 b1  bl,pn     %icc, +0x2c4  <0x10000cae0>
    0x10000c820:            01 00 00 00  nop
    0x10000c824:            c1 6a e0 20  prefetch  [%o3 + 0x20], #n_reads
    0x10000c828:            aa 02 e0 20  add       %o3, 0x20, %l5
    0x10000c82c:            b4 10 20 08  mov       0x8, %i2
    0x10000c830:            c1 6a e0 60  prefetch  [%o3 + 0x60], #n_reads
    0x10000c834:            ac 24 20 07  sub       %l0, 0x7, %l6
    0x10000c838:            ed 6e e0 00  prefetch  [%i3], #n_writes_strong
    0x10000c83c:            ed 6e e0 40  prefetch  [%i3 + 0x40], #n_writes_strong
    0x10000c840:            c1 6a e0 a0  prefetch  [%o3 + 0xa0], #n_reads
    0x10000c844:            ed 6e e0 80  prefetch  [%i3 + 0x80], #n_writes_strong
    0x10000c848:            c1 6a e0 e0  prefetch  [%o3 + 0xe0], #n_reads
    0x10000c84c:            ed 6e e0 c0  prefetch  [%i3 + 0xc0], #n_writes_strong
    0x10000c850:            f9 1c e0 40  ldd       [%l3 + 0x40], %d28
    0x10000c854:            f3 1a e0 08  ldd       [%o3 + 0x8], %d56
    0x10000c858:            eb 1a e0 18  ldd       [%o3 + 0x18], %d52
    0x10000c85c:            dd 1a e0 20  ldd       [%o3 + 0x20], %d14
    0x10000c860:            f7 1a e0 10  ldd       [%o3 + 0x10], %d58
    0x10000c864:            ad a6 49 5c  fmuld     %d56, %d28, %d22
    0x10000c868:            a1 a0 00 59  fmovd     %d56, %d16
    0x10000c86c:            a3 a2 89 55  fmuld     %d10, %d52, %d48
    0x10000c870:            c1 6a e1 20  prefetch  [%o3 + 0x120], #n_reads
    0x10000c874:            af a1 89 4e  fmuld     %d6, %d14, %d54
    0x10000c878:            b5 a2 09 5b  fmuld     %d8, %d58, %d26
    0x10000c87c:            9f a6 c9 5c  fmuld     %d58, %d28, %d46
    0x10000c880:            f7 1b 40 01  ldd       [%o5 + %g1], %d58
    0x10000c884:            d9 1a e0 28  ldd       [%o3 + 0x28], %d12
    0x10000c888:            a7 a2 89 4e  fmuld     %d10, %d14, %d50
    0x10000c88c:            b3 a5 c8 51  faddd     %d54, %d48, %d56
    0x10000c890:            b1 a2 09 55  fmuld     %d8, %d52, %d24
    0x10000c894:            fb 1a e0 30  ldd       [%o3 + 0x30], %d60
    0x10000c898:            a5 a7 89 5b  fmuld     %d30, %d58, %d18
    0x10000c89c:            ff 1a e0 38  ldd       [%o3 + 0x38], %d62
    0x10000c8a0:            9b a1 89 4c  fmuld     %d6, %d12, %d44
    0x10000c8a4:            ed 6e e1 00  prefetch  [%i3 + 0x100], #n_writes_strong
    0x10000c8a8:            a9 a1 89 5d  fmuld     %d6, %d60, %d20
    0x10000c8ac:            af a6 48 5a  faddd     %d56, %d26, %d54
    0x10000c8b0:            a3 a5 49 5c  fmuld     %d52, %d28, %d48
    0x10000c8b4:            b3 a2 89 5d  fmuld     %d10, %d60, %d56
    0x10000c8b8:            b7 a3 48 53  faddd     %d44, %d50, %d58
    0x10000c8bc:            9b a7 89 50  fmuld     %d30, %d16, %d44
    0x10000c8c0:            a1 a2 89 4c  fmuld     %d10, %d12, %d16
    0x10000c8c4:            b5 a5 c8 56  faddd     %d54, %d22, %d26
    0x10000c8c8:            ab a2 09 4e  fmuld     %d8, %d14, %d52
    0x10000c8cc:            a7 a6 c8 58  faddd     %d58, %d24, %d50
    0x10000c8d0:            b7 a1 89 5f  fmuld     %d6, %d62, %d58
    0x10000c8d4:            af a5 08 50  faddd     %d20, %d16, %d54
    0x10000c8d8:            a1 a6 88 52  faddd     %d26, %d18, %d16
    0x10000c8dc:            b5 a2 89 5f  fmuld     %d10, %d62, %d26
    0x10000c8e0:            a7 a4 c8 4f  faddd     %d50, %d46, %d50
    0x10000c8e4:            b4 06 a0 08  add       %i2, 0x8, %i2
    0x10000c8e8:            f1 1d 60 20  ldd       [%l5 + 0x20], %d24
    0x10000c8ec:            9f a2 09 4c  fmuld     %d8, %d12, %d46
    0x10000c8f0:            ab a5 c8 55  faddd     %d54, %d52, %d52
    0x10000c8f4:            80 a6 80 16  cmp       %i2, %l6
    0x10000c8f8:            ef 1d 7f f0  ldd       [%l5 - 0x10], %d54
    0x10000c8fc:            e1 3e e0 00  std       %d16, [%i3]
    0x10000c900:            9d a3 89 5c  fmuld     %d14, %d28, %d14
    0x10000c904:            b7 a6 c8 59  faddd     %d58, %d56, %d58
    0x10000c908:            b6 06 e0 40  add       %i3, 0x40, %i3
    0x10000c90c:            c1 6d 61 30  prefetch  [%l5 + 0x130], #n_reads
    0x10000c910:            a1 a1 89 58  fmuld     %d6, %d24, %d16
    0x10000c914:            aa 05 60 40  add       %l5, 0x40, %l5
    0x10000c918:            af a7 89 57  fmuld     %d30, %d54, %d54
    0x10000c91c:            b3 a4 c8 4d  faddd     %d50, %d44, %d56
    0x10000c920:            9b a2 89 58  fmuld     %d10, %d24, %d44
    0x10000c924:            ab a5 48 51  faddd     %d52, %d48, %d52
    0x10000c928:            ed 1d 7f e8  ldd       [%l5 - 0x18], %d22
    0x10000c92c:            a3 a2 09 5d  fmuld     %d8, %d60, %d48
    0x10000c930:            a7 a6 c8 4f  faddd     %d58, %d46, %d50
    0x10000c934:            f7 1d 7f b8  ldd       [%l5 - 0x48], %d58
    0x10000c938:            f3 3e ff c8  std       %d56, [%i3 - 0x38]
    0x10000c93c:            99 a3 09 5c  fmuld     %d12, %d28, %d12
    0x10000c940:            b3 a4 08 5a  faddd     %d16, %d26, %d56
    0x10000c944:            ed 6e e0 d8  prefetch  [%i3 + 0xd8], #n_writes_strong
    0x10000c948:            9f a1 89 56  fmuld     %d6, %d22, %d46
    0x10000c94c:            a1 a7 89 5b  fmuld     %d30, %d58, %d16
    0x10000c950:            b7 a5 48 57  faddd     %d52, %d54, %d58
    0x10000c954:            b5 a2 89 56  fmuld     %d10, %d22, %d26
    0x10000c958:            af a4 c8 4e  faddd     %d50, %d14, %d54
    0x10000c95c:            e9 1d 7f f0  ldd       [%l5 - 0x10], %d20
    0x10000c960:            a7 a2 09 5f  fmuld     %d8, %d62, %d50
    0x10000c964:            ab a6 48 51  faddd     %d56, %d48, %d52
    0x10000c968:            f3 1d 7f c0  ldd       [%l5 - 0x40], %d56
    0x10000c96c:            f7 3e ff d0  std       %d58, [%i3 - 0x30]
    0x10000c970:            9d a7 49 5c  fmuld     %d60, %d28, %d14
    0x10000c974:            bb a3 c8 4d  faddd     %d46, %d44, %d60
    0x10000c978:            a3 a1 89 54  fmuld     %d6, %d20, %d48
    0x10000c97c:            b3 a7 89 59  fmuld     %d30, %d56, %d56
    0x10000c980:            b7 a5 c8 50  faddd     %d54, %d16, %d58
    0x10000c984:            9b a2 89 54  fmuld     %d10, %d20, %d44
    0x10000c988:            af a5 48 4c  faddd     %d52, %d12, %d54
    0x10000c98c:            e1 1d 7f f8  ldd       [%l5 - 0x8], %d16
    0x10000c990:            9f a2 09 58  fmuld     %d8, %d24, %d46
    0x10000c994:            ab a7 48 53  faddd     %d60, %d50, %d52
    0x10000c998:            e7 1d 7f c8  ldd       [%l5 - 0x38], %d50
    0x10000c99c:            f7 3e ff d8  std       %d58, [%i3 - 0x28]
    0x10000c9a0:            99 a7 c9 5c  fmuld     %d62, %d28, %d12
    0x10000c9a4:            bf a4 48 5a  faddd     %d48, %d26, %d62
    0x10000c9a8:            b7 a1 89 50  fmuld     %d6, %d16, %d58
    0x10000c9ac:            a7 a7 89 53  fmuld     %d30, %d50, %d50
    0x10000c9b0:            bb a5 c8 59  faddd     %d54, %d56, %d60
    0x10000c9b4:            a3 a2 89 50  fmuld     %d10, %d16, %d48
    0x10000c9b8:            b3 a5 48 4e  faddd     %d52, %d14, %d56
    0x10000c9bc:            dd 1d 60 00  ldd       [%l5], %d14
    0x10000c9c0:            ab a2 09 56  fmuld     %d8, %d22, %d52
    0x10000c9c4:            af a7 c8 4f  faddd     %d62, %d46, %d54
    0x10000c9c8:            df 1d 7f d0  ldd       [%l5 - 0x30], %d46
    0x10000c9cc:            fb 3e ff e0  std       %d60, [%i3 - 0x20]
    0x10000c9d0:            b5 a6 09 5c  fmuld     %d24, %d28, %d26
    0x10000c9d4:            bb a6 c8 4d  faddd     %d58, %d44, %d60
    0x10000c9d8:            c1 6d 61 10  prefetch  [%l5 + 0x110], #n_reads
    0x10000c9dc:            b7 a1 89 4e  fmuld     %d6, %d14, %d58
    0x10000c9e0:            9f a7 89 4f  fmuld     %d30, %d46, %d46
    0x10000c9e4:            bf a6 48 53  faddd     %d56, %d50, %d62
    0x10000c9e8:            9b a2 89 4e  fmuld     %d10, %d14, %d44
    0x10000c9ec:            b3 a5 c8 4c  faddd     %d54, %d12, %d56
    0x10000c9f0:            d9 1d 60 08  ldd       [%l5 + 0x8], %d12
    0x10000c9f4:            a7 a2 09 54  fmuld     %d8, %d20, %d50
    0x10000c9f8:            af a7 48 55  faddd     %d60, %d52, %d54
    0x10000c9fc:            fb 1d 7f d8  ldd       [%l5 - 0x28], %d60
    0x10000ca00:            ff 3e ff e8  std       %d62, [%i3 - 0x18]
    0x10000ca04:            b1 a5 89 5c  fmuld     %d22, %d28, %d24
    0x10000ca08:            bf a6 c8 51  faddd     %d58, %d48, %d62
    0x10000ca0c:            ed 6e e0 f8  prefetch  [%i3 + 0xf8], #n_writes_strong
    0x10000ca10:            ab a1 89 4c  fmuld     %d6, %d12, %d52
    0x10000ca14:            a3 a7 89 5d  fmuld     %d30, %d60, %d48
    0x10000ca18:            b7 a6 48 4f  faddd     %d56, %d46, %d58
    0x10000ca1c:            ad a2 89 4c  fmuld     %d10, %d12, %d22
    0x10000ca20:            b3 a5 c8 5a  faddd     %d54, %d26, %d56
    0x10000ca24:            fb 1d 60 10  ldd       [%l5 + 0x10], %d60
    0x10000ca28:            b5 a2 09 50  fmuld     %d8, %d16, %d26
    0x10000ca2c:            af a7 c8 53  faddd     %d62, %d50, %d54
    0x10000ca30:            e7 1d 7f e0  ldd       [%l5 - 0x20], %d50
    0x10000ca34:            f7 3e ff f0  std       %d58, [%i3 - 0x10]
    0x10000ca38:            9f a5 09 5c  fmuld     %d20, %d28, %d46
    0x10000ca3c:            b7 a5 48 4d  faddd     %d52, %d44, %d58
    0x10000ca40:            9b a1 89 5d  fmuld     %d6, %d60, %d44
    0x10000ca44:            a9 a7 89 53  fmuld     %d30, %d50, %d20
    0x10000ca48:            a3 a6 48 51  faddd     %d56, %d48, %d48
    0x10000ca4c:            b3 a2 89 5d  fmuld     %d10, %d60, %d56
    0x10000ca50:            b1 a5 c8 58  faddd     %d54, %d24, %d24
    0x10000ca54:            ff 1d 60 18  ldd       [%l5 + 0x18], %d62
    0x10000ca58:            ab a2 09 4e  fmuld     %d8, %d14, %d52
    0x10000ca5c:            a7 a6 c8 5a  faddd     %d58, %d26, %d50
    0x10000ca60:            f5 1d 7f e8  ldd       [%l5 - 0x18], %d26
    0x10000ca64:            e3 3e ff f8  std       %d48, [%i3 - 0x8]
    0x10000ca68:            a3 a4 09 5c  fmuld     %d16, %d28, %d48
    0x10000ca6c:            af a3 48 56  faddd     %d44, %d22, %d54
    0x10000ca70:            b7 a1 89 5f  fmuld     %d6, %d62, %d58
    0x10000ca74:            9b a7 89 5a  fmuld     %d30, %d26, %d44
    0x10000ca78:            04 4f ff 99  ble,pt    %icc, -0x19c  <0x10000c8dc>
    0x10000ca7c:            a1 a6 08 54  faddd     %d24, %d20, %d16
    0x10000ca80:            bb a2 09 4c  fmuld     %d8, %d12, %d60
    0x10000ca84:            b7 a6 c8 59  faddd     %d58, %d56, %d58
    0x10000ca88:            ff 1d 7f f0  ldd       [%l5 - 0x10], %d62
    0x10000ca8c:            96 10 00 15  mov       %l5, %o3
    0x10000ca90:            e1 3e e0 00  std       %d16, [%i3]
    0x10000ca94:            af a5 c8 55  faddd     %d54, %d52, %d54
    0x10000ca98:            9d a3 89 5c  fmuld     %d14, %d28, %d14
    0x10000ca9c:            80 a6 80 10  cmp       %i2, %l0
    0x10000caa0:            f3 1d 7f f8  ldd       [%l5 - 0x8], %d56
    0x10000caa4:            9f a4 c8 4f  faddd     %d50, %d46, %d46
    0x10000caa8:            b6 06 e0 20  add       %i3, 0x20, %i3
    0x10000caac:            ab a7 89 5f  fmuld     %d30, %d62, %d52
    0x10000cab0:            a1 a6 c8 5d  faddd     %d58, %d60, %d16
    0x10000cab4:            a7 a7 89 59  fmuld     %d30, %d56, %d50
    0x10000cab8:            a3 a5 c8 51  faddd     %d54, %d48, %d48
    0x10000cabc:            9b a3 c8 4d  faddd     %d46, %d44, %d44
    0x10000cac0:            db 3e ff e8  std       %d44, [%i3 - 0x18]
    0x10000cac4:            bf a4 08 4e  faddd     %d16, %d14, %d62
    0x10000cac8:            99 a4 48 55  faddd     %d48, %d52, %d12
    0x10000cacc:            d9 3e ff f0  std       %d12, [%i3 - 0x10]
    0x10000cad0:            bb a7 c8 53  faddd     %d62, %d50, %d60
    0x10000cad4:            fb 3e ff f8  std       %d60, [%i3 - 0x8]
    0x10000cad8:            14 40 00 18  bg,pn     %icc, +0x60   <0x10000cb38>
    0x10000cadc:            01 00 00 00  nop
    0x10000cae0:            e7 1a e0 18  ldd       [%o3 + 0x18], %d50
    0x10000cae4:            e3 1a e0 20  ldd       [%o3 + 0x20], %d48
    0x10000cae8:            9f a2 89 53  fmuld     %d10, %d50, %d46
    0x10000caec:            b4 06 a0 01  add       %i2, 0x1, %i2
    0x10000caf0:            f7 1a e0 10  ldd       [%o3 + 0x10], %d58
    0x10000caf4:            80 a6 80 10  cmp       %i2, %l0
    0x10000caf8:            eb 1a e0 08  ldd       [%o3 + 0x8], %d52
    0x10000cafc:            9b a1 89 51  fmuld     %d6, %d48, %d44
    0x10000cb00:            f9 1c e0 40  ldd       [%l3 + 0x40], %d28
    0x10000cb04:            af a2 09 5b  fmuld     %d8, %d58, %d54
    0x10000cb08:            e1 1a e0 00  ldd       [%o3], %d16
    0x10000cb0c:            96 02 e0 08  add       %o3, 0x8, %o3
    0x10000cb10:            b3 a5 49 5c  fmuld     %d52, %d28, %d56
    0x10000cb14:            99 a3 48 4f  faddd     %d44, %d46, %d12
    0x10000cb18:            9d a7 89 50  fmuld     %d30, %d16, %d14
    0x10000cb1c:            bf a3 08 57  faddd     %d12, %d54, %d62
    0x10000cb20:            bb a7 c8 59  faddd     %d62, %d56, %d60
    0x10000cb24:            a7 a7 48 4e  faddd     %d60, %d14, %d50
    0x10000cb28:            e7 3e e0 00  std       %d50, [%i3]
    0x10000cb2c:            b6 06 e0 08  add       %i3, 0x8, %i3
    0x10000cb30:            24 4f ff ed  ble,a,pt  %icc, -0x4c   <0x10000cae4>
    0x10000cb34:            e7 1a e0 18  ldd       [%o3 + 0x18], %d50
    0x10000cb38:            9f 3c 20 00  sra       %l0, 0x0, %o7
    0x10000cb3c:            a8 84 3f ff  addcc     %l0, -0x1, %l4
    0x10000cb40:            a5 2b f0 03  sllx      %o7, 0x3, %l2
    0x10000cb44:            f7 1c 80 17  ldd       [%l2 + %l7], %d58
    0x10000cb48:            06 40 00 35  bl,pn     %icc, +0xd4   <0x10000cc1c>
    0x10000cb4c:            a7 3d 20 00  sra       %l4, 0x0, %l3
    0x10000cb50:            80 a4 20 05  cmp       %l0, 0x5
    0x10000cb54:            b1 2c f0 03  sllx      %l3, 0x3, %i0
    0x10000cb58:            b4 06 00 17  add       %i0, %l7, %i2
    0x10000cb5c:            06 40 00 20  bl,pn     %icc, +0x80   <0x10000cbdc>
    0x10000cb60:            01 00 00 00  nop
    0x10000cb64:            c1 6e 00 17  prefetch  [%i0 + %l7], #n_reads
    0x10000cb68:            c1 6e bf 80  prefetch  [%i2 - 0x80], #n_reads
    0x10000cb6c:            a6 26 a0 08  sub       %i2, 0x8, %l3
    0x10000cb70:            a8 04 3f fe  add       %l0, -0x2, %l4
    0x10000cb74:            c1 6e bf c0  prefetch  [%i2 - 0x40], #n_reads
    0x10000cb78:            c1 6e bf 00  prefetch  [%i2 - 0x100], #n_reads
    0x10000cb7c:            c1 6e bf 40  prefetch  [%i2 - 0xc0], #n_reads
    0x10000cb80:            c1 6e be 80  prefetch  [%i2 - 0x180], #n_reads
    0x10000cb84:            c1 6e be c0  prefetch  [%i2 - 0x140], #n_reads
    0x10000cb88:            c1 6e be 00  prefetch  [%i2 - 0x200], #n_reads
    0x10000cb8c:            eb 1e 00 17  ldd       [%i0 + %l7], %d52
    0x10000cb90:            c1 6e be 40  prefetch  [%i2 - 0x1c0], #n_reads
    0x10000cb94:            b7 a6 c8 55  faddd     %d58, %d52, %d58
    0x10000cb98:            a8 05 3f fc  add       %l4, -0x4, %l4
    0x10000cb9c:            ef 1c e0 00  ldd       [%l3], %d54
    0x10000cba0:            a6 24 e0 20  sub       %l3, 0x20, %l3
    0x10000cba4:            c1 6c fe 10  prefetch  [%l3 - 0x1f0], #n_reads
    0x10000cba8:            80 a5 20 03  cmp       %l4, 0x3
    0x10000cbac:            9f a6 c8 57  faddd     %d58, %d54, %d46
    0x10000cbb0:            db 1c e0 18  ldd       [%l3 + 0x18], %d44
    0x10000cbb4:            a1 a3 c8 4d  faddd     %d46, %d44, %d16
    0x10000cbb8:            d9 1c e0 10  ldd       [%l3 + 0x10], %d12
    0x10000cbbc:            91 a4 08 4c  faddd     %d16, %d12, %d8
    0x10000cbc0:            f3 1c e0 08  ldd       [%l3 + 0x8], %d56
    0x10000cbc4:            16 4f ff f5  bge,pt    %icc, -0x2c   <0x10000cb98>
    0x10000cbc8:            b7 a2 08 59  faddd     %d8, %d56, %d58
    0x10000cbcc:            b4 10 00 13  mov       %l3, %i2
    0x10000cbd0:            80 a5 20 00  cmp       %l4, 0x0
    0x10000cbd4:            06 40 00 08  bl,pn     %icc, +0x20   <0x10000cbf4>
    0x10000cbd8:            01 00 00 00  nop
    0x10000cbdc:            cd 1e a0 00  ldd       [%i2], %d6
    0x10000cbe0:            b7 a6 c8 46  faddd     %d58, %d6, %d58
    0x10000cbe4:            b4 26 a0 08  sub       %i2, 0x8, %i2
    0x10000cbe8:            a8 85 3f ff  addcc     %l4, -0x1, %l4
    0x10000cbec:            36 4f ff fd  bge,a,pt  %icc, -0xc    <0x10000cbe0>
    0x10000cbf0:            cd 1e a0 00  ldd       [%i2], %d6
    0x10000cbf4:            80 a7 20 00  cmp       %i4, 0x0
    0x10000cbf8:            02 40 00 3a  be,pn     %icc, +0xe8   <0x10000cce0>
    0x10000cbfc:            f7 3e 60 00  std       %d58, [%i1]
    0x10000cc00:            fb 1f a7 5f  ldd       [%fp + 0x75f], %d60
    0x10000cc04:            80 a4 20 01  cmp       %l0, 0x1
    0x10000cc08:            06 40 00 35  bl,pn     %icc, +0xd4   <0x10000ccdc>
    0x10000cc0c:            bf a7 48 db  fsubd     %d60, %d58, %d62
    0x10000cc10:            b4 10 20 01  mov       0x1, %i2
    0x10000cc14:            10 80 00 09  ba        +0x24         <0x10000cc38>
    0x10000cc18:            80 a4 20 05  cmp       %l0, 0x5
    0x10000cc1c:            80 a7 20 00  cmp       %i4, 0x0
    0x10000cc20:            02 40 00 30  be,pn     %icc, +0xc0   <0x10000cce0>
    0x10000cc24:            f7 3e 60 00  std       %d58, [%i1]
    0x10000cc28:            b4 10 20 01  mov       0x1, %i2
    0x10000cc2c:            ff 1f a7 5f  ldd       [%fp + 0x75f], %d62
    0x10000cc30:            80 a4 20 05  cmp       %l0, 0x5
    0x10000cc34:            bf a7 c8 db  fsubd     %d62, %d58, %d62
    0x10000cc38:            9a 07 a7 67  add       %fp, 0x767, %o5
    0x10000cc3c:            06 40 00 21  bl,pn     %icc, +0x84   <0x10000ccc0>
    0x10000cc40:            01 00 00 00  nop
    0x10000cc44:            c1 6f a8 a7  prefetch  [%fp + 0x8a7], #n_reads
    0x10000cc48:            c1 6b 60 00  prefetch  [%o5], #n_reads
    0x10000cc4c:            ae 07 a7 6f  add       %fp, 0x76f, %l7
    0x10000cc50:            b4 10 20 02  mov       0x2, %i2
    0x10000cc54:            c1 6b 60 40  prefetch  [%o5 + 0x40], #n_reads
    0x10000cc58:            b0 24 20 03  sub       %l0, 0x3, %i0
    0x10000cc5c:            c1 6b 60 80  prefetch  [%o5 + 0x80], #n_reads
    0x10000cc60:            c1 6b 60 c0  prefetch  [%o5 + 0xc0], #n_reads
    0x10000cc64:            c1 6b 61 00  prefetch  [%o5 + 0x100], #n_reads
    0x10000cc68:            c1 6f a8 e7  prefetch  [%fp + 0x8e7], #n_reads
    0x10000cc6c:            c1 6f a9 27  prefetch  [%fp + 0x927], #n_reads
    0x10000cc70:            d1 1f a7 67  ldd       [%fp + 0x767], %d8
    0x10000cc74:            bf a7 c8 48  faddd     %d62, %d8, %d62
    0x10000cc78:            c1 6f a9 67  prefetch  [%fp + 0x967], #n_reads
    0x10000cc7c:            b4 06 a0 04  add       %i2, 0x4, %i2
    0x10000cc80:            cd 1d e0 00  ldd       [%l7], %d6
    0x10000cc84:            ae 05 e0 20  add       %l7, 0x20, %l7
    0x10000cc88:            c1 6d e1 f0  prefetch  [%l7 + 0x1f0], #n_reads
    0x10000cc8c:            80 a6 80 18  cmp       %i2, %i0
    0x10000cc90:            95 a7 c8 46  faddd     %d62, %d6, %d10
    0x10000cc94:            dd 1d ff e8  ldd       [%l7 - 0x18], %d14
    0x10000cc98:            a1 a2 88 4e  faddd     %d10, %d14, %d16
    0x10000cc9c:            d9 1d ff f0  ldd       [%l7 - 0x10], %d12
    0x10000cca0:            9f a4 08 4c  faddd     %d16, %d12, %d46
    0x10000cca4:            fb 1d ff f8  ldd       [%l7 - 0x8], %d60
    0x10000cca8:            04 4f ff f5  ble,pt    %icc, -0x2c   <0x10000cc7c>
    0x10000ccac:            bf a3 c8 5d  faddd     %d46, %d60, %d62
    0x10000ccb0:            9a 10 00 17  mov       %l7, %o5
    0x10000ccb4:            80 a6 80 10  cmp       %i2, %l0
    0x10000ccb8:            14 40 00 09  bg,pn     %icc, +0x24   <0x10000ccdc>
    0x10000ccbc:            01 00 00 00  nop
    0x10000ccc0:            dd 1b 60 00  ldd       [%o5], %d14
    0x10000ccc4:            b4 06 a0 01  add       %i2, 0x1, %i2
    0x10000ccc8:            bf a7 c8 4e  faddd     %d62, %d14, %d62
    0x10000cccc:            9a 03 60 08  add       %o5, 0x8, %o5
    0x10000ccd0:            80 a6 80 10  cmp       %i2, %l0
    0x10000ccd4:            24 4f ff fc  ble,a,pt  %icc, -0x10   <0x10000ccc4>
    0x10000ccd8:            dd 1b 60 00  ldd       [%o5], %d14
    0x10000ccdc:            ff 3e 60 08  std       %d62, [%i1 + 0x8]
    0x10000cce0:            b2 0a a0 07  and       %o2, 0x7, %i1
    0x10000cce4:            b1 3e 60 00  sra       %i1, 0x0, %i0
    0x10000cce8:            81 c7 e0 08  ret
    0x10000ccec:            81 e8 20 00  restore   %g0, 0x0, %g0

section .init
_init()
    0x10000ccf0:            9d e3 bf 50  save      %sp, -0xb0, %sp
    0x10000ccf4:            01 00 00 00  nop
    0x10000ccf8:            81 c7 e0 08  ret
    0x10000ccfc:            81 e8 00 00  restore

section .fini
_fini()
    0x10000cd00:            9d e3 bf 50  save      %sp, -0xb0, %sp
    0x10000cd04:            01 00 00 00  nop
    0x10000cd08:            81 c7 e0 08  ret
    0x10000cd0c:            81 e8 00 00  restore
