disassembly for swaptions


section .text
_start()
    0x100001e00:            bc 10 20 00  clr       %fp
    0x100001e04:            e0 5b a8 7f  ldx       [%sp + 0x87f], %l0
    0x100001e08:            1b 00 00 00  sethi     %hi(0x0), %o5
    0x100001e0c:            9a 13 60 01  or        %o5, 0x1, %o5
    0x100001e10:            9b 2b 70 20  sllx      %o5, 0x20, %o5
    0x100001e14:            13 00 04 7b  sethi     %hi(0x11ec00), %o1
    0x100001e18:            92 12 40 0d  or        %o1, %o5, %o1
    0x100001e1c:            e0 22 62 d0  st        %l0, [%o1 + 0x2d0]
    0x100001e20:            a2 03 a8 87  add       %sp, 0x887, %l1
    0x100001e24:            1b 00 00 00  sethi     %hi(0x0), %o5
    0x100001e28:            9a 13 60 01  or        %o5, 0x1, %o5
    0x100001e2c:            9b 2b 70 20  sllx      %o5, 0x20, %o5
    0x100001e30:            13 00 04 7b  sethi     %hi(0x11ec00), %o1
    0x100001e34:            92 12 40 0d  or        %o1, %o5, %o1
    0x100001e38:            e2 72 62 c8  stx       %l1, [%o1 + 0x2c8]
    0x100001e3c:            1b 00 00 00  sethi     %hi(0x0), %o5
    0x100001e40:            9a 13 60 01  or        %o5, 0x1, %o5
    0x100001e44:            9b 2b 70 20  sllx      %o5, 0x20, %o5
    0x100001e48:            13 00 04 78  sethi     %hi(0x11e000), %o1
    0x100001e4c:            92 12 40 0d  or        %o1, %o5, %o1
    0x100001e50:            e2 72 63 e8  stx       %l1, [%o1 + 0x3e8]
    0x100001e54:            a5 2c 20 03  sll       %l0, 0x3, %l2
    0x100001e58:            a4 04 a0 08  add       %l2, 0x8, %l2
    0x100001e5c:            a4 04 40 12  add       %l1, %l2, %l2
    0x100001e60:            1b 00 00 00  sethi     %hi(0x0), %o5
    0x100001e64:            9a 13 60 01  or        %o5, 0x1, %o5
    0x100001e68:            9b 2b 70 20  sllx      %o5, 0x20, %o5
    0x100001e6c:            27 00 04 78  sethi     %hi(0x11e000), %l3
    0x100001e70:            a6 14 c0 0d  or        %l3, %o5, %l3
    0x100001e74:            e8 5c e3 c0  ldx       [%l3 + 0x3c0], %l4
    0x100001e78:            80 a5 20 00  cmp       %l4, 0x0
    0x100001e7c:            12 80 00 03  bne       +0xc          <0x100001e88>
    0x100001e80:            01 00 00 00  nop
    0x100001e84:            e4 74 e3 c0  stx       %l2, [%l3 + 0x3c0]
    0x100001e88:            2b 00 00 00  sethi     %hi(0x0), %l5
    0x100001e8c:            aa 15 60 01  or        %l5, 0x1, %l5
    0x100001e90:            80 90 00 15  tst       %l5
    0x100001e94:            02 80 00 15  be        +0x54         <0x100001ee8>
    0x100001e98:            01 00 00 00  nop
    0x100001e9c:            1b 00 00 00  sethi     %hi(0x0), %o5
    0x100001ea0:            9a 13 60 01  or        %o5, 0x1, %o5
    0x100001ea4:            9b 2b 70 20  sllx      %o5, 0x20, %o5
    0x100001ea8:            29 00 04 78  sethi     %hi(0x11e000), %l4
    0x100001eac:            a8 15 00 0d  or        %l4, %o5, %l4
    0x100001eb0:            ad 2d 60 02  sll       %l5, 0x2, %l6
    0x100001eb4:            c1 2d 23 e0  stx       %fsr, [%l4 + 0x3e0]
    0x100001eb8:            ae 0d a3 00  and       %l6, 0x300, %l7
    0x100001ebc:            ac 0d 60 3f  and       %l5, 0x3f, %l6
    0x100001ec0:            ac 15 80 17  or        %l6, %l7, %l6
    0x100001ec4:            ab 2d a0 16  sll       %l6, 0x16, %l5
    0x100001ec8:            ec 05 23 e0  ld        [%l4 + 0x3e0], %l6
    0x100001ecc:            ae 20 00 17  neg       %l7
    0x100001ed0:            af 3d e0 1f  sra       %l7, 0x1f, %l7
    0x100001ed4:            af 2d e0 1e  sll       %l7, 0x1e, %l7
    0x100001ed8:            ac 2d 80 17  andn      %l6, %l7, %l6
    0x100001edc:            ac 15 80 15  or        %l6, %l5, %l6
    0x100001ee0:            ec 25 23 e0  st        %l6, [%l4 + 0x3e0]
    0x100001ee4:            c1 0d 23 e0  ldx       [%l4 + 0x3e0], %fsr
    0x100001ee8:            9c 23 a0 30  sub       %sp, 0x30, %sp
    0x100001eec:            80 90 00 01  tst       %g1
    0x100001ef0:            02 80 00 04  be        +0x10         <0x100001f00>
    0x100001ef4:            01 00 00 00  nop
    0x100001ef8:            40 04 6f a2  call      +0x11be88     <0x10011dd80>
    0x100001efc:            90 10 00 01  mov       %g1, %o0
    0x100001f00:            1b 00 00 00  sethi     %hi(0x0), %o5
    0x100001f04:            9a 13 60 01  or        %o5, 0x1, %o5
    0x100001f08:            9b 2b 70 20  sllx      %o5, 0x20, %o5
    0x100001f0c:            11 00 00 21  sethi     %hi(0x8400), %o0
    0x100001f10:            90 12 00 0d  or        %o0, %o5, %o0
    0x100001f14:            40 04 6f 9b  call      +0x11be6c     <0x10011dd80>
    0x100001f18:            90 12 22 b0  or        %o0, 0x2b0, %o0
    0x100001f1c:            13 00 00 00  sethi     %hi(0x0), %o1
    0x100001f20:            92 12 60 01  or        %o1, 0x1, %o1
    0x100001f24:            93 2a 70 20  sllx      %o1, 0x20, %o1
    0x100001f28:            11 00 04 78  sethi     %hi(0x11e000), %o0
    0x100001f2c:            90 12 00 09  or        %o0, %o1, %o0
    0x100001f30:            d0 5a 23 f0  ldx       [%o0 + 0x3f0], %o0
    0x100001f34:            80 90 00 08  tst       %o0
    0x100001f38:            12 80 00 0d  bne       +0x34         <0x100001f6c>
    0x100001f3c:            01 00 00 00  nop
    0x100001f40:            13 00 00 00  sethi     %hi(0x0), %o1
    0x100001f44:            92 12 60 01  or        %o1, 0x1, %o1
    0x100001f48:            93 2a 70 20  sllx      %o1, 0x20, %o1
    0x100001f4c:            11 00 04 78  sethi     %hi(0x11e000), %o0
    0x100001f50:            90 12 00 09  or        %o0, %o1, %o0
    0x100001f54:            d0 5a 23 f8  ldx       [%o0 + 0x3f8], %o0
    0x100001f58:            80 90 00 08  tst       %o0
    0x100001f5c:            02 80 00 04  be        +0x10         <0x100001f6c>
    0x100001f60:            01 00 00 00  nop
    0x100001f64:            40 04 6f 87  call      +0x11be1c     <0x10011dd80>
    0x100001f68:            01 00 00 00  nop
    0x100001f6c:            40 00 19 8f  call      +0x663c       <0x1000085a8>
    0x100001f70:            01 00 00 00  nop
    0x100001f74:            90 10 00 10  mov       %l0, %o0
    0x100001f78:            92 10 00 11  mov       %l1, %o1
    0x100001f7c:            40 00 15 7b  call      +0x55ec       <0x100007568>
    0x100001f80:            94 10 00 12  mov       %l2, %o2
    0x100001f84:            40 04 6f 87  call      +0x11be1c     <0x10011dda0>
    0x100001f88:            01 00 00 00  nop
    0x100001f8c:            40 04 6f 8d  call      +0x11be34     <0x10011ddc0>
    0x100001f90:            01 00 00 00  nop
    0x100001f94:            00 00 00 00  illtrap   0x0
    0x100001f98:            bf e0 00 00  save      %g0, %g0, %i7
    0x100001f9c:            00 00 00 00  illtrap   0x0
    0x100001fa0:            3f da e1 47  0x3fdae147
    0x100001fa4:            ae 14 7a e1  or        %l1, -0x51f, %l7
    0x100001fa8:            3f f0 00 00  0x3ff00000
    0x100001fac:            00 00 00 00  illtrap   0x0
    0x100001fb0:            00 00 00 00  illtrap   0x0
    0x100001fb4:            00 00 00 00  illtrap   0x0
__1cMCumNormalInv6Fd_d_()
    0x100001fb8:            9d e3 bf 00  save      %sp, -0x100, %sp
    0x100001fbc:            3b 00 04 00  sethi     %hi(0x100000), %i5
    0x100001fc0:            ba 17 60 01  or        %i5, 0x1, %i5
    0x100001fc4:            b9 2f 70 0c  sllx      %i5, 0xc, %i4
    0x100001fc8:            c5 1f 2f 98  ldd       [%i4 + 0xf98], %d2
    0x100001fcc:            b4 07 2f 98  add       %i4, 0xf98, %i2
    0x100001fd0:            cd 1e a0 08  ldd       [%i2 + 0x8], %d6
    0x100001fd4:            95 a0 08 42  faddd     %d0, %d2, %d10
    0x100001fd8:            37 00 04 00  sethi     %hi(0x100000), %i3
    0x100001fdc:            b2 16 e1 1e  or        %i3, 0x11e, %i1
    0x100001fe0:            b1 2e 70 0c  sllx      %i1, 0xc, %i0
    0x100001fe4:            89 a0 01 4a  fabsd     %d10, %d4
    0x100001fe8:            81 a9 0a c6  fcmped    %fcc0, %d4, %d6
    0x100001fec:            19 40 00 1e  fbuge,pn  %fcc0, +0x78   <0x100002064>
    0x100001ff0:            ae 06 24 20  add       %i0, 0x420, %l7
    0x100001ff4:            a1 a2 89 4a  fmuld     %d10, %d10, %d16
    0x100001ff8:            c5 1d e0 18  ldd       [%l7 + 0x18], %d2
    0x100001ffc:            c9 1d ff f8  ldd       [%l7 - 0x8], %d4
    0x100002000:            cd 1d e0 10  ldd       [%l7 + 0x10], %d6
    0x100002004:            f9 1d ff f0  ldd       [%l7 - 0x10], %d28
    0x100002008:            f1 1d e0 08  ldd       [%l7 + 0x8], %d24
    0x10000200c:            91 a0 89 50  fmuld     %d2, %d16, %d8
    0x100002010:            b5 a1 09 50  fmuld     %d4, %d16, %d26
    0x100002014:            ed 1d ff e8  ldd       [%l7 - 0x18], %d22
    0x100002018:            e9 1e 24 20  ldd       [%i0 + 0x420], %d20
    0x10000201c:            e5 1d ff e0  ldd       [%l7 - 0x20], %d18
    0x100002020:            dd 1e a0 10  ldd       [%i2 + 0x10], %d14
    0x100002024:            bf a2 08 46  faddd     %d8, %d6, %d62
    0x100002028:            bd a6 88 5c  faddd     %d26, %d28, %d30
    0x10000202c:            99 a7 c9 50  fmuld     %d62, %d16, %d12
    0x100002030:            85 a7 89 50  fmuld     %d30, %d16, %d2
    0x100002034:            89 a3 08 58  faddd     %d12, %d24, %d4
    0x100002038:            8d a0 88 56  faddd     %d2, %d22, %d6
    0x10000203c:            91 a1 09 50  fmuld     %d4, %d16, %d8
    0x100002040:            b9 a1 89 50  fmuld     %d6, %d16, %d28
    0x100002044:            b5 a2 08 54  faddd     %d8, %d20, %d26
    0x100002048:            bd a7 08 52  faddd     %d28, %d18, %d30
    0x10000204c:            bf a6 89 50  fmuld     %d26, %d16, %d62
    0x100002050:            99 a2 89 5e  fmuld     %d10, %d30, %d12
    0x100002054:            b1 a7 c8 4e  faddd     %d62, %d14, %d24
    0x100002058:            81 a3 09 d8  fdivd     %d12, %d24, %d0
    0x10000205c:            81 c7 e0 08  ret
    0x100002060:            81 e8 20 00  restore   %g0, 0x0, %g0
    0x100002064:            dd 1e a0 18  ldd       [%i2 + 0x18], %d14
    0x100002068:            f9 1d e0 20  ldd       [%l7 + 0x20], %d28
    0x10000206c:            f5 1d e0 28  ldd       [%l7 + 0x28], %d26
    0x100002070:            f1 1d e0 30  ldd       [%l7 + 0x30], %d24
    0x100002074:            ed 1d e0 38  ldd       [%l7 + 0x38], %d22
    0x100002078:            83 aa 8a ce  fcmped    %fcc1, %d10, %d14
    0x10000207c:            e9 1d e0 40  ldd       [%l7 + 0x40], %d20
    0x100002080:            e5 1d e0 48  ldd       [%l7 + 0x48], %d18
    0x100002084:            e1 1d e0 50  ldd       [%l7 + 0x50], %d16
    0x100002088:            fd 1d e0 58  ldd       [%l7 + 0x58], %d30
    0x10000208c:            ff 1d e0 60  ldd       [%l7 + 0x60], %d62
    0x100002090:            3d 50 00 2b  fbule,a,pn %fcc1, +0xac   <0x10000213c>
    0x100002094:            d5 3b a8 f7  std       %d10, [%sp + 0x8f7]
    0x100002098:            d5 1e a0 10  ldd       [%i2 + 0x10], %d10
    0x10000209c:            f9 3b a8 af  std       %d28, [%sp + 0x8af]
    0x1000020a0:            f5 3b a8 b7  std       %d26, [%sp + 0x8b7]
    0x1000020a4:            81 a2 88 c0  fsubd     %d10, %d0, %d0
    0x1000020a8:            f1 3b a8 bf  std       %d24, [%sp + 0x8bf]
    0x1000020ac:            ed 3b a8 c7  std       %d22, [%sp + 0x8c7]
    0x1000020b0:            e9 3b a8 cf  std       %d20, [%sp + 0x8cf]
    0x1000020b4:            e5 3b a8 d7  std       %d18, [%sp + 0x8d7]
    0x1000020b8:            e1 3b a8 df  std       %d16, [%sp + 0x8df]
    0x1000020bc:            fd 3b a8 e7  std       %d30, [%sp + 0x8e7]
    0x1000020c0:            40 00 18 28  call      +0x60a0       <0x100008160>
    0x1000020c4:            ff 3b a8 ef  std       %d62, [%sp + 0x8ef]
    0x1000020c8:            40 00 18 26  call      +0x6098       <0x100008160>
    0x1000020cc:            81 a0 00 c0  fnegd     %d0, %d0
    0x1000020d0:            ff 1b a8 ef  ldd       [%sp + 0x8ef], %d62
    0x1000020d4:            fd 1b a8 e7  ldd       [%sp + 0x8e7], %d30
    0x1000020d8:            e1 1b a8 df  ldd       [%sp + 0x8df], %d16
    0x1000020dc:            e5 1b a8 d7  ldd       [%sp + 0x8d7], %d18
    0x1000020e0:            e9 1b a8 cf  ldd       [%sp + 0x8cf], %d20
    0x1000020e4:            99 a0 09 5f  fmuld     %d0, %d62, %d12
    0x1000020e8:            ed 1b a8 c7  ldd       [%sp + 0x8c7], %d22
    0x1000020ec:            f1 1b a8 bf  ldd       [%sp + 0x8bf], %d24
    0x1000020f0:            f5 1b a8 b7  ldd       [%sp + 0x8b7], %d26
    0x1000020f4:            f9 1b a8 af  ldd       [%sp + 0x8af], %d28
    0x1000020f8:            9d a7 88 4c  faddd     %d30, %d12, %d14
    0x1000020fc:            bd a0 09 4e  fmuld     %d0, %d14, %d30
    0x100002100:            a1 a4 08 5e  faddd     %d16, %d30, %d16
    0x100002104:            bf a0 09 50  fmuld     %d0, %d16, %d62
    0x100002108:            a5 a4 88 5f  faddd     %d18, %d62, %d18
    0x10000210c:            85 a0 09 52  fmuld     %d0, %d18, %d2
    0x100002110:            a9 a5 08 42  faddd     %d20, %d2, %d20
    0x100002114:            89 a0 09 54  fmuld     %d0, %d20, %d4
    0x100002118:            ad a5 88 44  faddd     %d22, %d4, %d22
    0x10000211c:            8d a0 09 56  fmuld     %d0, %d22, %d6
    0x100002120:            b1 a6 08 46  faddd     %d24, %d6, %d24
    0x100002124:            91 a0 09 58  fmuld     %d0, %d24, %d8
    0x100002128:            b5 a6 88 48  faddd     %d26, %d8, %d26
    0x10000212c:            95 a0 09 5a  fmuld     %d0, %d26, %d10
    0x100002130:            81 a7 08 4a  faddd     %d28, %d10, %d0
    0x100002134:            81 c7 e0 08  ret
    0x100002138:            81 e8 20 00  restore   %g0, 0x0, %g0
    0x10000213c:            f9 3b a8 af  std       %d28, [%sp + 0x8af]
    0x100002140:            f5 3b a8 b7  std       %d26, [%sp + 0x8b7]
    0x100002144:            f1 3b a8 bf  std       %d24, [%sp + 0x8bf]
    0x100002148:            ed 3b a8 c7  std       %d22, [%sp + 0x8c7]
    0x10000214c:            e9 3b a8 cf  std       %d20, [%sp + 0x8cf]
    0x100002150:            e5 3b a8 d7  std       %d18, [%sp + 0x8d7]
    0x100002154:            e1 3b a8 df  std       %d16, [%sp + 0x8df]
    0x100002158:            fd 3b a8 e7  std       %d30, [%sp + 0x8e7]
    0x10000215c:            40 00 18 01  call      +0x6004       <0x100008160>
    0x100002160:            ff 3b a8 ef  std       %d62, [%sp + 0x8ef]
    0x100002164:            40 00 17 ff  call      +0x5ffc       <0x100008160>
    0x100002168:            81 a0 00 c0  fnegd     %d0, %d0
    0x10000216c:            ff 1b a8 ef  ldd       [%sp + 0x8ef], %d62
    0x100002170:            fd 1b a8 e7  ldd       [%sp + 0x8e7], %d30
    0x100002174:            d5 1b a8 f7  ldd       [%sp + 0x8f7], %d10
    0x100002178:            dd 1e a0 18  ldd       [%i2 + 0x18], %d14
    0x10000217c:            e1 1b a8 df  ldd       [%sp + 0x8df], %d16
    0x100002180:            91 a0 09 5f  fmuld     %d0, %d62, %d8
    0x100002184:            85 aa 8a ce  fcmped    %fcc2, %d10, %d14
    0x100002188:            e5 1b a8 d7  ldd       [%sp + 0x8d7], %d18
    0x10000218c:            e9 1b a8 cf  ldd       [%sp + 0x8cf], %d20
    0x100002190:            ed 1b a8 c7  ldd       [%sp + 0x8c7], %d22
    0x100002194:            f1 1b a8 bf  ldd       [%sp + 0x8bf], %d24
    0x100002198:            99 a7 88 48  faddd     %d30, %d8, %d12
    0x10000219c:            f5 1b a8 b7  ldd       [%sp + 0x8b7], %d26
    0x1000021a0:            f9 1b a8 af  ldd       [%sp + 0x8af], %d28
    0x1000021a4:            bd a0 09 4c  fmuld     %d0, %d12, %d30
    0x1000021a8:            95 a4 08 5e  faddd     %d16, %d30, %d10
    0x1000021ac:            a1 a0 09 4a  fmuld     %d0, %d10, %d16
    0x1000021b0:            a5 a4 88 50  faddd     %d18, %d16, %d18
    0x1000021b4:            bf a0 09 52  fmuld     %d0, %d18, %d62
    0x1000021b8:            a9 a5 08 5f  faddd     %d20, %d62, %d20
    0x1000021bc:            85 a0 09 54  fmuld     %d0, %d20, %d2
    0x1000021c0:            ad a5 88 42  faddd     %d22, %d2, %d22
    0x1000021c4:            89 a0 09 56  fmuld     %d0, %d22, %d4
    0x1000021c8:            b1 a6 08 44  faddd     %d24, %d4, %d24
    0x1000021cc:            8d a0 09 58  fmuld     %d0, %d24, %d6
    0x1000021d0:            b5 a6 88 46  faddd     %d26, %d6, %d26
    0x1000021d4:            91 a0 09 5a  fmuld     %d0, %d26, %d8
    0x1000021d8:            85 a7 08 48  faddd     %d28, %d8, %d2
    0x1000021dc:            b9 a0 00 c2  fnegd     %d2, %d28
    0x1000021e0:            85 a9 10 5c  fmovdl    %fcc2, %d28, %d2
    0x1000021e4:            81 a0 00 42  fmovd     %d2, %d0
    0x1000021e8:            81 c7 e0 08  ret
    0x1000021ec:            81 e8 20 00  restore   %g0, 0x0, %g0
    0x1000021f0:            81 a0 00 42  fmovd     %d2, %d0
    0x1000021f4:            81 c7 e0 08  ret
    0x1000021f8:            81 e8 20 00  restore   %g0, 0x0, %g0
    0x1000021fc:            00 00 00 00  illtrap   0x0
    0x100002200:            00 00 00 00  illtrap   0x0
    0x100002204:            00 00 00 00  illtrap   0x0
    0x100002208:            00 00 00 00  illtrap   0x0
    0x10000220c:            00 00 00 00  illtrap   0x0
    0x100002210:            00 00 00 00  illtrap   0x0
    0x100002214:            00 00 00 00  illtrap   0x0
__1cEdMax6Fdd_d_()
    0x100002218:            81 a8 0a c2  fcmped    %fcc0, %d0, %d2
    0x10000221c:            81 ab 80 42  fmovdule  %fcc0, %d2, %d0
    0x100002220:            81 c3 e0 08  retl
    0x100002224:            01 00 00 00  nop
    0x100002228:            3e 00 00 00  illtrap   0x0
    0x10000222c:            00 1c 5f 68  illtrap   0x1c5f68
__1cHRanUnif6Fpl_d_()
    0x100002230:            9d e3 bf 40  save      %sp, -0xc0, %sp
    0x100002234:            f8 5e 20 00  ldx       [%i0], %i4
    0x100002238:            8a 3f 20 00  not       %i4, %g5
    0x10000223c:            8b 7f 1c 1c  movrgez   %i4, %i4, %g5
    0x100002240:            89 31 70 1f  srlx      %g5, 0x1f, %g4
    0x100002244:            0a c1 00 0c  brnz,pn   %g4, +0x30    <0x100002274>
    0x100002248:            23 1f 2c 7d  sethi     %hi(0x7cb1f400), %l1
    0x10000224c:            9f 3f 20 00  sra       %i4, 0x0, %o7
    0x100002250:            a0 1c 7f 5f  xor       %l1, -0xa1, %l0
    0x100002254:            9a 4b c0 10  mulx      %o7, %l0, %o5
    0x100002258:            99 33 70 20  srlx      %o5, 0x20, %o4
    0x10000225c:            96 07 00 0c  add       %i4, %o4, %o3
    0x100002260:            95 3f 20 1f  sra       %i4, 0x1f, %o2
    0x100002264:            93 3a e0 10  sra       %o3, 0x10, %o1
    0x100002268:            ba 22 40 0a  sub       %o1, %o2, %i5
    0x10000226c:            10 80 00 06  ba        +0x18         <0x100002284>
    0x100002270:            b7 2f 70 07  sllx      %i5, 0x7, %i3
    0x100002274:            27 00 00 7c  sethi     %hi(0x1f000), %l3
    0x100002278:            a4 04 e3 1d  add       %l3, 0x31d, %l2
    0x10000227c:            bb 6f 00 12  sdivx     %i4, %l2, %i5
    0x100002280:            b7 2f 70 07  sllx      %i5, 0x7, %i3
    0x100002284:            b6 27 40 1b  sub       %i5, %i3, %i3
    0x100002288:            b5 2e f0 02  sllx      %i3, 0x2, %i2
    0x10000228c:            ae 06 80 1d  add       %i2, %i5, %l7
    0x100002290:            b3 2d f0 06  sllx      %l7, 0x6, %i1
    0x100002294:            ac 26 40 17  sub       %i1, %l7, %l6
    0x100002298:            aa 25 80 1d  sub       %l6, %i5, %l5
    0x10000229c:            a8 25 40 1d  sub       %l5, %i5, %l4
    0x1000022a0:            a7 2d 30 02  sllx      %l4, 0x2, %l3
    0x1000022a4:            a4 27 40 13  sub       %i5, %l3, %l2
    0x1000022a8:            b8 27 00 12  sub       %i4, %l2, %i4
    0x1000022ac:            a3 2f 30 04  sllx      %i4, 0x4, %l1
    0x1000022b0:            9a 24 40 1c  sub       %l1, %i4, %o5
    0x1000022b4:            a1 2f 70 06  sllx      %i5, 0x6, %l0
    0x1000022b8:            94 27 40 10  sub       %i5, %l0, %o2
    0x1000022bc:            9f 2b 70 02  sllx      %o5, 0x2, %o7
    0x1000022c0:            98 03 c0 0d  add       %o7, %o5, %o4
    0x1000022c4:            97 2a b0 03  sllx      %o2, 0x3, %o3
    0x1000022c8:            8a 02 c0 0a  add       %o3, %o2, %g5
    0x1000022cc:            93 2b 30 05  sllx      %o4, 0x5, %o1
    0x1000022d0:            84 02 40 1c  add       %o1, %i4, %g2
    0x1000022d4:            91 29 70 02  sllx      %g5, 0x2, %o0
    0x1000022d8:            88 02 00 05  add       %o0, %g5, %g4
    0x1000022dc:            87 28 b0 03  sllx      %g2, 0x3, %g3
    0x1000022e0:            ba 27 40 04  sub       %i5, %g4, %i5
    0x1000022e4:            37 1f ff ff  sethi     %hi(0x7ffffc00), %i3
    0x1000022e8:            82 20 c0 02  sub       %g3, %g2, %g1
    0x1000022ec:            ae 20 40 1d  sub       %g1, %i5, %l7
    0x1000022f0:            b4 06 e3 ff  add       %i3, 0x3ff, %i2
    0x1000022f4:            b2 05 c0 1a  add       %l7, %i2, %i1
    0x1000022f8:            80 a5 e0 00  cmp       %l7, 0x0
    0x1000022fc:            af 64 d0 19  movl      %xcc, %i1, %l7
    0x100002300:            ee 76 20 00  stx       %l7, [%i0]
    0x100002304:            ee 73 a8 af  stx       %l7, [%sp + 0x8af]
    0x100002308:            c5 1b a8 af  ldd       [%sp + 0x8af], %d2
    0x10000230c:            2d 00 04 00  sethi     %hi(0x100000), %l6
    0x100002310:            aa 15 a0 02  or        %l6, 0x2, %l5
    0x100002314:            89 a0 11 02  fxtod     %d2, %d4
    0x100002318:            a9 2d 70 0c  sllx      %l5, 0xc, %l4
    0x10000231c:            c5 1d 22 28  ldd       [%l4 + 0x228], %d2
    0x100002320:            81 a1 09 42  fmuld     %d4, %d2, %d0
    0x100002324:            81 c7 e0 08  ret
    0x100002328:            81 e8 20 00  restore   %g0, 0x0, %g0
    0x10000232c:            00 00 00 00  illtrap   0x0
__1cHnrerror6Fpkc_v_()
    0x100002330:            9d e3 bf 50  save      %sp, -0xb0, %sp
    0x100002334:            39 00 04 00  sethi     %hi(0x100000), %i4
    0x100002338:            b4 17 20 08  or        %i4, 0x8, %i2
    0x10000233c:            3b 00 04 00  sethi     %hi(0x100000), %i5
    0x100002340:            b3 2e b0 0c  sllx      %i2, 0xc, %i1
    0x100002344:            ba 17 61 1e  or        %i5, 0x11e, %i5
    0x100002348:            b7 2f 70 0c  sllx      %i5, 0xc, %i3
    0x10000234c:            90 06 67 54  add       %i1, 0x754, %o0
    0x100002350:            a4 06 e5 b0  add       %i3, 0x5b0, %l2
    0x100002354:            2f 00 04 00  sethi     %hi(0x100000), %l7
    0x100002358:            ac 15 e0 08  or        %l7, 0x8, %l6
    0x10000235c:            ab 2d b0 0c  sllx      %l6, 0xc, %l5
    0x100002360:            29 00 04 00  sethi     %hi(0x100000), %l4
    0x100002364:            a6 15 20 08  or        %l4, 0x8, %l3
    0x100002368:            a3 2c f0 0c  sllx      %l3, 0xc, %l1
    0x10000236c:            40 04 6e 9d  call      +0x11ba74     <0x10011dde0>
    0x100002370:            92 10 00 12  mov       %l2, %o1
    0x100002374:            90 10 00 12  mov       %l2, %o0
    0x100002378:            94 10 00 18  mov       %i0, %o2
    0x10000237c:            40 04 6e a1  call      +0x11ba84     <0x10011de00>
    0x100002380:            92 05 67 79  add       %l5, 0x779, %o1
    0x100002384:            92 10 00 12  mov       %l2, %o1
    0x100002388:            40 04 6e 96  call      +0x11ba58     <0x10011dde0>
    0x10000238c:            90 04 67 7d  add       %l1, 0x77d, %o0
    0x100002390:            b0 10 20 01  mov       0x1, %i0
    0x100002394:            40 04 6e 83  call      +0x11ba0c     <0x10011dda0>
    0x100002398:            81 e8 20 00  restore   %g0, 0x0, %g0
    0x10000239c:            00 00 00 00  illtrap   0x0
    0x1000023a0:            00 00 00 00  illtrap   0x0
    0x1000023a4:            00 00 00 00  illtrap   0x0
    0x1000023a8:            00 00 00 00  illtrap   0x0
    0x1000023ac:            00 00 00 00  illtrap   0x0
    0x1000023b0:            00 00 00 00  illtrap   0x0
    0x1000023b4:            00 00 00 00  illtrap   0x0
    0x1000023b8:            00 00 00 00  illtrap   0x0
    0x1000023bc:            00 00 00 00  illtrap   0x0
__1cGcholdc6Fppdi_i_()
    0x1000023c0:            9d e3 bf 50  save      %sp, -0xb0, %sp
    0x1000023c4:            80 a6 60 01  cmp       %i1, 0x1
    0x1000023c8:            06 40 00 8f  bl,pn     %icc, +0x23c  <0x100002604>
    0x1000023cc:            b8 10 00 19  mov       %i1, %i4
    0x1000023d0:            2d 00 04 00  sethi     %hi(0x100000), %l6
    0x1000023d4:            aa 15 a0 02  or        %l6, 0x2, %l5
    0x1000023d8:            82 10 20 01  mov       0x1, %g1
    0x1000023dc:            ad 2d 70 0c  sllx      %l5, 0xc, %l6
    0x1000023e0:            ae 06 20 08  add       %i0, 0x8, %l7
    0x1000023e4:            84 10 20 00  clr       %g2
    0x1000023e8:            80 a0 40 1c  cmp       %g1, %i4
    0x1000023ec:            14 40 00 80  bg,pn     %icc, +0x200  <0x1000025ec>
    0x1000023f0:            88 00 a0 08  add       %g2, 0x8, %g4
    0x1000023f4:            86 10 00 04  mov       %g4, %g3
    0x1000023f8:            b4 10 00 01  mov       %g1, %i2
    0x1000023fc:            b2 10 00 17  mov       %l7, %i1
    0x100002400:            f6 5d e0 00  ldx       [%l7], %i3
    0x100002404:            a0 00 7f ff  add       %g1, -0x1, %l0
    0x100002408:            80 a4 20 01  cmp       %l0, 0x1
    0x10000240c:            c5 1e c0 03  ldd       [%i3 + %g3], %d2
    0x100002410:            06 40 00 61  bl,pn     %icc, +0x184  <0x100002594>
    0x100002414:            9e 10 00 10  mov       %l0, %o7
    0x100002418:            80 a4 20 10  cmp       %l0, 0x10
    0x10000241c:            ca 5e 60 00  ldx       [%i1], %g5
    0x100002420:            98 00 80 1b  add       %g2, %i3, %o4
    0x100002424:            9a 00 80 05  add       %g2, %g5, %o5
    0x100002428:            06 40 00 51  bl,pn     %icc, +0x144  <0x10000256c>
    0x10000242c:            01 00 00 00  nop
    0x100002430:            dd 1b 7f d0  ldd       [%o5 - 0x30], %d14
    0x100002434:            f1 1b 7f f0  ldd       [%o5 - 0x10], %d24
    0x100002438:            e5 1b 3f f0  ldd       [%o4 - 0x10], %d18
    0x10000243c:            c1 1b 60 00  ldd       [%o5], %d0
    0x100002440:            cd 1b 3f e8  ldd       [%o4 - 0x18], %d6
    0x100002444:            d1 1b 7f e8  ldd       [%o5 - 0x18], %d8
    0x100002448:            e9 1b 3f d8  ldd       [%o4 - 0x28], %d20
    0x10000244c:            f5 1b 7f f8  ldd       [%o5 - 0x8], %d26
    0x100002450:            ff 1b 3f f8  ldd       [%o4 - 0x8], %d62
    0x100002454:            c9 18 80 1b  ldd       [%g2 + %i3], %d4
    0x100002458:            d5 1b 7f e0  ldd       [%o5 - 0x20], %d10
    0x10000245c:            d9 1b 7f d8  ldd       [%o5 - 0x28], %d12
    0x100002460:            ed 1b 3f d0  ldd       [%o4 - 0x30], %d22
    0x100002464:            b5 a7 c9 5a  fmuld     %d62, %d26, %d26
    0x100002468:            e1 1b 7f c8  ldd       [%o5 - 0x38], %d16
    0x10000246c:            89 a1 09 40  fmuld     %d4, %d0, %d4
    0x100002470:            b9 a4 89 58  fmuld     %d18, %d24, %d28
    0x100002474:            f1 1d a3 a0  ldd       [%l6 + 0x3a0], %d24
    0x100002478:            98 23 20 40  sub       %o4, 0x40, %o4
    0x10000247c:            b5 a0 88 da  fsubd     %d2, %d26, %d26
    0x100002480:            ff 1b 20 08  ldd       [%o4 + 0x8], %d62
    0x100002484:            e5 1b 20 20  ldd       [%o4 + 0x20], %d18
    0x100002488:            9a 23 60 40  sub       %o5, 0x40, %o5
    0x10000248c:            81 a1 89 48  fmuld     %d6, %d8, %d0
    0x100002490:            85 a6 08 c4  fsubd     %d24, %d4, %d2
    0x100002494:            9e 00 7f f7  add       %g1, -0x9, %o7
    0x100002498:            c1 6b 3f 60  prefetch  [%o4 - 0xa0], #n_reads
    0x10000249c:            c1 6b 7f 60  prefetch  [%o5 - 0xa0], #n_reads
    0x1000024a0:            9e 03 ff f8  add       %o7, -0x8, %o7
    0x1000024a4:            9a 23 60 40  sub       %o5, 0x40, %o5
    0x1000024a8:            c9 1b 20 00  ldd       [%o4], %d4
    0x1000024ac:            b9 a0 88 dc  fsubd     %d2, %d28, %d28
    0x1000024b0:            80 a3 e0 08  cmp       %o7, 0x8
    0x1000024b4:            cd 1b 60 40  ldd       [%o5 + 0x40], %d6
    0x1000024b8:            95 a4 89 4a  fmuld     %d18, %d10, %d10
    0x1000024bc:            c5 1b 3f f8  ldd       [%o4 - 0x8], %d2
    0x1000024c0:            98 23 20 40  sub       %o4, 0x40, %o4
    0x1000024c4:            81 a6 88 c0  fsubd     %d26, %d0, %d0
    0x1000024c8:            a9 a5 09 4c  fmuld     %d20, %d12, %d20
    0x1000024cc:            d9 1b 60 38  ldd       [%o5 + 0x38], %d12
    0x1000024d0:            d1 1b 20 30  ldd       [%o4 + 0x30], %d8
    0x1000024d4:            b9 a7 08 ca  fsubd     %d28, %d10, %d28
    0x1000024d8:            ad a5 89 4e  fmuld     %d22, %d14, %d22
    0x1000024dc:            dd 1b 60 30  ldd       [%o5 + 0x30], %d14
    0x1000024e0:            fd 1b 20 28  ldd       [%o4 + 0x28], %d30
    0x1000024e4:            b5 a0 08 d4  fsubd     %d0, %d20, %d26
    0x1000024e8:            a1 a7 c9 50  fmuld     %d62, %d16, %d16
    0x1000024ec:            c1 1b 60 28  ldd       [%o5 + 0x28], %d0
    0x1000024f0:            e5 1b 20 20  ldd       [%o4 + 0x20], %d18
    0x1000024f4:            bf a7 08 d6  fsubd     %d28, %d22, %d62
    0x1000024f8:            b1 a1 09 46  fmuld     %d4, %d6, %d24
    0x1000024fc:            d5 1b 60 20  ldd       [%o5 + 0x20], %d10
    0x100002500:            e9 1b 20 18  ldd       [%o4 + 0x18], %d20
    0x100002504:            8d a6 88 d0  fsubd     %d26, %d16, %d6
    0x100002508:            89 a0 89 4c  fmuld     %d2, %d12, %d4
    0x10000250c:            d9 1b 60 18  ldd       [%o5 + 0x18], %d12
    0x100002510:            ed 1b 20 10  ldd       [%o4 + 0x10], %d22
    0x100002514:            85 a7 c8 d8  fsubd     %d62, %d24, %d2
    0x100002518:            b9 a2 09 4e  fmuld     %d8, %d14, %d28
    0x10000251c:            dd 1b 60 10  ldd       [%o5 + 0x10], %d14
    0x100002520:            ff 1b 20 08  ldd       [%o4 + 0x8], %d62
    0x100002524:            b5 a1 88 c4  fsubd     %d6, %d4, %d26
    0x100002528:            e1 1b 60 08  ldd       [%o5 + 0x8], %d16
    0x10000252c:            16 4f ff db  bge,pt    %icc, -0x94   <0x100002498>
    0x100002530:            81 a7 89 40  fmuld     %d30, %d0, %d0
    0x100002534:            89 a6 88 c0  fsubd     %d26, %d0, %d4
    0x100002538:            91 a0 88 dc  fsubd     %d2, %d28, %d8
    0x10000253c:            8d a5 09 4c  fmuld     %d20, %d12, %d6
    0x100002540:            b5 a4 89 4a  fmuld     %d18, %d10, %d26
    0x100002544:            b1 a7 c9 50  fmuld     %d62, %d16, %d24
    0x100002548:            85 a5 89 4e  fmuld     %d22, %d14, %d2
    0x10000254c:            80 a3 e0 01  cmp       %o7, 0x1
    0x100002550:            bf a1 08 c6  fsubd     %d4, %d6, %d62
    0x100002554:            b9 a2 08 da  fsubd     %d8, %d26, %d28
    0x100002558:            a9 a7 c8 d8  fsubd     %d62, %d24, %d20
    0x10000255c:            ad a7 08 c2  fsubd     %d28, %d2, %d22
    0x100002560:            85 a5 88 54  faddd     %d22, %d20, %d2
    0x100002564:            06 40 00 0c  bl,pn     %icc, +0x30   <0x100002594>
    0x100002568:            01 00 00 00  nop
    0x10000256c:            e5 1b 60 00  ldd       [%o5], %d18
    0x100002570:            d5 1b 20 00  ldd       [%o4], %d10
    0x100002574:            9e 03 ff ff  add       %o7, -0x1, %o7
    0x100002578:            80 a3 e0 01  cmp       %o7, 0x1
    0x10000257c:            a9 a2 89 52  fmuld     %d10, %d18, %d20
    0x100002580:            9a 23 60 08  sub       %o5, 0x8, %o5
    0x100002584:            98 23 20 08  sub       %o4, 0x8, %o4
    0x100002588:            85 a0 88 d4  fsubd     %d2, %d20, %d2
    0x10000258c:            36 4f ff f9  bge,a,pt  %icc, -0x1c   <0x100002570>
    0x100002590:            e5 1b 60 00  ldd       [%o5], %d18
    0x100002594:            80 a0 40 1a  cmp       %g1, %i2
    0x100002598:            12 40 00 0b  bne,pn    %icc, +0x2c   <0x1000025c4>
    0x10000259c:            e1 1d a3 a0  ldd       [%l6 + 0x3a0], %d16
    0x1000025a0:            81 a8 8a d0  fcmped    %fcc0, %d2, %d16
    0x1000025a4:            1b 40 00 06  fble,pn   %fcc0, +0x18   <0x1000025bc>
    0x1000025a8:            01 00 00 00  nop
    0x1000025ac:            b5 a0 05 42  fsqrtd    %d2, %d26
    0x1000025b0:            f5 3e c0 04  std       %d26, [%i3 + %g4]
    0x1000025b4:            10 80 00 09  ba        +0x24         <0x1000025d8>
    0x1000025b8:            b4 06 a0 01  add       %i2, 0x1, %i2
    0x1000025bc:            81 c7 e0 08  ret
    0x1000025c0:            91 e8 20 00  restore   %g0, 0x0, %o0
    0x1000025c4:            f9 1e c0 04  ldd       [%i3 + %g4], %d28
    0x1000025c8:            de 5e 60 00  ldx       [%i1], %o7
    0x1000025cc:            b4 06 a0 01  add       %i2, 0x1, %i2
    0x1000025d0:            ad a0 89 dc  fdivd     %d2, %d28, %d22
    0x1000025d4:            ed 3b c0 04  std       %d22, [%o7 + %g4]
    0x1000025d8:            80 a6 80 1c  cmp       %i2, %i4
    0x1000025dc:            86 00 e0 08  add       %g3, 0x8, %g3
    0x1000025e0:            b2 06 60 08  add       %i1, 0x8, %i1
    0x1000025e4:            24 4f ff 89  ble,a,pt  %icc, -0x1dc  <0x100002408>
    0x1000025e8:            f6 5d e0 00  ldx       [%l7], %i3
    0x1000025ec:            82 00 60 01  add       %g1, 0x1, %g1
    0x1000025f0:            80 a0 40 1c  cmp       %g1, %i4
    0x1000025f4:            84 00 a0 08  add       %g2, 0x8, %g2
    0x1000025f8:            ae 05 e0 08  add       %l7, 0x8, %l7
    0x1000025fc:            04 4f ff 7c  ble,pt    %icc, -0x210  <0x1000023ec>
    0x100002600:            01 00 00 00  nop
    0x100002604:            a6 07 3f ff  add       %i4, -0x1, %l3
    0x100002608:            80 a4 e0 01  cmp       %l3, 0x1
    0x10000260c:            06 40 00 22  bl,pn     %icc, +0x88   <0x100002694>
    0x100002610:            a4 10 20 01  mov       0x1, %l2
    0x100002614:            b2 06 20 08  add       %i0, 0x8, %i1
    0x100002618:            a2 10 20 10  mov       0x10, %l1
    0x10000261c:            b6 04 a0 01  add       %l2, 0x1, %i3
    0x100002620:            80 a6 c0 1c  cmp       %i3, %i4
    0x100002624:            14 40 00 16  bg,pn     %icc, +0x58   <0x10000267c>
    0x100002628:            b4 10 00 11  mov       %l1, %i2
    0x10000262c:            b0 27 00 1b  sub       %i4, %i3, %i0
    0x100002630:            ae 06 20 01  add       %i0, 0x1, %l7
    0x100002634:            80 a5 e0 01  cmp       %l7, 0x1
    0x100002638:            06 40 00 0a  bl,pn     %icc, +0x28   <0x100002660>
    0x10000263c:            01 00 00 00  nop
    0x100002640:            b6 06 e0 01  add       %i3, 0x1, %i3
    0x100002644:            e8 5e 60 00  ldx       [%i1], %l4
    0x100002648:            80 a6 c0 1c  cmp       %i3, %i4
    0x10000264c:            c0 75 00 1a  clrx      [%l4 + %i2]
    0x100002650:            04 4f ff fc  ble,pt    %icc, -0x10   <0x100002640>
    0x100002654:            b4 06 a0 08  add       %i2, 0x8, %i2
    0x100002658:            10 80 00 09  ba        +0x24         <0x10000267c>
    0x10000265c:            01 00 00 00  nop
    0x100002660:            b6 06 e0 01  add       %i3, 0x1, %i3
    0x100002664:            e8 5e 60 00  ldx       [%i1], %l4
    0x100002668:            80 a6 c0 1c  cmp       %i3, %i4
    0x10000266c:            c0 75 00 1a  clrx      [%l4 + %i2]
    0x100002670:            b4 06 a0 08  add       %i2, 0x8, %i2
    0x100002674:            04 4f ff fc  ble,pt    %icc, -0x10   <0x100002664>
    0x100002678:            b6 06 e0 01  add       %i3, 0x1, %i3
    0x10000267c:            a4 04 a0 01  add       %l2, 0x1, %l2
    0x100002680:            80 a4 80 13  cmp       %l2, %l3
    0x100002684:            a2 04 60 08  add       %l1, 0x8, %l1
    0x100002688:            b2 06 60 08  add       %i1, 0x8, %i1
    0x10000268c:            04 4f ff e5  ble,pt    %icc, -0x6c   <0x100002620>
    0x100002690:            b6 04 a0 01  add       %l2, 0x1, %i3
    0x100002694:            81 c7 e0 08  ret
    0x100002698:            91 e8 20 01  restore   %g0, 0x1, %o0
    0x10000269c:            00 00 00 00  illtrap   0x0
    0x1000026a0:            00 00 00 00  illtrap   0x0
    0x1000026a4:            00 00 00 00  illtrap   0x0
    0x1000026a8:            3f f0 00 00  0x3ff00000
    0x1000026ac:            00 00 00 00  illtrap   0x0
__1cGgaussj6Fppdi1i_v_()
    0x1000026b0:            9d e3 be f0  save      %sp, -0x110, %sp
    0x1000026b4:            b9 3e 60 00  sra       %i1, 0x0, %i4
    0x1000026b8:            a2 07 20 01  add       %i4, 0x1, %l1
    0x1000026bc:            ad 2c 70 02  sllx      %l1, 0x2, %l6
    0x1000026c0:            ba 10 00 1a  mov       %i2, %i5
    0x1000026c4:            40 04 6d d7  call      +0x11b75c     <0x10011de20>
    0x1000026c8:            90 10 00 16  mov       %l6, %o0
    0x1000026cc:            b4 10 00 18  mov       %i0, %i2
    0x1000026d0:            02 c2 01 d2  brz,pn    %o0, +0x748   <0x100002e18>
    0x1000026d4:            d0 73 a8 af  stx       %o0, [%sp + 0x8af]
    0x1000026d8:            90 10 00 16  mov       %l6, %o0
    0x1000026dc:            40 04 6d d1  call      +0x11b744     <0x10011de20>
    0x1000026e0:            01 00 00 00  nop
    0x1000026e4:            02 c2 01 d4  brz,pn    %o0, +0x750   <0x100002e34>
    0x1000026e8:            d0 73 a8 b7  stx       %o0, [%sp + 0x8b7]
    0x1000026ec:            90 10 00 16  mov       %l6, %o0
    0x1000026f0:            40 04 6d cc  call      +0x11b730     <0x10011de20>
    0x1000026f4:            01 00 00 00  nop
    0x1000026f8:            02 c2 01 d6  brz,pn    %o0, +0x758   <0x100002e50>
    0x1000026fc:            d0 73 a8 bf  stx       %o0, [%sp + 0x8bf]
    0x100002700:            80 a7 20 01  cmp       %i4, 0x1
    0x100002704:            06 40 01 be  bl,pn     %icc, +0x6f8  <0x100002dfc>
    0x100002708:            f0 5b a8 bf  ldx       [%sp + 0x8bf], %i0
    0x10000270c:            80 a7 20 04  cmp       %i4, 0x4
    0x100002710:            a2 10 20 01  mov       0x1, %l1
    0x100002714:            a0 06 20 04  add       %i0, 0x4, %l0
    0x100002718:            a4 10 00 10  mov       %l0, %l2
    0x10000271c:            06 40 00 0f  bl,pn     %icc, +0x3c   <0x100002758>
    0x100002720:            01 00 00 00  nop
    0x100002724:            9a 27 20 03  sub       %i4, 0x3, %o5
    0x100002728:            ed 6c a1 08  prefetch  [%l2 + 0x108], #n_writes_strong
    0x10000272c:            c0 24 a0 00  clr       [%l2]
    0x100002730:            a2 04 60 04  add       %l1, 0x4, %l1
    0x100002734:            a4 04 a0 10  add       %l2, 0x10, %l2
    0x100002738:            c0 24 bf f4  clr       [%l2 - 0xc]
    0x10000273c:            80 a4 40 0d  cmp       %l1, %o5
    0x100002740:            c0 24 bf f8  clr       [%l2 - 0x8]
    0x100002744:            04 4f ff f9  ble,pt    %icc, -0x1c   <0x100002728>
    0x100002748:            c0 24 bf fc  clr       [%l2 - 0x4]
    0x10000274c:            80 a4 40 1c  cmp       %l1, %i4
    0x100002750:            14 40 00 08  bg,pn     %icc, +0x20   <0x100002770>
    0x100002754:            01 00 00 00  nop
    0x100002758:            a2 04 60 01  add       %l1, 0x1, %l1
    0x10000275c:            80 a4 40 1c  cmp       %l1, %i4
    0x100002760:            c0 24 a0 00  clr       [%l2]
    0x100002764:            a4 04 a0 04  add       %l2, 0x4, %l2
    0x100002768:            04 4f ff fd  ble,pt    %icc, -0xc    <0x10000275c>
    0x10000276c:            a2 04 60 01  add       %l1, 0x1, %l1
    0x100002770:            23 00 04 00  sethi     %hi(0x100000), %l1
    0x100002774:            c4 5b a8 af  ldx       [%sp + 0x8af], %g2
    0x100002778:            a4 14 60 02  or        %l1, 0x2, %l2
    0x10000277c:            f0 5b a8 b7  ldx       [%sp + 0x8b7], %i0
    0x100002780:            8b 2c b0 0c  sllx      %l2, 0xc, %g5
    0x100002784:            aa 06 a0 08  add       %i2, 0x8, %l5
    0x100002788:            ea 73 a8 c7  stx       %l5, [%sp + 0x8c7]
    0x10000278c:            88 01 66 a0  add       %g5, 0x6a0, %g4
    0x100002790:            ca 73 a8 d7  stx       %g5, [%sp + 0x8d7]
    0x100002794:            86 10 20 01  mov       0x1, %g3
    0x100002798:            82 00 a0 04  add       %g2, 0x4, %g1
    0x10000279c:            c6 23 a8 cf  st        %g3, [%sp + 0x8cf]
    0x1000027a0:            ae 06 20 04  add       %i0, 0x4, %l7
    0x1000027a4:            c8 73 a8 df  stx       %g4, [%sp + 0x8df]
    0x1000027a8:            ac 07 60 08  add       %i5, 0x8, %l6
    0x1000027ac:            ee 73 a8 e7  stx       %l7, [%sp + 0x8e7]
    0x1000027b0:            a2 10 3f ff  mov       -0x1, %l1
    0x1000027b4:            c2 73 a8 ef  stx       %g1, [%sp + 0x8ef]
    0x1000027b8:            a4 10 3f ff  mov       -0x1, %l2
    0x1000027bc:            ec 73 a8 f7  stx       %l6, [%sp + 0x8f7]
    0x1000027c0:            aa 10 20 01  mov       0x1, %l5
    0x1000027c4:            f0 5b a8 d7  ldx       [%sp + 0x8d7], %i0
    0x1000027c8:            ee 5b a8 c7  ldx       [%sp + 0x8c7], %l7
    0x1000027cc:            d2 04 20 00  ld        [%l0], %o1
    0x1000027d0:            fd 1e 26 a0  ldd       [%i0 + 0x6a0], %d30
    0x1000027d4:            ac 10 00 10  mov       %l0, %l6
    0x1000027d8:            80 a2 60 01  cmp       %o1, 0x1
    0x1000027dc:            02 40 00 19  be,pn     %icc, +0x64   <0x100002840>
    0x1000027e0:            a8 10 20 01  mov       0x1, %l4
    0x1000027e4:            a6 10 00 10  mov       %l0, %l3
    0x1000027e8:            d6 04 20 00  ld        [%l0], %o3
    0x1000027ec:            b0 10 20 08  mov       0x8, %i0
    0x1000027f0:            80 a2 e0 00  cmp       %o3, 0x0
    0x1000027f4:            12 40 00 0b  bne,pn    %icc, +0x2c   <0x100002820>
    0x1000027f8:            80 a2 e0 01  cmp       %o3, 0x1
    0x1000027fc:            d8 5d e0 00  ldx       [%l7], %o4
    0x100002800:            f1 1b 00 18  ldd       [%o4 + %i0], %d24
    0x100002804:            b9 a0 01 58  fabsd     %d24, %d28
    0x100002808:            83 af 0a de  fcmped    %fcc1, %d28, %d30
    0x10000280c:            bd aa c8 5c  fmovdge   %fcc1, %d28, %d30
    0x100002810:            a5 62 c8 14  movge     %fcc1, %l4, %l2
    0x100002814:            a3 62 c8 15  movge     %fcc1, %l5, %l1
    0x100002818:            10 80 00 05  ba        +0x14         <0x10000282c>
    0x10000281c:            a8 05 20 01  add       %l4, 0x1, %l4
    0x100002820:            14 40 01 93  bg,pn     %icc, +0x64c  <0x100002e6c>
    0x100002824:            01 00 00 00  nop
    0x100002828:            a8 05 20 01  add       %l4, 0x1, %l4
    0x10000282c:            80 a5 00 1c  cmp       %l4, %i4
    0x100002830:            a6 04 e0 04  add       %l3, 0x4, %l3
    0x100002834:            b0 06 20 08  add       %i0, 0x8, %i0
    0x100002838:            24 4f ff ee  ble,a,pt  %icc, -0x48   <0x1000027f0>
    0x10000283c:            d6 04 e0 00  ld        [%l3], %o3
    0x100002840:            aa 05 60 01  add       %l5, 0x1, %l5
    0x100002844:            80 a5 40 1c  cmp       %l5, %i4
    0x100002848:            ac 05 a0 04  add       %l6, 0x4, %l6
    0x10000284c:            ae 05 e0 08  add       %l7, 0x8, %l7
    0x100002850:            24 4f ff e2  ble,a,pt  %icc, -0x78   <0x1000027d8>
    0x100002854:            d2 05 a0 00  ld        [%l6], %o1
    0x100002858:            a9 3c a0 00  sra       %l2, 0x0, %l4
    0x10000285c:            d0 5b a8 bf  ldx       [%sp + 0x8bf], %o0
    0x100002860:            83 2d 30 02  sllx      %l4, 0x2, %g1
    0x100002864:            80 a4 40 12  cmp       %l1, %l2
    0x100002868:            ee 00 40 08  ld        [%g1 + %o0], %l7
    0x10000286c:            a7 2d 30 03  sllx      %l4, 0x3, %l3
    0x100002870:            9e 05 e0 01  add       %l7, 0x1, %o7
    0x100002874:            02 40 00 22  be,pn     %icc, +0x88   <0x1000028fc>
    0x100002878:            de 20 40 08  st        %o7, [%g1 + %o0]
    0x10000287c:            8b 3c 60 00  sra       %l1, 0x0, %g5
    0x100002880:            9b 29 70 03  sllx      %g5, 0x3, %o5
    0x100002884:            90 10 20 01  mov       0x1, %o0
    0x100002888:            98 10 20 08  mov       0x8, %o4
    0x10000288c:            01 00 00 00  nop
    0x100002890:            90 02 20 01  add       %o0, 0x1, %o0
    0x100002894:            f0 5e 80 13  ldx       [%i2 + %l3], %i0
    0x100002898:            80 a2 00 1c  cmp       %o0, %i4
    0x10000289c:            c6 5e 80 0d  ldx       [%i2 + %o5], %g3
    0x1000028a0:            d5 1e 00 0c  ldd       [%i0 + %o4], %d10
    0x1000028a4:            e5 18 c0 0c  ldd       [%g3 + %o4], %d18
    0x1000028a8:            d5 38 c0 0c  std       %d10, [%g3 + %o4]
    0x1000028ac:            ca 5e 80 13  ldx       [%i2 + %l3], %g5
    0x1000028b0:            e5 39 40 0c  std       %d18, [%g5 + %o4]
    0x1000028b4:            04 4f ff f7  ble,pt    %icc, -0x24   <0x100002890>
    0x1000028b8:            98 03 20 08  add       %o4, 0x8, %o4
    0x1000028bc:            80 a6 e0 01  cmp       %i3, 0x1
    0x1000028c0:            06 40 00 0f  bl,pn     %icc, +0x3c   <0x1000028fc>
    0x1000028c4:            86 10 20 01  mov       0x1, %g3
    0x1000028c8:            b0 10 20 08  mov       0x8, %i0
    0x1000028cc:            01 00 00 00  nop
    0x1000028d0:            86 00 e0 01  add       %g3, 0x1, %g3
    0x1000028d4:            d4 5f 40 13  ldx       [%i5 + %l3], %o2
    0x1000028d8:            80 a0 c0 1b  cmp       %g3, %i3
    0x1000028dc:            ea 5f 40 0d  ldx       [%i5 + %o5], %l5
    0x1000028e0:            e1 1a 80 18  ldd       [%o2 + %i0], %d16
    0x1000028e4:            c5 1d 40 18  ldd       [%l5 + %i0], %d2
    0x1000028e8:            e1 3d 40 18  std       %d16, [%l5 + %i0]
    0x1000028ec:            c4 5f 40 13  ldx       [%i5 + %l3], %g2
    0x1000028f0:            c5 38 80 18  std       %d2, [%g2 + %i0]
    0x1000028f4:            04 4f ff f7  ble,pt    %icc, -0x24   <0x1000028d0>
    0x1000028f8:            b0 06 20 08  add       %i0, 0x8, %i0
    0x1000028fc:            d4 5b a8 e7  ldx       [%sp + 0x8e7], %o2
    0x100002900:            d6 5b a8 ef  ldx       [%sp + 0x8ef], %o3
    0x100002904:            d2 5b a8 d7  ldx       [%sp + 0x8d7], %o1
    0x100002908:            e2 22 a0 00  st        %l1, [%o2]
    0x10000290c:            e4 22 e0 00  st        %l2, [%o3]
    0x100002910:            f0 5e 80 13  ldx       [%i2 + %l3], %i0
    0x100002914:            e9 1a 66 a0  ldd       [%o1 + 0x6a0], %d20
    0x100002918:            ed 1c c0 18  ldd       [%l3 + %i0], %d22
    0x10000291c:            85 ad 8a 54  fcmpd     %fcc2, %d22, %d20
    0x100002920:            13 60 01 5c  fbe,pn    %fcc2, +0x570  <0x100002e90>
    0x100002924:            86 06 00 13  add       %i0, %l3, %g3
    0x100002928:            ee 5b a8 df  ldx       [%sp + 0x8df], %l7
    0x10000292c:            dd 1d e0 08  ldd       [%l7 + 0x8], %d14
    0x100002930:            dd 38 e0 00  std       %d14, [%g3]
    0x100002934:            80 a7 20 01  cmp       %i4, 0x1
    0x100002938:            81 a3 89 d6  fdivd     %d14, %d22, %d0
    0x10000293c:            96 10 20 01  mov       0x1, %o3
    0x100002940:            94 10 20 08  mov       0x8, %o2
    0x100002944:            06 40 00 0c  bl,pn     %icc, +0x30   <0x100002974>
    0x100002948:            01 00 00 00  nop
    0x10000294c:            96 02 e0 01  add       %o3, 0x1, %o3
    0x100002950:            d2 5e 80 13  ldx       [%i2 + %l3], %o1
    0x100002954:            80 a2 c0 1c  cmp       %o3, %i4
    0x100002958:            cd 1a 40 0a  ldd       [%o1 + %o2], %d6
    0x10000295c:            99 a1 89 40  fmuld     %d6, %d0, %d12
    0x100002960:            d9 3a 40 0a  std       %d12, [%o1 + %o2]
    0x100002964:            04 4f ff fa  ble,pt    %icc, -0x18   <0x10000294c>
    0x100002968:            94 02 a0 08  add       %o2, 0x8, %o2
    0x10000296c:            10 80 00 0b  ba        +0x2c         <0x100002998>
    0x100002970:            01 00 00 00  nop
    0x100002974:            d2 5e 80 13  ldx       [%i2 + %l3], %o1
    0x100002978:            cd 1a 40 0a  ldd       [%o1 + %o2], %d6
    0x10000297c:            96 02 e0 01  add       %o3, 0x1, %o3
    0x100002980:            80 a2 c0 1c  cmp       %o3, %i4
    0x100002984:            99 a1 89 40  fmuld     %d6, %d0, %d12
    0x100002988:            d9 3a 40 0a  std       %d12, [%o1 + %o2]
    0x10000298c:            94 02 a0 08  add       %o2, 0x8, %o2
    0x100002990:            24 4f ff fa  ble,a,pt  %icc, -0x18   <0x100002978>
    0x100002994:            d2 5e 80 13  ldx       [%i2 + %l3], %o1
    0x100002998:            80 a6 e0 01  cmp       %i3, 0x1
    0x10000299c:            06 40 00 0c  bl,pn     %icc, +0x30   <0x1000029cc>
    0x1000029a0:            84 10 20 01  mov       0x1, %g2
    0x1000029a4:            82 10 20 08  mov       0x8, %g1
    0x1000029a8:            01 00 00 00  nop
    0x1000029ac:            84 00 a0 01  add       %g2, 0x1, %g2
    0x1000029b0:            d6 5f 40 13  ldx       [%i5 + %l3], %o3
    0x1000029b4:            80 a0 80 1b  cmp       %g2, %i3
    0x1000029b8:            c9 1a c0 01  ldd       [%o3 + %g1], %d4
    0x1000029bc:            91 a1 09 40  fmuld     %d4, %d0, %d8
    0x1000029c0:            d1 3a c0 01  std       %d8, [%o3 + %g1]
    0x1000029c4:            04 4f ff fa  ble,pt    %icc, -0x18   <0x1000029ac>
    0x1000029c8:            82 00 60 08  add       %g1, 0x8, %g1
    0x1000029cc:            98 27 00 14  sub       %i4, %l4, %o4
    0x1000029d0:            91 3b 30 20  srax      %o4, 0x20, %o0
    0x1000029d4:            96 0a 00 0c  and       %o0, %o4, %o3
    0x1000029d8:            ac 02 c0 12  add       %o3, %l2, %l6
    0x1000029dc:            90 05 bf ff  add       %l6, -0x1, %o0
    0x1000029e0:            80 a2 20 01  cmp       %o0, 0x1
    0x1000029e4:            06 40 00 3b  bl,pn     %icc, +0xec   <0x100002ad0>
    0x1000029e8:            88 10 20 01  mov       0x1, %g4
    0x1000029ec:            d4 5b a8 c7  ldx       [%sp + 0x8c7], %o2
    0x1000029f0:            d2 5b a8 f7  ldx       [%sp + 0x8f7], %o1
    0x1000029f4:            c2 5a a0 00  ldx       [%o2], %g1
    0x1000029f8:            80 a7 20 01  cmp       %i4, 0x1
    0x1000029fc:            c9 1c c0 01  ldd       [%l3 + %g1], %d4
    0x100002a00:            98 10 20 01  mov       0x1, %o4
    0x100002a04:            96 10 20 08  mov       0x8, %o3
    0x100002a08:            c0 74 c0 01  clrx      [%l3 + %g1]
    0x100002a0c:            06 40 00 0f  bl,pn     %icc, +0x3c   <0x100002a48>
    0x100002a10:            01 00 00 00  nop
    0x100002a14:            98 03 20 01  add       %o4, 0x1, %o4
    0x100002a18:            ee 5e 80 13  ldx       [%i2 + %l3], %l7
    0x100002a1c:            80 a3 00 1c  cmp       %o4, %i4
    0x100002a20:            e5 1d c0 0b  ldd       [%l7 + %o3], %d18
    0x100002a24:            a9 a4 89 44  fmuld     %d18, %d4, %d20
    0x100002a28:            de 5a a0 00  ldx       [%o2], %o7
    0x100002a2c:            ed 1b c0 0b  ldd       [%o7 + %o3], %d22
    0x100002a30:            b1 a5 88 d4  fsubd     %d22, %d20, %d24
    0x100002a34:            f1 3b c0 0b  std       %d24, [%o7 + %o3]
    0x100002a38:            04 4f ff f7  ble,pt    %icc, -0x24   <0x100002a14>
    0x100002a3c:            96 02 e0 08  add       %o3, 0x8, %o3
    0x100002a40:            10 80 00 0e  ba        +0x38         <0x100002a78>
    0x100002a44:            01 00 00 00  nop
    0x100002a48:            ee 5e 80 13  ldx       [%i2 + %l3], %l7
    0x100002a4c:            e5 1d c0 0b  ldd       [%l7 + %o3], %d18
    0x100002a50:            de 5a a0 00  ldx       [%o2], %o7
    0x100002a54:            98 03 20 01  add       %o4, 0x1, %o4
    0x100002a58:            a9 a4 89 44  fmuld     %d18, %d4, %d20
    0x100002a5c:            ed 1b c0 0b  ldd       [%o7 + %o3], %d22
    0x100002a60:            80 a3 00 1c  cmp       %o4, %i4
    0x100002a64:            b1 a5 88 d4  fsubd     %d22, %d20, %d24
    0x100002a68:            f1 3b c0 0b  std       %d24, [%o7 + %o3]
    0x100002a6c:            96 02 e0 08  add       %o3, 0x8, %o3
    0x100002a70:            24 4f ff f7  ble,a,pt  %icc, -0x24   <0x100002a4c>
    0x100002a74:            ee 5e 80 13  ldx       [%i2 + %l3], %l7
    0x100002a78:            80 a6 e0 01  cmp       %i3, 0x1
    0x100002a7c:            06 40 00 0f  bl,pn     %icc, +0x3c   <0x100002ab8>
    0x100002a80:            b0 10 20 01  mov       0x1, %i0
    0x100002a84:            aa 10 20 08  mov       0x8, %l5
    0x100002a88:            01 00 00 00  nop
    0x100002a8c:            b0 06 20 01  add       %i0, 0x1, %i0
    0x100002a90:            da 5f 40 13  ldx       [%i5 + %l3], %o5
    0x100002a94:            80 a6 00 1b  cmp       %i0, %i3
    0x100002a98:            f9 1b 40 15  ldd       [%o5 + %l5], %d28
    0x100002a9c:            bd a7 09 44  fmuld     %d28, %d4, %d30
    0x100002aa0:            d8 5a 60 00  ldx       [%o1], %o4
    0x100002aa4:            f5 1b 00 15  ldd       [%o4 + %l5], %d26
    0x100002aa8:            81 a6 88 de  fsubd     %d26, %d30, %d0
    0x100002aac:            c1 3b 00 15  std       %d0, [%o4 + %l5]
    0x100002ab0:            04 4f ff f7  ble,pt    %icc, -0x24   <0x100002a8c>
    0x100002ab4:            aa 05 60 08  add       %l5, 0x8, %l5
    0x100002ab8:            88 01 20 01  add       %g4, 0x1, %g4
    0x100002abc:            80 a1 00 08  cmp       %g4, %o0
    0x100002ac0:            94 02 a0 08  add       %o2, 0x8, %o2
    0x100002ac4:            92 02 60 08  add       %o1, 0x8, %o1
    0x100002ac8:            24 4f ff cc  ble,a,pt  %icc, -0xd0   <0x1000029f8>
    0x100002acc:            c2 5a a0 00  ldx       [%o2], %g1
    0x100002ad0:            97 3d a0 00  sra       %l6, 0x0, %o3
    0x100002ad4:            82 10 20 01  mov       0x1, %g1
    0x100002ad8:            92 20 40 0b  sub       %g1, %o3, %o1
    0x100002adc:            95 3a 70 20  srax      %o1, 0x20, %o2
    0x100002ae0:            b0 0a 80 09  and       %o2, %o1, %i0
    0x100002ae4:            aa 20 40 18  sub       %g1, %i0, %l5
    0x100002ae8:            80 a5 40 12  cmp       %l5, %l2
    0x100002aec:            02 40 00 34  be,pn     %icc, +0xd0   <0x100002bbc>
    0x100002af0:            ad 3d 60 00  sra       %l5, 0x0, %l6
    0x100002af4:            af 2d b0 03  sllx      %l6, 0x3, %l7
    0x100002af8:            d8 5e 80 17  ldx       [%i2 + %l7], %o4
    0x100002afc:            80 a7 20 01  cmp       %i4, 0x1
    0x100002b00:            aa 10 20 01  mov       0x1, %l5
    0x100002b04:            c1 1c c0 0c  ldd       [%l3 + %o4], %d0
    0x100002b08:            ac 10 20 08  mov       0x8, %l6
    0x100002b0c:            c0 74 c0 0c  clrx      [%l3 + %o4]
    0x100002b10:            06 40 00 0f  bl,pn     %icc, +0x3c   <0x100002b4c>
    0x100002b14:            01 00 00 00  nop
    0x100002b18:            aa 05 60 01  add       %l5, 0x1, %l5
    0x100002b1c:            de 5e 80 13  ldx       [%i2 + %l3], %o7
    0x100002b20:            80 a5 40 1c  cmp       %l5, %i4
    0x100002b24:            ed 1b c0 16  ldd       [%o7 + %l6], %d22
    0x100002b28:            b1 a5 89 40  fmuld     %d22, %d0, %d24
    0x100002b2c:            da 5e 80 17  ldx       [%i2 + %l7], %o5
    0x100002b30:            f5 1b 40 16  ldd       [%o5 + %l6], %d26
    0x100002b34:            b9 a6 88 d8  fsubd     %d26, %d24, %d28
    0x100002b38:            f9 3b 40 16  std       %d28, [%o5 + %l6]
    0x100002b3c:            04 4f ff f7  ble,pt    %icc, -0x24   <0x100002b18>
    0x100002b40:            ac 05 a0 08  add       %l6, 0x8, %l6
    0x100002b44:            10 80 00 0e  ba        +0x38         <0x100002b7c>
    0x100002b48:            01 00 00 00  nop
    0x100002b4c:            de 5e 80 13  ldx       [%i2 + %l3], %o7
    0x100002b50:            ed 1b c0 16  ldd       [%o7 + %l6], %d22
    0x100002b54:            da 5e 80 17  ldx       [%i2 + %l7], %o5
    0x100002b58:            aa 05 60 01  add       %l5, 0x1, %l5
    0x100002b5c:            b1 a5 89 40  fmuld     %d22, %d0, %d24
    0x100002b60:            f5 1b 40 16  ldd       [%o5 + %l6], %d26
    0x100002b64:            80 a5 40 1c  cmp       %l5, %i4
    0x100002b68:            b9 a6 88 d8  fsubd     %d26, %d24, %d28
    0x100002b6c:            f9 3b 40 16  std       %d28, [%o5 + %l6]
    0x100002b70:            ac 05 a0 08  add       %l6, 0x8, %l6
    0x100002b74:            24 4f ff f7  ble,a,pt  %icc, -0x24   <0x100002b50>
    0x100002b78:            de 5e 80 13  ldx       [%i2 + %l3], %o7
    0x100002b7c:            80 a6 e0 01  cmp       %i3, 0x1
    0x100002b80:            06 40 00 0f  bl,pn     %icc, +0x3c   <0x100002bbc>
    0x100002b84:            92 10 20 01  mov       0x1, %o1
    0x100002b88:            9e 10 20 08  mov       0x8, %o7
    0x100002b8c:            01 00 00 00  nop
    0x100002b90:            92 02 60 01  add       %o1, 0x1, %o1
    0x100002b94:            ca 5f 40 13  ldx       [%i5 + %l3], %g5
    0x100002b98:            80 a2 40 1b  cmp       %o1, %i3
    0x100002b9c:            dd 19 40 0f  ldd       [%g5 + %o7], %d14
    0x100002ba0:            a1 a3 89 40  fmuld     %d14, %d0, %d16
    0x100002ba4:            c8 5f 40 17  ldx       [%i5 + %l7], %g4
    0x100002ba8:            e5 19 00 0f  ldd       [%g4 + %o7], %d18
    0x100002bac:            a9 a4 88 d0  fsubd     %d18, %d16, %d20
    0x100002bb0:            e9 39 00 0f  std       %d20, [%g4 + %o7]
    0x100002bb4:            04 4f ff f7  ble,pt    %icc, -0x24   <0x100002b90>
    0x100002bb8:            9e 03 e0 08  add       %o7, 0x8, %o7
    0x100002bbc:            88 20 40 14  sub       %g1, %l4, %g4
    0x100002bc0:            af 39 30 20  srax      %g4, 0x20, %l7
    0x100002bc4:            9e 0d c0 04  and       %l7, %g4, %o7
    0x100002bc8:            82 20 40 0f  sub       %g1, %o7, %g1
    0x100002bcc:            9b 38 60 00  sra       %g1, 0x0, %o5
    0x100002bd0:            98 23 40 1c  sub       %o5, %i4, %o4
    0x100002bd4:            ad 3b 30 20  srax      %o4, 0x20, %l6
    0x100002bd8:            96 0d 80 0c  and       %l6, %o4, %o3
    0x100002bdc:            94 02 c0 19  add       %o3, %i1, %o2
    0x100002be0:            9e 02 a0 01  add       %o2, 0x1, %o7
    0x100002be4:            80 a3 c0 1c  cmp       %o7, %i4
    0x100002be8:            14 40 00 3c  bg,pn     %icc, +0xf0   <0x100002cd8>
    0x100002bec:            87 3b e0 00  sra       %o7, 0x0, %g3
    0x100002bf0:            85 28 f0 03  sllx      %g3, 0x3, %g2
    0x100002bf4:            ae 00 80 1a  add       %g2, %i2, %l7
    0x100002bf8:            ca 58 80 1a  ldx       [%g2 + %i2], %g5
    0x100002bfc:            82 00 80 1d  add       %g2, %i5, %g1
    0x100002c00:            80 a7 20 01  cmp       %i4, 0x1
    0x100002c04:            c5 1c c0 05  ldd       [%l3 + %g5], %d2
    0x100002c08:            88 10 20 01  mov       0x1, %g4
    0x100002c0c:            aa 10 20 08  mov       0x8, %l5
    0x100002c10:            c0 74 c0 05  clrx      [%l3 + %g5]
    0x100002c14:            06 40 00 0f  bl,pn     %icc, +0x3c   <0x100002c50>
    0x100002c18:            01 00 00 00  nop
    0x100002c1c:            88 01 20 01  add       %g4, 0x1, %g4
    0x100002c20:            c4 5e 80 13  ldx       [%i2 + %l3], %g2
    0x100002c24:            80 a1 00 1c  cmp       %g4, %i4
    0x100002c28:            d1 18 80 15  ldd       [%g2 + %l5], %d8
    0x100002c2c:            99 a2 09 42  fmuld     %d8, %d2, %d12
    0x100002c30:            c6 5d e0 00  ldx       [%l7], %g3
    0x100002c34:            dd 18 c0 15  ldd       [%g3 + %l5], %d14
    0x100002c38:            a1 a3 88 cc  fsubd     %d14, %d12, %d16
    0x100002c3c:            e1 38 c0 15  std       %d16, [%g3 + %l5]
    0x100002c40:            04 4f ff f7  ble,pt    %icc, -0x24   <0x100002c1c>
    0x100002c44:            aa 05 60 08  add       %l5, 0x8, %l5
    0x100002c48:            10 80 00 0e  ba        +0x38         <0x100002c80>
    0x100002c4c:            01 00 00 00  nop
    0x100002c50:            c4 5e 80 13  ldx       [%i2 + %l3], %g2
    0x100002c54:            d1 18 80 15  ldd       [%g2 + %l5], %d8
    0x100002c58:            c6 5d e0 00  ldx       [%l7], %g3
    0x100002c5c:            88 01 20 01  add       %g4, 0x1, %g4
    0x100002c60:            99 a2 09 42  fmuld     %d8, %d2, %d12
    0x100002c64:            dd 18 c0 15  ldd       [%g3 + %l5], %d14
    0x100002c68:            80 a1 00 1c  cmp       %g4, %i4
    0x100002c6c:            a1 a3 88 cc  fsubd     %d14, %d12, %d16
    0x100002c70:            e1 38 c0 15  std       %d16, [%g3 + %l5]
    0x100002c74:            aa 05 60 08  add       %l5, 0x8, %l5
    0x100002c78:            24 4f ff f7  ble,a,pt  %icc, -0x24   <0x100002c54>
    0x100002c7c:            c4 5e 80 13  ldx       [%i2 + %l3], %g2
    0x100002c80:            80 a6 e0 01  cmp       %i3, 0x1
    0x100002c84:            06 40 00 0f  bl,pn     %icc, +0x3c   <0x100002cc0>
    0x100002c88:            9a 10 20 01  mov       0x1, %o5
    0x100002c8c:            ac 10 20 08  mov       0x8, %l6
    0x100002c90:            01 00 00 00  nop
    0x100002c94:            9a 03 60 01  add       %o5, 0x1, %o5
    0x100002c98:            e8 5f 40 13  ldx       [%i5 + %l3], %l4
    0x100002c9c:            80 a3 40 1b  cmp       %o5, %i3
    0x100002ca0:            fd 1d 00 16  ldd       [%l4 + %l6], %d30
    0x100002ca4:            81 a7 89 42  fmuld     %d30, %d2, %d0
    0x100002ca8:            d0 58 60 00  ldx       [%g1], %o0
    0x100002cac:            c9 1a 00 16  ldd       [%o0 + %l6], %d4
    0x100002cb0:            8d a1 08 c0  fsubd     %d4, %d0, %d6
    0x100002cb4:            cd 3a 00 16  std       %d6, [%o0 + %l6]
    0x100002cb8:            04 4f ff f7  ble,pt    %icc, -0x24   <0x100002c94>
    0x100002cbc:            ac 05 a0 08  add       %l6, 0x8, %l6
    0x100002cc0:            9e 03 e0 01  add       %o7, 0x1, %o7
    0x100002cc4:            80 a3 c0 1c  cmp       %o7, %i4
    0x100002cc8:            ae 05 e0 08  add       %l7, 0x8, %l7
    0x100002ccc:            82 00 60 08  add       %g1, 0x8, %g1
    0x100002cd0:            24 4f ff cc  ble,a,pt  %icc, -0xd0   <0x100002c00>
    0x100002cd4:            ca 5d e0 00  ldx       [%l7], %g5
    0x100002cd8:            ea 03 a8 cf  ld        [%sp + 0x8cf], %l5
    0x100002cdc:            e6 5b a8 e7  ldx       [%sp + 0x8e7], %l3
    0x100002ce0:            da 5b a8 ef  ldx       [%sp + 0x8ef], %o5
    0x100002ce4:            a8 05 60 01  add       %l5, 0x1, %l4
    0x100002ce8:            9e 04 e0 04  add       %l3, 0x4, %o7
    0x100002cec:            e8 23 a8 cf  st        %l4, [%sp + 0x8cf]
    0x100002cf0:            98 03 60 04  add       %o5, 0x4, %o4
    0x100002cf4:            de 73 a8 e7  stx       %o7, [%sp + 0x8e7]
    0x100002cf8:            80 a5 00 1c  cmp       %l4, %i4
    0x100002cfc:            d8 73 a8 ef  stx       %o4, [%sp + 0x8ef]
    0x100002d00:            04 4f fe b1  ble,pt    %icc, -0x53c  <0x1000027c4>
    0x100002d04:            aa 10 20 01  mov       0x1, %l5
    0x100002d08:            fa 5b a8 af  ldx       [%sp + 0x8af], %i5
    0x100002d0c:            ec 5b a8 b7  ldx       [%sp + 0x8b7], %l6
    0x100002d10:            b5 2f 30 02  sllx      %i4, 0x2, %i2
    0x100002d14:            b6 06 80 1d  add       %i2, %i5, %i3
    0x100002d18:            b4 06 80 16  add       %i2, %l6, %i2
    0x100002d1c:            fa 06 a0 00  ld        [%i2], %i5
    0x100002d20:            c8 06 e0 00  ld        [%i3], %g4
    0x100002d24:            80 a7 40 04  cmp       %i5, %g4
    0x100002d28:            02 40 00 2f  be,pn     %icc, +0xbc   <0x100002de4>
    0x100002d2c:            ba 10 20 01  mov       0x1, %i5
    0x100002d30:            80 a7 20 01  cmp       %i4, 0x1
    0x100002d34:            e0 5b a8 c7  ldx       [%sp + 0x8c7], %l0
    0x100002d38:            06 40 00 17  bl,pn     %icc, +0x5c   <0x100002d94>
    0x100002d3c:            01 00 00 00  nop
    0x100002d40:            ba 07 60 01  add       %i5, 0x1, %i5
    0x100002d44:            a0 04 20 08  add       %l0, 0x8, %l0
    0x100002d48:            e6 06 a0 00  ld        [%i2], %l3
    0x100002d4c:            80 a7 40 1c  cmp       %i5, %i4
    0x100002d50:            e4 06 e0 00  ld        [%i3], %l2
    0x100002d54:            a3 3c e0 00  sra       %l3, 0x0, %l1
    0x100002d58:            93 3c a0 00  sra       %l2, 0x0, %o1
    0x100002d5c:            e8 5c 3f f8  ldx       [%l0 - 0x8], %l4
    0x100002d60:            b1 2a 70 03  sllx      %o1, 0x3, %i0
    0x100002d64:            ab 2c 70 03  sllx      %l1, 0x3, %l5
    0x100002d68:            c5 1d 00 18  ldd       [%l4 + %i0], %d2
    0x100002d6c:            d5 1d 00 15  ldd       [%l4 + %l5], %d10
    0x100002d70:            c5 3d 00 15  std       %d2, [%l4 + %l5]
    0x100002d74:            d0 06 e0 00  ld        [%i3], %o0
    0x100002d78:            85 3a 20 00  sra       %o0, 0x0, %g2
    0x100002d7c:            ca 5c 3f f8  ldx       [%l0 - 0x8], %g5
    0x100002d80:            87 28 b0 03  sllx      %g2, 0x3, %g3
    0x100002d84:            04 4f ff ef  ble,pt    %icc, -0x44   <0x100002d40>
    0x100002d88:            d5 39 40 03  std       %d10, [%g5 + %g3]
    0x100002d8c:            10 80 00 16  ba        +0x58         <0x100002de4>
    0x100002d90:            01 00 00 00  nop
    0x100002d94:            ba 07 60 01  add       %i5, 0x1, %i5
    0x100002d98:            e6 06 a0 00  ld        [%i2], %l3
    0x100002d9c:            e4 06 e0 00  ld        [%i3], %l2
    0x100002da0:            e8 5c 20 00  ldx       [%l0], %l4
    0x100002da4:            a3 3c e0 00  sra       %l3, 0x0, %l1
    0x100002da8:            93 3c a0 00  sra       %l2, 0x0, %o1
    0x100002dac:            ab 2c 70 03  sllx      %l1, 0x3, %l5
    0x100002db0:            b1 2a 70 03  sllx      %o1, 0x3, %i0
    0x100002db4:            c5 1d 00 18  ldd       [%l4 + %i0], %d2
    0x100002db8:            d5 1d 00 15  ldd       [%l4 + %l5], %d10
    0x100002dbc:            c5 3d 00 15  std       %d2, [%l4 + %l5]
    0x100002dc0:            80 a7 40 1c  cmp       %i5, %i4
    0x100002dc4:            d0 06 e0 00  ld        [%i3], %o0
    0x100002dc8:            ca 5c 20 00  ldx       [%l0], %g5
    0x100002dcc:            a0 04 20 08  add       %l0, 0x8, %l0
    0x100002dd0:            85 3a 20 00  sra       %o0, 0x0, %g2
    0x100002dd4:            87 28 b0 03  sllx      %g2, 0x3, %g3
    0x100002dd8:            d5 39 40 03  std       %d10, [%g5 + %g3]
    0x100002ddc:            04 4f ff ef  ble,pt    %icc, -0x44   <0x100002d98>
    0x100002de0:            ba 07 60 01  add       %i5, 0x1, %i5
    0x100002de4:            b2 06 7f ff  add       %i1, -0x1, %i1
    0x100002de8:            80 a6 60 01  cmp       %i1, 0x1
    0x100002dec:            b4 26 a0 04  sub       %i2, 0x4, %i2
    0x100002df0:            b6 26 e0 04  sub       %i3, 0x4, %i3
    0x100002df4:            36 4f ff cb  bge,a,pt  %icc, -0xd4   <0x100002d20>
    0x100002df8:            fa 06 a0 00  ld        [%i2], %i5
    0x100002dfc:            40 04 6c 11  call      +0x11b044     <0x10011de40>
    0x100002e00:            d0 5b a8 bf  ldx       [%sp + 0x8bf], %o0
    0x100002e04:            40 04 6c 0f  call      +0x11b03c     <0x10011de40>
    0x100002e08:            d0 5b a8 b7  ldx       [%sp + 0x8b7], %o0
    0x100002e0c:            f0 5b a8 af  ldx       [%sp + 0x8af], %i0
    0x100002e10:            40 04 6c 0c  call      +0x11b030     <0x10011de40>
    0x100002e14:            81 e8 20 00  restore   %g0, 0x0, %g0
    0x100002e18:            1f 00 04 00  sethi     %hi(0x100000), %o7
    0x100002e1c:            82 13 e0 08  or        %o7, 0x8, %g1
    0x100002e20:            9b 28 70 0c  sllx      %g1, 0xc, %o5
    0x100002e24:            7f ff fd 43  call      -0xaf4        <0x100002330>
    0x100002e28:            90 03 67 ce  add       %o5, 0x7ce, %o0
    0x100002e2c:            10 bf fe 2c  ba        -0x750        <0x1000026dc>
    0x100002e30:            90 10 00 16  mov       %l6, %o0
    0x100002e34:            25 00 04 00  sethi     %hi(0x100000), %l2
    0x100002e38:            a8 14 a0 08  or        %l2, 0x8, %l4
    0x100002e3c:            af 2d 30 0c  sllx      %l4, 0xc, %l7
    0x100002e40:            7f ff fd 3c  call      -0xb10        <0x100002330>
    0x100002e44:            90 05 e7 ce  add       %l7, 0x7ce, %o0
    0x100002e48:            10 bf fe 2a  ba        -0x758        <0x1000026f0>
    0x100002e4c:            90 10 00 16  mov       %l6, %o0
    0x100002e50:            21 00 04 00  sethi     %hi(0x100000), %l0
    0x100002e54:            a6 14 20 08  or        %l0, 0x8, %l3
    0x100002e58:            a3 2c f0 0c  sllx      %l3, 0xc, %l1
    0x100002e5c:            7f ff fd 35  call      -0xb2c        <0x100002330>
    0x100002e60:            90 04 67 ce  add       %l1, 0x7ce, %o0
    0x100002e64:            10 bf fe 28  ba        -0x760        <0x100002704>
    0x100002e68:            80 a7 20 01  cmp       %i4, 0x1
    0x100002e6c:            1b 00 04 00  sethi     %hi(0x100000), %o5
    0x100002e70:            88 13 60 08  or        %o5, 0x8, %g4
    0x100002e74:            91 29 30 0c  sllx      %g4, 0xc, %o0
    0x100002e78:            fd 3b a8 ff  std       %d30, [%sp + 0x8ff]
    0x100002e7c:            7f ff fd 2d  call      -0xb4c        <0x100002330>
    0x100002e80:            90 02 27 9a  add       %o0, 0x79a, %o0
    0x100002e84:            fd 1b a8 ff  ldd       [%sp + 0x8ff], %d30
    0x100002e88:            10 bf fe 69  ba        -0x65c        <0x10000282c>
    0x100002e8c:            a8 05 20 01  add       %l4, 0x1, %l4
    0x100002e90:            13 00 04 00  sethi     %hi(0x100000), %o1
    0x100002e94:            94 12 60 08  or        %o1, 0x8, %o2
    0x100002e98:            ab 2a b0 0c  sllx      %o2, 0xc, %l5
    0x100002e9c:            7f ff fd 25  call      -0xb6c        <0x100002330>
    0x100002ea0:            90 05 67 b4  add       %l5, 0x7b4, %o0
    0x100002ea4:            c4 5e 80 13  ldx       [%i2 + %l3], %g2
    0x100002ea8:            ed 1c c0 02  ldd       [%l3 + %g2], %d22
    0x100002eac:            86 00 80 13  add       %g2, %l3, %g3
    0x100002eb0:            10 bf fe 9f  ba        -0x584        <0x10000292c>
    0x100002eb4:            ee 5b a8 df  ldx       [%sp + 0x8df], %l7
__1cHivector6Fll_pi_()
    0x100002eb8:            9d e3 bf 50  save      %sp, -0xb0, %sp
    0x100002ebc:            ba 26 40 18  sub       %i1, %i0, %i5
    0x100002ec0:            b8 07 60 02  add       %i5, 0x2, %i4
    0x100002ec4:            40 04 6b d7  call      +0x11af5c     <0x10011de20>
    0x100002ec8:            91 2f 30 02  sllx      %i4, 0x2, %o0
    0x100002ecc:            02 c2 00 06  brz,pn    %o0, +0x18    <0x100002ee4>
    0x100002ed0:            aa 10 00 08  mov       %o0, %l5
    0x100002ed4:            b7 2e 30 02  sllx      %i0, 0x2, %i3
    0x100002ed8:            b4 25 40 1b  sub       %l5, %i3, %i2
    0x100002edc:            81 c7 e0 08  ret
    0x100002ee0:            91 ee a0 04  restore   %i2, 0x4, %o0
    0x100002ee4:            33 00 04 00  sethi     %hi(0x100000), %i1
    0x100002ee8:            ae 16 60 08  or        %i1, 0x8, %l7
    0x100002eec:            ad 2d f0 0c  sllx      %l7, 0xc, %l6
    0x100002ef0:            7f ff fd 10  call      -0xbc0        <0x100002330>
    0x100002ef4:            90 05 a7 ce  add       %l6, 0x7ce, %o0
    0x100002ef8:            10 bf ff f8  ba        -0x20         <0x100002ed8>
    0x100002efc:            b7 2e 30 02  sllx      %i0, 0x2, %i3
__1cMfree_ivector6Fpill_v_()
    0x100002f00:            9b 2a 70 02  sllx      %o1, 0x2, %o5
    0x100002f04:            98 02 3f fc  add       %o0, -0x4, %o4
    0x100002f08:            90 03 00 0d  add       %o4, %o5, %o0
    0x100002f0c:            82 10 00 0f  mov       %o7, %g1
    0x100002f10:            40 04 6b cc  call      +0x11af30     <0x10011de40>
    0x100002f14:            9e 10 00 01  mov       %g1, %o7
__1cHdvector6Fll_pd_()
    0x100002f18:            9d e3 bf 50  save      %sp, -0xb0, %sp
    0x100002f1c:            ba 26 40 18  sub       %i1, %i0, %i5
    0x100002f20:            b8 07 60 02  add       %i5, 0x2, %i4
    0x100002f24:            40 04 6b bf  call      +0x11aefc     <0x10011de20>
    0x100002f28:            91 2f 30 03  sllx      %i4, 0x3, %o0
    0x100002f2c:            02 c2 00 06  brz,pn    %o0, +0x18    <0x100002f44>
    0x100002f30:            aa 10 00 08  mov       %o0, %l5
    0x100002f34:            b7 2e 30 03  sllx      %i0, 0x3, %i3
    0x100002f38:            b4 25 40 1b  sub       %l5, %i3, %i2
    0x100002f3c:            81 c7 e0 08  ret
    0x100002f40:            91 ee a0 08  restore   %i2, 0x8, %o0
    0x100002f44:            33 00 04 00  sethi     %hi(0x100000), %i1
    0x100002f48:            ae 16 60 08  or        %i1, 0x8, %l7
    0x100002f4c:            ad 2d f0 0c  sllx      %l7, 0xc, %l6
    0x100002f50:            7f ff fc f8  call      -0xc20        <0x100002330>
    0x100002f54:            90 05 a7 ee  add       %l6, 0x7ee, %o0
    0x100002f58:            10 bf ff f8  ba        -0x20         <0x100002f38>
    0x100002f5c:            b7 2e 30 03  sllx      %i0, 0x3, %i3
__1cMfree_dvector6Fpdll_v_()
    0x100002f60:            9b 2a 70 03  sllx      %o1, 0x3, %o5
    0x100002f64:            98 02 3f f8  add       %o0, -0x8, %o4
    0x100002f68:            90 03 00 0d  add       %o4, %o5, %o0
    0x100002f6c:            82 10 00 0f  mov       %o7, %g1
    0x100002f70:            40 04 6b b4  call      +0x11aed0     <0x10011de40>
    0x100002f74:            9e 10 00 01  mov       %g1, %o7
__1cHdmatrix6Fllll_ppd_()
    0x100002f78:            9d e3 bf 50  save      %sp, -0xb0, %sp
    0x100002f7c:            9e 26 40 18  sub       %i1, %i0, %o7
    0x100002f80:            a2 03 e0 02  add       %o7, 0x2, %l1
    0x100002f84:            a6 03 e0 01  add       %o7, 0x1, %l3
    0x100002f88:            ac 10 00 18  mov       %i0, %l6
    0x100002f8c:            b0 26 c0 1a  sub       %i3, %i2, %i0
    0x100002f90:            b8 10 00 19  mov       %i1, %i4
    0x100002f94:            ae 06 20 01  add       %i0, 0x1, %l7
    0x100002f98:            40 04 6b a2  call      +0x11ae88     <0x10011de20>
    0x100002f9c:            91 2c 70 03  sllx      %l1, 0x3, %o0
    0x100002fa0:            a8 10 00 08  mov       %o0, %l4
    0x100002fa4:            02 c2 00 39  brz,pn    %o0, +0xe4    <0x100003088>
    0x100002fa8:            bb 2d b0 03  sllx      %l6, 0x3, %i5
    0x100002fac:            88 4c c0 17  mulx      %l3, %l7, %g4
    0x100002fb0:            86 01 20 01  add       %g4, 0x1, %g3
    0x100002fb4:            91 28 f0 03  sllx      %g3, 0x3, %o0
    0x100002fb8:            84 05 20 08  add       %l4, 0x8, %g2
    0x100002fbc:            40 04 6b 99  call      +0x11ae64     <0x10011de20>
    0x100002fc0:            b0 20 80 1d  sub       %g2, %i5, %i0
    0x100002fc4:            b2 10 00 08  mov       %o0, %i1
    0x100002fc8:            02 c2 00 37  brz,pn    %o0, +0xdc    <0x1000030a4>
    0x100002fcc:            b6 05 a0 01  add       %l6, 0x1, %i3
    0x100002fd0:            99 2e b0 03  sllx      %i2, 0x3, %o4
    0x100002fd4:            9a 06 60 08  add       %i1, 0x8, %o5
    0x100002fd8:            80 a6 c0 1c  cmp       %i3, %i4
    0x100002fdc:            96 23 40 0c  sub       %o5, %o4, %o3
    0x100002fe0:            14 60 00 28  bg,pn     %xcc, +0xa0   <0x100003080>
    0x100002fe4:            d6 77 40 18  stx       %o3, [%i5 + %i0]
    0x100002fe8:            a1 2e f0 03  sllx      %i3, 0x3, %l0
    0x100002fec:            ac 27 00 1b  sub       %i4, %i3, %l6
    0x100002ff0:            94 06 00 10  add       %i0, %l0, %o2
    0x100002ff4:            aa 05 a0 01  add       %l6, 0x1, %l5
    0x100002ff8:            80 a5 60 05  cmp       %l5, 0x5
    0x100002ffc:            bb 2d f0 03  sllx      %l7, 0x3, %i5
    0x100003000:            f4 5a bf f8  ldx       [%o2 - 0x8], %i2
    0x100003004:            06 60 00 18  bl,pn     %xcc, +0x60   <0x100003064>
    0x100003008:            01 00 00 00  nop
    0x10000300c:            b6 06 e0 01  add       %i3, 0x1, %i3
    0x100003010:            ae 10 00 0a  mov       %o2, %l7
    0x100003014:            b4 06 80 1d  add       %i2, %i5, %i2
    0x100003018:            b2 27 20 03  sub       %i4, 0x3, %i1
    0x10000301c:            ed 6d e1 10  prefetch  [%l7 + 0x110], #n_writes_strong
    0x100003020:            f4 75 e0 00  stx       %i2, [%l7]
    0x100003024:            a8 06 80 1d  add       %i2, %i5, %l4
    0x100003028:            b6 06 e0 04  add       %i3, 0x4, %i3
    0x10000302c:            e8 75 e0 08  stx       %l4, [%l7 + 0x8]
    0x100003030:            a6 05 00 1d  add       %l4, %i5, %l3
    0x100003034:            80 a6 c0 19  cmp       %i3, %i1
    0x100003038:            e6 75 e0 10  stx       %l3, [%l7 + 0x10]
    0x10000303c:            a4 04 c0 1d  add       %l3, %i5, %l2
    0x100003040:            ae 05 e0 20  add       %l7, 0x20, %l7
    0x100003044:            e4 75 ff f8  stx       %l2, [%l7 - 0x8]
    0x100003048:            04 6f ff f5  ble,pt    %xcc, -0x2c   <0x10000301c>
    0x10000304c:            b4 04 80 1d  add       %l2, %i5, %i2
    0x100003050:            80 a6 c0 1c  cmp       %i3, %i4
    0x100003054:            94 05 e0 08  add       %l7, 0x8, %o2
    0x100003058:            f4 75 e0 00  stx       %i2, [%l7]
    0x10000305c:            14 60 00 09  bg,pn     %xcc, +0x24   <0x100003080>
    0x100003060:            01 00 00 00  nop
    0x100003064:            b4 06 80 1d  add       %i2, %i5, %i2
    0x100003068:            b6 06 e0 01  add       %i3, 0x1, %i3
    0x10000306c:            80 a6 c0 1c  cmp       %i3, %i4
    0x100003070:            f4 72 a0 00  stx       %i2, [%o2]
    0x100003074:            94 02 a0 08  add       %o2, 0x8, %o2
    0x100003078:            04 6f ff fc  ble,pt    %xcc, -0x10   <0x100003068>
    0x10000307c:            b4 06 80 1d  add       %i2, %i5, %i2
    0x100003080:            81 c7 e0 08  ret
    0x100003084:            81 e8 20 00  restore   %g0, 0x0, %g0
    0x100003088:            03 00 04 00  sethi     %hi(0x100000), %g1
    0x10000308c:            b2 10 60 08  or        %g1, 0x8, %i1
    0x100003090:            ab 2e 70 0c  sllx      %i1, 0xc, %l5
    0x100003094:            7f ff fc a7  call      -0xd64        <0x100002330>
    0x100003098:            90 05 68 0e  add       %l5, 0x80e, %o0
    0x10000309c:            10 bf ff c5  ba        -0xec         <0x100002fb0>
    0x1000030a0:            88 4c c0 17  mulx      %l3, %l7, %g4
    0x1000030a4:            13 00 04 00  sethi     %hi(0x100000), %o1
    0x1000030a8:            90 12 60 08  or        %o1, 0x8, %o0
    0x1000030ac:            8b 2a 30 0c  sllx      %o0, 0xc, %g5
    0x1000030b0:            f2 77 40 18  stx       %i1, [%i5 + %i0]
    0x1000030b4:            7f ff fc 9f  call      -0xd84        <0x100002330>
    0x1000030b8:            90 01 68 30  add       %g5, 0x830, %o0
    0x1000030bc:            f2 5f 40 18  ldx       [%i5 + %i0], %i1
    0x1000030c0:            10 bf ff c5  ba        -0xec         <0x100002fd4>
    0x1000030c4:            99 2e b0 03  sllx      %i2, 0x3, %o4
__1cMfree_dmatrix6Fppdllll_v_()
    0x1000030c8:            9d e3 bf 50  save      %sp, -0xb0, %sp
    0x1000030cc:            bb 2e 70 03  sllx      %i1, 0x3, %i5
    0x1000030d0:            f8 5e 00 1d  ldx       [%i0 + %i5], %i4
    0x1000030d4:            b5 2e f0 03  sllx      %i3, 0x3, %i2
    0x1000030d8:            b2 06 00 1d  add       %i0, %i5, %i1
    0x1000030dc:            ae 07 3f f8  add       %i4, -0x8, %l7
    0x1000030e0:            40 04 6b 58  call      +0x11ad60     <0x10011de40>
    0x1000030e4:            90 05 c0 1a  add       %l7, %i2, %o0
    0x1000030e8:            b0 06 7f f8  add       %i1, -0x8, %i0
    0x1000030ec:            40 04 6b 55  call      +0x11ad54     <0x10011de40>
    0x1000030f0:            81 e8 20 00  restore   %g0, 0x0, %g0
    0x1000030f4:            00 00 00 00  illtrap   0x0
    0x1000030f8:            3f 98 d4 fd  fbo,a     +0x6353f4     <0x1006384ec>
    0x1000030fc:            f3 b6 45 a2  stqa      %f25, [%i1 + %g2] 0x2d
    0x100003100:            3f f0 00 00  0x3ff00000
    0x100003104:            00 00 00 00  illtrap   0x0
    0x100003108:            3f 7f e2 d8  fbo,a,pt  %fcc3, -0x74a0 <0xffffbc68>
    0x10000310c:            57 ac 9f d4  call      +0x5eb27f50   <0x15eb2b05c>
    0x100003110:            3f d4 a3 4d  0x3fd4a34d
    0x100003114:            2b 59 03 64  fbug,a,pt %fcc1, +0x40d90 <0x100043ea4>
    0x100003118:            40 03 8f a2  call      +0xe3e88      <0x1000e6fa0>
    0x10000311c:            7c 8a e6 16  call      -0xdd467a8    <0xf22bc974>
    0x100003120:            40 0e 09 07  call      +0x38241c     <0x10038553c>
    0x100003124:            68 95 b1 19  call      -0x5da93b9c   <0xa256f588>
    0x100003128:            bf 7f e3 0d  0xbf7fe30d
    0x10000312c:            92 4a cf e0  mulx      %o3, %g0, %o1
    0x100003130:            bf d4 a2 24  0xbfd4a224
    0x100003134:            c0 e8 81 b8  ldstuba   [%g2 + %i0] 0x0d, %g0
    0x100003138:            c0 03 34 c0  ld        [%o4 - 0xb40], %g0
    0x10000313c:            c1 70 17 58  0xc1701758
    0x100003140:            c0 04 65 da  ld        [%l1 + 0x5da], %g0
    0x100003144:            2c 70 3a 1a  0x2c703a1a
    0x100003148:            40 11 7f a7  call      +0x45fe9c     <0x100462fe4>
    0x10000314c:            f4 ea 4d c7  ldstuba   [%o1 + %g7] 0x6e, %i2
    0x100003150:            40 07 81 5c  call      +0x1e0570     <0x1001e36c0>
    0x100003154:            1e 3f cf a2  illtrap   0x3fcfa2
    0x100003158:            bf e0 00 00  save      %g0, %g0, %i7
    0x10000315c:            00 00 00 00  illtrap   0x0
    0x100003160:            c0 43 d9 31  ldsw      [%o7 + %l1], %g0
    0x100003164:            bc 1e 05 25  xor       %i0, %g5, %fp
    0x100003168:            40 6b 9e 46  call      +0x1ae7918    <0x101aeaa80>
    0x10000316c:            70 34 03 9b  call      -0x3f2ff194   <0xc0d03fd8>
    0x100003170:            c0 71 3e db  clrx      [%g4 - 0x125]
    0x100003174:            2d c5 3b 99  0x2dc53b99
    0x100003178:            40 61 4b 72  call      +0x1852dc8    <0x101855f40>
    0x10000317c:            b4 0b 40 1b  and       %o5, %i3, %i2
    0x100003180:            c0 3e aa 30  std       %g0, [%i2 + 0xa30]
    0x100003184:            34 c0 8b cd  0x34c08bcd
    0x100003188:            40 04 0d 93  call      +0x10364c     <0x1001067d4>
    0x10000318c:            20 57 54 79  0x20575479
    0x100003190:            c0 4b 3c f0  ldsb      [%o4 - 0x310], %g0
    0x100003194:            ce 30 04 c4  sth       %g7, [%g4]
    0x100003198:            40 64 32 bf  call      +0x190cafc    <0x10190fc94>
    0x10000319c:            2c f0 42 77  brgz,a,pn %g1, -0xf624  <0xffff3b78>
    0x1000031a0:            c0 63 76 5e  0xc063765e
    0x1000031a4:            0b 02 d8 d2  sethi     %hi(0xb634800), %g5
    0x1000031a8:            40 50 b3 48  call      +0x142cd20    <0x10142fec8>
    0x1000031ac:            b1 a7 e9 be  0xb1a7e9be
    0x1000031b0:            c0 2a 8f b5  clrb      [%o2 + %l5]
    0x1000031b4:            7e 14 78 26  call      -0x7ae1f68    <0xf852124c>
    0x1000031b8:            c0 07 81 5c  ld        [%fp + %i4], %g0
    0x1000031bc:            1e 3f cf a2  illtrap   0x3fcfa2
    0x1000031c0:            3f ef 39 58  0x3fef3958
    0x1000031c4:            10 62 4d d3  ba,pn     %xcc, +0x9374c <0x100096910>
    0x1000031c8:            00 00 00 00  illtrap   0x0
    0x1000031cc:            00 00 00 00  illtrap   0x0
    0x1000031d0:            00 00 00 00  illtrap   0x0
    0x1000031d4:            00 00 00 00  illtrap   0x0
    0x1000031d8:            00 00 00 00  illtrap   0x0
    0x1000031dc:            00 00 00 00  illtrap   0x0
__1cNicdf_baseline6Fkipd1_v_()
    0x1000031e0:            9d e3 bf 40  save      %sp, -0xc0, %sp
    0x1000031e4:            b0 90 00 18  orcc      %g0, %i0, %i0
    0x1000031e8:            04 40 01 1c  ble,pn    %icc, +0x470  <0x100003658>
    0x1000031ec:            3b 00 04 00  sethi     %hi(0x100000), %i5
    0x1000031f0:            a4 06 3f ff  add       %i0, -0x1, %l2
    0x1000031f4:            a6 17 60 03  or        %i5, 0x3, %l3
    0x1000031f8:            80 a4 a0 03  cmp       %l2, 0x3
    0x1000031fc:            a1 2c f0 0c  sllx      %l3, 0xc, %l0
    0x100003200:            06 40 00 91  bl,pn     %icc, +0x244  <0x100003444>
    0x100003204:            a2 04 21 50  add       %l0, 0x150, %l1
    0x100003208:            b9 3e 20 00  sra       %i0, 0x0, %i4
    0x10000320c:            b0 26 80 19  sub       %i2, %i1, %i0
    0x100003210:            b7 3e 30 3f  srax      %i0, 0x3f, %i3
    0x100003214:            ae 1e 00 1b  xor       %i0, %i3, %l7
    0x100003218:            ad 2f 30 03  sllx      %i4, 0x3, %l6
    0x10000321c:            aa 25 c0 1b  sub       %l7, %i3, %l5
    0x100003220:            80 a5 40 16  cmp       %l5, %l6
    0x100003224:            06 60 00 88  bl,pn     %xcc, +0x220  <0x100003444>
    0x100003228:            b8 10 20 00  clr       %i4
    0x10000322c:            d1 1c 60 70  ldd       [%l1 + 0x70], %d8
    0x100003230:            fd 1c 7f a8  ldd       [%l1 - 0x58], %d30
    0x100003234:            ff 1e 60 00  ldd       [%i1], %d62
    0x100003238:            81 af ca de  fcmped    %fcc0, %d62, %d30
    0x10000323c:            19 40 00 29  fbuge,pn  %fcc0, +0xa4   <0x1000032e0>
    0x100003240:            81 a0 00 5f  fmovd     %d62, %d0
    0x100003244:            40 00 13 c7  call      +0x4f1c       <0x100008160>
    0x100003248:            d1 3b a8 af  std       %d8, [%sp + 0x8af]
    0x10000324c:            ff 1c 7f b8  ldd       [%l1 - 0x48], %d62
    0x100003250:            f5 1c 7f c0  ldd       [%l1 - 0x40], %d26
    0x100003254:            f9 1c 7f d8  ldd       [%l1 - 0x28], %d28
    0x100003258:            91 a0 08 40  faddd     %d0, %d0, %d8
    0x10000325c:            ed 1c 7f c8  ldd       [%l1 - 0x38], %d22
    0x100003260:            f1 1c 7f e0  ldd       [%l1 - 0x20], %d24
    0x100003264:            e5 1c 7f d0  ldd       [%l1 - 0x30], %d18
    0x100003268:            e9 1c 7f e8  ldd       [%l1 - 0x18], %d20
    0x10000326c:            d9 1c 7f b0  ldd       [%l1 - 0x50], %d12
    0x100003270:            85 a0 00 c8  fnegd     %d8, %d2
    0x100003274:            e1 1c 7f f0  ldd       [%l1 - 0x10], %d16
    0x100003278:            dd 1c 7f f8  ldd       [%l1 - 0x8], %d14
    0x10000327c:            cd 1c 21 50  ldd       [%l0 + 0x150], %d6
    0x100003280:            d1 1b a8 af  ldd       [%sp + 0x8af], %d8
    0x100003284:            95 a0 05 42  fsqrtd    %d2, %d10
    0x100003288:            89 a2 89 5f  fmuld     %d10, %d62, %d4
    0x10000328c:            bd a2 89 5c  fmuld     %d10, %d28, %d30
    0x100003290:            85 a1 08 5a  faddd     %d4, %d26, %d2
    0x100003294:            b9 a7 88 58  faddd     %d30, %d24, %d28
    0x100003298:            bf a0 89 4a  fmuld     %d2, %d10, %d62
    0x10000329c:            b5 a7 09 4a  fmuld     %d28, %d10, %d26
    0x1000032a0:            89 a7 c8 56  faddd     %d62, %d22, %d4
    0x1000032a4:            b1 a6 88 54  faddd     %d26, %d20, %d24
    0x1000032a8:            85 a1 09 4a  fmuld     %d4, %d10, %d2
    0x1000032ac:            bd a6 09 4a  fmuld     %d24, %d10, %d30
    0x1000032b0:            b9 a0 88 52  faddd     %d2, %d18, %d28
    0x1000032b4:            ad a7 88 50  faddd     %d30, %d16, %d22
    0x1000032b8:            bf a7 09 4a  fmuld     %d28, %d10, %d62
    0x1000032bc:            a9 a5 89 4a  fmuld     %d22, %d10, %d20
    0x1000032c0:            b5 a7 c8 4c  faddd     %d62, %d12, %d26
    0x1000032c4:            89 a5 08 4e  faddd     %d20, %d14, %d4
    0x1000032c8:            85 a3 09 da  fdivd     %d12, %d26, %d2
    0x1000032cc:            b1 a1 09 4a  fmuld     %d4, %d10, %d24
    0x1000032d0:            a5 a6 08 46  faddd     %d24, %d6, %d18
    0x1000032d4:            a1 a0 89 52  fmuld     %d2, %d18, %d16
    0x1000032d8:            10 80 00 53  ba        +0x14c        <0x100003424>
    0x1000032dc:            b8 07 20 01  add       %i4, 0x1, %i4
    0x1000032e0:            83 af ca c8  fcmped    %fcc1, %d62, %d8
    0x1000032e4:            0b 50 00 28  fbug,pn   %fcc1, +0xa0   <0x100003384>
    0x1000032e8:            e1 1c 60 08  ldd       [%l1 + 0x8], %d16
    0x1000032ec:            c5 1c 60 40  ldd       [%l1 + 0x40], %d2
    0x1000032f0:            fd 1c 60 10  ldd       [%l1 + 0x10], %d30
    0x1000032f4:            89 a7 c8 50  faddd     %d62, %d16, %d4
    0x1000032f8:            f9 1c 60 18  ldd       [%l1 + 0x18], %d28
    0x1000032fc:            f5 1c 60 48  ldd       [%l1 + 0x48], %d26
    0x100003300:            f1 1c 60 20  ldd       [%l1 + 0x20], %d24
    0x100003304:            ed 1c 60 50  ldd       [%l1 + 0x50], %d22
    0x100003308:            e9 1c 60 28  ldd       [%l1 + 0x28], %d20
    0x10000330c:            99 a1 09 44  fmuld     %d4, %d4, %d12
    0x100003310:            e5 1c 60 58  ldd       [%l1 + 0x58], %d18
    0x100003314:            e1 1c 60 30  ldd       [%l1 + 0x30], %d16
    0x100003318:            dd 1c 60 60  ldd       [%l1 + 0x60], %d14
    0x10000331c:            d5 1c 60 38  ldd       [%l1 + 0x38], %d10
    0x100003320:            cd 1c 7f b0  ldd       [%l1 - 0x50], %d6
    0x100003324:            bd a3 09 5e  fmuld     %d12, %d30, %d30
    0x100003328:            bf a3 09 42  fmuld     %d12, %d2, %d62
    0x10000332c:            85 a7 88 5c  faddd     %d30, %d28, %d2
    0x100003330:            b9 a7 c8 5a  faddd     %d62, %d26, %d28
    0x100003334:            bd a0 89 4c  fmuld     %d2, %d12, %d30
    0x100003338:            b5 a7 09 4c  fmuld     %d28, %d12, %d26
    0x10000333c:            85 a7 88 58  faddd     %d30, %d24, %d2
    0x100003340:            bf a6 88 56  faddd     %d26, %d22, %d62
    0x100003344:            b9 a0 89 4c  fmuld     %d2, %d12, %d28
    0x100003348:            b1 a7 c9 4c  fmuld     %d62, %d12, %d24
    0x10000334c:            bd a7 08 54  faddd     %d28, %d20, %d30
    0x100003350:            ad a6 08 52  faddd     %d24, %d18, %d22
    0x100003354:            b5 a7 89 4c  fmuld     %d30, %d12, %d26
    0x100003358:            85 a5 89 4c  fmuld     %d22, %d12, %d2
    0x10000335c:            a9 a6 88 50  faddd     %d26, %d16, %d20
    0x100003360:            bf a0 88 4e  faddd     %d2, %d14, %d62
    0x100003364:            b9 a5 09 4c  fmuld     %d20, %d12, %d28
    0x100003368:            a5 a7 c9 4c  fmuld     %d62, %d12, %d18
    0x10000336c:            b1 a7 08 4a  faddd     %d28, %d10, %d24
    0x100003370:            ad a4 88 46  faddd     %d18, %d6, %d22
    0x100003374:            bd a6 09 44  fmuld     %d24, %d4, %d30
    0x100003378:            a1 a7 89 d6  fdivd     %d30, %d22, %d16
    0x10000337c:            10 80 00 2a  ba        +0xa8         <0x100003424>
    0x100003380:            b8 07 20 01  add       %i4, 0x1, %i4
    0x100003384:            ed 1c 7f b0  ldd       [%l1 - 0x50], %d22
    0x100003388:            b8 07 20 01  add       %i4, 0x1, %i4
    0x10000338c:            81 a5 88 df  fsubd     %d22, %d62, %d0
    0x100003390:            40 00 13 74  call      +0x4dd0       <0x100008160>
    0x100003394:            d1 3b a8 af  std       %d8, [%sp + 0x8af]
    0x100003398:            c9 1c 7f b8  ldd       [%l1 - 0x48], %d4
    0x10000339c:            f5 1c 7f c0  ldd       [%l1 - 0x40], %d26
    0x1000033a0:            f9 1c 7f d8  ldd       [%l1 - 0x28], %d28
    0x1000033a4:            91 a0 08 40  faddd     %d0, %d0, %d8
    0x1000033a8:            ed 1c 7f c8  ldd       [%l1 - 0x38], %d22
    0x1000033ac:            f1 1c 7f e0  ldd       [%l1 - 0x20], %d24
    0x1000033b0:            e5 1c 7f d0  ldd       [%l1 - 0x30], %d18
    0x1000033b4:            e9 1c 7f e8  ldd       [%l1 - 0x18], %d20
    0x1000033b8:            d9 1c 7f b0  ldd       [%l1 - 0x50], %d12
    0x1000033bc:            95 a0 00 c8  fnegd     %d8, %d10
    0x1000033c0:            e1 1c 7f f0  ldd       [%l1 - 0x10], %d16
    0x1000033c4:            dd 1c 7f f8  ldd       [%l1 - 0x8], %d14
    0x1000033c8:            cd 1c 60 68  ldd       [%l1 + 0x68], %d6
    0x1000033cc:            d1 1b a8 af  ldd       [%sp + 0x8af], %d8
    0x1000033d0:            95 a0 05 4a  fsqrtd    %d10, %d10
    0x1000033d4:            85 a2 89 44  fmuld     %d10, %d4, %d2
    0x1000033d8:            bd a2 89 5c  fmuld     %d10, %d28, %d30
    0x1000033dc:            bf a0 88 5a  faddd     %d2, %d26, %d62
    0x1000033e0:            89 a7 88 58  faddd     %d30, %d24, %d4
    0x1000033e4:            b9 a7 c9 4a  fmuld     %d62, %d10, %d28
    0x1000033e8:            b5 a1 09 4a  fmuld     %d4, %d10, %d26
    0x1000033ec:            85 a7 08 56  faddd     %d28, %d22, %d2
    0x1000033f0:            b1 a6 88 54  faddd     %d26, %d20, %d24
    0x1000033f4:            bf a0 89 4a  fmuld     %d2, %d10, %d62
    0x1000033f8:            bd a6 09 4a  fmuld     %d24, %d10, %d30
    0x1000033fc:            89 a7 c8 52  faddd     %d62, %d18, %d4
    0x100003400:            ad a7 88 50  faddd     %d30, %d16, %d22
    0x100003404:            b9 a1 09 4a  fmuld     %d4, %d10, %d28
    0x100003408:            a9 a5 89 4a  fmuld     %d22, %d10, %d20
    0x10000340c:            b5 a7 08 4c  faddd     %d28, %d12, %d26
    0x100003410:            85 a5 08 4e  faddd     %d20, %d14, %d2
    0x100003414:            bf a3 09 da  fdivd     %d12, %d26, %d62
    0x100003418:            b1 a0 89 4a  fmuld     %d2, %d10, %d24
    0x10000341c:            a5 a1 88 d8  fsubd     %d6, %d24, %d18
    0x100003420:            a1 a7 c9 52  fmuld     %d62, %d18, %d16
    0x100003424:            e1 3e a0 00  std       %d16, [%i2]
    0x100003428:            80 a7 00 12  cmp       %i4, %l2
    0x10000342c:            b2 06 60 08  add       %i1, 0x8, %i1
    0x100003430:            b4 06 a0 08  add       %i2, 0x8, %i2
    0x100003434:            24 4f ff 80  ble,a,pt  %icc, -0x200  <0x100003234>
    0x100003438:            fd 1c 7f a8  ldd       [%l1 - 0x58], %d30
    0x10000343c:            81 c7 e0 08  ret
    0x100003440:            81 e8 20 00  restore   %g0, 0x0, %g0
    0x100003444:            fd 1c 7f a8  ldd       [%l1 - 0x58], %d30
    0x100003448:            d1 1c 60 70  ldd       [%l1 + 0x70], %d8
    0x10000344c:            a8 10 20 00  clr       %l4
    0x100003450:            ff 1e 60 00  ldd       [%i1], %d62
    0x100003454:            85 af ca de  fcmped    %fcc2, %d62, %d30
    0x100003458:            19 60 00 29  fbuge,pn  %fcc2, +0xa4   <0x1000034fc>
    0x10000345c:            81 a0 00 5f  fmovd     %d62, %d0
    0x100003460:            40 00 13 40  call      +0x4d00       <0x100008160>
    0x100003464:            d1 3b a8 af  std       %d8, [%sp + 0x8af]
    0x100003468:            fd 1c 7f b8  ldd       [%l1 - 0x48], %d30
    0x10000346c:            f5 1c 7f c0  ldd       [%l1 - 0x40], %d26
    0x100003470:            f9 1c 7f d8  ldd       [%l1 - 0x28], %d28
    0x100003474:            91 a0 08 40  faddd     %d0, %d0, %d8
    0x100003478:            ed 1c 7f c8  ldd       [%l1 - 0x38], %d22
    0x10000347c:            f1 1c 7f e0  ldd       [%l1 - 0x20], %d24
    0x100003480:            e5 1c 7f d0  ldd       [%l1 - 0x30], %d18
    0x100003484:            e9 1c 7f e8  ldd       [%l1 - 0x18], %d20
    0x100003488:            d9 1c 7f b0  ldd       [%l1 - 0x50], %d12
    0x10000348c:            bf a0 00 c8  fnegd     %d8, %d62
    0x100003490:            e1 1c 7f f0  ldd       [%l1 - 0x10], %d16
    0x100003494:            dd 1c 7f f8  ldd       [%l1 - 0x8], %d14
    0x100003498:            cd 1c 21 50  ldd       [%l0 + 0x150], %d6
    0x10000349c:            d1 1b a8 af  ldd       [%sp + 0x8af], %d8
    0x1000034a0:            95 a0 05 5f  fsqrtd    %d62, %d10
    0x1000034a4:            89 a2 89 5e  fmuld     %d10, %d30, %d4
    0x1000034a8:            85 a2 89 5c  fmuld     %d10, %d28, %d2
    0x1000034ac:            bf a1 08 5a  faddd     %d4, %d26, %d62
    0x1000034b0:            bd a0 88 58  faddd     %d2, %d24, %d30
    0x1000034b4:            b9 a7 c9 4a  fmuld     %d62, %d10, %d28
    0x1000034b8:            b5 a7 89 4a  fmuld     %d30, %d10, %d26
    0x1000034bc:            89 a7 08 56  faddd     %d28, %d22, %d4
    0x1000034c0:            b1 a6 88 54  faddd     %d26, %d20, %d24
    0x1000034c4:            85 a1 09 4a  fmuld     %d4, %d10, %d2
    0x1000034c8:            bd a6 09 4a  fmuld     %d24, %d10, %d30
    0x1000034cc:            bf a0 88 52  faddd     %d2, %d18, %d62
    0x1000034d0:            ad a7 88 50  faddd     %d30, %d16, %d22
    0x1000034d4:            b9 a7 c9 4a  fmuld     %d62, %d10, %d28
    0x1000034d8:            a9 a5 89 4a  fmuld     %d22, %d10, %d20
    0x1000034dc:            b5 a7 08 4c  faddd     %d28, %d12, %d26
    0x1000034e0:            89 a5 08 4e  faddd     %d20, %d14, %d4
    0x1000034e4:            85 a3 09 da  fdivd     %d12, %d26, %d2
    0x1000034e8:            b1 a1 09 4a  fmuld     %d4, %d10, %d24
    0x1000034ec:            a5 a6 08 46  faddd     %d24, %d6, %d18
    0x1000034f0:            a1 a0 89 52  fmuld     %d2, %d18, %d16
    0x1000034f4:            10 80 00 53  ba        +0x14c        <0x100003640>
    0x1000034f8:            a8 05 20 01  add       %l4, 0x1, %l4
    0x1000034fc:            87 af ca c8  fcmped    %fcc3, %d62, %d8
    0x100003500:            0b 70 00 28  fbug,pn   %fcc3, +0xa0   <0x1000035a0>
    0x100003504:            c5 1c 60 08  ldd       [%l1 + 0x8], %d2
    0x100003508:            fd 1c 60 10  ldd       [%l1 + 0x10], %d30
    0x10000350c:            f9 1c 60 18  ldd       [%l1 + 0x18], %d28
    0x100003510:            89 a7 c8 42  faddd     %d62, %d2, %d4
    0x100003514:            c5 1c 60 40  ldd       [%l1 + 0x40], %d2
    0x100003518:            f5 1c 60 48  ldd       [%l1 + 0x48], %d26
    0x10000351c:            f1 1c 60 20  ldd       [%l1 + 0x20], %d24
    0x100003520:            ed 1c 60 50  ldd       [%l1 + 0x50], %d22
    0x100003524:            e9 1c 60 28  ldd       [%l1 + 0x28], %d20
    0x100003528:            99 a1 09 44  fmuld     %d4, %d4, %d12
    0x10000352c:            e5 1c 60 58  ldd       [%l1 + 0x58], %d18
    0x100003530:            e1 1c 60 30  ldd       [%l1 + 0x30], %d16
    0x100003534:            dd 1c 60 60  ldd       [%l1 + 0x60], %d14
    0x100003538:            d5 1c 60 38  ldd       [%l1 + 0x38], %d10
    0x10000353c:            cd 1c 7f b0  ldd       [%l1 - 0x50], %d6
    0x100003540:            bd a3 09 5e  fmuld     %d12, %d30, %d30
    0x100003544:            bf a3 09 42  fmuld     %d12, %d2, %d62
    0x100003548:            85 a7 88 5c  faddd     %d30, %d28, %d2
    0x10000354c:            b9 a7 c8 5a  faddd     %d62, %d26, %d28
    0x100003550:            bd a0 89 4c  fmuld     %d2, %d12, %d30
    0x100003554:            b5 a7 09 4c  fmuld     %d28, %d12, %d26
    0x100003558:            85 a7 88 58  faddd     %d30, %d24, %d2
    0x10000355c:            bf a6 88 56  faddd     %d26, %d22, %d62
    0x100003560:            b9 a0 89 4c  fmuld     %d2, %d12, %d28
    0x100003564:            b1 a7 c9 4c  fmuld     %d62, %d12, %d24
    0x100003568:            bd a7 08 54  faddd     %d28, %d20, %d30
    0x10000356c:            ad a6 08 52  faddd     %d24, %d18, %d22
    0x100003570:            b5 a7 89 4c  fmuld     %d30, %d12, %d26
    0x100003574:            85 a5 89 4c  fmuld     %d22, %d12, %d2
    0x100003578:            a9 a6 88 50  faddd     %d26, %d16, %d20
    0x10000357c:            bf a0 88 4e  faddd     %d2, %d14, %d62
    0x100003580:            b9 a5 09 4c  fmuld     %d20, %d12, %d28
    0x100003584:            a5 a7 c9 4c  fmuld     %d62, %d12, %d18
    0x100003588:            b1 a7 08 4a  faddd     %d28, %d10, %d24
    0x10000358c:            ad a4 88 46  faddd     %d18, %d6, %d22
    0x100003590:            bd a6 09 44  fmuld     %d24, %d4, %d30
    0x100003594:            a1 a7 89 d6  fdivd     %d30, %d22, %d16
    0x100003598:            10 80 00 2a  ba        +0xa8         <0x100003640>
    0x10000359c:            a8 05 20 01  add       %l4, 0x1, %l4
    0x1000035a0:            e1 1c 7f b0  ldd       [%l1 - 0x50], %d16
    0x1000035a4:            a8 05 20 01  add       %l4, 0x1, %l4
    0x1000035a8:            81 a4 08 df  fsubd     %d16, %d62, %d0
    0x1000035ac:            40 00 12 ed  call      +0x4bb4       <0x100008160>
    0x1000035b0:            d1 3b a8 af  std       %d8, [%sp + 0x8af]
    0x1000035b4:            ff 1c 7f b8  ldd       [%l1 - 0x48], %d62
    0x1000035b8:            f5 1c 7f c0  ldd       [%l1 - 0x40], %d26
    0x1000035bc:            f9 1c 7f d8  ldd       [%l1 - 0x28], %d28
    0x1000035c0:            9d a0 08 40  faddd     %d0, %d0, %d14
    0x1000035c4:            ed 1c 7f c8  ldd       [%l1 - 0x38], %d22
    0x1000035c8:            f1 1c 7f e0  ldd       [%l1 - 0x20], %d24
    0x1000035cc:            e5 1c 7f d0  ldd       [%l1 - 0x30], %d18
    0x1000035d0:            e9 1c 7f e8  ldd       [%l1 - 0x18], %d20
    0x1000035d4:            d9 1c 7f b0  ldd       [%l1 - 0x50], %d12
    0x1000035d8:            85 a0 00 ce  fnegd     %d14, %d2
    0x1000035dc:            e1 1c 7f f0  ldd       [%l1 - 0x10], %d16
    0x1000035e0:            dd 1c 7f f8  ldd       [%l1 - 0x8], %d14
    0x1000035e4:            cd 1c 60 68  ldd       [%l1 + 0x68], %d6
    0x1000035e8:            d1 1b a8 af  ldd       [%sp + 0x8af], %d8
    0x1000035ec:            95 a0 05 42  fsqrtd    %d2, %d10
    0x1000035f0:            89 a2 89 5f  fmuld     %d10, %d62, %d4
    0x1000035f4:            bd a2 89 5c  fmuld     %d10, %d28, %d30
    0x1000035f8:            85 a1 08 5a  faddd     %d4, %d26, %d2
    0x1000035fc:            b9 a7 88 58  faddd     %d30, %d24, %d28
    0x100003600:            bf a0 89 4a  fmuld     %d2, %d10, %d62
    0x100003604:            b5 a7 09 4a  fmuld     %d28, %d10, %d26
    0x100003608:            89 a7 c8 56  faddd     %d62, %d22, %d4
    0x10000360c:            b1 a6 88 54  faddd     %d26, %d20, %d24
    0x100003610:            85 a1 09 4a  fmuld     %d4, %d10, %d2
    0x100003614:            bd a6 09 4a  fmuld     %d24, %d10, %d30
    0x100003618:            b9 a0 88 52  faddd     %d2, %d18, %d28
    0x10000361c:            ad a7 88 50  faddd     %d30, %d16, %d22
    0x100003620:            bf a7 09 4a  fmuld     %d28, %d10, %d62
    0x100003624:            a9 a5 89 4a  fmuld     %d22, %d10, %d20
    0x100003628:            b5 a7 c8 4c  faddd     %d62, %d12, %d26
    0x10000362c:            89 a5 08 4e  faddd     %d20, %d14, %d4
    0x100003630:            85 a3 09 da  fdivd     %d12, %d26, %d2
    0x100003634:            b1 a1 09 4a  fmuld     %d4, %d10, %d24
    0x100003638:            a5 a1 88 d8  fsubd     %d6, %d24, %d18
    0x10000363c:            a1 a0 89 52  fmuld     %d2, %d18, %d16
    0x100003640:            e1 3e a0 00  std       %d16, [%i2]
    0x100003644:            80 a5 00 12  cmp       %l4, %l2
    0x100003648:            b2 06 60 08  add       %i1, 0x8, %i1
    0x10000364c:            b4 06 a0 08  add       %i2, 0x8, %i2
    0x100003650:            24 4f ff 80  ble,a,pt  %icc, -0x200  <0x100003450>
    0x100003654:            fd 1c 7f a8  ldd       [%l1 - 0x58], %d30
    0x100003658:            81 c7 e0 08  ret
    0x10000365c:            81 e8 20 00  restore   %g0, 0x0, %g0
__1cHserialB6Fppd1iii_v_()
    0x100003660:            9d e3 bf 50  save      %sp, -0xb0, %sp
    0x100003664:            a0 07 3f ff  add       %i4, -0x1, %l0
    0x100003668:            a2 06 ff ff  add       %i3, -0x1, %l1
    0x10000366c:            a5 3e a0 00  sra       %i2, 0x0, %l2
    0x100003670:            bb 3c 20 00  sra       %l0, 0x0, %i5
    0x100003674:            af 3c 60 00  sra       %l1, 0x0, %l7
    0x100003678:            b9 37 70 3f  srlx      %i5, 0x3f, %i4
    0x10000367c:            a8 20 00 12  neg       %l2, %l4
    0x100003680:            ac 25 e0 01  sub       %l7, 0x1, %l6
    0x100003684:            a6 1f 20 01  xor       %i4, 0x1, %l3
    0x100003688:            9f 35 30 3f  srlx      %l4, 0x3f, %o7
    0x10000368c:            ab 35 b0 3f  srlx      %l6, 0x3f, %l5
    0x100003690:            9a 0b c0 13  and       %o7, %l3, %o5
    0x100003694:            98 1d 60 01  xor       %l5, 0x1, %o4
    0x100003698:            96 0b 60 ff  and       %o5, 0xff, %o3
    0x10000369c:            94 0a c0 0c  and       %o3, %o4, %o2
    0x1000036a0:            80 8a a0 ff  btst      0xff, %o2
    0x1000036a4:            02 40 00 1d  be,pn     %icc, +0x74   <0x100003718>
    0x1000036a8:            ae 06 bf ff  add       %i2, -0x1, %l7
    0x1000036ac:            ab 2c b0 03  sllx      %l2, 0x3, %l5
    0x1000036b0:            ba 10 20 00  clr       %i5
    0x1000036b4:            a8 10 20 00  clr       %l4
    0x1000036b8:            ac 10 00 15  mov       %l5, %l6
    0x1000036bc:            b8 10 20 01  mov       0x1, %i4
    0x1000036c0:            d2 5e 60 00  ldx       [%i1], %o1
    0x1000036c4:            b6 10 00 16  mov       %l6, %i3
    0x1000036c8:            7f ff fa 3c  call      -0x1710       <0x100001fb8>
    0x1000036cc:            c1 1a 40 1b  ldd       [%o1 + %i3], %d0
    0x1000036d0:            d0 5e 20 00  ldx       [%i0], %o0
    0x1000036d4:            b8 07 20 01  add       %i4, 0x1, %i4
    0x1000036d8:            80 a7 00 11  cmp       %i4, %l1
    0x1000036dc:            c1 3a 00 1b  std       %d0, [%o0 + %i3]
    0x1000036e0:            b6 06 c0 15  add       %i3, %l5, %i3
    0x1000036e4:            24 4f ff f9  ble,a,pt  %icc, -0x1c   <0x1000036c8>
    0x1000036e8:            d2 5e 60 00  ldx       [%i1], %o1
    0x1000036ec:            a8 05 20 01  add       %l4, 0x1, %l4
    0x1000036f0:            80 a5 00 17  cmp       %l4, %l7
    0x1000036f4:            ac 05 a0 08  add       %l6, 0x8, %l6
    0x1000036f8:            04 4f ff f2  ble,pt    %icc, -0x38   <0x1000036c0>
    0x1000036fc:            b8 10 20 01  mov       0x1, %i4
    0x100003700:            ba 07 60 01  add       %i5, 0x1, %i5
    0x100003704:            80 a7 40 10  cmp       %i5, %l0
    0x100003708:            b2 06 60 08  add       %i1, 0x8, %i1
    0x10000370c:            b0 06 20 08  add       %i0, 0x8, %i0
    0x100003710:            04 4f ff ea  ble,pt    %icc, -0x58   <0x1000036b8>
    0x100003714:            a8 10 20 00  clr       %l4
    0x100003718:            81 c7 e0 08  ret
    0x10000371c:            81 e8 20 00  restore   %g0, 0x0, %g0
    0x100003720:            00 00 00 00  illtrap   0x0
    0x100003724:            00 00 00 00  illtrap   0x0
__1cbCHJM_SimPath_Forward_Blocking6Fppdiid001pli_i_()
    0x100003728:            9d e3 bf 00  save      %sp, -0x100, %sp
    0x10000372c:            b7 3e a0 00  sra       %i2, 0x0, %i3
    0x100003730:            b6 06 ff ff  add       %i3, -0x1, %i3
    0x100003734:            94 10 20 00  clr       %o2
    0x100003738:            90 10 20 00  clr       %o0
    0x10000373c:            92 10 00 1b  mov       %i3, %o1
    0x100003740:            e4 5f a8 bf  ldx       [%fp + 0x8bf], %l2
    0x100003744:            fa 73 a8 bf  stx       %i5, [%sp + 0x8bf]
    0x100003748:            a2 06 7f ff  add       %i1, -0x1, %l1
    0x10000374c:            b5 3c a0 00  sra       %l2, 0x0, %i2
    0x100003750:            ba 4e 40 1a  mulx      %i1, %i2, %i5
    0x100003754:            a1 3f 60 00  sra       %i5, 0x0, %l0
    0x100003758:            a8 20 00 1a  neg       %i2, %l4
    0x10000375c:            f0 73 a8 c7  stx       %i0, [%sp + 0x8c7]
    0x100003760:            b0 04 3f ff  add       %l0, -0x1, %i0
    0x100003764:            96 10 00 18  mov       %i0, %o3
    0x100003768:            e6 5f a8 b7  ldx       [%fp + 0x8b7], %l3
    0x10000376c:            cd 3b a8 ef  std       %d6, [%sp + 0x8ef]
    0x100003770:            f4 73 a8 df  stx       %i2, [%sp + 0x8df]
    0x100003774:            f2 23 a8 e7  st        %i1, [%sp + 0x8e7]
    0x100003778:            f0 73 a8 af  stx       %i0, [%sp + 0x8af]
    0x10000377c:            7f ff fd ff  call      -0x804        <0x100002f78>
    0x100003780:            fa 5f a8 af  ldx       [%fp + 0x8af], %i5
    0x100003784:            a0 10 00 08  mov       %o0, %l0
    0x100003788:            94 10 20 00  clr       %o2
    0x10000378c:            92 10 00 1b  mov       %i3, %o1
    0x100003790:            90 10 20 00  clr       %o0
    0x100003794:            7f ff fd f9  call      -0x81c        <0x100002f78>
    0x100003798:            96 10 00 18  mov       %i0, %o3
    0x10000379c:            85 3c 60 00  sra       %l1, 0x0, %g2
    0x1000037a0:            ab 30 b0 3f  srlx      %g2, 0x3f, %l5
    0x1000037a4:            87 35 30 3f  srlx      %l4, 0x3f, %g3
    0x1000037a8:            ac 1d 60 01  xor       %l5, 0x1, %l6
    0x1000037ac:            ae 0d 80 03  and       %l6, %g3, %l7
    0x1000037b0:            80 8d e0 ff  btst      0xff, %l7
    0x1000037b4:            d0 73 a8 b7  stx       %o0, [%sp + 0x8b7]
    0x1000037b8:            cd 1b a8 ef  ldd       [%sp + 0x8ef], %d6
    0x1000037bc:            02 40 00 25  be,pn     %icc, +0x94   <0x100003850>
    0x1000037c0:            b4 04 bf ff  add       %l2, -0x1, %i2
    0x1000037c4:            88 10 20 00  clr       %g4
    0x1000037c8:            8a 10 20 00  clr       %g5
    0x1000037cc:            da 5b a8 c7  ldx       [%sp + 0x8c7], %o5
    0x1000037d0:            de 5b a8 df  ldx       [%sp + 0x8df], %o7
    0x1000037d4:            92 03 60 08  add       %o5, 0x8, %o1
    0x1000037d8:            95 2b f0 03  sllx      %o7, 0x3, %o2
    0x1000037dc:            9a 10 20 00  clr       %o5
    0x1000037e0:            98 10 00 1c  mov       %i4, %o4
    0x1000037e4:            e5 1f 20 00  ldd       [%i4], %d18
    0x1000037e8:            b2 10 00 05  mov       %g5, %i1
    0x1000037ec:            d0 5b a8 c7  ldx       [%sp + 0x8c7], %o0
    0x1000037f0:            80 a4 60 01  cmp       %l1, 0x1
    0x1000037f4:            c2 5a 20 00  ldx       [%o0], %g1
    0x1000037f8:            06 40 00 0b  bl,pn     %icc, +0x2c   <0x100003824>
    0x1000037fc:            e5 38 40 19  std       %d18, [%g1 + %i1]
    0x100003800:            ae 10 20 01  mov       0x1, %l7
    0x100003804:            aa 10 00 09  mov       %o1, %l5
    0x100003808:            01 00 00 00  nop
    0x10000380c:            ae 05 e0 01  add       %l7, 0x1, %l7
    0x100003810:            d0 5d 60 00  ldx       [%l5], %o0
    0x100003814:            aa 05 60 08  add       %l5, 0x8, %l5
    0x100003818:            80 a5 c0 11  cmp       %l7, %l1
    0x10000381c:            04 4f ff fc  ble,pt    %icc, -0x10   <0x10000380c>
    0x100003820:            c0 72 00 19  clrx      [%o0 + %i1]
    0x100003824:            9a 03 60 01  add       %o5, 0x1, %o5
    0x100003828:            80 a3 40 11  cmp       %o5, %l1
    0x10000382c:            98 03 20 08  add       %o4, 0x8, %o4
    0x100003830:            b2 06 40 0a  add       %i1, %o2, %i1
    0x100003834:            24 4f ff ee  ble,a,pt  %icc, -0x48   <0x1000037ec>
    0x100003838:            e5 1b 20 00  ldd       [%o4], %d18
    0x10000383c:            88 01 20 01  add       %g4, 0x1, %g4
    0x100003840:            80 a1 00 1a  cmp       %g4, %i2
    0x100003844:            8a 01 60 08  add       %g5, 0x8, %g5
    0x100003848:            04 4f ff e6  ble,pt    %icc, -0x68   <0x1000037e0>
    0x10000384c:            9a 10 20 00  clr       %o5
    0x100003850:            88 20 a0 01  sub       %g2, 0x1, %g4
    0x100003854:            8b 31 30 3f  srlx      %g4, 0x3f, %g5
    0x100003858:            92 19 60 01  xor       %g5, 0x1, %o1
    0x10000385c:            86 08 c0 09  and       %g3, %o1, %g3
    0x100003860:            95 3e e0 00  sra       %i3, 0x0, %o2
    0x100003864:            96 08 e0 ff  and       %g3, 0xff, %o3
    0x100003868:            99 32 b0 3f  srlx      %o2, 0x3f, %o4
    0x10000386c:            9a 1b 20 01  xor       %o4, 0x1, %o5
    0x100003870:            d6 23 a8 eb  st        %o3, [%sp + 0x8eb]
    0x100003874:            96 0a c0 0d  and       %o3, %o5, %o3
    0x100003878:            80 8a e0 ff  btst      0xff, %o3
    0x10000387c:            02 40 00 1e  be,pn     %icc, +0x78   <0x1000038f4>
    0x100003880:            e8 5b a8 df  ldx       [%sp + 0x8df], %l4
    0x100003884:            b8 10 20 00  clr       %i4
    0x100003888:            ad 2d 30 03  sllx      %l4, 0x3, %l6
    0x10000388c:            aa 10 00 16  mov       %l6, %l5
    0x100003890:            a8 10 20 01  mov       0x1, %l4
    0x100003894:            ae 10 00 15  mov       %l5, %l7
    0x100003898:            b2 10 20 00  clr       %i1
    0x10000389c:            f0 5b a8 b7  ldx       [%sp + 0x8b7], %i0
    0x1000038a0:            cd 3b a8 ef  std       %d6, [%sp + 0x8ef]
    0x1000038a4:            b2 06 60 01  add       %i1, 0x1, %i1
    0x1000038a8:            7f ff fa 62  call      -0x1678       <0x100002230>
    0x1000038ac:            90 10 00 13  mov       %l3, %o0
    0x1000038b0:            de 5e 20 00  ldx       [%i0], %o7
    0x1000038b4:            cd 1b a8 ef  ldd       [%sp + 0x8ef], %d6
    0x1000038b8:            80 a6 40 1b  cmp       %i1, %i3
    0x1000038bc:            c1 3b c0 17  std       %d0, [%o7 + %l7]
    0x1000038c0:            b0 06 20 08  add       %i0, 0x8, %i0
    0x1000038c4:            24 4f ff f8  ble,a,pt  %icc, -0x20   <0x1000038a4>
    0x1000038c8:            cd 3b a8 ef  std       %d6, [%sp + 0x8ef]
    0x1000038cc:            a8 05 20 01  add       %l4, 0x1, %l4
    0x1000038d0:            80 a5 00 11  cmp       %l4, %l1
    0x1000038d4:            ae 05 c0 16  add       %l7, %l6, %l7
    0x1000038d8:            04 4f ff f1  ble,pt    %icc, -0x3c   <0x10000389c>
    0x1000038dc:            b2 10 20 00  clr       %i1
    0x1000038e0:            b8 07 20 01  add       %i4, 0x1, %i4
    0x1000038e4:            80 a7 00 1a  cmp       %i4, %i2
    0x1000038e8:            aa 05 60 08  add       %l5, 0x8, %l5
    0x1000038ec:            04 4f ff ea  ble,pt    %icc, -0x58   <0x100003894>
    0x1000038f0:            a8 10 20 01  mov       0x1, %l4
    0x1000038f4:            80 a6 e0 00  cmp       %i3, 0x0
    0x1000038f8:            06 40 00 25  bl,pn     %icc, +0x94   <0x10000398c>
    0x1000038fc:            aa 10 20 00  clr       %l5
    0x100003900:            d8 5b a8 df  ldx       [%sp + 0x8df], %o4
    0x100003904:            a6 10 00 10  mov       %l0, %l3
    0x100003908:            80 a4 a0 00  cmp       %l2, 0x0
    0x10000390c:            ec 5b a8 b7  ldx       [%sp + 0x8b7], %l6
    0x100003910:            af 2b 30 03  sllx      %o4, 0x3, %l7
    0x100003914:            04 40 00 18  ble,pn    %icc, +0x60   <0x100003974>
    0x100003918:            b8 10 20 00  clr       %i4
    0x10000391c:            a8 10 00 17  mov       %l7, %l4
    0x100003920:            80 a4 60 01  cmp       %l1, 0x1
    0x100003924:            06 40 00 0f  bl,pn     %icc, +0x3c   <0x100003960>
    0x100003928:            b2 10 20 01  mov       0x1, %i1
    0x10000392c:            cd 3b a8 ef  std       %d6, [%sp + 0x8ef]
    0x100003930:            b0 10 00 14  mov       %l4, %i0
    0x100003934:            c2 5d a0 00  ldx       [%l6], %g1
    0x100003938:            7f ff f9 a0  call      -0x1980       <0x100001fb8>
    0x10000393c:            c1 18 40 18  ldd       [%g1 + %i0], %d0
    0x100003940:            c4 5c e0 00  ldx       [%l3], %g2
    0x100003944:            cd 1b a8 ef  ldd       [%sp + 0x8ef], %d6
    0x100003948:            b2 06 60 01  add       %i1, 0x1, %i1
    0x10000394c:            c1 38 80 18  std       %d0, [%g2 + %i0]
    0x100003950:            80 a6 40 11  cmp       %i1, %l1
    0x100003954:            b0 06 00 17  add       %i0, %l7, %i0
    0x100003958:            24 4f ff f7  ble,a,pt  %icc, -0x24   <0x100003934>
    0x10000395c:            cd 3b a8 ef  std       %d6, [%sp + 0x8ef]
    0x100003960:            b8 07 20 01  add       %i4, 0x1, %i4
    0x100003964:            80 a7 00 1a  cmp       %i4, %i2
    0x100003968:            a8 05 20 08  add       %l4, 0x8, %l4
    0x10000396c:            04 4f ff ee  ble,pt    %icc, -0x48   <0x100003924>
    0x100003970:            80 a4 60 01  cmp       %l1, 0x1
    0x100003974:            aa 05 60 01  add       %l5, 0x1, %l5
    0x100003978:            80 a5 40 1b  cmp       %l5, %i3
    0x10000397c:            ac 05 a0 08  add       %l6, 0x8, %l6
    0x100003980:            a6 04 e0 08  add       %l3, 0x8, %l3
    0x100003984:            04 4f ff e4  ble,pt    %icc, -0x70   <0x100003914>
    0x100003988:            80 a4 a0 00  cmp       %l2, 0x0
    0x10000398c:            d4 03 a8 eb  ld        [%sp + 0x8eb], %o2
    0x100003990:            80 90 00 0a  tst       %o2
    0x100003994:            02 40 00 95  be,pn     %icc, +0x254  <0x100003be8>
    0x100003998:            f0 03 a8 e7  ld        [%sp + 0x8e7], %i0
    0x10000399c:            c1 03 a8 e7  ld        [%sp + 0x8e7], %f0
    0x1000039a0:            f8 5b a8 df  ldx       [%sp + 0x8df], %i4
    0x1000039a4:            c0 23 a8 d3  clr       [%sp + 0x8d3]
    0x1000039a8:            c0 73 a8 d7  clrx      [%sp + 0x8d7]
    0x1000039ac:            85 2f 30 03  sllx      %i4, 0x3, %g2
    0x1000039b0:            ae 06 3f fe  add       %i0, -0x2, %l7
    0x1000039b4:            ee 23 a8 cf  st        %l7, [%sp + 0x8cf]
    0x1000039b8:            88 10 00 02  mov       %g2, %g4
    0x1000039bc:            96 10 20 01  mov       0x1, %o3
    0x1000039c0:            a1 a0 19 00  fitod     %f0, %d16
    0x1000039c4:            a1 a1 89 d0  fdivd     %d6, %d16, %d16
    0x1000039c8:            a5 a0 05 50  fsqrtd    %d16, %d18
    0x1000039cc:            da 03 a8 cf  ld        [%sp + 0x8cf], %o5
    0x1000039d0:            ac 10 00 04  mov       %g4, %l6
    0x1000039d4:            d8 5b a8 c7  ldx       [%sp + 0x8c7], %o4
    0x1000039d8:            80 a3 60 00  cmp       %o5, 0x0
    0x1000039dc:            06 40 00 72  bl,pn     %icc, +0x1c8  <0x100003ba4>
    0x1000039e0:            94 10 20 00  clr       %o2
    0x1000039e4:            d2 5b a8 bf  ldx       [%sp + 0x8bf], %o1
    0x1000039e8:            a8 10 20 00  clr       %l4
    0x1000039ec:            86 10 00 04  mov       %g4, %g3
    0x1000039f0:            ca 5b a8 d7  ldx       [%sp + 0x8d7], %g5
    0x1000039f4:            80 a6 e0 00  cmp       %i3, 0x0
    0x1000039f8:            39 00 04 00  sethi     %hi(0x100000), %i4
    0x1000039fc:            aa 17 20 03  or        %i4, 0x3, %l5
    0x100003a00:            af 2d 70 0c  sllx      %l5, 0xc, %l7
    0x100003a04:            fb 1d e7 20  ldd       [%l7 + 0x720], %d60
    0x100003a08:            06 40 00 56  bl,pn     %icc, +0x158  <0x100003b60>
    0x100003a0c:            aa 10 20 00  clr       %l5
    0x100003a10:            b8 06 e0 01  add       %i3, 0x1, %i4
    0x100003a14:            80 a7 20 09  cmp       %i4, 0x9
    0x100003a18:            ae 10 00 1d  mov       %i5, %l7
    0x100003a1c:            82 10 00 10  mov       %l0, %g1
    0x100003a20:            06 40 00 44  bl,pn     %icc, +0x110  <0x100003b30>
    0x100003a24:            01 00 00 00  nop
    0x100003a28:            de 5f 60 00  ldx       [%i5], %o7
    0x100003a2c:            d0 5c 20 00  ldx       [%l0], %o0
    0x100003a30:            f0 5c 20 08  ldx       [%l0 + 0x8], %i0
    0x100003a34:            dd 1b c0 14  ldd       [%o7 + %l4], %d14
    0x100003a38:            d9 1a 00 16  ldd       [%o0 + %l6], %d12
    0x100003a3c:            de 5f 60 08  ldx       [%i5 + 0x8], %o7
    0x100003a40:            e9 1e 00 16  ldd       [%i0 + %l6], %d20
    0x100003a44:            f2 5c 20 10  ldx       [%l0 + 0x10], %i1
    0x100003a48:            e4 5c 20 18  ldx       [%l0 + 0x18], %l2
    0x100003a4c:            f0 5f 60 18  ldx       [%i5 + 0x18], %i0
    0x100003a50:            f1 1b c0 14  ldd       [%o7 + %l4], %d24
    0x100003a54:            d0 5f 60 10  ldx       [%i5 + 0x10], %o0
    0x100003a58:            c9 1e 40 16  ldd       [%i1 + %l6], %d4
    0x100003a5c:            c5 1c 80 16  ldd       [%l2 + %l6], %d2
    0x100003a60:            f8 5c 20 20  ldx       [%l0 + 0x20], %i4
    0x100003a64:            e6 5c 20 28  ldx       [%l0 + 0x28], %l3
    0x100003a68:            e4 5f 60 20  ldx       [%i5 + 0x20], %l2
    0x100003a6c:            f2 5f 60 28  ldx       [%i5 + 0x28], %i1
    0x100003a70:            82 04 20 30  add       %l0, 0x30, %g1
    0x100003a74:            b9 a3 89 4c  fmuld     %d14, %d12, %d28
    0x100003a78:            d9 1e 00 14  ldd       [%i0 + %l4], %d12
    0x100003a7c:            ae 07 60 30  add       %i5, 0x30, %l7
    0x100003a80:            dd 1a 00 14  ldd       [%o0 + %l4], %d14
    0x100003a84:            aa 10 20 06  mov       0x6, %l5
    0x100003a88:            91 a6 09 54  fmuld     %d24, %d20, %d8
    0x100003a8c:            95 a7 48 5c  faddd     %d60, %d28, %d10
    0x100003a90:            b0 26 e0 02  sub       %i3, 0x2, %i0
    0x100003a94:            aa 05 60 03  add       %l5, 0x3, %l5
    0x100003a98:            82 00 60 18  add       %g1, 0x18, %g1
    0x100003a9c:            de 5d e0 00  ldx       [%l7], %o7
    0x100003aa0:            80 a5 40 18  cmp       %l5, %i0
    0x100003aa4:            ae 05 e0 18  add       %l7, 0x18, %l7
    0x100003aa8:            fd 1c 80 14  ldd       [%l2 + %l4], %d30
    0x100003aac:            d0 58 7f e8  ldx       [%g1 - 0x18], %o0
    0x100003ab0:            bf a2 88 48  faddd     %d10, %d8, %d62
    0x100003ab4:            bb a3 89 44  fmuld     %d14, %d4, %d60
    0x100003ab8:            ed 1f 00 16  ldd       [%i4 + %l6], %d22
    0x100003abc:            e4 5d ff f0  ldx       [%l7 - 0x10], %l2
    0x100003ac0:            dd 1e 40 14  ldd       [%i1 + %l4], %d14
    0x100003ac4:            f8 58 7f f0  ldx       [%g1 - 0x10], %i4
    0x100003ac8:            b5 a7 c8 5d  faddd     %d62, %d60, %d26
    0x100003acc:            85 a3 09 42  fmuld     %d12, %d2, %d2
    0x100003ad0:            c9 1c c0 16  ldd       [%l3 + %l6], %d4
    0x100003ad4:            f2 5d ff f8  ldx       [%l7 - 0x8], %i1
    0x100003ad8:            d9 1b c0 14  ldd       [%o7 + %l4], %d12
    0x100003adc:            e6 58 7f f8  ldx       [%g1 - 0x8], %l3
    0x100003ae0:            95 a6 88 42  faddd     %d26, %d2, %d10
    0x100003ae4:            c5 1a 00 16  ldd       [%o0 + %l6], %d2
    0x100003ae8:            04 4f ff eb  ble,pt    %icc, -0x54   <0x100003a94>
    0x100003aec:            91 a7 89 56  fmuld     %d30, %d22, %d8
    0x100003af0:            a9 a2 88 48  faddd     %d10, %d8, %d20
    0x100003af4:            ad a3 89 44  fmuld     %d14, %d4, %d22
    0x100003af8:            b5 a3 09 42  fmuld     %d12, %d2, %d26
    0x100003afc:            c5 1f 00 16  ldd       [%i4 + %l6], %d2
    0x100003b00:            f1 1c 80 14  ldd       [%l2 + %l4], %d24
    0x100003b04:            f9 1c c0 16  ldd       [%l3 + %l6], %d28
    0x100003b08:            ff 1e 40 14  ldd       [%i1 + %l4], %d62
    0x100003b0c:            bb a5 08 56  faddd     %d20, %d22, %d60
    0x100003b10:            bd a6 09 42  fmuld     %d24, %d2, %d30
    0x100003b14:            95 a7 c9 5c  fmuld     %d62, %d28, %d10
    0x100003b18:            80 a5 40 1b  cmp       %l5, %i3
    0x100003b1c:            89 a7 48 5a  faddd     %d60, %d26, %d4
    0x100003b20:            91 a1 08 5e  faddd     %d4, %d30, %d8
    0x100003b24:            bb a2 08 4a  faddd     %d8, %d10, %d60
    0x100003b28:            14 40 00 0e  bg,pn     %icc, +0x38   <0x100003b60>
    0x100003b2c:            01 00 00 00  nop
    0x100003b30:            f0 58 60 00  ldx       [%g1], %i0
    0x100003b34:            f2 5d e0 00  ldx       [%l7], %i1
    0x100003b38:            f1 1e 00 16  ldd       [%i0 + %l6], %d24
    0x100003b3c:            aa 05 60 01  add       %l5, 0x1, %l5
    0x100003b40:            f9 1e 40 14  ldd       [%i1 + %l4], %d28
    0x100003b44:            80 a5 40 1b  cmp       %l5, %i3
    0x100003b48:            82 00 60 08  add       %g1, 0x8, %g1
    0x100003b4c:            bf a7 09 58  fmuld     %d28, %d24, %d62
    0x100003b50:            ae 05 e0 08  add       %l7, 0x8, %l7
    0x100003b54:            bb a7 48 5f  faddd     %d60, %d62, %d60
    0x100003b58:            24 4f ff f7  ble,a,pt  %icc, -0x24   <0x100003b34>
    0x100003b5c:            f0 58 60 00  ldx       [%g1], %i0
    0x100003b60:            c9 1a 60 00  ldd       [%o1], %d4
    0x100003b64:            95 a7 49 52  fmuld     %d60, %d18, %d10
    0x100003b68:            e4 5b 20 00  ldx       [%o4], %l2
    0x100003b6c:            91 a1 09 50  fmuld     %d4, %d16, %d8
    0x100003b70:            94 02 a0 01  add       %o2, 0x1, %o2
    0x100003b74:            80 a2 80 0d  cmp       %o2, %o5
    0x100003b78:            d9 1c 80 03  ldd       [%l2 + %g3], %d12
    0x100003b7c:            a8 05 20 08  add       %l4, 0x8, %l4
    0x100003b80:            92 02 60 08  add       %o1, 0x8, %o1
    0x100003b84:            9d a2 88 48  faddd     %d10, %d8, %d14
    0x100003b88:            e6 5b 20 08  ldx       [%o4 + 0x8], %l3
    0x100003b8c:            86 00 c0 02  add       %g3, %g2, %g3
    0x100003b90:            a9 a3 88 4c  faddd     %d14, %d12, %d20
    0x100003b94:            e9 3c c0 05  std       %d20, [%l3 + %g5]
    0x100003b98:            8a 01 40 02  add       %g5, %g2, %g5
    0x100003b9c:            04 4f ff 97  ble,pt    %icc, -0x1a4  <0x1000039f8>
    0x100003ba0:            80 a6 e0 00  cmp       %i3, 0x0
    0x100003ba4:            96 02 e0 01  add       %o3, 0x1, %o3
    0x100003ba8:            80 a2 c0 11  cmp       %o3, %l1
    0x100003bac:            9a 03 7f ff  add       %o5, -0x1, %o5
    0x100003bb0:            ac 05 80 02  add       %l6, %g2, %l6
    0x100003bb4:            98 03 20 08  add       %o4, 0x8, %o4
    0x100003bb8:            04 4f ff 89  ble,pt    %icc, -0x1dc  <0x1000039dc>
    0x100003bbc:            80 a3 60 00  cmp       %o5, 0x0
    0x100003bc0:            d2 03 a8 d3  ld        [%sp + 0x8d3], %o1
    0x100003bc4:            88 01 20 08  add       %g4, 0x8, %g4
    0x100003bc8:            c6 5b a8 d7  ldx       [%sp + 0x8d7], %g3
    0x100003bcc:            8a 02 60 01  add       %o1, 0x1, %g5
    0x100003bd0:            ca 23 a8 d3  st        %g5, [%sp + 0x8d3]
    0x100003bd4:            82 00 e0 08  add       %g3, 0x8, %g1
    0x100003bd8:            80 a1 40 1a  cmp       %g5, %i2
    0x100003bdc:            c2 73 a8 d7  stx       %g1, [%sp + 0x8d7]
    0x100003be0:            04 4f ff 7b  ble,pt    %icc, -0x214  <0x1000039cc>
    0x100003be4:            96 10 20 01  mov       0x1, %o3
    0x100003be8:            d8 5b a8 af  ldx       [%sp + 0x8af], %o4
    0x100003bec:            90 10 00 10  mov       %l0, %o0
    0x100003bf0:            94 10 00 1b  mov       %i3, %o2
    0x100003bf4:            96 10 20 00  clr       %o3
    0x100003bf8:            7f ff fd 34  call      -0xb30        <0x1000030c8>
    0x100003bfc:            92 10 20 00  clr       %o1
    0x100003c00:            d8 5b a8 af  ldx       [%sp + 0x8af], %o4
    0x100003c04:            94 10 00 1b  mov       %i3, %o2
    0x100003c08:            96 10 20 00  clr       %o3
    0x100003c0c:            92 10 20 00  clr       %o1
    0x100003c10:            7f ff fd 2e  call      -0xb48        <0x1000030c8>
    0x100003c14:            d0 5b a8 b7  ldx       [%sp + 0x8b7], %o0
    0x100003c18:            81 c7 e0 08  ret
    0x100003c1c:            91 e8 20 01  restore   %g0, 0x1, %o0
    0x100003c20:            00 00 00 00  illtrap   0x0
    0x100003c24:            00 00 00 00  illtrap   0x0
    0x100003c28:            00 00 00 01  illtrap   0x1
    0x100003c2c:            00 00 00 02  illtrap   0x2
    0x100003c30:            3f f0 00 00  0x3ff00000
    0x100003c34:            00 00 00 00  illtrap   0x0
    0x100003c38:            40 00 00 00  call      +0x0          <0x100003c38>
    0x100003c3c:            00 00 00 00  illtrap   0x0
__1cRHJM_SimPath_Yield6Fppdiid01pl_i_()
    0x100003c40:            9d e3 bf 30  save      %sp, -0xd0, %sp
    0x100003c44:            ad 3e 60 00  sra       %i1, 0x0, %l6
    0x100003c48:            b6 05 bf ff  add       %l6, -0x1, %i3
    0x100003c4c:            aa 10 00 1c  mov       %i4, %l5
    0x100003c50:            a1 3e a0 00  sra       %i2, 0x0, %l0
    0x100003c54:            90 10 20 00  clr       %o0
    0x100003c58:            92 10 00 1b  mov       %i3, %o1
    0x100003c5c:            a2 05 bf fe  add       %l6, -0x2, %l1
    0x100003c60:            b8 04 3f ff  add       %l0, -0x1, %i4
    0x100003c64:            b4 10 00 18  mov       %i0, %i2
    0x100003c68:            cd 3b a8 b7  std       %d6, [%sp + 0x8b7]
    0x100003c6c:            7f ff fc ab  call      -0xd54        <0x100002f18>
    0x100003c70:            e6 5f a8 af  ldx       [%fp + 0x8af], %l3
    0x100003c74:            a4 10 00 08  mov       %o0, %l2
    0x100003c78:            94 10 20 00  clr       %o2
    0x100003c7c:            96 10 00 11  mov       %l1, %o3
    0x100003c80:            92 10 00 1c  mov       %i4, %o1
    0x100003c84:            7f ff fc bd  call      -0xd0c        <0x100002f78>
    0x100003c88:            90 10 20 00  clr       %o0
    0x100003c8c:            92 10 00 11  mov       %l1, %o1
    0x100003c90:            d0 73 a8 af  stx       %o0, [%sp + 0x8af]
    0x100003c94:            7f ff fc a1  call      -0xd7c        <0x100002f18>
    0x100003c98:            90 10 20 00  clr       %o0
    0x100003c9c:            e1 1d 60 00  ldd       [%l5], %d16
    0x100003ca0:            e1 3c a0 00  std       %d16, [%l2]
    0x100003ca4:            80 a6 e0 01  cmp       %i3, 0x1
    0x100003ca8:            d1 1b a8 b7  ldd       [%sp + 0x8b7], %d8
    0x100003cac:            06 40 00 d3  bl,pn     %icc, +0x34c  <0x100003ff8>
    0x100003cb0:            a8 10 00 08  mov       %o0, %l4
    0x100003cb4:            80 a6 e0 04  cmp       %i3, 0x4
    0x100003cb8:            06 40 00 10  bl,pn     %icc, +0x40   <0x100003cf8>
    0x100003cbc:            88 04 a0 08  add       %l2, 0x8, %g4
    0x100003cc0:            9f 3e e0 00  sra       %i3, 0x0, %o7
    0x100003cc4:            99 2b f0 03  sllx      %o7, 0x3, %o4
    0x100003cc8:            ae 21 00 15  sub       %g4, %l5, %l7
    0x100003ccc:            82 03 20 08  add       %o4, 0x8, %g1
    0x100003cd0:            92 10 20 00  clr       %o1
    0x100003cd4:            80 a5 c0 01  cmp       %l7, %g1
    0x100003cd8:            93 66 f0 01  movge     %xcc, 0x1, %o1
    0x100003cdc:            94 25 40 04  sub       %l5, %g4, %o2
    0x100003ce0:            84 10 20 00  clr       %g2
    0x100003ce4:            80 a2 80 0c  cmp       %o2, %o4
    0x100003ce8:            85 66 f0 01  movge     %xcc, 0x1, %g2
    0x100003cec:            80 92 40 02  orcc      %o1, %g2, %g0
    0x100003cf0:            12 48 00 55  bne,pt    %icc, +0x154  <0x100003e44>
    0x100003cf4:            96 10 00 04  mov       %g4, %o3
    0x100003cf8:            07 00 04 00  sethi     %hi(0x100000), %g3
    0x100003cfc:            b0 10 e0 03  or        %g3, 0x3, %i0
    0x100003d00:            9b 2e 30 0c  sllx      %i0, 0xc, %o5
    0x100003d04:            0b 00 04 00  sethi     %hi(0x100000), %g5
    0x100003d08:            90 11 60 03  or        %g5, 0x3, %o0
    0x100003d0c:            97 2a 30 0c  sllx      %o0, 0xc, %o3
    0x100003d10:            e1 1b 6c 30  ldd       [%o5 + 0xc30], %d16
    0x100003d14:            80 a6 e0 05  cmp       %i3, 0x5
    0x100003d18:            dd 1a ec 38  ldd       [%o3 + 0xc38], %d14
    0x100003d1c:            8a 10 20 01  mov       0x1, %g5
    0x100003d20:            85 a0 00 50  fmovd     %d16, %d2
    0x100003d24:            06 40 00 38  bl,pn     %icc, +0xe0   <0x100003e04>
    0x100003d28:            01 00 00 00  nop
    0x100003d2c:            d9 1d 60 00  ldd       [%l5], %d12
    0x100003d30:            f9 1d 60 08  ldd       [%l5 + 0x8], %d28
    0x100003d34:            85 a4 08 50  faddd     %d16, %d16, %d2
    0x100003d38:            88 04 a0 10  add       %l2, 0x10, %g4
    0x100003d3c:            b1 a3 89 5c  fmuld     %d14, %d28, %d24
    0x100003d40:            95 a4 09 4c  fmuld     %d16, %d12, %d10
    0x100003d44:            8a 10 20 02  mov       0x2, %g5
    0x100003d48:            9d a3 88 50  faddd     %d14, %d16, %d14
    0x100003d4c:            aa 05 60 08  add       %l5, 0x8, %l5
    0x100003d50:            9a 05 bf fc  add       %l6, -0x4, %o5
    0x100003d54:            bb a6 08 ca  fsubd     %d24, %d10, %d60
    0x100003d58:            fb 3c a0 08  std       %d60, [%l2 + 0x8]
    0x100003d5c:            c1 6d 60 98  prefetch  [%l5 + 0x98], #n_reads
    0x100003d60:            ed 69 20 90  prefetch  [%g4 + 0x90], #n_writes_strong
    0x100003d64:            8a 01 60 04  add       %g5, 0x4, %g5
    0x100003d68:            88 01 20 20  add       %g4, 0x20, %g4
    0x100003d6c:            f5 1d 60 08  ldd       [%l5 + 0x8], %d26
    0x100003d70:            80 a1 40 0d  cmp       %g5, %o5
    0x100003d74:            e5 1d 60 00  ldd       [%l5], %d18
    0x100003d78:            aa 05 60 20  add       %l5, 0x20, %l5
    0x100003d7c:            89 a3 89 5a  fmuld     %d14, %d26, %d4
    0x100003d80:            b7 a0 89 52  fmuld     %d2, %d18, %d58
    0x100003d84:            a9 a3 88 50  faddd     %d14, %d16, %d20
    0x100003d88:            9d a1 08 db  fsubd     %d4, %d58, %d14
    0x100003d8c:            dd 39 3f e0  std       %d14, [%g4 - 0x20]
    0x100003d90:            95 a0 88 50  faddd     %d2, %d16, %d10
    0x100003d94:            c5 1d 7f f0  ldd       [%l5 - 0x10], %d2
    0x100003d98:            ff 1d 7f e8  ldd       [%l5 - 0x18], %d62
    0x100003d9c:            bd a5 09 42  fmuld     %d20, %d2, %d30
    0x100003da0:            ad a2 89 5f  fmuld     %d10, %d62, %d22
    0x100003da4:            b9 a5 08 50  faddd     %d20, %d16, %d28
    0x100003da8:            99 a7 88 d6  fsubd     %d30, %d22, %d12
    0x100003dac:            d9 39 3f e8  std       %d12, [%g4 - 0x18]
    0x100003db0:            b5 a2 88 50  faddd     %d10, %d16, %d26
    0x100003db4:            f1 1d 7f f8  ldd       [%l5 - 0x8], %d24
    0x100003db8:            fb 1d 7f f0  ldd       [%l5 - 0x10], %d60
    0x100003dbc:            b7 a7 09 58  fmuld     %d28, %d24, %d58
    0x100003dc0:            a5 a6 89 5d  fmuld     %d26, %d60, %d18
    0x100003dc4:            a9 a7 08 50  faddd     %d28, %d16, %d20
    0x100003dc8:            89 a6 c8 d2  fsubd     %d58, %d18, %d4
    0x100003dcc:            c9 39 3f f0  std       %d4, [%g4 - 0x10]
    0x100003dd0:            99 a6 88 50  faddd     %d26, %d16, %d12
    0x100003dd4:            dd 1d 60 00  ldd       [%l5], %d14
    0x100003dd8:            c5 1d 7f f8  ldd       [%l5 - 0x8], %d2
    0x100003ddc:            ad a5 09 4e  fmuld     %d20, %d14, %d22
    0x100003de0:            bf a3 09 42  fmuld     %d12, %d2, %d62
    0x100003de4:            9d a5 08 50  faddd     %d20, %d16, %d14
    0x100003de8:            bd a5 88 df  fsubd     %d22, %d62, %d30
    0x100003dec:            fd 39 3f f8  std       %d30, [%g4 - 0x8]
    0x100003df0:            04 4f ff db  ble,pt    %icc, -0x94   <0x100003d5c>
    0x100003df4:            85 a3 08 50  faddd     %d12, %d16, %d2
    0x100003df8:            80 a1 40 1b  cmp       %g5, %i3
    0x100003dfc:            14 40 00 10  bg,pn     %icc, +0x40   <0x100003e3c>
    0x100003e00:            01 00 00 00  nop
    0x100003e04:            e5 1d 60 00  ldd       [%l5], %d18
    0x100003e08:            fb 1d 60 08  ldd       [%l5 + 0x8], %d60
    0x100003e0c:            89 a0 89 52  fmuld     %d2, %d18, %d4
    0x100003e10:            8a 01 60 01  add       %g5, 0x1, %g5
    0x100003e14:            b7 a3 89 5d  fmuld     %d14, %d60, %d58
    0x100003e18:            9d a3 88 50  faddd     %d14, %d16, %d14
    0x100003e1c:            85 a0 88 50  faddd     %d2, %d16, %d2
    0x100003e20:            80 a1 40 1b  cmp       %g5, %i3
    0x100003e24:            aa 05 60 08  add       %l5, 0x8, %l5
    0x100003e28:            b9 a6 c8 c4  fsubd     %d58, %d4, %d28
    0x100003e2c:            f9 39 20 00  std       %d28, [%g4]
    0x100003e30:            88 01 20 08  add       %g4, 0x8, %g4
    0x100003e34:            24 4f ff f5  ble,a,pt  %icc, -0x2c   <0x100003e08>
    0x100003e38:            e5 1d 60 00  ldd       [%l5], %d18
    0x100003e3c:            10 80 00 5f  ba        +0x17c        <0x100003fb8>
    0x100003e40:            96 10 00 10  mov       %l0, %o3
    0x100003e44:            31 00 04 00  sethi     %hi(0x100000), %i0
    0x100003e48:            90 16 20 03  or        %i0, 0x3, %o0
    0x100003e4c:            99 2a 30 0c  sllx      %o0, 0xc, %o4
    0x100003e50:            05 00 04 00  sethi     %hi(0x100000), %g2
    0x100003e54:            92 10 a0 03  or        %g2, 0x3, %o1
    0x100003e58:            ed 1b 2c 30  ldd       [%o4 + 0xc30], %d22
    0x100003e5c:            87 2a 70 0c  sllx      %o1, 0xc, %g3
    0x100003e60:            80 a6 e0 07  cmp       %i3, 0x7
    0x100003e64:            dd 18 ec 38  ldd       [%g3 + 0xc38], %d14
    0x100003e68:            ae 10 20 01  mov       0x1, %l7
    0x100003e6c:            f9 1d 60 00  ldd       [%l5], %d28
    0x100003e70:            98 05 60 08  add       %l5, 0x8, %o4
    0x100003e74:            b7 a0 00 56  fmovd     %d22, %d58
    0x100003e78:            06 40 00 41  bl,pn     %icc, +0x104  <0x100003f7c>
    0x100003e7c:            01 00 00 00  nop
    0x100003e80:            f1 1d 60 08  ldd       [%l5 + 0x8], %d24
    0x100003e84:            85 a5 89 5c  fmuld     %d22, %d28, %d2
    0x100003e88:            99 a5 88 56  faddd     %d22, %d22, %d12
    0x100003e8c:            f5 1d 60 10  ldd       [%l5 + 0x10], %d26
    0x100003e90:            98 05 60 20  add       %l5, 0x20, %o4
    0x100003e94:            ae 10 20 04  mov       0x4, %l7
    0x100003e98:            89 a3 89 58  fmuld     %d14, %d24, %d4
    0x100003e9c:            95 a3 88 56  faddd     %d14, %d22, %d10
    0x100003ea0:            f9 1d 60 18  ldd       [%l5 + 0x18], %d28
    0x100003ea4:            9e 05 bf fc  add       %l6, -0x4, %o7
    0x100003ea8:            c1 6b 20 90  prefetch  [%o4 + 0x90], #n_reads
    0x100003eac:            ed 6a e0 90  prefetch  [%o3 + 0x90], #n_writes_strong
    0x100003eb0:            a9 a3 08 56  faddd     %d12, %d22, %d20
    0x100003eb4:            ae 05 e0 04  add       %l7, 0x4, %l7
    0x100003eb8:            96 02 e0 20  add       %o3, 0x20, %o3
    0x100003ebc:            bb a2 88 56  faddd     %d10, %d22, %d60
    0x100003ec0:            80 a5 c0 0f  cmp       %l7, %o7
    0x100003ec4:            98 03 20 20  add       %o4, 0x20, %o4
    0x100003ec8:            b1 a3 09 58  fmuld     %d12, %d24, %d24
    0x100003ecc:            b7 a1 08 c2  fsubd     %d4, %d2, %d58
    0x100003ed0:            89 a2 89 5a  fmuld     %d10, %d26, %d4
    0x100003ed4:            dd 1b 3f e0  ldd       [%o4 - 0x20], %d14
    0x100003ed8:            f7 3a ff e0  std       %d58, [%o3 - 0x20]
    0x100003edc:            99 a5 08 56  faddd     %d20, %d22, %d12
    0x100003ee0:            a1 a7 48 56  faddd     %d60, %d22, %d16
    0x100003ee4:            b5 a5 09 5a  fmuld     %d20, %d26, %d26
    0x100003ee8:            95 a1 08 d8  fsubd     %d4, %d24, %d10
    0x100003eec:            85 a7 49 5c  fmuld     %d60, %d28, %d2
    0x100003ef0:            f1 1b 3f e8  ldd       [%o4 - 0x18], %d24
    0x100003ef4:            d5 3a ff e8  std       %d10, [%o3 - 0x18]
    0x100003ef8:            bd a3 08 56  faddd     %d12, %d22, %d30
    0x100003efc:            a5 a4 08 56  faddd     %d16, %d22, %d18
    0x100003f00:            b9 a3 09 5c  fmuld     %d12, %d28, %d28
    0x100003f04:            bf a0 88 da  fsubd     %d2, %d26, %d62
    0x100003f08:            b7 a4 09 4e  fmuld     %d16, %d14, %d58
    0x100003f0c:            f5 1b 3f f0  ldd       [%o4 - 0x10], %d26
    0x100003f10:            ff 3a ff f0  std       %d62, [%o3 - 0x10]
    0x100003f14:            99 a7 88 56  faddd     %d30, %d22, %d12
    0x100003f18:            95 a4 88 56  faddd     %d18, %d22, %d10
    0x100003f1c:            85 a7 89 4e  fmuld     %d30, %d14, %d2
    0x100003f20:            a9 a6 c8 dc  fsubd     %d58, %d28, %d20
    0x100003f24:            89 a4 89 58  fmuld     %d18, %d24, %d4
    0x100003f28:            f9 1b 3f f8  ldd       [%o4 - 0x8], %d28
    0x100003f2c:            04 4f ff df  ble,pt    %icc, -0x84   <0x100003ea8>
    0x100003f30:            e9 3a ff f8  std       %d20, [%o3 - 0x8]
    0x100003f34:            9d a2 88 56  faddd     %d10, %d22, %d14
    0x100003f38:            a5 a3 08 56  faddd     %d12, %d22, %d18
    0x100003f3c:            95 a2 89 5a  fmuld     %d10, %d26, %d10
    0x100003f40:            99 a3 09 58  fmuld     %d12, %d24, %d12
    0x100003f44:            85 a1 08 c2  fsubd     %d4, %d2, %d2
    0x100003f48:            96 02 e0 18  add       %o3, 0x18, %o3
    0x100003f4c:            a1 a3 89 5c  fmuld     %d14, %d28, %d16
    0x100003f50:            9d a3 88 56  faddd     %d14, %d22, %d14
    0x100003f54:            c5 3a ff e8  std       %d2, [%o3 - 0x18]
    0x100003f58:            bf a4 89 5a  fmuld     %d18, %d26, %d62
    0x100003f5c:            bb a2 88 cc  fsubd     %d10, %d12, %d60
    0x100003f60:            b7 a4 88 56  faddd     %d18, %d22, %d58
    0x100003f64:            80 a5 c0 1b  cmp       %l7, %i3
    0x100003f68:            fb 3a ff f0  std       %d60, [%o3 - 0x10]
    0x100003f6c:            bd a4 08 df  fsubd     %d16, %d62, %d30
    0x100003f70:            fd 3a ff f8  std       %d30, [%o3 - 0x8]
    0x100003f74:            14 40 00 10  bg,pn     %icc, +0x40   <0x100003fb4>
    0x100003f78:            01 00 00 00  nop
    0x100003f7c:            b1 a0 00 5c  fmovd     %d28, %d24
    0x100003f80:            f9 1b 20 00  ldd       [%o4], %d28
    0x100003f84:            a5 a6 c9 58  fmuld     %d58, %d24, %d18
    0x100003f88:            ae 05 e0 01  add       %l7, 0x1, %l7
    0x100003f8c:            bb a3 89 5c  fmuld     %d14, %d28, %d60
    0x100003f90:            9d a3 88 56  faddd     %d14, %d22, %d14
    0x100003f94:            b7 a6 c8 56  faddd     %d58, %d22, %d58
    0x100003f98:            80 a5 c0 1b  cmp       %l7, %i3
    0x100003f9c:            98 03 20 08  add       %o4, 0x8, %o4
    0x100003fa0:            89 a7 48 d2  fsubd     %d60, %d18, %d4
    0x100003fa4:            c9 3a e0 00  std       %d4, [%o3]
    0x100003fa8:            96 02 e0 08  add       %o3, 0x8, %o3
    0x100003fac:            24 4f ff f5  ble,a,pt  %icc, -0x2c   <0x100003f80>
    0x100003fb0:            b1 a0 00 5c  fmovd     %d28, %d24
    0x100003fb4:            96 10 00 10  mov       %l0, %o3
    0x100003fb8:            94 10 00 16  mov       %l6, %o2
    0x100003fbc:            9a 10 00 1d  mov       %i5, %o5
    0x100003fc0:            d2 5b a8 af  ldx       [%sp + 0x8af], %o1
    0x100003fc4:            40 00 02 33  call      +0x8cc        <0x100004890>
    0x100003fc8:            90 10 00 14  mov       %l4, %o0
    0x100003fcc:            80 a2 20 01  cmp       %o0, 0x1
    0x100003fd0:            12 40 00 13  bne,pn    %icc, +0x4c   <0x10000401c>
    0x100003fd4:            b0 10 00 08  mov       %o0, %i0
    0x100003fd8:            92 10 00 1c  mov       %i4, %o1
    0x100003fdc:            7f ff fb cf  call      -0x10c4       <0x100002f18>
    0x100003fe0:            90 10 20 00  clr       %o0
    0x100003fe4:            ac 10 00 08  mov       %o0, %l6
    0x100003fe8:            88 10 20 00  clr       %g4
    0x100003fec:            d1 1b a8 b7  ldd       [%sp + 0x8b7], %d8
    0x100003ff0:            10 80 00 23  ba        +0x8c         <0x10000407c>
    0x100003ff4:            2f 00 04 00  sethi     %hi(0x100000), %l7
    0x100003ff8:            96 10 00 10  mov       %l0, %o3
    0x100003ffc:            94 10 00 16  mov       %l6, %o2
    0x100004000:            9a 10 00 1d  mov       %i5, %o5
    0x100004004:            40 00 02 23  call      +0x88c        <0x100004890>
    0x100004008:            d2 5b a8 af  ldx       [%sp + 0x8af], %o1
    0x10000400c:            80 a2 20 01  cmp       %o0, 0x1
    0x100004010:            b0 10 00 08  mov       %o0, %i0
    0x100004014:            02 48 00 12  be,pt     %icc, +0x48   <0x10000405c>
    0x100004018:            92 10 00 1c  mov       %i4, %o1
    0x10000401c:            90 10 00 12  mov       %l2, %o0
    0x100004020:            94 10 00 1b  mov       %i3, %o2
    0x100004024:            7f ff fb cf  call      -0x10c4       <0x100002f60>
    0x100004028:            92 10 20 00  clr       %o1
    0x10000402c:            98 10 00 11  mov       %l1, %o4
    0x100004030:            94 10 00 1c  mov       %i4, %o2
    0x100004034:            d0 5b a8 af  ldx       [%sp + 0x8af], %o0
    0x100004038:            96 10 20 00  clr       %o3
    0x10000403c:            7f ff fc 23  call      -0xf74        <0x1000030c8>
    0x100004040:            92 10 20 00  clr       %o1
    0x100004044:            94 10 00 1b  mov       %i3, %o2
    0x100004048:            92 10 20 00  clr       %o1
    0x10000404c:            7f ff fb c5  call      -0x10ec       <0x100002f60>
    0x100004050:            90 10 00 14  mov       %l4, %o0
    0x100004054:            81 c7 e0 08  ret
    0x100004058:            81 e8 20 00  restore   %g0, 0x0, %g0
    0x10000405c:            7f ff fb af  call      -0x1144       <0x100002f18>
    0x100004060:            90 10 20 00  clr       %o0
    0x100004064:            80 a6 e0 00  cmp       %i3, 0x0
    0x100004068:            06 40 00 e4  bl,pn     %icc, +0x390  <0x1000043f8>
    0x10000406c:            ac 10 00 08  mov       %o0, %l6
    0x100004070:            88 10 20 00  clr       %g4
    0x100004074:            d1 1b a8 b7  ldd       [%sp + 0x8b7], %d8
    0x100004078:            2f 00 04 00  sethi     %hi(0x100000), %l7
    0x10000407c:            94 15 e0 03  or        %l7, 0x3, %o2
    0x100004080:            af 2a b0 0c  sllx      %o2, 0xc, %l7
    0x100004084:            9e 10 00 1a  mov       %i2, %o7
    0x100004088:            84 10 20 00  clr       %g2
    0x10000408c:            92 06 e0 01  add       %i3, 0x1, %o1
    0x100004090:            80 a2 60 01  cmp       %o1, 0x1
    0x100004094:            9a 10 20 00  clr       %o5
    0x100004098:            06 40 00 0a  bl,pn     %icc, +0x28   <0x1000040c0>
    0x10000409c:            01 00 00 00  nop
    0x1000040a0:            84 00 a0 01  add       %g2, 0x1, %g2
    0x1000040a4:            e0 5b e0 00  ldx       [%o7], %l0
    0x1000040a8:            80 a0 80 1b  cmp       %g2, %i3
    0x1000040ac:            c0 74 00 0d  clrx      [%l0 + %o5]
    0x1000040b0:            04 4f ff fc  ble,pt    %icc, -0x10   <0x1000040a0>
    0x1000040b4:            9a 03 60 08  add       %o5, 0x8, %o5
    0x1000040b8:            10 80 00 09  ba        +0x24         <0x1000040dc>
    0x1000040bc:            01 00 00 00  nop
    0x1000040c0:            84 00 a0 01  add       %g2, 0x1, %g2
    0x1000040c4:            e0 5b e0 00  ldx       [%o7], %l0
    0x1000040c8:            80 a0 80 1b  cmp       %g2, %i3
    0x1000040cc:            c0 74 00 0d  clrx      [%l0 + %o5]
    0x1000040d0:            9a 03 60 08  add       %o5, 0x8, %o5
    0x1000040d4:            04 4f ff fc  ble,pt    %icc, -0x10   <0x1000040c4>
    0x1000040d8:            84 00 a0 01  add       %g2, 0x1, %g2
    0x1000040dc:            88 01 20 01  add       %g4, 0x1, %g4
    0x1000040e0:            80 a1 00 1b  cmp       %g4, %i3
    0x1000040e4:            9e 03 e0 08  add       %o7, 0x8, %o7
    0x1000040e8:            04 4f ff e9  ble,pt    %icc, -0x5c   <0x10000408c>
    0x1000040ec:            84 10 20 00  clr       %g2
    0x1000040f0:            80 a2 60 05  cmp       %o1, 0x5
    0x1000040f4:            94 10 20 00  clr       %o2
    0x1000040f8:            90 10 00 12  mov       %l2, %o0
    0x1000040fc:            96 10 20 00  clr       %o3
    0x100004100:            06 40 00 22  bl,pn     %icc, +0x88   <0x100004188>
    0x100004104:            01 00 00 00  nop
    0x100004108:            ea 5e a0 00  ldx       [%i2], %l5
    0x10000410c:            94 10 20 01  mov       0x1, %o2
    0x100004110:            90 04 a0 08  add       %l2, 0x8, %o0
    0x100004114:            ff 1c a0 00  ldd       [%l2], %d62
    0x100004118:            b0 26 e0 03  sub       %i3, 0x3, %i0
    0x10000411c:            ff 3d 60 00  std       %d62, [%l5]
    0x100004120:            92 10 20 08  mov       0x8, %o1
    0x100004124:            c1 6a 21 10  prefetch  [%o0 + 0x110], #n_reads
    0x100004128:            94 02 a0 04  add       %o2, 0x4, %o2
    0x10000412c:            e9 1a 20 00  ldd       [%o0], %d20
    0x100004130:            90 02 20 20  add       %o0, 0x20, %o0
    0x100004134:            80 a2 80 18  cmp       %o2, %i0
    0x100004138:            c6 5e a0 00  ldx       [%i2], %g3
    0x10000413c:            e9 38 c0 09  std       %d20, [%g3 + %o1]
    0x100004140:            9e 02 60 08  add       %o1, 0x8, %o7
    0x100004144:            fd 1a 3f e8  ldd       [%o0 - 0x18], %d30
    0x100004148:            d6 5e a0 00  ldx       [%i2], %o3
    0x10000414c:            fd 3a c0 0f  std       %d30, [%o3 + %o7]
    0x100004150:            88 02 60 10  add       %o1, 0x10, %g4
    0x100004154:            ed 1a 3f f0  ldd       [%o0 - 0x10], %d22
    0x100004158:            c2 5e a0 00  ldx       [%i2], %g1
    0x10000415c:            ed 38 40 04  std       %d22, [%g1 + %g4]
    0x100004160:            8a 02 60 18  add       %o1, 0x18, %g5
    0x100004164:            e1 1a 3f f8  ldd       [%o0 - 0x8], %d16
    0x100004168:            da 5e a0 00  ldx       [%i2], %o5
    0x10000416c:            e1 3b 40 05  std       %d16, [%o5 + %g5]
    0x100004170:            04 4f ff ed  ble,pt    %icc, -0x4c   <0x100004124>
    0x100004174:            92 02 60 20  add       %o1, 0x20, %o1
    0x100004178:            80 a2 80 1b  cmp       %o2, %i3
    0x10000417c:            96 10 00 09  mov       %o1, %o3
    0x100004180:            14 40 00 0b  bg,pn     %icc, +0x2c   <0x1000041ac>
    0x100004184:            01 00 00 00  nop
    0x100004188:            94 02 a0 01  add       %o2, 0x1, %o2
    0x10000418c:            ea 5e a0 00  ldx       [%i2], %l5
    0x100004190:            80 a2 80 1b  cmp       %o2, %i3
    0x100004194:            e1 1a 20 00  ldd       [%o0], %d16
    0x100004198:            90 02 20 08  add       %o0, 0x8, %o0
    0x10000419c:            e1 3d 40 0b  std       %d16, [%l5 + %o3]
    0x1000041a0:            96 02 e0 08  add       %o3, 0x8, %o3
    0x1000041a4:            04 4f ff fa  ble,pt    %icc, -0x18   <0x10000418c>
    0x1000041a8:            94 02 a0 01  add       %o2, 0x1, %o2
    0x1000041ac:            80 a6 e0 01  cmp       %i3, 0x1
    0x1000041b0:            06 40 00 92  bl,pn     %icc, +0x248  <0x1000043f8>
    0x1000041b4:            aa 10 20 01  mov       0x1, %l5
    0x1000041b8:            f2 23 a8 bf  st        %i1, [%sp + 0x8bf]
    0x1000041bc:            c1 03 a8 bf  ld        [%sp + 0x8bf], %f0
    0x1000041c0:            a0 10 00 11  mov       %l1, %l0
    0x1000041c4:            80 a7 20 00  cmp       %i4, 0x0
    0x1000041c8:            95 a0 19 00  fitod     %f0, %d10
    0x1000041cc:            9d a2 09 ca  fdivd     %d8, %d10, %d14
    0x1000041d0:            06 40 00 0e  bl,pn     %icc, +0x38   <0x100004208>
    0x1000041d4:            b0 10 20 00  clr       %i0
    0x1000041d8:            b2 10 00 16  mov       %l6, %i1
    0x1000041dc:            90 10 00 13  mov       %l3, %o0
    0x1000041e0:            7f ff f8 14  call      -0x1fb0       <0x100002230>
    0x1000041e4:            dd 3b a8 bf  std       %d14, [%sp + 0x8bf]
    0x1000041e8:            7f ff f7 74  call      -0x2230       <0x100001fb8>
    0x1000041ec:            b0 06 20 01  add       %i0, 0x1, %i0
    0x1000041f0:            c1 3e 60 00  std       %d0, [%i1]
    0x1000041f4:            80 a6 00 1c  cmp       %i0, %i4
    0x1000041f8:            b2 06 60 08  add       %i1, 0x8, %i1
    0x1000041fc:            dd 1b a8 bf  ldd       [%sp + 0x8bf], %d14
    0x100004200:            04 4f ff f8  ble,pt    %icc, -0x20   <0x1000041e0>
    0x100004204:            90 10 00 13  mov       %l3, %o0
    0x100004208:            80 a4 20 00  cmp       %l0, 0x0
    0x10000420c:            06 40 00 75  bl,pn     %icc, +0x1d4  <0x1000043e0>
    0x100004210:            82 10 20 00  clr       %g1
    0x100004214:            a1 a0 05 4e  fsqrtd    %d14, %d16
    0x100004218:            9e 10 00 14  mov       %l4, %o7
    0x10000421c:            96 10 20 00  clr       %o3
    0x100004220:            80 a7 20 00  cmp       %i4, 0x0
    0x100004224:            d5 1d ec 20  ldd       [%l7 + 0xc20], %d10
    0x100004228:            06 40 00 5e  bl,pn     %icc, +0x178  <0x1000043a0>
    0x10000422c:            86 10 20 00  clr       %g3
    0x100004230:            98 07 20 01  add       %i4, 0x1, %o4
    0x100004234:            80 a3 20 0c  cmp       %o4, 0xc
    0x100004238:            94 10 00 1d  mov       %i5, %o2
    0x10000423c:            8a 10 00 16  mov       %l6, %g5
    0x100004240:            06 40 00 4d  bl,pn     %icc, +0x134  <0x100004374>
    0x100004244:            01 00 00 00  nop
    0x100004248:            c8 5f 60 08  ldx       [%i5 + 0x8], %g4
    0x10000424c:            d9 1d a0 08  ldd       [%l6 + 0x8], %d12
    0x100004250:            d0 5f 60 00  ldx       [%i5], %o0
    0x100004254:            fb 19 00 0b  ldd       [%g4 + %o3], %d60
    0x100004258:            c5 1d a0 00  ldd       [%l6], %d2
    0x10000425c:            fd 1a 00 0b  ldd       [%o0 + %o3], %d30
    0x100004260:            da 5f 60 10  ldx       [%i5 + 0x10], %o5
    0x100004264:            ed 1d a0 10  ldd       [%l6 + 0x10], %d22
    0x100004268:            f0 5f 60 20  ldx       [%i5 + 0x20], %i0
    0x10000426c:            f2 5f 60 28  ldx       [%i5 + 0x28], %i1
    0x100004270:            e5 1b 40 0b  ldd       [%o5 + %o3], %d18
    0x100004274:            c4 5f 60 18  ldx       [%i5 + 0x18], %g2
    0x100004278:            f5 1e 00 0b  ldd       [%i0 + %o3], %d26
    0x10000427c:            c9 1e 40 0b  ldd       [%i1 + %o3], %d4
    0x100004280:            f1 18 80 0b  ldd       [%g2 + %o3], %d24
    0x100004284:            d8 5f 60 30  ldx       [%i5 + 0x30], %o4
    0x100004288:            f2 5f 60 38  ldx       [%i5 + 0x38], %i1
    0x10000428c:            ff 1d a0 18  ldd       [%l6 + 0x18], %d62
    0x100004290:            b9 a7 49 4c  fmuld     %d60, %d12, %d28
    0x100004294:            99 a7 89 42  fmuld     %d30, %d2, %d12
    0x100004298:            e9 1d a0 20  ldd       [%l6 + 0x20], %d20
    0x10000429c:            94 07 60 40  add       %i5, 0x40, %o2
    0x1000042a0:            8a 05 a0 30  add       %l6, 0x30, %g5
    0x1000042a4:            bb a4 89 56  fmuld     %d18, %d22, %d60
    0x1000042a8:            b7 a2 88 5c  faddd     %d10, %d28, %d58
    0x1000042ac:            d5 1d ec 20  ldd       [%l7 + 0xc20], %d10
    0x1000042b0:            86 10 20 08  mov       0x8, %g3
    0x1000042b4:            ed 1d a0 28  ldd       [%l6 + 0x28], %d22
    0x1000042b8:            bd a2 88 4c  faddd     %d10, %d12, %d30
    0x1000042bc:            b0 27 20 03  sub       %i4, 0x3, %i0
    0x1000042c0:            86 00 e0 04  add       %g3, 0x4, %g3
    0x1000042c4:            8a 01 60 20  add       %g5, 0x20, %g5
    0x1000042c8:            c4 5a a0 00  ldx       [%o2], %g2
    0x1000042cc:            80 a0 c0 18  cmp       %g3, %i0
    0x1000042d0:            94 02 a0 20  add       %o2, 0x20, %o2
    0x1000042d4:            c5 19 7f e0  ldd       [%g5 - 0x20], %d2
    0x1000042d8:            b1 a6 09 5f  fmuld     %d24, %d62, %d24
    0x1000042dc:            bb a7 88 5d  faddd     %d30, %d60, %d60
    0x1000042e0:            e5 1b 00 0b  ldd       [%o4 + %o3], %d18
    0x1000042e4:            d2 5a bf e8  ldx       [%o2 - 0x18], %o1
    0x1000042e8:            b5 a6 89 54  fmuld     %d26, %d20, %d26
    0x1000042ec:            ff 19 7f e8  ldd       [%g5 - 0x18], %d62
    0x1000042f0:            b7 a6 c8 58  faddd     %d58, %d24, %d58
    0x1000042f4:            f1 1e 40 0b  ldd       [%i1 + %o3], %d24
    0x1000042f8:            d8 5a bf f0  ldx       [%o2 - 0x10], %o4
    0x1000042fc:            89 a1 09 56  fmuld     %d4, %d22, %d4
    0x100004300:            e9 19 7f f0  ldd       [%g5 - 0x10], %d20
    0x100004304:            bd a7 48 5a  faddd     %d60, %d26, %d30
    0x100004308:            f5 18 80 0b  ldd       [%g2 + %o3], %d26
    0x10000430c:            f2 5a bf f8  ldx       [%o2 - 0x8], %i1
    0x100004310:            bb a4 89 42  fmuld     %d18, %d2, %d60
    0x100004314:            ed 19 7f f8  ldd       [%g5 - 0x8], %d22
    0x100004318:            b7 a6 c8 44  faddd     %d58, %d4, %d58
    0x10000431c:            04 4f ff e9  ble,pt    %icc, -0x5c   <0x1000042c0>
    0x100004320:            c9 1a 40 0b  ldd       [%o1 + %o3], %d4
    0x100004324:            95 a6 09 5f  fmuld     %d24, %d62, %d10
    0x100004328:            ad a1 09 56  fmuld     %d4, %d22, %d22
    0x10000432c:            99 a6 89 54  fmuld     %d26, %d20, %d12
    0x100004330:            89 a7 88 5d  faddd     %d30, %d60, %d4
    0x100004334:            8a 01 60 10  add       %g5, 0x10, %g5
    0x100004338:            f1 1e 40 0b  ldd       [%i1 + %o3], %d24
    0x10000433c:            85 a6 c8 4a  faddd     %d58, %d10, %d2
    0x100004340:            f5 1b 00 0b  ldd       [%o4 + %o3], %d26
    0x100004344:            fd 19 7f f0  ldd       [%g5 - 0x10], %d30
    0x100004348:            fb 19 7f f8  ldd       [%g5 - 0x8], %d60
    0x10000434c:            b9 a1 08 4c  faddd     %d4, %d12, %d28
    0x100004350:            b7 a6 89 5e  fmuld     %d26, %d30, %d58
    0x100004354:            a5 a6 09 5d  fmuld     %d24, %d60, %d18
    0x100004358:            bf a0 88 56  faddd     %d2, %d22, %d62
    0x10000435c:            80 a0 c0 1c  cmp       %g3, %i4
    0x100004360:            a9 a7 08 5b  faddd     %d28, %d58, %d20
    0x100004364:            95 a7 c8 52  faddd     %d62, %d18, %d10
    0x100004368:            95 a5 08 4a  faddd     %d20, %d10, %d10
    0x10000436c:            14 40 00 0d  bg,pn     %icc, +0x34   <0x1000043a0>
    0x100004370:            01 00 00 00  nop
    0x100004374:            d0 5a a0 00  ldx       [%o2], %o0
    0x100004378:            d9 1a 00 0b  ldd       [%o0 + %o3], %d12
    0x10000437c:            fd 19 60 00  ldd       [%g5], %d30
    0x100004380:            86 00 e0 01  add       %g3, 0x1, %g3
    0x100004384:            80 a0 c0 1c  cmp       %g3, %i4
    0x100004388:            b1 a3 09 5e  fmuld     %d12, %d30, %d24
    0x10000438c:            94 02 a0 08  add       %o2, 0x8, %o2
    0x100004390:            8a 01 60 08  add       %g5, 0x8, %g5
    0x100004394:            95 a2 88 58  faddd     %d10, %d24, %d10
    0x100004398:            24 4f ff f8  ble,a,pt  %icc, -0x20   <0x100004378>
    0x10000439c:            d0 5a a0 00  ldx       [%o2], %o0
    0x1000043a0:            f9 1b e0 00  ldd       [%o7], %d28
    0x1000043a4:            85 a4 09 4a  fmuld     %d16, %d10, %d2
    0x1000043a8:            c8 5e a0 00  ldx       [%i2], %g4
    0x1000043ac:            b5 a7 09 4e  fmuld     %d28, %d14, %d26
    0x1000043b0:            82 00 60 01  add       %g1, 0x1, %g1
    0x1000043b4:            9a 02 c0 04  add       %o3, %g4, %o5
    0x1000043b8:            e9 1b 60 08  ldd       [%o5 + 0x8], %d20
    0x1000043bc:            80 a0 40 10  cmp       %g1, %l0
    0x1000043c0:            ca 5e a0 08  ldx       [%i2 + 0x8], %g5
    0x1000043c4:            bf a0 88 5a  faddd     %d2, %d26, %d62
    0x1000043c8:            9e 03 e0 08  add       %o7, 0x8, %o7
    0x1000043cc:            ad a7 c8 54  faddd     %d62, %d20, %d22
    0x1000043d0:            ed 39 40 0b  std       %d22, [%g5 + %o3]
    0x1000043d4:            96 02 e0 08  add       %o3, 0x8, %o3
    0x1000043d8:            04 4f ff 93  ble,pt    %icc, -0x1b4  <0x100004224>
    0x1000043dc:            80 a7 20 00  cmp       %i4, 0x0
    0x1000043e0:            aa 05 60 01  add       %l5, 0x1, %l5
    0x1000043e4:            80 a5 40 1b  cmp       %l5, %i3
    0x1000043e8:            b4 06 a0 08  add       %i2, 0x8, %i2
    0x1000043ec:            a0 04 3f ff  add       %l0, -0x1, %l0
    0x1000043f0:            04 4f ff 78  ble,pt    %icc, -0x220  <0x1000041d0>
    0x1000043f4:            80 a7 20 00  cmp       %i4, 0x0
    0x1000043f8:            90 10 00 16  mov       %l6, %o0
    0x1000043fc:            94 10 00 1c  mov       %i4, %o2
    0x100004400:            7f ff fa d8  call      -0x14a0       <0x100002f60>
    0x100004404:            92 10 20 00  clr       %o1
    0x100004408:            90 10 00 12  mov       %l2, %o0
    0x10000440c:            94 10 00 1b  mov       %i3, %o2
    0x100004410:            7f ff fa d4  call      -0x14b0       <0x100002f60>
    0x100004414:            92 10 20 00  clr       %o1
    0x100004418:            98 10 00 11  mov       %l1, %o4
    0x10000441c:            94 10 00 1c  mov       %i4, %o2
    0x100004420:            d0 5b a8 af  ldx       [%sp + 0x8af], %o0
    0x100004424:            96 10 20 00  clr       %o3
    0x100004428:            7f ff fb 28  call      -0x1360       <0x1000030c8>
    0x10000442c:            92 10 20 00  clr       %o1
    0x100004430:            94 10 00 1b  mov       %i3, %o2
    0x100004434:            92 10 20 00  clr       %o1
    0x100004438:            7f ff fa ca  call      -0x14d8       <0x100002f60>
    0x10000443c:            90 10 00 14  mov       %l4, %o0
    0x100004440:            81 c7 e0 08  ret
    0x100004444:            91 e8 20 01  restore   %g0, 0x1, %o0
    0x100004448:            00 00 00 01  illtrap   0x1
    0x10000444c:            00 00 00 02  illtrap   0x2
    0x100004450:            3f f0 00 00  0x3ff00000
    0x100004454:            00 00 00 00  illtrap   0x0
    0x100004458:            40 00 00 00  call      +0x0          <0x100004458>
    0x10000445c:            00 00 00 00  illtrap   0x0
    0x100004460:            00 00 00 00  illtrap   0x0
    0x100004464:            00 00 00 00  illtrap   0x0
    0x100004468:            00 00 00 00  illtrap   0x0
    0x10000446c:            00 00 00 00  illtrap   0x0
    0x100004470:            00 00 00 00  illtrap   0x0
    0x100004474:            00 00 00 00  illtrap   0x0
__1cUHJM_Yield_to_Forward6Fpdi0_i_()
    0x100004478:            8a 02 7f ff  add       %o1, -0x1, %g5
    0x10000447c:            d1 1a a0 00  ldd       [%o2], %d8
    0x100004480:            80 a1 60 01  cmp       %g5, 0x1
    0x100004484:            06 40 00 c2  bl,pn     %icc, +0x308  <0x10000478c>
    0x100004488:            d1 3a 20 00  std       %d8, [%o0]
    0x10000448c:            80 a1 60 04  cmp       %g5, 0x4
    0x100004490:            06 40 00 10  bl,pn     %icc, +0x40   <0x1000044d0>
    0x100004494:            92 02 20 08  add       %o0, 0x8, %o1
    0x100004498:            91 39 60 00  sra       %g5, 0x0, %o0
    0x10000449c:            87 2a 30 03  sllx      %o0, 0x3, %g3
    0x1000044a0:            88 00 e0 08  add       %g3, 0x8, %g4
    0x1000044a4:            84 22 40 0a  sub       %o1, %o2, %g2
    0x1000044a8:            98 10 20 00  clr       %o4
    0x1000044ac:            80 a0 80 04  cmp       %g2, %g4
    0x1000044b0:            99 66 f0 01  movge     %xcc, 0x1, %o4
    0x1000044b4:            82 22 80 09  sub       %o2, %o1, %g1
    0x1000044b8:            9a 10 20 00  clr       %o5
    0x1000044bc:            80 a0 40 03  cmp       %g1, %g3
    0x1000044c0:            9b 66 f0 01  movge     %xcc, 0x1, %o5
    0x1000044c4:            80 93 00 0d  orcc      %o4, %o5, %g0
    0x1000044c8:            12 48 00 56  bne,pt    %icc, +0x158  <0x100004620>
    0x1000044cc:            07 00 04 00  sethi     %hi(0x100000), %g3
    0x1000044d0:            17 00 04 00  sethi     %hi(0x100000), %o3
    0x1000044d4:            90 12 e0 04  or        %o3, 0x4, %o0
    0x1000044d8:            85 2a 30 0c  sllx      %o0, 0xc, %g2
    0x1000044dc:            09 00 04 00  sethi     %hi(0x100000), %g4
    0x1000044e0:            82 11 20 04  or        %g4, 0x4, %g1
    0x1000044e4:            87 28 70 0c  sllx      %g1, 0xc, %g3
    0x1000044e8:            80 a1 60 05  cmp       %g5, 0x5
    0x1000044ec:            d1 18 a4 50  ldd       [%g2 + 0x450], %d8
    0x1000044f0:            90 10 20 01  mov       0x1, %o0
    0x1000044f4:            c1 18 e4 58  ldd       [%g3 + 0x458], %d0
    0x1000044f8:            88 10 00 09  mov       %o1, %g4
    0x1000044fc:            8d a0 00 48  fmovd     %d8, %d6
    0x100004500:            06 40 00 38  bl,pn     %icc, +0xe0   <0x1000045e0>
    0x100004504:            01 00 00 00  nop
    0x100004508:            e1 1a a0 00  ldd       [%o2], %d16
    0x10000450c:            d5 1a a0 08  ldd       [%o2 + 0x8], %d10
    0x100004510:            8d a2 08 48  faddd     %d8, %d8, %d6
    0x100004514:            88 02 60 08  add       %o1, 0x8, %g4
    0x100004518:            9d a0 09 4a  fmuld     %d0, %d10, %d14
    0x10000451c:            a9 a2 09 50  fmuld     %d8, %d16, %d20
    0x100004520:            9a 21 60 03  sub       %g5, 0x3, %o5
    0x100004524:            81 a0 08 48  faddd     %d0, %d8, %d0
    0x100004528:            90 10 20 02  mov       0x2, %o0
    0x10000452c:            94 02 a0 08  add       %o2, 0x8, %o2
    0x100004530:            bd a3 88 d4  fsubd     %d14, %d20, %d30
    0x100004534:            fd 3a 60 00  std       %d30, [%o1]
    0x100004538:            c1 6a a0 98  prefetch  [%o2 + 0x98], #n_reads
    0x10000453c:            ed 69 20 90  prefetch  [%g4 + 0x90], #n_writes_strong
    0x100004540:            90 02 20 04  add       %o0, 0x4, %o0
    0x100004544:            88 01 20 20  add       %g4, 0x20, %g4
    0x100004548:            f5 1a a0 08  ldd       [%o2 + 0x8], %d26
    0x10000454c:            80 a2 00 0d  cmp       %o0, %o5
    0x100004550:            f9 1a a0 00  ldd       [%o2], %d28
    0x100004554:            94 02 a0 20  add       %o2, 0x20, %o2
    0x100004558:            89 a0 09 5a  fmuld     %d0, %d26, %d4
    0x10000455c:            85 a1 89 5c  fmuld     %d6, %d28, %d2
    0x100004560:            ad a0 08 48  faddd     %d0, %d8, %d22
    0x100004564:            81 a1 08 c2  fsubd     %d4, %d2, %d0
    0x100004568:            c1 39 3f e0  std       %d0, [%g4 - 0x20]
    0x10000456c:            95 a1 88 48  faddd     %d6, %d8, %d10
    0x100004570:            e5 1a bf f0  ldd       [%o2 - 0x10], %d18
    0x100004574:            d9 1a bf e8  ldd       [%o2 - 0x18], %d12
    0x100004578:            b1 a5 89 52  fmuld     %d22, %d18, %d24
    0x10000457c:            8d a2 89 4c  fmuld     %d10, %d12, %d6
    0x100004580:            b5 a5 88 48  faddd     %d22, %d8, %d26
    0x100004584:            a1 a6 08 c6  fsubd     %d24, %d6, %d16
    0x100004588:            e1 39 3f e8  std       %d16, [%g4 - 0x18]
    0x10000458c:            a9 a2 88 48  faddd     %d10, %d8, %d20
    0x100004590:            dd 1a bf f8  ldd       [%o2 - 0x8], %d14
    0x100004594:            fd 1a bf f0  ldd       [%o2 - 0x10], %d30
    0x100004598:            85 a6 89 4e  fmuld     %d26, %d14, %d2
    0x10000459c:            b9 a5 09 5e  fmuld     %d20, %d30, %d28
    0x1000045a0:            99 a6 88 48  faddd     %d26, %d8, %d12
    0x1000045a4:            89 a0 88 dc  fsubd     %d2, %d28, %d4
    0x1000045a8:            c9 39 3f f0  std       %d4, [%g4 - 0x10]
    0x1000045ac:            a1 a5 08 48  faddd     %d20, %d8, %d16
    0x1000045b0:            c1 1a a0 00  ldd       [%o2], %d0
    0x1000045b4:            e5 1a bf f8  ldd       [%o2 - 0x8], %d18
    0x1000045b8:            8d a3 09 40  fmuld     %d12, %d0, %d6
    0x1000045bc:            ad a4 09 52  fmuld     %d16, %d18, %d22
    0x1000045c0:            81 a3 08 48  faddd     %d12, %d8, %d0
    0x1000045c4:            b1 a1 88 d6  fsubd     %d6, %d22, %d24
    0x1000045c8:            f1 39 3f f8  std       %d24, [%g4 - 0x8]
    0x1000045cc:            04 4f ff db  ble,pt    %icc, -0x94   <0x100004538>
    0x1000045d0:            8d a4 08 48  faddd     %d16, %d8, %d6
    0x1000045d4:            80 a2 00 05  cmp       %o0, %g5
    0x1000045d8:            14 40 00 10  bg,pn     %icc, +0x40   <0x100004618>
    0x1000045dc:            01 00 00 00  nop
    0x1000045e0:            c9 1a a0 00  ldd       [%o2], %d4
    0x1000045e4:            e9 1a a0 08  ldd       [%o2 + 0x8], %d20
    0x1000045e8:            a5 a1 89 44  fmuld     %d6, %d4, %d18
    0x1000045ec:            90 02 20 01  add       %o0, 0x1, %o0
    0x1000045f0:            99 a0 09 54  fmuld     %d0, %d20, %d12
    0x1000045f4:            81 a0 08 48  faddd     %d0, %d8, %d0
    0x1000045f8:            8d a1 88 48  faddd     %d6, %d8, %d6
    0x1000045fc:            80 a2 00 05  cmp       %o0, %g5
    0x100004600:            94 02 a0 08  add       %o2, 0x8, %o2
    0x100004604:            ad a3 08 d2  fsubd     %d12, %d18, %d22
    0x100004608:            ed 39 20 00  std       %d22, [%g4]
    0x10000460c:            88 01 20 08  add       %g4, 0x8, %g4
    0x100004610:            24 4f ff f5  ble,a,pt  %icc, -0x2c   <0x1000045e4>
    0x100004614:            c9 1a a0 00  ldd       [%o2], %d4
    0x100004618:            81 c3 e0 08  retl
    0x10000461c:            90 10 20 01  mov       0x1, %o0
    0x100004620:            84 10 e0 04  or        %g3, 0x4, %g2
    0x100004624:            83 28 b0 0c  sllx      %g2, 0xc, %g1
    0x100004628:            1b 00 04 00  sethi     %hi(0x100000), %o5
    0x10000462c:            98 13 60 04  or        %o5, 0x4, %o4
    0x100004630:            e1 18 64 50  ldd       [%g1 + 0x450], %d16
    0x100004634:            97 2b 30 0c  sllx      %o4, 0xc, %o3
    0x100004638:            80 a1 60 07  cmp       %g5, 0x7
    0x10000463c:            dd 1a e4 58  ldd       [%o3 + 0x458], %d14
    0x100004640:            98 10 20 01  mov       0x1, %o4
    0x100004644:            e5 1a a0 00  ldd       [%o2], %d18
    0x100004648:            96 02 a0 08  add       %o2, 0x8, %o3
    0x10000464c:            b5 a0 00 50  fmovd     %d16, %d26
    0x100004650:            06 40 00 41  bl,pn     %icc, +0x104  <0x100004754>
    0x100004654:            01 00 00 00  nop
    0x100004658:            e9 1a a0 08  ldd       [%o2 + 0x8], %d20
    0x10000465c:            85 a4 09 52  fmuld     %d16, %d18, %d2
    0x100004660:            95 a4 08 50  faddd     %d16, %d16, %d10
    0x100004664:            ed 1a a0 10  ldd       [%o2 + 0x10], %d22
    0x100004668:            96 02 a0 20  add       %o2, 0x20, %o3
    0x10000466c:            9a 21 60 03  sub       %g5, 0x3, %o5
    0x100004670:            81 a3 89 54  fmuld     %d14, %d20, %d0
    0x100004674:            89 a3 88 50  faddd     %d14, %d16, %d4
    0x100004678:            e5 1a a0 18  ldd       [%o2 + 0x18], %d18
    0x10000467c:            98 10 20 04  mov       0x4, %o4
    0x100004680:            c1 6a e0 90  prefetch  [%o3 + 0x90], #n_reads
    0x100004684:            ed 6a 60 90  prefetch  [%o1 + 0x90], #n_writes_strong
    0x100004688:            8d a2 88 50  faddd     %d10, %d16, %d6
    0x10000468c:            98 03 20 04  add       %o4, 0x4, %o4
    0x100004690:            96 02 e0 20  add       %o3, 0x20, %o3
    0x100004694:            9d a1 08 50  faddd     %d4, %d16, %d14
    0x100004698:            80 a3 00 0d  cmp       %o4, %o5
    0x10000469c:            92 02 60 20  add       %o1, 0x20, %o1
    0x1000046a0:            b1 a2 89 54  fmuld     %d10, %d20, %d24
    0x1000046a4:            a9 a0 08 c2  fsubd     %d0, %d2, %d20
    0x1000046a8:            81 a1 09 56  fmuld     %d4, %d22, %d0
    0x1000046ac:            d1 1a ff e0  ldd       [%o3 - 0x20], %d8
    0x1000046b0:            e9 3a 7f e0  std       %d20, [%o1 - 0x20]
    0x1000046b4:            b5 a1 88 50  faddd     %d6, %d16, %d26
    0x1000046b8:            85 a3 88 50  faddd     %d14, %d16, %d2
    0x1000046bc:            ad a1 89 56  fmuld     %d6, %d22, %d22
    0x1000046c0:            bd a0 08 d8  fsubd     %d0, %d24, %d30
    0x1000046c4:            b9 a3 89 52  fmuld     %d14, %d18, %d28
    0x1000046c8:            e9 1a ff e8  ldd       [%o3 - 0x18], %d20
    0x1000046cc:            fd 3a 7f e8  std       %d30, [%o1 - 0x18]
    0x1000046d0:            81 a6 88 50  faddd     %d26, %d16, %d0
    0x1000046d4:            8d a0 88 50  faddd     %d2, %d16, %d6
    0x1000046d8:            99 a6 89 52  fmuld     %d26, %d18, %d12
    0x1000046dc:            89 a7 08 d6  fsubd     %d28, %d22, %d4
    0x1000046e0:            a5 a0 89 48  fmuld     %d2, %d8, %d18
    0x1000046e4:            ed 1a ff f0  ldd       [%o3 - 0x10], %d22
    0x1000046e8:            c9 3a 7f f0  std       %d4, [%o1 - 0x10]
    0x1000046ec:            95 a0 08 50  faddd     %d0, %d16, %d10
    0x1000046f0:            89 a1 88 50  faddd     %d6, %d16, %d4
    0x1000046f4:            85 a0 09 48  fmuld     %d0, %d8, %d2
    0x1000046f8:            b1 a4 88 cc  fsubd     %d18, %d12, %d24
    0x1000046fc:            81 a1 89 54  fmuld     %d6, %d20, %d0
    0x100004700:            e5 1a ff f8  ldd       [%o3 - 0x8], %d18
    0x100004704:            04 4f ff df  ble,pt    %icc, -0x84   <0x100004680>
    0x100004708:            f1 3a 7f f8  std       %d24, [%o1 - 0x8]
    0x10000470c:            9d a1 08 50  faddd     %d4, %d16, %d14
    0x100004710:            99 a2 88 50  faddd     %d10, %d16, %d12
    0x100004714:            bd a0 08 c2  fsubd     %d0, %d2, %d30
    0x100004718:            b5 a1 09 56  fmuld     %d4, %d22, %d26
    0x10000471c:            b1 a2 89 54  fmuld     %d10, %d20, %d24
    0x100004720:            92 02 60 18  add       %o1, 0x18, %o1
    0x100004724:            b9 a3 89 52  fmuld     %d14, %d18, %d28
    0x100004728:            9d a3 88 50  faddd     %d14, %d16, %d14
    0x10000472c:            fd 3a 7f e8  std       %d30, [%o1 - 0x18]
    0x100004730:            85 a3 09 56  fmuld     %d12, %d22, %d2
    0x100004734:            89 a6 88 d8  fsubd     %d26, %d24, %d4
    0x100004738:            b5 a3 08 50  faddd     %d12, %d16, %d26
    0x10000473c:            80 a3 00 05  cmp       %o4, %g5
    0x100004740:            c9 3a 7f f0  std       %d4, [%o1 - 0x10]
    0x100004744:            95 a7 08 c2  fsubd     %d28, %d2, %d10
    0x100004748:            d5 3a 7f f8  std       %d10, [%o1 - 0x8]
    0x10000474c:            14 40 00 10  bg,pn     %icc, +0x40   <0x10000478c>
    0x100004750:            01 00 00 00  nop
    0x100004754:            95 a0 00 52  fmovd     %d18, %d10
    0x100004758:            e5 1a e0 00  ldd       [%o3], %d18
    0x10000475c:            bd a6 89 4a  fmuld     %d26, %d10, %d30
    0x100004760:            98 03 20 01  add       %o4, 0x1, %o4
    0x100004764:            b9 a3 89 52  fmuld     %d14, %d18, %d28
    0x100004768:            9d a3 88 50  faddd     %d14, %d16, %d14
    0x10000476c:            b5 a6 88 50  faddd     %d26, %d16, %d26
    0x100004770:            80 a3 00 05  cmp       %o4, %g5
    0x100004774:            96 02 e0 08  add       %o3, 0x8, %o3
    0x100004778:            85 a7 08 de  fsubd     %d28, %d30, %d2
    0x10000477c:            c5 3a 60 00  std       %d2, [%o1]
    0x100004780:            92 02 60 08  add       %o1, 0x8, %o1
    0x100004784:            24 4f ff f5  ble,a,pt  %icc, -0x2c   <0x100004758>
    0x100004788:            95 a0 00 52  fmovd     %d18, %d10
    0x10000478c:            81 c3 e0 08  retl
    0x100004790:            90 10 20 01  mov       0x1, %o0
__1cLHJM_Factors6Fppdii01_i_()
    0x100004794:            9d e3 bf 50  save      %sp, -0xb0, %sp
    0x100004798:            a8 06 bf ff  add       %i2, -0x1, %l4
    0x10000479c:            b2 06 7f fe  add       %i1, -0x2, %i1
    0x1000047a0:            ab 3d 20 00  sra       %l4, 0x0, %l5
    0x1000047a4:            a5 3e 60 00  sra       %i1, 0x0, %l2
    0x1000047a8:            a7 35 70 3f  srlx      %l5, 0x3f, %l3
    0x1000047ac:            a1 34 b0 3f  srlx      %l2, 0x3f, %l0
    0x1000047b0:            a2 1c e0 01  xor       %l3, 0x1, %l1
    0x1000047b4:            9a 1c 20 01  xor       %l0, 0x1, %o5
    0x1000047b8:            98 0b 40 11  and       %o5, %l1, %o4
    0x1000047bc:            80 8b 20 ff  btst      0xff, %o4
    0x1000047c0:            02 40 00 2e  be,pn     %icc, +0xb8   <0x100004878>
    0x1000047c4:            ba 10 00 18  mov       %i0, %i5
    0x1000047c8:            b4 10 00 1c  mov       %i4, %i2
    0x1000047cc:            92 10 20 00  clr       %o1
    0x1000047d0:            ae 10 20 00  clr       %l7
    0x1000047d4:            b0 06 60 01  add       %i1, 0x1, %i0
    0x1000047d8:            80 a6 20 01  cmp       %i0, 0x1
    0x1000047dc:            b8 10 00 1b  mov       %i3, %i4
    0x1000047e0:            ac 10 20 00  clr       %l6
    0x1000047e4:            06 40 00 11  bl,pn     %icc, +0x44   <0x100004828>
    0x1000047e8:            01 00 00 00  nop
    0x1000047ec:            ae 05 e0 01  add       %l7, 0x1, %l7
    0x1000047f0:            c1 1f 20 00  ldd       [%i4], %d0
    0x1000047f4:            b8 07 20 08  add       %i4, 0x8, %i4
    0x1000047f8:            80 a5 c0 19  cmp       %l7, %i1
    0x1000047fc:            85 a0 09 40  fmuld     %d0, %d0, %d2
    0x100004800:            d6 5e a0 00  ldx       [%i2], %o3
    0x100004804:            c1 1a c0 16  ldd       [%o3 + %l6], %d0
    0x100004808:            89 a0 89 40  fmuld     %d2, %d0, %d4
    0x10000480c:            8d a0 05 44  fsqrtd    %d4, %d6
    0x100004810:            d4 5f 60 00  ldx       [%i5], %o2
    0x100004814:            cd 3a 80 16  std       %d6, [%o2 + %l6]
    0x100004818:            04 4f ff f5  ble,pt    %icc, -0x2c   <0x1000047ec>
    0x10000481c:            ac 05 a0 08  add       %l6, 0x8, %l6
    0x100004820:            10 80 00 10  ba        +0x40         <0x100004860>
    0x100004824:            01 00 00 00  nop
    0x100004828:            c1 1f 20 00  ldd       [%i4], %d0
    0x10000482c:            85 a0 09 40  fmuld     %d0, %d0, %d2
    0x100004830:            d6 5e a0 00  ldx       [%i2], %o3
    0x100004834:            d4 5f 60 00  ldx       [%i5], %o2
    0x100004838:            ae 05 e0 01  add       %l7, 0x1, %l7
    0x10000483c:            c1 1a c0 16  ldd       [%o3 + %l6], %d0
    0x100004840:            80 a5 c0 19  cmp       %l7, %i1
    0x100004844:            b8 07 20 08  add       %i4, 0x8, %i4
    0x100004848:            89 a0 89 40  fmuld     %d2, %d0, %d4
    0x10000484c:            8d a0 05 44  fsqrtd    %d4, %d6
    0x100004850:            cd 3a 80 16  std       %d6, [%o2 + %l6]
    0x100004854:            ac 05 a0 08  add       %l6, 0x8, %l6
    0x100004858:            24 4f ff f5  ble,a,pt  %icc, -0x2c   <0x10000482c>
    0x10000485c:            c1 1f 20 00  ldd       [%i4], %d0
    0x100004860:            92 02 60 01  add       %o1, 0x1, %o1
    0x100004864:            80 a2 40 14  cmp       %o1, %l4
    0x100004868:            b4 06 a0 08  add       %i2, 0x8, %i2
    0x10000486c:            ba 07 60 08  add       %i5, 0x8, %i5
    0x100004870:            04 4f ff d9  ble,pt    %icc, -0x9c   <0x1000047d4>
    0x100004874:            ae 10 20 00  clr       %l7
    0x100004878:            81 c7 e0 08  ret
    0x10000487c:            91 e8 20 01  restore   %g0, 0x1, %o0
    0x100004880:            3f e0 00 00  0x3fe00000
    0x100004884:            00 00 00 00  illtrap   0x0
    0x100004888:            00 00 00 00  illtrap   0x0
    0x10000488c:            00 00 00 00  illtrap   0x0
__1cKHJM_Drifts6Fpdp0iid1_i_()
    0x100004890:            9d e3 bf 40  save      %sp, -0xc0, %sp
    0x100004894:            f4 23 a8 af  st        %i2, [%sp + 0x8af]
    0x100004898:            c1 03 a8 af  ld        [%sp + 0x8af], %f0
    0x10000489c:            2f 00 04 00  sethi     %hi(0x100000), %l7
    0x1000048a0:            ac 86 ff ff  addcc     %i3, -0x1, %l6
    0x1000048a4:            bd a0 19 00  fitod     %f0, %d30
    0x1000048a8:            a4 15 e0 04  or        %l7, 0x4, %l2
    0x1000048ac:            af 2c b0 0c  sllx      %l2, 0xc, %l7
    0x1000048b0:            b6 10 00 1d  mov       %i5, %i3
    0x1000048b4:            a2 10 00 18  mov       %i0, %l1
    0x1000048b8:            b9 a2 09 de  fdivd     %d8, %d30, %d28
    0x1000048bc:            0c 40 00 39  bneg,pn   %icc, +0xe4   <0x1000049a0>
    0x1000048c0:            92 05 e8 88  add       %l7, 0x888, %o1
    0x1000048c4:            88 05 a0 01  add       %l6, 0x1, %g4
    0x1000048c8:            80 a1 20 04  cmp       %g4, 0x4
    0x1000048cc:            b8 10 20 00  clr       %i4
    0x1000048d0:            d5 1a 7f f8  ldd       [%o1 - 0x8], %d10
    0x1000048d4:            aa 10 00 19  mov       %i1, %l5
    0x1000048d8:            85 a7 09 4a  fmuld     %d28, %d10, %d2
    0x1000048dc:            06 40 00 25  bl,pn     %icc, +0x94   <0x100004970>
    0x1000048e0:            01 00 00 00  nop
    0x1000048e4:            b0 25 a0 03  sub       %l6, 0x3, %i0
    0x1000048e8:            c1 6f 60 90  prefetch  [%i5 + 0x90], #n_reads
    0x1000048ec:            c1 6d 60 90  prefetch  [%l5 + 0x90], #n_reads
    0x1000048f0:            b8 07 20 04  add       %i4, 0x4, %i4
    0x1000048f4:            c6 5f 60 00  ldx       [%i5], %g3
    0x1000048f8:            ba 07 60 20  add       %i5, 0x20, %i5
    0x1000048fc:            80 a7 00 18  cmp       %i4, %i0
    0x100004900:            aa 05 60 20  add       %l5, 0x20, %l5
    0x100004904:            cd 18 e0 00  ldd       [%g3], %d6
    0x100004908:            89 a0 89 46  fmuld     %d2, %d6, %d4
    0x10000490c:            c4 5d 7f e0  ldx       [%l5 - 0x20], %g2
    0x100004910:            95 a1 09 46  fmuld     %d4, %d6, %d10
    0x100004914:            d5 38 a0 00  std       %d10, [%g2]
    0x100004918:            c2 5f 7f e8  ldx       [%i5 - 0x18], %g1
    0x10000491c:            fb 18 60 00  ldd       [%g1], %d60
    0x100004920:            bf a0 89 5d  fmuld     %d2, %d60, %d62
    0x100004924:            d0 5d 7f e8  ldx       [%l5 - 0x18], %o0
    0x100004928:            bd a7 c9 5d  fmuld     %d62, %d60, %d30
    0x10000492c:            fd 3a 20 00  std       %d30, [%o0]
    0x100004930:            ca 5f 7f f0  ldx       [%i5 - 0x10], %g5
    0x100004934:            f1 19 60 00  ldd       [%g5], %d24
    0x100004938:            b5 a0 89 58  fmuld     %d2, %d24, %d26
    0x10000493c:            c8 5d 7f f0  ldx       [%l5 - 0x10], %g4
    0x100004940:            ad a6 89 58  fmuld     %d26, %d24, %d22
    0x100004944:            ed 39 20 00  std       %d22, [%g4]
    0x100004948:            e8 5f 7f f8  ldx       [%i5 - 0x8], %l4
    0x10000494c:            e5 1d 20 00  ldd       [%l4], %d18
    0x100004950:            a9 a0 89 52  fmuld     %d2, %d18, %d20
    0x100004954:            c6 5d 7f f8  ldx       [%l5 - 0x8], %g3
    0x100004958:            a1 a5 09 52  fmuld     %d20, %d18, %d16
    0x10000495c:            04 4f ff e3  ble,pt    %icc, -0x74   <0x1000048e8>
    0x100004960:            e1 38 e0 00  std       %d16, [%g3]
    0x100004964:            80 a7 00 16  cmp       %i4, %l6
    0x100004968:            14 40 00 0e  bg,pn     %icc, +0x38   <0x1000049a0>
    0x10000496c:            01 00 00 00  nop
    0x100004970:            c6 5f 60 00  ldx       [%i5], %g3
    0x100004974:            ff 18 e0 00  ldd       [%g3], %d62
    0x100004978:            c4 5d 60 00  ldx       [%l5], %g2
    0x10000497c:            b8 07 20 01  add       %i4, 0x1, %i4
    0x100004980:            89 a0 89 5f  fmuld     %d2, %d62, %d4
    0x100004984:            80 a7 00 16  cmp       %i4, %l6
    0x100004988:            ba 07 60 08  add       %i5, 0x8, %i5
    0x10000498c:            aa 05 60 08  add       %l5, 0x8, %l5
    0x100004990:            9d a1 09 5f  fmuld     %d4, %d62, %d14
    0x100004994:            dd 38 a0 00  std       %d14, [%g2]
    0x100004998:            24 4f ff f7  ble,a,pt  %icc, -0x24   <0x100004974>
    0x10000499c:            c6 5f 60 00  ldx       [%i5], %g3
    0x1000049a0:            82 06 bf fe  add       %i2, -0x2, %g1
    0x1000049a4:            9f 38 60 00  sra       %g1, 0x0, %o7
    0x1000049a8:            9a 23 e0 01  sub       %o7, 0x1, %o5
    0x1000049ac:            97 3d a0 00  sra       %l6, 0x0, %o3
    0x1000049b0:            99 33 70 3f  srlx      %o5, 0x3f, %o4
    0x1000049b4:            95 32 f0 3f  srlx      %o3, 0x3f, %o2
    0x1000049b8:            8a 1b 20 01  xor       %o4, 0x1, %g5
    0x1000049bc:            90 1a a0 01  xor       %o2, 0x1, %o0
    0x1000049c0:            88 09 40 08  and       %g5, %o0, %g4
    0x1000049c4:            80 89 20 ff  btst      0xff, %g4
    0x1000049c8:            02 40 00 82  be,pn     %icc, +0x208  <0x100004bd0>
    0x1000049cc:            cd 1a 7f f8  ldd       [%o1 - 0x8], %d6
    0x1000049d0:            88 10 20 00  clr       %g4
    0x1000049d4:            92 10 00 19  mov       %i1, %o1
    0x1000049d8:            89 a7 09 46  fmuld     %d28, %d6, %d4
    0x1000049dc:            96 10 20 01  mov       0x1, %o3
    0x1000049e0:            94 10 20 08  mov       0x8, %o2
    0x1000049e4:            98 10 20 00  clr       %o4
    0x1000049e8:            80 a2 e0 01  cmp       %o3, 0x1
    0x1000049ec:            f8 5a 60 00  ldx       [%o1], %i4
    0x1000049f0:            9e 02 ff ff  add       %o3, -0x1, %o7
    0x1000049f4:            9a 10 20 00  clr       %o5
    0x1000049f8:            c0 77 00 0a  clrx      [%i4 + %o2]
    0x1000049fc:            06 40 00 0d  bl,pn     %icc, +0x34   <0x100004a30>
    0x100004a00:            01 00 00 00  nop
    0x100004a04:            98 03 20 01  add       %o4, 0x1, %o4
    0x100004a08:            f0 5a 60 00  ldx       [%o1], %i0
    0x100004a0c:            80 a3 00 0f  cmp       %o4, %o7
    0x100004a10:            f9 1e 00 0d  ldd       [%i0 + %o5], %d28
    0x100004a14:            fb 1a 80 18  ldd       [%o2 + %i0], %d60
    0x100004a18:            99 a7 48 dc  fsubd     %d60, %d28, %d12
    0x100004a1c:            d9 3a 80 18  std       %d12, [%o2 + %i0]
    0x100004a20:            04 4f ff f9  ble,pt    %icc, -0x1c   <0x100004a04>
    0x100004a24:            9a 03 60 08  add       %o5, 0x8, %o5
    0x100004a28:            10 80 00 0c  ba        +0x30         <0x100004a58>
    0x100004a2c:            01 00 00 00  nop
    0x100004a30:            98 03 20 01  add       %o4, 0x1, %o4
    0x100004a34:            f0 5a 60 00  ldx       [%o1], %i0
    0x100004a38:            80 a3 00 0f  cmp       %o4, %o7
    0x100004a3c:            f9 1e 00 0d  ldd       [%i0 + %o5], %d28
    0x100004a40:            fb 1a 80 18  ldd       [%o2 + %i0], %d60
    0x100004a44:            9a 03 60 08  add       %o5, 0x8, %o5
    0x100004a48:            99 a7 48 dc  fsubd     %d60, %d28, %d12
    0x100004a4c:            d9 3a 80 18  std       %d12, [%o2 + %i0]
    0x100004a50:            04 4f ff f9  ble,pt    %icc, -0x1c   <0x100004a34>
    0x100004a54:            98 03 20 01  add       %o4, 0x1, %o4
    0x100004a58:            a6 02 e0 01  add       %o3, 0x1, %l3
    0x100004a5c:            f5 1d e8 88  ldd       [%l7 + 0x888], %d26
    0x100004a60:            80 a4 e0 18  cmp       %l3, 0x18
    0x100004a64:            90 10 20 00  clr       %o0
    0x100004a68:            ca 5e e0 00  ldx       [%i3], %g5
    0x100004a6c:            06 40 00 41  bl,pn     %icc, +0x104  <0x100004b70>
    0x100004a70:            01 00 00 00  nop
    0x100004a74:            d9 19 60 08  ldd       [%g5 + 0x8], %d12
    0x100004a78:            fb 19 60 00  ldd       [%g5], %d60
    0x100004a7c:            e1 19 60 20  ldd       [%g5 + 0x20], %d16
    0x100004a80:            d5 19 60 10  ldd       [%g5 + 0x10], %d10
    0x100004a84:            ff 19 60 58  ldd       [%g5 + 0x58], %d62
    0x100004a88:            f9 19 60 50  ldd       [%g5 + 0x50], %d28
    0x100004a8c:            f1 19 60 40  ldd       [%g5 + 0x40], %d24
    0x100004a90:            cd 1d e8 88  ldd       [%l7 + 0x888], %d6
    0x100004a94:            c5 19 60 18  ldd       [%g5 + 0x18], %d2
    0x100004a98:            ed 19 60 38  ldd       [%g5 + 0x38], %d22
    0x100004a9c:            e9 19 60 30  ldd       [%g5 + 0x30], %d20
    0x100004aa0:            bd a1 88 5d  faddd     %d6, %d60, %d30
    0x100004aa4:            e5 19 60 28  ldd       [%g5 + 0x28], %d18
    0x100004aa8:            9d a6 88 42  faddd     %d26, %d2, %d14
    0x100004aac:            8a 01 60 60  add       %g5, 0x60, %g5
    0x100004ab0:            bb a1 88 4c  faddd     %d6, %d12, %d60
    0x100004ab4:            90 10 20 0c  mov       0xc, %o0
    0x100004ab8:            99 a1 88 4a  faddd     %d6, %d10, %d12
    0x100004abc:            f5 19 7f e8  ldd       [%g5 - 0x18], %d26
    0x100004ac0:            a4 22 e0 0b  sub       %o3, 0xb, %l2
    0x100004ac4:            c1 69 61 30  prefetch  [%g5 + 0x130], #n_reads
    0x100004ac8:            90 02 20 0c  add       %o0, 0xc, %o0
    0x100004acc:            c5 19 60 00  ldd       [%g5], %d2
    0x100004ad0:            8a 01 60 60  add       %g5, 0x60, %g5
    0x100004ad4:            a1 a7 88 50  faddd     %d30, %d16, %d16
    0x100004ad8:            a5 a7 48 52  faddd     %d60, %d18, %d18
    0x100004adc:            80 a2 00 12  cmp       %o0, %l2
    0x100004ae0:            fb 19 7f a8  ldd       [%g5 - 0x58], %d60
    0x100004ae4:            a9 a3 08 54  faddd     %d12, %d20, %d20
    0x100004ae8:            d9 19 7f b0  ldd       [%g5 - 0x50], %d12
    0x100004aec:            ad a3 88 56  faddd     %d14, %d22, %d22
    0x100004af0:            dd 19 7f b8  ldd       [%g5 - 0x48], %d14
    0x100004af4:            b1 a4 08 58  faddd     %d16, %d24, %d24
    0x100004af8:            e1 19 7f c0  ldd       [%g5 - 0x40], %d16
    0x100004afc:            b5 a4 88 5a  faddd     %d18, %d26, %d26
    0x100004b00:            e5 19 7f c8  ldd       [%g5 - 0x38], %d18
    0x100004b04:            b9 a5 08 5c  faddd     %d20, %d28, %d28
    0x100004b08:            e9 19 7f d0  ldd       [%g5 - 0x30], %d20
    0x100004b0c:            bf a5 88 5f  faddd     %d22, %d62, %d62
    0x100004b10:            ed 19 7f d8  ldd       [%g5 - 0x28], %d22
    0x100004b14:            bd a6 08 42  faddd     %d24, %d2, %d30
    0x100004b18:            f1 19 7f e0  ldd       [%g5 - 0x20], %d24
    0x100004b1c:            bb a6 88 5d  faddd     %d26, %d60, %d60
    0x100004b20:            f5 19 7f e8  ldd       [%g5 - 0x18], %d26
    0x100004b24:            99 a7 08 4c  faddd     %d28, %d12, %d12
    0x100004b28:            f9 19 7f f0  ldd       [%g5 - 0x10], %d28
    0x100004b2c:            9d a7 c8 4e  faddd     %d62, %d14, %d14
    0x100004b30:            04 4f ff e5  ble,pt    %icc, -0x6c   <0x100004ac4>
    0x100004b34:            ff 19 7f f8  ldd       [%g5 - 0x8], %d62
    0x100004b38:            8d a7 88 50  faddd     %d30, %d16, %d6
    0x100004b3c:            85 a7 48 52  faddd     %d60, %d18, %d2
    0x100004b40:            99 a3 08 54  faddd     %d12, %d20, %d12
    0x100004b44:            9d a3 88 56  faddd     %d14, %d22, %d14
    0x100004b48:            80 a2 00 0b  cmp       %o0, %o3
    0x100004b4c:            95 a1 88 58  faddd     %d6, %d24, %d10
    0x100004b50:            bb a0 88 5a  faddd     %d2, %d26, %d60
    0x100004b54:            bd a3 08 5c  faddd     %d12, %d28, %d30
    0x100004b58:            b9 a3 88 5f  faddd     %d14, %d62, %d28
    0x100004b5c:            bf a2 88 5d  faddd     %d10, %d60, %d62
    0x100004b60:            b5 a7 c8 5e  faddd     %d62, %d30, %d26
    0x100004b64:            b5 a6 88 5c  faddd     %d26, %d28, %d26
    0x100004b68:            14 40 00 09  bg,pn     %icc, +0x24   <0x100004b8c>
    0x100004b6c:            01 00 00 00  nop
    0x100004b70:            90 02 20 01  add       %o0, 0x1, %o0
    0x100004b74:            80 a2 00 0b  cmp       %o0, %o3
    0x100004b78:            c5 19 60 00  ldd       [%g5], %d2
    0x100004b7c:            8a 01 60 08  add       %g5, 0x8, %g5
    0x100004b80:            b5 a6 88 42  faddd     %d26, %d2, %d26
    0x100004b84:            04 4f ff fc  ble,pt    %icc, -0x10   <0x100004b74>
    0x100004b88:            90 02 20 01  add       %o0, 0x1, %o0
    0x100004b8c:            a5 a6 89 5a  fmuld     %d26, %d26, %d18
    0x100004b90:            e8 5a 60 00  ldx       [%o1], %l4
    0x100004b94:            96 02 e0 01  add       %o3, 0x1, %o3
    0x100004b98:            80 a2 c0 01  cmp       %o3, %g1
    0x100004b9c:            ed 1a 80 14  ldd       [%o2 + %l4], %d22
    0x100004ba0:            a9 a4 89 44  fmuld     %d18, %d4, %d20
    0x100004ba4:            b1 a5 88 54  faddd     %d22, %d20, %d24
    0x100004ba8:            f1 3a 80 14  std       %d24, [%o2 + %l4]
    0x100004bac:            94 02 a0 08  add       %o2, 0x8, %o2
    0x100004bb0:            04 4f ff 8e  ble,pt    %icc, -0x1c8  <0x1000049e8>
    0x100004bb4:            98 10 20 00  clr       %o4
    0x100004bb8:            88 01 20 01  add       %g4, 0x1, %g4
    0x100004bbc:            80 a1 00 16  cmp       %g4, %l6
    0x100004bc0:            b6 06 e0 08  add       %i3, 0x8, %i3
    0x100004bc4:            92 02 60 08  add       %o1, 0x8, %o1
    0x100004bc8:            04 4f ff 86  ble,pt    %icc, -0x1e8  <0x1000049e0>
    0x100004bcc:            96 10 20 01  mov       0x1, %o3
    0x100004bd0:            80 a0 60 00  cmp       %g1, 0x0
    0x100004bd4:            06 40 00 26  bl,pn     %icc, +0x98   <0x100004c6c>
    0x100004bd8:            ba 10 20 00  clr       %i5
    0x100004bdc:            b4 10 20 00  clr       %i2
    0x100004be0:            80 a5 a0 00  cmp       %l6, 0x0
    0x100004be4:            06 40 00 1c  bl,pn     %icc, +0x70   <0x100004c54>
    0x100004be8:            c0 74 60 00  clrx      [%l1]
    0x100004bec:            b0 05 a0 01  add       %l6, 0x1, %i0
    0x100004bf0:            80 a6 20 01  cmp       %i0, 0x1
    0x100004bf4:            b6 10 20 00  clr       %i3
    0x100004bf8:            a6 10 00 19  mov       %i1, %l3
    0x100004bfc:            c5 1d e8 88  ldd       [%l7 + 0x888], %d2
    0x100004c00:            06 40 00 0c  bl,pn     %icc, +0x30   <0x100004c30>
    0x100004c04:            01 00 00 00  nop
    0x100004c08:            b6 06 e0 01  add       %i3, 0x1, %i3
    0x100004c0c:            e0 5c e0 00  ldx       [%l3], %l0
    0x100004c10:            a6 04 e0 08  add       %l3, 0x8, %l3
    0x100004c14:            80 a6 c0 16  cmp       %i3, %l6
    0x100004c18:            e1 1c 00 1a  ldd       [%l0 + %i2], %d16
    0x100004c1c:            85 a0 88 50  faddd     %d2, %d16, %d2
    0x100004c20:            04 4f ff fa  ble,pt    %icc, -0x18   <0x100004c08>
    0x100004c24:            c5 3c 60 00  std       %d2, [%l1]
    0x100004c28:            10 80 00 0b  ba        +0x2c         <0x100004c54>
    0x100004c2c:            01 00 00 00  nop
    0x100004c30:            e0 5c e0 00  ldx       [%l3], %l0
    0x100004c34:            e1 1c 00 1a  ldd       [%l0 + %i2], %d16
    0x100004c38:            b6 06 e0 01  add       %i3, 0x1, %i3
    0x100004c3c:            80 a6 c0 16  cmp       %i3, %l6
    0x100004c40:            85 a0 88 50  faddd     %d2, %d16, %d2
    0x100004c44:            c5 3c 60 00  std       %d2, [%l1]
    0x100004c48:            a6 04 e0 08  add       %l3, 0x8, %l3
    0x100004c4c:            24 4f ff fa  ble,a,pt  %icc, -0x18   <0x100004c34>
    0x100004c50:            e0 5c e0 00  ldx       [%l3], %l0
    0x100004c54:            ba 07 60 01  add       %i5, 0x1, %i5
    0x100004c58:            80 a7 40 01  cmp       %i5, %g1
    0x100004c5c:            b4 06 a0 08  add       %i2, 0x8, %i2
    0x100004c60:            a2 04 60 08  add       %l1, 0x8, %l1
    0x100004c64:            04 4f ff e0  ble,pt    %icc, -0x80   <0x100004be4>
    0x100004c68:            80 a5 a0 00  cmp       %l6, 0x0
    0x100004c6c:            81 c7 e0 08  ret
    0x100004c70:            91 e8 20 01  restore   %g0, 0x1, %o0
    0x100004c74:            00 00 00 00  illtrap   0x0
    0x100004c78:            00 00 00 00  illtrap   0x0
    0x100004c7c:            00 00 00 00  illtrap   0x0
__1cTHJM_SimPath_Forward6Fppdiid001pl_i_()
    0x100004c80:            9d e3 bf 40  save      %sp, -0xc0, %sp
    0x100004c84:            a1 3e a0 00  sra       %i2, 0x0, %l0
    0x100004c88:            a4 04 3f ff  add       %l0, -0x1, %l2
    0x100004c8c:            ea 5f a8 af  ldx       [%fp + 0x8af], %l5
    0x100004c90:            90 10 20 00  clr       %o0
    0x100004c94:            e8 5f a8 b7  ldx       [%fp + 0x8b7], %l4
    0x100004c98:            92 10 00 12  mov       %l2, %o1
    0x100004c9c:            7f ff f8 9f  call      -0x1d84       <0x100002f18>
    0x100004ca0:            cd 3b a8 af  std       %d6, [%sp + 0x8af]
    0x100004ca4:            a2 86 7f ff  addcc     %i1, -0x1, %l1
    0x100004ca8:            0c 40 00 e3  bneg,pn   %icc, +0x38c  <0x100005034>
    0x100004cac:            ac 10 00 08  mov       %o0, %l6
    0x100004cb0:            27 00 04 00  sethi     %hi(0x100000), %l3
    0x100004cb4:            8a 14 e0 04  or        %l3, 0x4, %g5
    0x100004cb8:            a0 10 00 18  mov       %i0, %l0
    0x100004cbc:            a7 29 70 0c  sllx      %g5, 0xc, %l3
    0x100004cc0:            82 10 20 00  clr       %g1
    0x100004cc4:            9e 10 00 18  mov       %i0, %o7
    0x100004cc8:            cd 1b a8 af  ldd       [%sp + 0x8af], %d6
    0x100004ccc:            ae 10 20 00  clr       %l7
    0x100004cd0:            80 a6 60 01  cmp       %i1, 0x1
    0x100004cd4:            9a 10 20 00  clr       %o5
    0x100004cd8:            06 40 00 0a  bl,pn     %icc, +0x28   <0x100004d00>
    0x100004cdc:            01 00 00 00  nop
    0x100004ce0:            ae 05 e0 01  add       %l7, 0x1, %l7
    0x100004ce4:            f6 5b e0 00  ldx       [%o7], %i3
    0x100004ce8:            80 a5 c0 11  cmp       %l7, %l1
    0x100004cec:            c0 76 c0 0d  clrx      [%i3 + %o5]
    0x100004cf0:            04 4f ff fc  ble,pt    %icc, -0x10   <0x100004ce0>
    0x100004cf4:            9a 03 60 08  add       %o5, 0x8, %o5
    0x100004cf8:            10 80 00 09  ba        +0x24         <0x100004d1c>
    0x100004cfc:            01 00 00 00  nop
    0x100004d00:            ae 05 e0 01  add       %l7, 0x1, %l7
    0x100004d04:            f6 5b e0 00  ldx       [%o7], %i3
    0x100004d08:            80 a5 c0 11  cmp       %l7, %l1
    0x100004d0c:            c0 76 c0 0d  clrx      [%i3 + %o5]
    0x100004d10:            9a 03 60 08  add       %o5, 0x8, %o5
    0x100004d14:            04 4f ff fc  ble,pt    %icc, -0x10   <0x100004d04>
    0x100004d18:            ae 05 e0 01  add       %l7, 0x1, %l7
    0x100004d1c:            82 00 60 01  add       %g1, 0x1, %g1
    0x100004d20:            80 a0 40 11  cmp       %g1, %l1
    0x100004d24:            9e 03 e0 08  add       %o7, 0x8, %o7
    0x100004d28:            04 4f ff ea  ble,pt    %icc, -0x58   <0x100004cd0>
    0x100004d2c:            ae 10 20 00  clr       %l7
    0x100004d30:            80 a6 60 05  cmp       %i1, 0x5
    0x100004d34:            b4 10 20 00  clr       %i2
    0x100004d38:            90 10 20 00  clr       %o0
    0x100004d3c:            06 40 00 22  bl,pn     %icc, +0x88   <0x100004dc4>
    0x100004d40:            01 00 00 00  nop
    0x100004d44:            d8 5c 20 00  ldx       [%l0], %o4
    0x100004d48:            b4 10 20 01  mov       0x1, %i2
    0x100004d4c:            b0 06 7f fc  add       %i1, -0x4, %i0
    0x100004d50:            e5 1f 20 00  ldd       [%i4], %d18
    0x100004d54:            b8 07 20 08  add       %i4, 0x8, %i4
    0x100004d58:            e5 3b 20 00  std       %d18, [%o4]
    0x100004d5c:            b6 10 20 08  mov       0x8, %i3
    0x100004d60:            c1 6f 21 10  prefetch  [%i4 + 0x110], #n_reads
    0x100004d64:            b4 06 a0 04  add       %i2, 0x4, %i2
    0x100004d68:            c5 1f 20 00  ldd       [%i4], %d2
    0x100004d6c:            b8 07 20 20  add       %i4, 0x20, %i4
    0x100004d70:            80 a6 80 18  cmp       %i2, %i0
    0x100004d74:            d0 5c 20 00  ldx       [%l0], %o0
    0x100004d78:            c5 3a 00 1b  std       %d2, [%o0 + %i3]
    0x100004d7c:            82 06 e0 08  add       %i3, 0x8, %g1
    0x100004d80:            fd 1f 3f e8  ldd       [%i4 - 0x18], %d30
    0x100004d84:            f6 5c 20 00  ldx       [%l0], %i3
    0x100004d88:            fd 3e c0 01  std       %d30, [%i3 + %g1]
    0x100004d8c:            86 00 60 08  add       %g1, 0x8, %g3
    0x100004d90:            f9 1f 3f f0  ldd       [%i4 - 0x10], %d28
    0x100004d94:            c4 5c 20 00  ldx       [%l0], %g2
    0x100004d98:            f9 38 80 03  std       %d28, [%g2 + %g3]
    0x100004d9c:            88 00 60 10  add       %g1, 0x10, %g4
    0x100004da0:            dd 1f 3f f8  ldd       [%i4 - 0x8], %d14
    0x100004da4:            d4 5c 20 00  ldx       [%l0], %o2
    0x100004da8:            dd 3a 80 04  std       %d14, [%o2 + %g4]
    0x100004dac:            04 4f ff ed  ble,pt    %icc, -0x4c   <0x100004d60>
    0x100004db0:            b6 00 60 18  add       %g1, 0x18, %i3
    0x100004db4:            80 a6 80 11  cmp       %i2, %l1
    0x100004db8:            90 10 00 1b  mov       %i3, %o0
    0x100004dbc:            14 40 00 0b  bg,pn     %icc, +0x2c   <0x100004de8>
    0x100004dc0:            01 00 00 00  nop
    0x100004dc4:            b4 06 a0 01  add       %i2, 0x1, %i2
    0x100004dc8:            d6 5c 20 00  ldx       [%l0], %o3
    0x100004dcc:            80 a6 80 11  cmp       %i2, %l1
    0x100004dd0:            e5 1f 20 00  ldd       [%i4], %d18
    0x100004dd4:            b8 07 20 08  add       %i4, 0x8, %i4
    0x100004dd8:            e5 3a c0 08  std       %d18, [%o3 + %o0]
    0x100004ddc:            90 02 20 08  add       %o0, 0x8, %o0
    0x100004de0:            04 4f ff fa  ble,pt    %icc, -0x18   <0x100004dc8>
    0x100004de4:            b4 06 a0 01  add       %i2, 0x1, %i2
    0x100004de8:            80 a4 60 01  cmp       %l1, 0x1
    0x100004dec:            06 40 00 92  bl,pn     %icc, +0x248  <0x100005034>
    0x100004df0:            b8 06 7f fe  add       %i1, -0x2, %i4
    0x100004df4:            f2 23 a8 b7  st        %i1, [%sp + 0x8b7]
    0x100004df8:            c1 03 a8 b7  ld        [%sp + 0x8b7], %f0
    0x100004dfc:            b6 10 20 01  mov       0x1, %i3
    0x100004e00:            80 a4 a0 00  cmp       %l2, 0x0
    0x100004e04:            99 a0 19 00  fitod     %f0, %d12
    0x100004e08:            99 a1 89 cc  fdivd     %d6, %d12, %d12
    0x100004e0c:            06 40 00 0e  bl,pn     %icc, +0x38   <0x100004e44>
    0x100004e10:            b2 10 20 00  clr       %i1
    0x100004e14:            ae 10 00 16  mov       %l6, %l7
    0x100004e18:            90 10 00 14  mov       %l4, %o0
    0x100004e1c:            7f ff f5 05  call      -0x2bec       <0x100002230>
    0x100004e20:            d9 3b a8 b7  std       %d12, [%sp + 0x8b7]
    0x100004e24:            7f ff f4 65  call      -0x2e6c       <0x100001fb8>
    0x100004e28:            b2 06 60 01  add       %i1, 0x1, %i1
    0x100004e2c:            c1 3d e0 00  std       %d0, [%l7]
    0x100004e30:            80 a6 40 12  cmp       %i1, %l2
    0x100004e34:            ae 05 e0 08  add       %l7, 0x8, %l7
    0x100004e38:            d9 1b a8 b7  ldd       [%sp + 0x8b7], %d12
    0x100004e3c:            04 4f ff f8  ble,pt    %icc, -0x20   <0x100004e1c>
    0x100004e40:            90 10 00 14  mov       %l4, %o0
    0x100004e44:            80 a7 20 00  cmp       %i4, 0x0
    0x100004e48:            06 40 00 75  bl,pn     %icc, +0x1d4  <0x10000501c>
    0x100004e4c:            8a 10 20 00  clr       %g5
    0x100004e50:            9d a0 05 4c  fsqrtd    %d12, %d14
    0x100004e54:            88 10 00 1d  mov       %i5, %g4
    0x100004e58:            82 10 20 00  clr       %g1
    0x100004e5c:            80 a4 a0 00  cmp       %l2, 0x0
    0x100004e60:            d1 1c ec 78  ldd       [%l3 + 0xc78], %d8
    0x100004e64:            06 40 00 5e  bl,pn     %icc, +0x178  <0x100004fdc>
    0x100004e68:            b4 10 20 00  clr       %i2
    0x100004e6c:            9e 04 a0 01  add       %l2, 0x1, %o7
    0x100004e70:            80 a3 e0 0c  cmp       %o7, 0xc
    0x100004e74:            86 10 00 15  mov       %l5, %g3
    0x100004e78:            98 10 00 16  mov       %l6, %o4
    0x100004e7c:            06 40 00 4d  bl,pn     %icc, +0x134  <0x100004fb0>
    0x100004e80:            01 00 00 00  nop
    0x100004e84:            f2 5d 60 08  ldx       [%l5 + 0x8], %i1
    0x100004e88:            d2 5d 60 00  ldx       [%l5], %o1
    0x100004e8c:            d5 1d a0 08  ldd       [%l6 + 0x8], %d10
    0x100004e90:            fb 1e 40 01  ldd       [%i1 + %g1], %d60
    0x100004e94:            f9 1d a0 00  ldd       [%l6], %d28
    0x100004e98:            e1 1a 40 01  ldd       [%o1 + %g1], %d16
    0x100004e9c:            f0 5d 60 10  ldx       [%l5 + 0x10], %i0
    0x100004ea0:            d2 5d 60 18  ldx       [%l5 + 0x18], %o1
    0x100004ea4:            de 5d 60 20  ldx       [%l5 + 0x20], %o7
    0x100004ea8:            fd 1e 00 01  ldd       [%i0 + %g1], %d30
    0x100004eac:            f2 5d 60 28  ldx       [%l5 + 0x28], %i1
    0x100004eb0:            ff 1d a0 10  ldd       [%l6 + 0x10], %d62
    0x100004eb4:            c5 1d a0 18  ldd       [%l6 + 0x18], %d2
    0x100004eb8:            e5 1d a0 20  ldd       [%l6 + 0x20], %d18
    0x100004ebc:            ed 1a 40 01  ldd       [%o1 + %g1], %d22
    0x100004ec0:            f1 1b c0 01  ldd       [%o7 + %g1], %d24
    0x100004ec4:            d0 5d 60 30  ldx       [%l5 + 0x30], %o0
    0x100004ec8:            d6 5d 60 38  ldx       [%l5 + 0x38], %o3
    0x100004ecc:            a9 a7 49 4a  fmuld     %d60, %d10, %d20
    0x100004ed0:            95 a4 09 5c  fmuld     %d16, %d28, %d10
    0x100004ed4:            fb 1c ec 78  ldd       [%l3 + 0xc78], %d60
    0x100004ed8:            86 05 60 40  add       %l5, 0x40, %g3
    0x100004edc:            84 05 a0 30  add       %l6, 0x30, %g2
    0x100004ee0:            f5 1e 40 01  ldd       [%i1 + %g1], %d26
    0x100004ee4:            91 a2 08 54  faddd     %d8, %d20, %d8
    0x100004ee8:            b4 10 20 08  mov       0x8, %i2
    0x100004eec:            89 a7 89 5f  fmuld     %d30, %d62, %d4
    0x100004ef0:            b9 a7 48 4a  faddd     %d60, %d10, %d28
    0x100004ef4:            e9 1d a0 28  ldd       [%l6 + 0x28], %d20
    0x100004ef8:            98 24 a0 03  sub       %l2, 0x3, %o4
    0x100004efc:            b4 06 a0 04  add       %i2, 0x4, %i2
    0x100004f00:            84 00 a0 20  add       %g2, 0x20, %g2
    0x100004f04:            f2 58 e0 00  ldx       [%g3], %i1
    0x100004f08:            80 a6 80 0c  cmp       %i2, %o4
    0x100004f0c:            86 00 e0 20  add       %g3, 0x20, %g3
    0x100004f10:            ff 18 bf e0  ldd       [%g2 - 0x20], %d62
    0x100004f14:            ad a5 89 42  fmuld     %d22, %d2, %d22
    0x100004f18:            89 a7 08 44  faddd     %d28, %d4, %d4
    0x100004f1c:            e1 1a 00 01  ldd       [%o0 + %g1], %d16
    0x100004f20:            f0 58 ff e8  ldx       [%g3 - 0x18], %i0
    0x100004f24:            b1 a6 09 52  fmuld     %d24, %d18, %d24
    0x100004f28:            c5 18 bf e8  ldd       [%g2 - 0x18], %d2
    0x100004f2c:            91 a2 08 56  faddd     %d8, %d22, %d8
    0x100004f30:            ed 1a c0 01  ldd       [%o3 + %g1], %d22
    0x100004f34:            d0 58 ff f0  ldx       [%g3 - 0x10], %o0
    0x100004f38:            b5 a6 89 54  fmuld     %d26, %d20, %d26
    0x100004f3c:            e5 18 bf f0  ldd       [%g2 - 0x10], %d18
    0x100004f40:            b9 a1 08 58  faddd     %d4, %d24, %d28
    0x100004f44:            f1 1e 40 01  ldd       [%i1 + %g1], %d24
    0x100004f48:            d6 58 ff f8  ldx       [%g3 - 0x8], %o3
    0x100004f4c:            89 a4 09 5f  fmuld     %d16, %d62, %d4
    0x100004f50:            e9 18 bf f8  ldd       [%g2 - 0x8], %d20
    0x100004f54:            91 a2 08 5a  faddd     %d8, %d26, %d8
    0x100004f58:            04 4f ff e9  ble,pt    %icc, -0x5c   <0x100004efc>
    0x100004f5c:            f5 1e 00 01  ldd       [%i0 + %g1], %d26
    0x100004f60:            85 a5 89 42  fmuld     %d22, %d2, %d2
    0x100004f64:            ad a6 89 54  fmuld     %d26, %d20, %d22
    0x100004f68:            a1 a6 09 52  fmuld     %d24, %d18, %d16
    0x100004f6c:            95 a7 08 44  faddd     %d28, %d4, %d10
    0x100004f70:            c9 18 a0 00  ldd       [%g2], %d4
    0x100004f74:            fb 18 a0 08  ldd       [%g2 + 0x8], %d60
    0x100004f78:            bd a2 08 42  faddd     %d8, %d2, %d30
    0x100004f7c:            d1 1a 00 01  ldd       [%o0 + %g1], %d8
    0x100004f80:            ff 1a c0 01  ldd       [%o3 + %g1], %d62
    0x100004f84:            b5 a2 88 50  faddd     %d10, %d16, %d26
    0x100004f88:            a9 a2 09 44  fmuld     %d8, %d4, %d20
    0x100004f8c:            b1 a7 c9 5d  fmuld     %d62, %d60, %d24
    0x100004f90:            b9 a7 88 56  faddd     %d30, %d22, %d28
    0x100004f94:            80 a6 80 12  cmp       %i2, %l2
    0x100004f98:            98 00 a0 10  add       %g2, 0x10, %o4
    0x100004f9c:            a5 a6 88 54  faddd     %d26, %d20, %d18
    0x100004fa0:            85 a7 08 58  faddd     %d28, %d24, %d2
    0x100004fa4:            91 a4 88 42  faddd     %d18, %d2, %d8
    0x100004fa8:            14 40 00 0d  bg,pn     %icc, +0x34   <0x100004fdc>
    0x100004fac:            01 00 00 00  nop
    0x100004fb0:            f0 58 e0 00  ldx       [%g3], %i0
    0x100004fb4:            e1 1e 00 01  ldd       [%i0 + %g1], %d16
    0x100004fb8:            ff 1b 20 00  ldd       [%o4], %d62
    0x100004fbc:            b4 06 a0 01  add       %i2, 0x1, %i2
    0x100004fc0:            80 a6 80 12  cmp       %i2, %l2
    0x100004fc4:            b5 a4 09 5f  fmuld     %d16, %d62, %d26
    0x100004fc8:            86 00 e0 08  add       %g3, 0x8, %g3
    0x100004fcc:            98 03 20 08  add       %o4, 0x8, %o4
    0x100004fd0:            91 a2 08 5a  faddd     %d8, %d26, %d8
    0x100004fd4:            24 4f ff f8  ble,a,pt  %icc, -0x20   <0x100004fb4>
    0x100004fd8:            f0 58 e0 00  ldx       [%g3], %i0
    0x100004fdc:            e9 19 20 00  ldd       [%g4], %d20
    0x100004fe0:            bb a3 89 48  fmuld     %d14, %d8, %d60
    0x100004fe4:            da 5c 20 00  ldx       [%l0], %o5
    0x100004fe8:            95 a5 09 4c  fmuld     %d20, %d12, %d10
    0x100004fec:            8a 01 60 01  add       %g5, 0x1, %g5
    0x100004ff0:            92 03 40 01  add       %o5, %g1, %o1
    0x100004ff4:            ed 1a 60 08  ldd       [%o1 + 0x8], %d22
    0x100004ff8:            80 a1 40 1c  cmp       %g5, %i4
    0x100004ffc:            de 5c 20 08  ldx       [%l0 + 0x8], %o7
    0x100005000:            89 a7 48 4a  faddd     %d60, %d10, %d4
    0x100005004:            88 01 20 08  add       %g4, 0x8, %g4
    0x100005008:            b1 a1 08 56  faddd     %d4, %d22, %d24
    0x10000500c:            f1 3b c0 01  std       %d24, [%o7 + %g1]
    0x100005010:            82 00 60 08  add       %g1, 0x8, %g1
    0x100005014:            04 4f ff 93  ble,pt    %icc, -0x1b4  <0x100004e60>
    0x100005018:            80 a4 a0 00  cmp       %l2, 0x0
    0x10000501c:            b6 06 e0 01  add       %i3, 0x1, %i3
    0x100005020:            80 a6 c0 11  cmp       %i3, %l1
    0x100005024:            a0 04 20 08  add       %l0, 0x8, %l0
    0x100005028:            b8 07 3f ff  add       %i4, -0x1, %i4
    0x10000502c:            04 4f ff 78  ble,pt    %icc, -0x220  <0x100004e0c>
    0x100005030:            80 a4 a0 00  cmp       %l2, 0x0
    0x100005034:            94 10 00 12  mov       %l2, %o2
    0x100005038:            92 10 20 00  clr       %o1
    0x10000503c:            7f ff f7 c9  call      -0x20dc       <0x100002f60>
    0x100005040:            90 10 00 16  mov       %l6, %o0
    0x100005044:            81 c7 e0 08  ret
    0x100005048:            91 e8 20 01  restore   %g0, 0x1, %o0
    0x10000504c:            00 00 00 00  illtrap   0x0
    0x100005050:            00 00 00 00  illtrap   0x0
    0x100005054:            00 00 00 00  illtrap   0x0
    0x100005058:            3f f0 00 00  0x3ff00000
    0x10000505c:            00 00 00 00  illtrap   0x0
__1cQHJM_Correlations6Fppdii1_i_()
    0x100005060:            9d e3 bf 50  save      %sp, -0xb0, %sp
    0x100005064:            90 10 20 00  clr       %o0
    0x100005068:            bb 3e 60 00  sra       %i1, 0x0, %i5
    0x10000506c:            a2 07 7f fe  add       %i5, -0x2, %l1
    0x100005070:            a1 3e a0 00  sra       %i2, 0x0, %l0
    0x100005074:            2b 00 04 00  sethi     %hi(0x100000), %l5
    0x100005078:            a0 04 3f ff  add       %l0, -0x1, %l0
    0x10000507c:            a4 10 00 18  mov       %i0, %l2
    0x100005080:            7f ff f7 a6  call      -0x2168       <0x100002f18>
    0x100005084:            92 10 00 11  mov       %l1, %o1
    0x100005088:            a6 10 00 08  mov       %o0, %l3
    0x10000508c:            96 10 00 11  mov       %l1, %o3
    0x100005090:            94 10 20 00  clr       %o2
    0x100005094:            90 10 20 00  clr       %o0
    0x100005098:            7f ff f7 b8  call      -0x2120       <0x100002f78>
    0x10000509c:            92 10 00 10  mov       %l0, %o1
    0x1000050a0:            9e 15 60 05  or        %l5, 0x5, %o7
    0x1000050a4:            80 90 00 11  tst       %l1
    0x1000050a8:            95 2b f0 0c  sllx      %o7, 0xc, %o2
    0x1000050ac:            a8 10 00 08  mov       %o0, %l4
    0x1000050b0:            06 40 00 39  bl,pn     %icc, +0xe4   <0x100005194>
    0x1000050b4:            9e 02 a0 50  add       %o2, 0x50, %o7
    0x1000050b8:            84 10 20 00  clr       %g2
    0x1000050bc:            ac 10 00 13  mov       %l3, %l6
    0x1000050c0:            b4 10 20 00  clr       %i2
    0x1000050c4:            80 a4 20 00  cmp       %l0, 0x0
    0x1000050c8:            c1 1a a0 50  ldd       [%o2 + 0x50], %d0
    0x1000050cc:            06 40 00 1d  bl,pn     %icc, +0x74   <0x100005140>
    0x1000050d0:            b8 10 20 00  clr       %i4
    0x1000050d4:            b0 04 20 01  add       %l0, 0x1, %i0
    0x1000050d8:            80 a6 20 01  cmp       %i0, 0x1
    0x1000050dc:            ba 10 00 1b  mov       %i3, %i5
    0x1000050e0:            c0 75 a0 00  clrx      [%l6]
    0x1000050e4:            06 40 00 0d  bl,pn     %icc, +0x34   <0x100005118>
    0x1000050e8:            01 00 00 00  nop
    0x1000050ec:            b8 07 20 01  add       %i4, 0x1, %i4
    0x1000050f0:            d6 5f 60 00  ldx       [%i5], %o3
    0x1000050f4:            ba 07 60 08  add       %i5, 0x8, %i5
    0x1000050f8:            80 a7 00 10  cmp       %i4, %l0
    0x1000050fc:            fd 1a c0 1a  ldd       [%o3 + %i2], %d30
    0x100005100:            85 a7 89 5e  fmuld     %d30, %d30, %d2
    0x100005104:            81 a0 08 42  faddd     %d0, %d2, %d0
    0x100005108:            04 4f ff f9  ble,pt    %icc, -0x1c   <0x1000050ec>
    0x10000510c:            c1 3d a0 00  std       %d0, [%l6]
    0x100005110:            10 80 00 0c  ba        +0x30         <0x100005140>
    0x100005114:            01 00 00 00  nop
    0x100005118:            d6 5f 60 00  ldx       [%i5], %o3
    0x10000511c:            fd 1a c0 1a  ldd       [%o3 + %i2], %d30
    0x100005120:            b8 07 20 01  add       %i4, 0x1, %i4
    0x100005124:            80 a7 00 10  cmp       %i4, %l0
    0x100005128:            85 a7 89 5e  fmuld     %d30, %d30, %d2
    0x10000512c:            ba 07 60 08  add       %i5, 0x8, %i5
    0x100005130:            81 a0 08 42  faddd     %d0, %d2, %d0
    0x100005134:            c1 3d a0 00  std       %d0, [%l6]
    0x100005138:            24 4f ff f9  ble,a,pt  %icc, -0x1c   <0x10000511c>
    0x10000513c:            d6 5f 60 00  ldx       [%i5], %o3
    0x100005140:            b9 a0 05 40  fsqrtd    %d0, %d28
    0x100005144:            84 00 a0 01  add       %g2, 0x1, %g2
    0x100005148:            80 a0 80 11  cmp       %g2, %l1
    0x10000514c:            b4 06 a0 08  add       %i2, 0x8, %i2
    0x100005150:            f9 3d a0 00  std       %d28, [%l6]
    0x100005154:            ac 05 a0 08  add       %l6, 0x8, %l6
    0x100005158:            04 4f ff dc  ble,pt    %icc, -0x90   <0x1000050c8>
    0x10000515c:            80 a4 20 00  cmp       %l0, 0x0
    0x100005160:            85 3c 60 00  sra       %l1, 0x0, %g2
    0x100005164:            af 30 b0 3f  srlx      %g2, 0x3f, %l7
    0x100005168:            b5 3c 20 00  sra       %l0, 0x0, %i2
    0x10000516c:            b2 1d e0 01  xor       %l7, 0x1, %i1
    0x100005170:            ab 36 b0 3f  srlx      %i2, 0x3f, %l5
    0x100005174:            8a 0e 60 ff  and       %i1, 0xff, %g5
    0x100005178:            9a 1d 60 01  xor       %l5, 0x1, %o5
    0x10000517c:            98 0b 40 05  and       %o5, %g5, %o4
    0x100005180:            80 8b 20 ff  btst      0xff, %o4
    0x100005184:            02 40 00 3e  be,pn     %icc, +0xf8   <0x10000527c>
    0x100005188:            84 10 20 00  clr       %g2
    0x10000518c:            10 80 00 0e  ba        +0x38         <0x1000051c4>
    0x100005190:            9a 10 00 13  mov       %l3, %o5
    0x100005194:            9b 3c 60 00  sra       %l1, 0x0, %o5
    0x100005198:            99 33 70 3f  srlx      %o5, 0x3f, %o4
    0x10000519c:            95 3c 20 00  sra       %l0, 0x0, %o2
    0x1000051a0:            96 1b 20 01  xor       %o4, 0x1, %o3
    0x1000051a4:            93 32 b0 3f  srlx      %o2, 0x3f, %o1
    0x1000051a8:            8a 0a e0 ff  and       %o3, 0xff, %g5
    0x1000051ac:            90 1a 60 01  xor       %o1, 0x1, %o0
    0x1000051b0:            88 0a 00 05  and       %o0, %g5, %g4
    0x1000051b4:            80 89 20 ff  btst      0xff, %g4
    0x1000051b8:            02 40 00 4c  be,pn     %icc, +0x130  <0x1000052e8>
    0x1000051bc:            84 10 20 00  clr       %g2
    0x1000051c0:            9a 10 00 13  mov       %l3, %o5
    0x1000051c4:            98 10 20 00  clr       %o4
    0x1000051c8:            94 10 20 00  clr       %o2
    0x1000051cc:            b4 04 20 01  add       %l0, 0x1, %i2
    0x1000051d0:            80 a6 a0 01  cmp       %i2, 0x1
    0x1000051d4:            96 10 00 1b  mov       %i3, %o3
    0x1000051d8:            92 10 00 14  mov       %l4, %o1
    0x1000051dc:            06 40 00 11  bl,pn     %icc, +0x44   <0x100005220>
    0x1000051e0:            01 00 00 00  nop
    0x1000051e4:            c1 1b e0 08  ldd       [%o7 + 0x8], %d0
    0x1000051e8:            94 02 a0 01  add       %o2, 0x1, %o2
    0x1000051ec:            92 02 60 08  add       %o1, 0x8, %o1
    0x1000051f0:            c5 1b 60 00  ldd       [%o5], %d2
    0x1000051f4:            80 a2 80 10  cmp       %o2, %l0
    0x1000051f8:            96 02 e0 08  add       %o3, 0x8, %o3
    0x1000051fc:            8d a0 09 c2  fdivd     %d0, %d2, %d6
    0x100005200:            f8 5a ff f8  ldx       [%o3 - 0x8], %i4
    0x100005204:            c9 1f 00 0c  ldd       [%i4 + %o4], %d4
    0x100005208:            ee 5a 7f f8  ldx       [%o1 - 0x8], %l7
    0x10000520c:            91 a1 89 44  fmuld     %d6, %d4, %d8
    0x100005210:            04 4f ff f6  ble,pt    %icc, -0x28   <0x1000051e8>
    0x100005214:            d1 3d c0 0c  std       %d8, [%l7 + %o4]
    0x100005218:            10 80 00 10  ba        +0x40         <0x100005258>
    0x10000521c:            01 00 00 00  nop
    0x100005220:            e9 1b 60 00  ldd       [%o5], %d20
    0x100005224:            c1 1b e0 08  ldd       [%o7 + 0x8], %d0
    0x100005228:            d0 5a e0 00  ldx       [%o3], %o0
    0x10000522c:            c8 5a 60 00  ldx       [%o1], %g4
    0x100005230:            b1 a0 09 d4  fdivd     %d0, %d20, %d24
    0x100005234:            ed 1a 00 0c  ldd       [%o0 + %o4], %d22
    0x100005238:            94 02 a0 01  add       %o2, 0x1, %o2
    0x10000523c:            80 a2 80 10  cmp       %o2, %l0
    0x100005240:            b5 a6 09 56  fmuld     %d24, %d22, %d26
    0x100005244:            f5 39 00 0c  std       %d26, [%g4 + %o4]
    0x100005248:            92 02 60 08  add       %o1, 0x8, %o1
    0x10000524c:            96 02 e0 08  add       %o3, 0x8, %o3
    0x100005250:            24 4f ff f5  ble,a,pt  %icc, -0x2c   <0x100005224>
    0x100005254:            e9 1b 60 00  ldd       [%o5], %d20
    0x100005258:            84 00 a0 01  add       %g2, 0x1, %g2
    0x10000525c:            80 a0 80 11  cmp       %g2, %l1
    0x100005260:            98 03 20 08  add       %o4, 0x8, %o4
    0x100005264:            9a 03 60 08  add       %o5, 0x8, %o5
    0x100005268:            04 4f ff d9  ble,pt    %icc, -0x9c   <0x1000051cc>
    0x10000526c:            94 10 20 00  clr       %o2
    0x100005270:            80 a4 60 00  cmp       %l1, 0x0
    0x100005274:            06 40 00 1d  bl,pn     %icc, +0x74   <0x1000052e8>
    0x100005278:            84 10 20 00  clr       %g2
    0x10000527c:            ae 10 00 12  mov       %l2, %l7
    0x100005280:            b6 10 20 00  clr       %i3
    0x100005284:            86 04 60 01  add       %l1, 0x1, %g3
    0x100005288:            80 a0 e0 01  cmp       %g3, 0x1
    0x10000528c:            aa 10 20 00  clr       %l5
    0x100005290:            06 40 00 0a  bl,pn     %icc, +0x28   <0x1000052b8>
    0x100005294:            01 00 00 00  nop
    0x100005298:            b6 06 e0 01  add       %i3, 0x1, %i3
    0x10000529c:            fa 5d e0 00  ldx       [%l7], %i5
    0x1000052a0:            80 a6 c0 11  cmp       %i3, %l1
    0x1000052a4:            c0 77 40 15  clrx      [%i5 + %l5]
    0x1000052a8:            04 4f ff fc  ble,pt    %icc, -0x10   <0x100005298>
    0x1000052ac:            aa 05 60 08  add       %l5, 0x8, %l5
    0x1000052b0:            10 80 00 09  ba        +0x24         <0x1000052d4>
    0x1000052b4:            01 00 00 00  nop
    0x1000052b8:            b6 06 e0 01  add       %i3, 0x1, %i3
    0x1000052bc:            fa 5d e0 00  ldx       [%l7], %i5
    0x1000052c0:            80 a6 c0 11  cmp       %i3, %l1
    0x1000052c4:            c0 77 40 15  clrx      [%i5 + %l5]
    0x1000052c8:            aa 05 60 08  add       %l5, 0x8, %l5
    0x1000052cc:            04 4f ff fc  ble,pt    %icc, -0x10   <0x1000052bc>
    0x1000052d0:            b6 06 e0 01  add       %i3, 0x1, %i3
    0x1000052d4:            84 00 a0 01  add       %g2, 0x1, %g2
    0x1000052d8:            80 a0 80 11  cmp       %g2, %l1
    0x1000052dc:            ae 05 e0 08  add       %l7, 0x8, %l7
    0x1000052e0:            04 4f ff e9  ble,pt    %icc, -0x5c   <0x100005284>
    0x1000052e4:            b6 10 20 00  clr       %i3
    0x1000052e8:            b7 3c 20 00  sra       %l0, 0x0, %i3
    0x1000052ec:            83 36 f0 3f  srlx      %i3, 0x3f, %g1
    0x1000052f0:            b0 18 60 01  xor       %g1, 0x1, %i0
    0x1000052f4:            86 0e 00 05  and       %i0, %g5, %g3
    0x1000052f8:            80 88 e0 ff  btst      0xff, %g3
    0x1000052fc:            02 40 00 33  be,pn     %icc, +0xcc   <0x1000053c8>
    0x100005300:            9e 10 20 00  clr       %o7
    0x100005304:            8a 10 20 00  clr       %g5
    0x100005308:            80 a3 c0 11  cmp       %o7, %l1
    0x10000530c:            14 40 00 29  bg,pn     %icc, +0xa4   <0x1000053b0>
    0x100005310:            94 10 00 0f  mov       %o7, %o2
    0x100005314:            b2 10 00 05  mov       %g5, %i1
    0x100005318:            82 10 20 00  clr       %g1
    0x10000531c:            ac 04 20 01  add       %l0, 0x1, %l6
    0x100005320:            80 a5 a0 01  cmp       %l6, 0x1
    0x100005324:            88 10 00 14  mov       %l4, %g4
    0x100005328:            06 40 00 10  bl,pn     %icc, +0x40   <0x100005368>
    0x10000532c:            01 00 00 00  nop
    0x100005330:            82 00 60 01  add       %g1, 0x1, %g1
    0x100005334:            ec 59 20 00  ldx       [%g4], %l6
    0x100005338:            88 01 20 08  add       %g4, 0x8, %g4
    0x10000533c:            80 a0 40 10  cmp       %g1, %l0
    0x100005340:            d9 1d 80 05  ldd       [%l6 + %g5], %d12
    0x100005344:            d5 1d 80 19  ldd       [%l6 + %i1], %d10
    0x100005348:            9d a3 09 4a  fmuld     %d12, %d10, %d14
    0x10000534c:            f8 5c a0 00  ldx       [%l2], %i4
    0x100005350:            e1 1f 00 19  ldd       [%i4 + %i1], %d16
    0x100005354:            a5 a4 08 4e  faddd     %d16, %d14, %d18
    0x100005358:            04 4f ff f6  ble,pt    %icc, -0x28   <0x100005330>
    0x10000535c:            e5 3f 00 19  std       %d18, [%i4 + %i1]
    0x100005360:            10 80 00 0f  ba        +0x3c         <0x10000539c>
    0x100005364:            01 00 00 00  nop
    0x100005368:            ec 59 20 00  ldx       [%g4], %l6
    0x10000536c:            d5 1d 80 19  ldd       [%l6 + %i1], %d10
    0x100005370:            d9 1d 80 05  ldd       [%l6 + %g5], %d12
    0x100005374:            f8 5c a0 00  ldx       [%l2], %i4
    0x100005378:            82 00 60 01  add       %g1, 0x1, %g1
    0x10000537c:            9d a3 09 4a  fmuld     %d12, %d10, %d14
    0x100005380:            e1 1f 00 19  ldd       [%i4 + %i1], %d16
    0x100005384:            80 a0 40 10  cmp       %g1, %l0
    0x100005388:            88 01 20 08  add       %g4, 0x8, %g4
    0x10000538c:            a5 a4 08 4e  faddd     %d16, %d14, %d18
    0x100005390:            e5 3f 00 19  std       %d18, [%i4 + %i1]
    0x100005394:            24 4f ff f6  ble,a,pt  %icc, -0x28   <0x10000536c>
    0x100005398:            ec 59 20 00  ldx       [%g4], %l6
    0x10000539c:            94 02 a0 01  add       %o2, 0x1, %o2
    0x1000053a0:            80 a2 80 11  cmp       %o2, %l1
    0x1000053a4:            b2 06 60 08  add       %i1, 0x8, %i1
    0x1000053a8:            04 4f ff dd  ble,pt    %icc, -0x8c   <0x10000531c>
    0x1000053ac:            82 10 20 00  clr       %g1
    0x1000053b0:            9e 03 e0 01  add       %o7, 0x1, %o7
    0x1000053b4:            80 a3 c0 11  cmp       %o7, %l1
    0x1000053b8:            8a 01 60 08  add       %g5, 0x8, %g5
    0x1000053bc:            a4 04 a0 08  add       %l2, 0x8, %l2
    0x1000053c0:            04 4f ff d3  ble,pt    %icc, -0xb4   <0x10000530c>
    0x1000053c4:            01 00 00 00  nop
    0x1000053c8:            94 10 00 11  mov       %l1, %o2
    0x1000053cc:            90 10 00 13  mov       %l3, %o0
    0x1000053d0:            7f ff f6 e4  call      -0x2470       <0x100002f60>
    0x1000053d4:            92 10 20 00  clr       %o1
    0x1000053d8:            98 10 00 11  mov       %l1, %o4
    0x1000053dc:            94 10 00 10  mov       %l0, %o2
    0x1000053e0:            96 10 20 00  clr       %o3
    0x1000053e4:            92 10 20 00  clr       %o1
    0x1000053e8:            7f ff f7 38  call      -0x2320       <0x1000030c8>
    0x1000053ec:            90 10 00 14  mov       %l4, %o0
    0x1000053f0:            81 c7 e0 08  ret
    0x1000053f4:            91 e8 20 01  restore   %g0, 0x1, %o0
    0x1000053f8:            00 00 00 01  illtrap   0x1
    0x1000053fc:            00 00 00 02  illtrap   0x2
    0x100005400:            3f f0 00 00  0x3ff00000
    0x100005404:            00 00 00 00  illtrap   0x0
    0x100005408:            40 00 00 00  call      +0x0          <0x100005408>
    0x10000540c:            00 00 00 00  illtrap   0x0
    0x100005410:            00 00 00 00  illtrap   0x0
    0x100005414:            00 00 00 00  illtrap   0x0
    0x100005418:            00 00 00 00  illtrap   0x0
    0x10000541c:            00 00 00 00  illtrap   0x0
    0x100005420:            00 00 00 00  illtrap   0x0
    0x100005424:            00 00 00 00  illtrap   0x0
__1cUHJM_Forward_to_Yield6Fpdi0_i_()
    0x100005428:            8a 02 7f ff  add       %o1, -0x1, %g5
    0x10000542c:            e9 1a a0 00  ldd       [%o2], %d20
    0x100005430:            80 a1 60 01  cmp       %g5, 0x1
    0x100005434:            06 40 00 cf  bl,pn     %icc, +0x33c  <0x100005770>
    0x100005438:            e9 3a 20 00  std       %d20, [%o0]
    0x10000543c:            1b 00 04 00  sethi     %hi(0x100000), %o5
    0x100005440:            92 13 60 05  or        %o5, 0x5, %o1
    0x100005444:            80 a1 60 04  cmp       %g5, 0x4
    0x100005448:            9a 02 a0 08  add       %o2, 0x8, %o5
    0x10000544c:            06 40 00 10  bl,pn     %icc, +0x40   <0x10000548c>
    0x100005450:            93 2a 70 0c  sllx      %o1, 0xc, %o1
    0x100005454:            85 39 60 00  sra       %g5, 0x0, %g2
    0x100005458:            89 28 b0 03  sllx      %g2, 0x3, %g4
    0x10000545c:            82 01 20 08  add       %g4, 0x8, %g1
    0x100005460:            86 23 40 08  sub       %o5, %o0, %g3
    0x100005464:            96 10 20 00  clr       %o3
    0x100005468:            80 a0 c0 01  cmp       %g3, %g1
    0x10000546c:            97 66 f0 01  movge     %xcc, 0x1, %o3
    0x100005470:            98 22 00 0d  sub       %o0, %o5, %o4
    0x100005474:            94 10 20 00  clr       %o2
    0x100005478:            80 a3 00 04  cmp       %o4, %g4
    0x10000547c:            95 66 f0 01  movge     %xcc, 0x1, %o2
    0x100005480:            80 92 80 0b  orcc      %o2, %o3, %g0
    0x100005484:            12 48 00 60  bne,pt    %icc, +0x180  <0x100005604>
    0x100005488:            03 00 04 00  sethi     %hi(0x100000), %g1
    0x10000548c:            05 00 04 00  sethi     %hi(0x100000), %g2
    0x100005490:            82 10 a0 05  or        %g2, 0x5, %g1
    0x100005494:            e9 1a 64 00  ldd       [%o1 + 0x400], %d20
    0x100005498:            87 28 70 0c  sllx      %g1, 0xc, %g3
    0x10000549c:            80 a1 60 06  cmp       %g5, 0x6
    0x1000054a0:            fd 1a 20 00  ldd       [%o0], %d30
    0x1000054a4:            84 10 20 01  mov       0x1, %g2
    0x1000054a8:            f1 18 e4 08  ldd       [%g3 + 0x408], %d24
    0x1000054ac:            90 02 20 08  add       %o0, 0x8, %o0
    0x1000054b0:            a5 a0 00 54  fmovd     %d20, %d18
    0x1000054b4:            06 40 00 43  bl,pn     %icc, +0x10c  <0x1000055c0>
    0x1000054b8:            01 00 00 00  nop
    0x1000054bc:            c1 1a 64 00  ldd       [%o1 + 0x400], %d0
    0x1000054c0:            c9 1b 60 00  ldd       [%o5], %d4
    0x1000054c4:            88 03 60 08  add       %o5, 0x8, %g4
    0x1000054c8:            9d a0 09 d8  fdivd     %d0, %d24, %d14
    0x1000054cc:            86 02 20 08  add       %o0, 0x8, %g3
    0x1000054d0:            84 10 20 03  mov       0x3, %g2
    0x1000054d4:            9a 21 60 03  sub       %g5, 0x3, %o5
    0x1000054d8:            99 a5 09 5e  fmuld     %d20, %d30, %d12
    0x1000054dc:            a1 a6 08 54  faddd     %d24, %d20, %d16
    0x1000054e0:            ad a5 08 54  faddd     %d20, %d20, %d22
    0x1000054e4:            b1 a3 08 44  faddd     %d12, %d4, %d24
    0x1000054e8:            99 a0 09 d0  fdivd     %d0, %d16, %d12
    0x1000054ec:            9d a3 89 58  fmuld     %d14, %d24, %d14
    0x1000054f0:            dd 3a 20 00  std       %d14, [%o0]
    0x1000054f4:            c1 69 20 90  prefetch  [%g4 + 0x90], #n_reads
    0x1000054f8:            ed 68 e0 90  prefetch  [%g3 + 0x90], #n_writes_strong
    0x1000054fc:            84 00 a0 04  add       %g2, 0x4, %g2
    0x100005500:            88 01 20 20  add       %g4, 0x20, %g4
    0x100005504:            80 a0 80 0d  cmp       %g2, %o5
    0x100005508:            86 00 e0 20  add       %g3, 0x20, %g3
    0x10000550c:            cd 19 3f e0  ldd       [%g4 - 0x20], %d6
    0x100005510:            85 a5 89 4e  fmuld     %d22, %d14, %d2
    0x100005514:            95 a4 08 54  faddd     %d16, %d20, %d10
    0x100005518:            a1 a0 88 46  faddd     %d2, %d6, %d16
    0x10000551c:            a5 a0 09 ca  fdivd     %d0, %d10, %d18
    0x100005520:            91 a3 09 50  fmuld     %d12, %d16, %d8
    0x100005524:            d1 38 ff e0  std       %d8, [%g3 - 0x20]
    0x100005528:            ad a5 88 54  faddd     %d22, %d20, %d22
    0x10000552c:            f5 19 3f e8  ldd       [%g4 - 0x18], %d26
    0x100005530:            b9 a5 89 48  fmuld     %d22, %d8, %d28
    0x100005534:            99 a2 88 54  faddd     %d10, %d20, %d12
    0x100005538:            bd a7 08 5a  faddd     %d28, %d26, %d30
    0x10000553c:            a1 a0 09 cc  fdivd     %d0, %d12, %d16
    0x100005540:            89 a4 89 5e  fmuld     %d18, %d30, %d4
    0x100005544:            c9 38 ff e8  std       %d4, [%g3 - 0x18]
    0x100005548:            91 a5 88 54  faddd     %d22, %d20, %d8
    0x10000554c:            dd 19 3f f0  ldd       [%g4 - 0x10], %d14
    0x100005550:            8d a2 09 44  fmuld     %d8, %d4, %d6
    0x100005554:            b1 a3 08 54  faddd     %d12, %d20, %d24
    0x100005558:            85 a1 88 4e  faddd     %d6, %d14, %d2
    0x10000555c:            a5 a0 09 d8  fdivd     %d0, %d24, %d18
    0x100005560:            95 a4 09 42  fmuld     %d16, %d2, %d10
    0x100005564:            d5 38 ff f0  std       %d10, [%g3 - 0x10]
    0x100005568:            ad a2 08 54  faddd     %d8, %d20, %d22
    0x10000556c:            f5 19 3f f8  ldd       [%g4 - 0x8], %d26
    0x100005570:            b9 a5 89 4a  fmuld     %d22, %d10, %d28
    0x100005574:            a1 a6 08 54  faddd     %d24, %d20, %d16
    0x100005578:            bd a7 08 5a  faddd     %d28, %d26, %d30
    0x10000557c:            99 a0 09 d0  fdivd     %d0, %d16, %d12
    0x100005580:            9d a4 89 5e  fmuld     %d18, %d30, %d14
    0x100005584:            dd 38 ff f8  std       %d14, [%g3 - 0x8]
    0x100005588:            04 4f ff db  ble,pt    %icc, -0x94   <0x1000054f4>
    0x10000558c:            ad a5 88 54  faddd     %d22, %d20, %d22
    0x100005590:            95 a5 89 4e  fmuld     %d22, %d14, %d10
    0x100005594:            c1 19 20 00  ldd       [%g4], %d0
    0x100005598:            a5 a5 88 54  faddd     %d22, %d20, %d18
    0x10000559c:            80 a0 80 05  cmp       %g2, %g5
    0x1000055a0:            b1 a4 08 54  faddd     %d16, %d20, %d24
    0x1000055a4:            9a 01 20 08  add       %g4, 0x8, %o5
    0x1000055a8:            bd a2 88 40  faddd     %d10, %d0, %d30
    0x1000055ac:            90 00 e0 08  add       %g3, 0x8, %o0
    0x1000055b0:            bd a3 09 5e  fmuld     %d12, %d30, %d30
    0x1000055b4:            fd 38 e0 00  std       %d30, [%g3]
    0x1000055b8:            14 40 00 11  bg,pn     %icc, +0x44   <0x1000055fc>
    0x1000055bc:            01 00 00 00  nop
    0x1000055c0:            c1 1a 64 00  ldd       [%o1 + 0x400], %d0
    0x1000055c4:            b5 a0 09 d8  fdivd     %d0, %d24, %d26
    0x1000055c8:            a1 a4 89 5e  fmuld     %d18, %d30, %d16
    0x1000055cc:            d5 1b 60 00  ldd       [%o5], %d10
    0x1000055d0:            84 00 a0 01  add       %g2, 0x1, %g2
    0x1000055d4:            a5 a4 88 54  faddd     %d18, %d20, %d18
    0x1000055d8:            b1 a6 08 54  faddd     %d24, %d20, %d24
    0x1000055dc:            80 a0 80 05  cmp       %g2, %g5
    0x1000055e0:            b9 a4 08 4a  faddd     %d16, %d10, %d28
    0x1000055e4:            9a 03 60 08  add       %o5, 0x8, %o5
    0x1000055e8:            bd a6 89 5c  fmuld     %d26, %d28, %d30
    0x1000055ec:            fd 3a 20 00  std       %d30, [%o0]
    0x1000055f0:            90 02 20 08  add       %o0, 0x8, %o0
    0x1000055f4:            24 4f ff f4  ble,a,pt  %icc, -0x30   <0x1000055c4>
    0x1000055f8:            c1 1a 64 00  ldd       [%o1 + 0x400], %d0
    0x1000055fc:            81 c3 e0 08  retl
    0x100005600:            90 10 20 01  mov       0x1, %o0
    0x100005604:            98 10 60 05  or        %g1, 0x5, %o4
    0x100005608:            d5 1a 64 00  ldd       [%o1 + 0x400], %d10
    0x10000560c:            97 2b 30 0c  sllx      %o4, 0xc, %o3
    0x100005610:            80 a1 60 06  cmp       %g5, 0x6
    0x100005614:            cd 1a e4 08  ldd       [%o3 + 0x408], %d6
    0x100005618:            96 10 20 01  mov       0x1, %o3
    0x10000561c:            c5 1a 20 00  ldd       [%o0], %d2
    0x100005620:            94 02 20 08  add       %o0, 0x8, %o2
    0x100005624:            91 a0 00 4a  fmovd     %d10, %d8
    0x100005628:            06 40 00 43  bl,pn     %icc, +0x10c  <0x100005734>
    0x10000562c:            01 00 00 00  nop
    0x100005630:            c1 1a 64 00  ldd       [%o1 + 0x400], %d0
    0x100005634:            f9 1b 60 00  ldd       [%o5], %d28
    0x100005638:            94 02 a0 08  add       %o2, 0x8, %o2
    0x10000563c:            99 a0 09 c6  fdivd     %d0, %d6, %d12
    0x100005640:            90 03 60 08  add       %o5, 0x8, %o0
    0x100005644:            96 10 20 03  mov       0x3, %o3
    0x100005648:            98 21 60 03  sub       %g5, 0x3, %o4
    0x10000564c:            bd a2 89 42  fmuld     %d10, %d2, %d30
    0x100005650:            8d a1 88 4a  faddd     %d6, %d10, %d6
    0x100005654:            91 a2 88 4a  faddd     %d10, %d10, %d8
    0x100005658:            89 a7 88 5c  faddd     %d30, %d28, %d4
    0x10000565c:            85 a0 09 c6  fdivd     %d0, %d6, %d2
    0x100005660:            89 a3 09 44  fmuld     %d12, %d4, %d4
    0x100005664:            c9 3a bf f8  std       %d4, [%o2 - 0x8]
    0x100005668:            c1 6a 20 90  prefetch  [%o0 + 0x90], #n_reads
    0x10000566c:            ed 6a a0 90  prefetch  [%o2 + 0x90], #n_writes_strong
    0x100005670:            96 02 e0 04  add       %o3, 0x4, %o3
    0x100005674:            90 02 20 20  add       %o0, 0x20, %o0
    0x100005678:            80 a2 c0 0c  cmp       %o3, %o4
    0x10000567c:            94 02 a0 20  add       %o2, 0x20, %o2
    0x100005680:            dd 1a 3f e0  ldd       [%o0 - 0x20], %d14
    0x100005684:            a1 a2 09 44  fmuld     %d8, %d4, %d16
    0x100005688:            a9 a1 88 4a  faddd     %d6, %d10, %d20
    0x10000568c:            8d a4 08 4e  faddd     %d16, %d14, %d6
    0x100005690:            a5 a0 09 d4  fdivd     %d0, %d20, %d18
    0x100005694:            85 a0 89 46  fmuld     %d2, %d6, %d2
    0x100005698:            c5 3a bf e0  std       %d2, [%o2 - 0x20]
    0x10000569c:            ad a2 08 4a  faddd     %d8, %d10, %d22
    0x1000056a0:            d1 1a 3f e8  ldd       [%o0 - 0x18], %d8
    0x1000056a4:            b5 a5 89 42  fmuld     %d22, %d2, %d26
    0x1000056a8:            b1 a5 08 4a  faddd     %d20, %d10, %d24
    0x1000056ac:            b9 a6 88 48  faddd     %d26, %d8, %d28
    0x1000056b0:            a1 a0 09 d8  fdivd     %d0, %d24, %d16
    0x1000056b4:            bd a4 89 5c  fmuld     %d18, %d28, %d30
    0x1000056b8:            fd 3a bf e8  std       %d30, [%o2 - 0x18]
    0x1000056bc:            8d a5 88 4a  faddd     %d22, %d10, %d6
    0x1000056c0:            c9 1a 3f f0  ldd       [%o0 - 0x10], %d4
    0x1000056c4:            99 a1 89 5e  fmuld     %d6, %d30, %d12
    0x1000056c8:            a9 a6 08 4a  faddd     %d24, %d10, %d20
    0x1000056cc:            9d a3 08 44  faddd     %d12, %d4, %d14
    0x1000056d0:            a5 a0 09 d4  fdivd     %d0, %d20, %d18
    0x1000056d4:            85 a4 09 4e  fmuld     %d16, %d14, %d2
    0x1000056d8:            c5 3a bf f0  std       %d2, [%o2 - 0x10]
    0x1000056dc:            ad a1 88 4a  faddd     %d6, %d10, %d22
    0x1000056e0:            d1 1a 3f f8  ldd       [%o0 - 0x8], %d8
    0x1000056e4:            b5 a5 89 42  fmuld     %d22, %d2, %d26
    0x1000056e8:            8d a5 08 4a  faddd     %d20, %d10, %d6
    0x1000056ec:            b9 a6 88 48  faddd     %d26, %d8, %d28
    0x1000056f0:            85 a0 09 c6  fdivd     %d0, %d6, %d2
    0x1000056f4:            89 a4 89 5c  fmuld     %d18, %d28, %d4
    0x1000056f8:            c9 3a bf f8  std       %d4, [%o2 - 0x8]
    0x1000056fc:            04 4f ff db  ble,pt    %icc, -0x94   <0x100005668>
    0x100005700:            91 a5 88 4a  faddd     %d22, %d10, %d8
    0x100005704:            b1 a2 09 44  fmuld     %d8, %d4, %d24
    0x100005708:            e5 1a 20 00  ldd       [%o0], %d18
    0x10000570c:            94 02 a0 08  add       %o2, 0x8, %o2
    0x100005710:            91 a2 08 4a  faddd     %d8, %d10, %d8
    0x100005714:            8d a1 88 4a  faddd     %d6, %d10, %d6
    0x100005718:            80 a2 c0 05  cmp       %o3, %g5
    0x10000571c:            b5 a6 08 52  faddd     %d24, %d18, %d26
    0x100005720:            9a 02 20 08  add       %o0, 0x8, %o5
    0x100005724:            85 a0 89 5a  fmuld     %d2, %d26, %d2
    0x100005728:            c5 3a bf f8  std       %d2, [%o2 - 0x8]
    0x10000572c:            14 40 00 11  bg,pn     %icc, +0x44   <0x100005770>
    0x100005730:            01 00 00 00  nop
    0x100005734:            c1 1a 64 00  ldd       [%o1 + 0x400], %d0
    0x100005738:            9d a0 09 c6  fdivd     %d0, %d6, %d14
    0x10000573c:            81 a2 09 42  fmuld     %d8, %d2, %d0
    0x100005740:            c9 1b 60 00  ldd       [%o5], %d4
    0x100005744:            96 02 e0 01  add       %o3, 0x1, %o3
    0x100005748:            91 a2 08 4a  faddd     %d8, %d10, %d8
    0x10000574c:            8d a1 88 4a  faddd     %d6, %d10, %d6
    0x100005750:            80 a2 c0 05  cmp       %o3, %g5
    0x100005754:            99 a0 08 44  faddd     %d0, %d4, %d12
    0x100005758:            9a 03 60 08  add       %o5, 0x8, %o5
    0x10000575c:            85 a3 89 4c  fmuld     %d14, %d12, %d2
    0x100005760:            c5 3a a0 00  std       %d2, [%o2]
    0x100005764:            94 02 a0 08  add       %o2, 0x8, %o2
    0x100005768:            24 4f ff f4  ble,a,pt  %icc, -0x30   <0x100005738>
    0x10000576c:            c1 1a 64 00  ldd       [%o1 + 0x400], %d0
    0x100005770:            81 c3 e0 08  retl
    0x100005774:            90 10 20 01  mov       0x1, %o0
    0x100005778:            3f f0 00 00  0x3ff00000
    0x10000577c:            00 00 00 00  illtrap   0x0
    0x100005780:            00 00 00 00  illtrap   0x0
    0x100005784:            00 00 00 00  illtrap   0x0
    0x100005788:            00 00 00 00  illtrap   0x0
    0x10000578c:            00 00 00 00  illtrap   0x0
    0x100005790:            00 00 00 00  illtrap   0x0
    0x100005794:            00 00 00 00  illtrap   0x0
__1cQDiscount_Factors6Fpdid0_i_()
    0x100005798:            9d e3 bf 40  save      %sp, -0xc0, %sp
    0x10000579c:            b8 86 7f ff  addcc     %i1, -0x1, %i4
    0x1000057a0:            0c 40 00 63  bneg,pn   %icc, +0x18c  <0x10000592c>
    0x1000057a4:            2d 00 04 00  sethi     %hi(0x100000), %l6
    0x1000057a8:            aa 15 a0 05  or        %l6, 0x5, %l5
    0x1000057ac:            a9 2d 70 0c  sllx      %l5, 0xc, %l4
    0x1000057b0:            80 a6 60 04  cmp       %i1, 0x4
    0x1000057b4:            ae 10 00 18  mov       %i0, %l7
    0x1000057b8:            ba 10 20 00  clr       %i5
    0x1000057bc:            c5 1d 27 78  ldd       [%l4 + 0x778], %d2
    0x1000057c0:            06 40 00 0f  bl,pn     %icc, +0x3c   <0x1000057fc>
    0x1000057c4:            01 00 00 00  nop
    0x1000057c8:            b4 06 7f fc  add       %i1, -0x4, %i2
    0x1000057cc:            ed 6d e1 10  prefetch  [%l7 + 0x110], #n_writes_strong
    0x1000057d0:            c5 3d e0 00  std       %d2, [%l7]
    0x1000057d4:            ba 07 60 04  add       %i5, 0x4, %i5
    0x1000057d8:            ae 05 e0 20  add       %l7, 0x20, %l7
    0x1000057dc:            c5 3d ff e8  std       %d2, [%l7 - 0x18]
    0x1000057e0:            80 a7 40 1a  cmp       %i5, %i2
    0x1000057e4:            c5 3d ff f0  std       %d2, [%l7 - 0x10]
    0x1000057e8:            04 4f ff f9  ble,pt    %icc, -0x1c   <0x1000057cc>
    0x1000057ec:            c5 3d ff f8  std       %d2, [%l7 - 0x8]
    0x1000057f0:            80 a7 40 1c  cmp       %i5, %i4
    0x1000057f4:            14 40 00 08  bg,pn     %icc, +0x20   <0x100005814>
    0x1000057f8:            01 00 00 00  nop
    0x1000057fc:            ba 07 60 01  add       %i5, 0x1, %i5
    0x100005800:            80 a7 40 1c  cmp       %i5, %i4
    0x100005804:            c5 3d e0 00  std       %d2, [%l7]
    0x100005808:            ae 05 e0 08  add       %l7, 0x8, %l7
    0x10000580c:            04 4f ff fd  ble,pt    %icc, -0xc    <0x100005800>
    0x100005810:            ba 07 60 01  add       %i5, 0x1, %i5
    0x100005814:            80 a7 20 01  cmp       %i4, 0x1
    0x100005818:            06 40 00 45  bl,pn     %icc, +0x114  <0x10000592c>
    0x10000581c:            a6 26 c0 18  sub       %i3, %i0, %l3
    0x100005820:            f2 23 a8 b7  st        %i1, [%sp + 0x8b7]
    0x100005824:            c1 03 a8 b7  ld        [%sp + 0x8b7], %f0
    0x100005828:            b2 26 00 1b  sub       %i0, %i3, %i1
    0x10000582c:            a2 06 60 08  add       %i1, 0x8, %l1
    0x100005830:            ba 04 ff f8  add       %l3, -0x8, %i5
    0x100005834:            aa 06 20 08  add       %i0, 0x8, %l5
    0x100005838:            a4 10 20 01  mov       0x1, %l2
    0x10000583c:            a0 10 20 08  mov       0x8, %l0
    0x100005840:            a8 10 20 00  clr       %l4
    0x100005844:            85 a0 19 00  fitod     %f0, %d2
    0x100005848:            a5 a1 09 c2  fdivd     %d4, %d2, %d18
    0x10000584c:            80 a5 20 03  cmp       %l4, 0x3
    0x100005850:            06 40 00 1d  bl,pn     %icc, +0x74   <0x1000058c4>
    0x100005854:            80 a4 40 10  cmp       %l1, %l0
    0x100005858:            9a 10 20 00  clr       %o5
    0x10000585c:            9b 66 f0 01  movge     %xcc, 0x1, %o5
    0x100005860:            9e 10 20 00  clr       %o7
    0x100005864:            80 a7 60 08  cmp       %i5, 0x8
    0x100005868:            9f 66 f0 01  movge     %xcc, 0x1, %o7
    0x10000586c:            80 93 40 0f  orcc      %o5, %o7, %g0
    0x100005870:            02 40 00 15  be,pn     %icc, +0x54   <0x1000058c4>
    0x100005874:            ae 10 20 00  clr       %l7
    0x100005878:            dd 1d 60 00  ldd       [%l5], %d14
    0x10000587c:            d5 1e e0 00  ldd       [%i3], %d10
    0x100005880:            b0 10 00 1b  mov       %i3, %i0
    0x100005884:            e5 3b a8 af  std       %d18, [%sp + 0x8af]
    0x100005888:            99 a2 89 52  fmuld     %d10, %d18, %d12
    0x10000588c:            dd 3b a8 b7  std       %d14, [%sp + 0x8b7]
    0x100005890:            40 00 09 14  call      +0x2450       <0x100007ce0>
    0x100005894:            81 a0 00 cc  fnegd     %d12, %d0
    0x100005898:            dd 1b a8 b7  ldd       [%sp + 0x8b7], %d14
    0x10000589c:            ae 05 e0 01  add       %l7, 0x1, %l7
    0x1000058a0:            80 a5 c0 14  cmp       %l7, %l4
    0x1000058a4:            e5 1b a8 af  ldd       [%sp + 0x8af], %d18
    0x1000058a8:            b0 06 20 08  add       %i0, 0x8, %i0
    0x1000058ac:            9d a3 89 40  fmuld     %d14, %d0, %d14
    0x1000058b0:            24 4f ff f5  ble,a,pt  %icc, -0x2c   <0x100005884>
    0x1000058b4:            d5 1e 20 00  ldd       [%i0], %d10
    0x1000058b8:            dd 3d 60 00  std       %d14, [%l5]
    0x1000058bc:            10 80 00 15  ba        +0x54         <0x100005910>
    0x1000058c0:            a4 04 a0 01  add       %l2, 0x1, %l2
    0x1000058c4:            e1 1d 60 00  ldd       [%l5], %d16
    0x1000058c8:            b4 10 20 00  clr       %i2
    0x1000058cc:            cd 1e e0 00  ldd       [%i3], %d6
    0x1000058d0:            ac 10 00 1b  mov       %i3, %l6
    0x1000058d4:            e5 3b a8 af  std       %d18, [%sp + 0x8af]
    0x1000058d8:            e1 3b a8 b7  std       %d16, [%sp + 0x8b7]
    0x1000058dc:            91 a1 89 52  fmuld     %d6, %d18, %d8
    0x1000058e0:            40 00 09 00  call      +0x2400       <0x100007ce0>
    0x1000058e4:            81 a0 00 c8  fnegd     %d8, %d0
    0x1000058e8:            e1 1b a8 b7  ldd       [%sp + 0x8b7], %d16
    0x1000058ec:            b4 06 a0 01  add       %i2, 0x1, %i2
    0x1000058f0:            e5 1b a8 af  ldd       [%sp + 0x8af], %d18
    0x1000058f4:            80 a6 80 14  cmp       %i2, %l4
    0x1000058f8:            ac 05 a0 08  add       %l6, 0x8, %l6
    0x1000058fc:            a1 a4 09 40  fmuld     %d16, %d0, %d16
    0x100005900:            e1 3d 60 00  std       %d16, [%l5]
    0x100005904:            24 4f ff f4  ble,a,pt  %icc, -0x30   <0x1000058d4>
    0x100005908:            cd 1d a0 00  ldd       [%l6], %d6
    0x10000590c:            a4 04 a0 01  add       %l2, 0x1, %l2
    0x100005910:            80 a4 80 1c  cmp       %l2, %i4
    0x100005914:            ba 07 7f f8  add       %i5, -0x8, %i5
    0x100005918:            a0 04 20 08  add       %l0, 0x8, %l0
    0x10000591c:            a2 04 60 08  add       %l1, 0x8, %l1
    0x100005920:            aa 05 60 08  add       %l5, 0x8, %l5
    0x100005924:            04 4f ff ca  ble,pt    %icc, -0xd8   <0x10000584c>
    0x100005928:            a8 04 bf ff  add       %l2, -0x1, %l4
    0x10000592c:            81 c7 e0 08  ret
    0x100005930:            91 e8 20 01  restore   %g0, 0x1, %o0
    0x100005934:            00 00 00 00  illtrap   0x0
    0x100005938:            3f f0 00 00  0x3ff00000
    0x10000593c:            00 00 00 00  illtrap   0x0
__1cUDiscount_Factors_opt6Fpdid0_i_()
    0x100005940:            9d e3 bf 40  save      %sp, -0xc0, %sp
    0x100005944:            af 3e 60 00  sra       %i1, 0x0, %l7
    0x100005948:            a2 05 ff fe  add       %l7, -0x2, %l1
    0x10000594c:            90 10 20 00  clr       %o0
    0x100005950:            92 10 00 11  mov       %l1, %o1
    0x100005954:            7f ff f5 71  call      -0x2a3c       <0x100002f18>
    0x100005958:            c9 3b a8 af  std       %d4, [%sp + 0x8af]
    0x10000595c:            a0 86 7f ff  addcc     %i1, -0x1, %l0
    0x100005960:            0c 40 01 44  bneg,pn   %icc, +0x510  <0x100005e70>
    0x100005964:            a4 10 00 08  mov       %o0, %l2
    0x100005968:            2d 00 04 00  sethi     %hi(0x100000), %l6
    0x10000596c:            9e 15 a0 05  or        %l6, 0x5, %o7
    0x100005970:            9b 2b f0 0c  sllx      %o7, 0xc, %o5
    0x100005974:            a6 10 00 1b  mov       %i3, %l3
    0x100005978:            80 a6 60 04  cmp       %i1, 0x4
    0x10000597c:            cd 1b 69 38  ldd       [%o5 + 0x938], %d6
    0x100005980:            b6 10 20 00  clr       %i3
    0x100005984:            b4 10 00 18  mov       %i0, %i2
    0x100005988:            c9 1b a8 af  ldd       [%sp + 0x8af], %d4
    0x10000598c:            06 40 00 0f  bl,pn     %icc, +0x3c   <0x1000059c8>
    0x100005990:            01 00 00 00  nop
    0x100005994:            ba 06 7f fc  add       %i1, -0x4, %i5
    0x100005998:            ed 6e a1 10  prefetch  [%i2 + 0x110], #n_writes_strong
    0x10000599c:            cd 3e a0 00  std       %d6, [%i2]
    0x1000059a0:            b6 06 e0 04  add       %i3, 0x4, %i3
    0x1000059a4:            b4 06 a0 20  add       %i2, 0x20, %i2
    0x1000059a8:            cd 3e bf e8  std       %d6, [%i2 - 0x18]
    0x1000059ac:            80 a6 c0 1d  cmp       %i3, %i5
    0x1000059b0:            cd 3e bf f0  std       %d6, [%i2 - 0x10]
    0x1000059b4:            04 4f ff f9  ble,pt    %icc, -0x1c   <0x100005998>
    0x1000059b8:            cd 3e bf f8  std       %d6, [%i2 - 0x8]
    0x1000059bc:            80 a6 c0 10  cmp       %i3, %l0
    0x1000059c0:            14 40 00 08  bg,pn     %icc, +0x20   <0x1000059e0>
    0x1000059c4:            01 00 00 00  nop
    0x1000059c8:            b6 06 e0 01  add       %i3, 0x1, %i3
    0x1000059cc:            80 a6 c0 10  cmp       %i3, %l0
    0x1000059d0:            cd 3e a0 00  std       %d6, [%i2]
    0x1000059d4:            b4 06 a0 08  add       %i2, 0x8, %i2
    0x1000059d8:            24 4f ff fd  ble,a,pt  %icc, -0xc    <0x1000059cc>
    0x1000059dc:            b6 06 e0 01  add       %i3, 0x1, %i3
    0x1000059e0:            a8 86 ff fe  addcc     %i3, -0x2, %l4
    0x1000059e4:            0c 40 00 9e  bneg,pn   %icc, +0x278  <0x100005c5c>
    0x1000059e8:            80 a5 20 03  cmp       %l4, 0x3
    0x1000059ec:            f2 23 a8 b7  st        %i1, [%sp + 0x8b7]
    0x1000059f0:            c5 03 a8 b7  ld        [%sp + 0x8b7], %f2
    0x1000059f4:            b1 a0 19 02  fitod     %f2, %d24
    0x1000059f8:            06 40 00 63  bl,pn     %icc, +0x18c  <0x100005b84>
    0x1000059fc:            95 a1 09 d8  fdivd     %d4, %d24, %d10
    0x100005a00:            86 24 80 13  sub       %l2, %l3, %g3
    0x100005a04:            99 38 f0 3f  srax      %g3, 0x3f, %o4
    0x100005a08:            90 06 ff ff  add       %i3, -0x1, %o0
    0x100005a0c:            89 3a 20 00  sra       %o0, 0x0, %g4
    0x100005a10:            84 18 c0 0c  xor       %g3, %o4, %g2
    0x100005a14:            97 29 30 03  sllx      %g4, 0x3, %o3
    0x100005a18:            b8 20 80 0c  sub       %g2, %o4, %i4
    0x100005a1c:            80 a7 00 0b  cmp       %i4, %o3
    0x100005a20:            06 60 00 59  bl,pn     %xcc, +0x164  <0x100005b84>
    0x100005a24:            9e 10 20 00  clr       %o7
    0x100005a28:            82 06 ff ff  add       %i3, -0x1, %g1
    0x100005a2c:            80 a0 60 0e  cmp       %g1, 0xe
    0x100005a30:            9a 10 00 12  mov       %l2, %o5
    0x100005a34:            06 40 00 48  bl,pn     %icc, +0x120  <0x100005b54>
    0x100005a38:            01 00 00 00  nop
    0x100005a3c:            fb 1c e0 00  ldd       [%l3], %d60
    0x100005a40:            e1 1c e0 10  ldd       [%l3 + 0x10], %d16
    0x100005a44:            cd 1c e0 28  ldd       [%l3 + 0x28], %d6
    0x100005a48:            dd 1c e0 18  ldd       [%l3 + 0x18], %d14
    0x100005a4c:            d1 1c e0 08  ldd       [%l3 + 0x8], %d8
    0x100005a50:            a6 04 e0 30  add       %l3, 0x30, %l3
    0x100005a54:            a9 a7 49 4a  fmuld     %d60, %d10, %d20
    0x100005a58:            9e 10 20 06  mov       0x6, %o7
    0x100005a5c:            99 a2 09 4a  fmuld     %d8, %d10, %d12
    0x100005a60:            d1 1c ff f0  ldd       [%l3 - 0x10], %d8
    0x100005a64:            b8 06 ff f7  add       %i3, -0x9, %i4
    0x100005a68:            c1 6c e0 a0  prefetch  [%l3 + 0xa0], #n_reads
    0x100005a6c:            ed 6b 60 a0  prefetch  [%o5 + 0xa0], #n_writes_strong
    0x100005a70:            bd a0 00 d4  fnegd     %d20, %d30
    0x100005a74:            9e 03 e0 08  add       %o7, 0x8, %o7
    0x100005a78:            ed 1c e0 00  ldd       [%l3], %d22
    0x100005a7c:            a1 a4 09 4a  fmuld     %d16, %d10, %d16
    0x100005a80:            fd 3b 60 00  std       %d30, [%o5]
    0x100005a84:            80 a3 c0 1c  cmp       %o7, %i4
    0x100005a88:            9a 03 60 40  add       %o5, 0x40, %o5
    0x100005a8c:            bf a0 00 cc  fnegd     %d12, %d62
    0x100005a90:            f1 1c e0 08  ldd       [%l3 + 0x8], %d24
    0x100005a94:            a6 04 e0 40  add       %l3, 0x40, %l3
    0x100005a98:            9d a3 89 4a  fmuld     %d14, %d10, %d14
    0x100005a9c:            ff 3b 7f c8  std       %d62, [%o5 - 0x38]
    0x100005aa0:            b7 a0 00 d0  fnegd     %d16, %d58
    0x100005aa4:            b5 a2 09 4a  fmuld     %d8, %d10, %d26
    0x100005aa8:            e9 1c ff d0  ldd       [%l3 - 0x30], %d20
    0x100005aac:            f7 3b 7f d0  std       %d58, [%o5 - 0x30]
    0x100005ab0:            b9 a0 00 ce  fnegd     %d14, %d28
    0x100005ab4:            99 a1 89 4a  fmuld     %d6, %d10, %d12
    0x100005ab8:            e5 1c ff d8  ldd       [%l3 - 0x28], %d18
    0x100005abc:            f9 3b 7f d8  std       %d28, [%o5 - 0x28]
    0x100005ac0:            8d a0 00 da  fnegd     %d26, %d6
    0x100005ac4:            bb a5 89 4a  fmuld     %d22, %d10, %d60
    0x100005ac8:            e1 1c ff e0  ldd       [%l3 - 0x20], %d16
    0x100005acc:            cd 3b 7f e0  std       %d6, [%o5 - 0x20]
    0x100005ad0:            91 a0 00 cc  fnegd     %d12, %d8
    0x100005ad4:            bd a6 09 4a  fmuld     %d24, %d10, %d30
    0x100005ad8:            dd 1c ff e8  ldd       [%l3 - 0x18], %d14
    0x100005adc:            d1 3b 7f e8  std       %d8, [%o5 - 0x18]
    0x100005ae0:            bf a0 00 dd  fnegd     %d60, %d62
    0x100005ae4:            a9 a5 09 4a  fmuld     %d20, %d10, %d20
    0x100005ae8:            d1 1c ff f0  ldd       [%l3 - 0x10], %d8
    0x100005aec:            ff 3b 7f f0  std       %d62, [%o5 - 0x10]
    0x100005af0:            b7 a0 00 de  fnegd     %d30, %d58
    0x100005af4:            99 a4 89 4a  fmuld     %d18, %d10, %d12
    0x100005af8:            cd 1c ff f8  ldd       [%l3 - 0x8], %d6
    0x100005afc:            04 4f ff db  ble,pt    %icc, -0x94   <0x100005a68>
    0x100005b00:            f7 3b 7f f8  std       %d58, [%o5 - 0x8]
    0x100005b04:            a5 a1 89 4a  fmuld     %d6, %d10, %d18
    0x100005b08:            b9 a3 89 4a  fmuld     %d14, %d10, %d28
    0x100005b0c:            8d a2 09 4a  fmuld     %d8, %d10, %d6
    0x100005b10:            9d a0 00 d4  fnegd     %d20, %d14
    0x100005b14:            b5 a4 09 4a  fmuld     %d16, %d10, %d26
    0x100005b18:            b7 a0 00 cc  fnegd     %d12, %d58
    0x100005b1c:            a9 a0 00 d2  fnegd     %d18, %d20
    0x100005b20:            b1 a0 00 dc  fnegd     %d28, %d24
    0x100005b24:            ad a0 00 c6  fnegd     %d6, %d22
    0x100005b28:            9a 03 60 30  add       %o5, 0x30, %o5
    0x100005b2c:            dd 3b 7f d0  std       %d14, [%o5 - 0x30]
    0x100005b30:            f7 3b 7f d8  std       %d58, [%o5 - 0x28]
    0x100005b34:            f1 3b 7f e8  std       %d24, [%o5 - 0x18]
    0x100005b38:            ed 3b 7f f0  std       %d22, [%o5 - 0x10]
    0x100005b3c:            e9 3b 7f f8  std       %d20, [%o5 - 0x8]
    0x100005b40:            80 a3 c0 14  cmp       %o7, %l4
    0x100005b44:            99 a0 00 da  fnegd     %d26, %d12
    0x100005b48:            d9 3b 7f e0  std       %d12, [%o5 - 0x20]
    0x100005b4c:            14 40 00 0c  bg,pn     %icc, +0x30   <0x100005b7c>
    0x100005b50:            01 00 00 00  nop
    0x100005b54:            ed 1c e0 00  ldd       [%l3], %d22
    0x100005b58:            8d a5 89 4a  fmuld     %d22, %d10, %d6
    0x100005b5c:            9e 03 e0 01  add       %o7, 0x1, %o7
    0x100005b60:            80 a3 c0 14  cmp       %o7, %l4
    0x100005b64:            a6 04 e0 08  add       %l3, 0x8, %l3
    0x100005b68:            99 a0 00 c6  fnegd     %d6, %d12
    0x100005b6c:            d9 3b 60 00  std       %d12, [%o5]
    0x100005b70:            9a 03 60 08  add       %o5, 0x8, %o5
    0x100005b74:            24 4f ff f9  ble,a,pt  %icc, -0x1c   <0x100005b58>
    0x100005b78:            ed 1c e0 00  ldd       [%l3], %d22
    0x100005b7c:            10 80 00 2f  ba        +0xbc         <0x100005c38>
    0x100005b80:            a6 10 20 00  clr       %l3
    0x100005b84:            84 06 ff ff  add       %i3, -0x1, %g2
    0x100005b88:            80 a0 a0 04  cmp       %g2, 0x4
    0x100005b8c:            aa 10 00 13  mov       %l3, %l5
    0x100005b90:            ae 10 20 00  clr       %l7
    0x100005b94:            ac 10 00 12  mov       %l2, %l6
    0x100005b98:            06 40 00 1d  bl,pn     %icc, +0x74   <0x100005c0c>
    0x100005b9c:            01 00 00 00  nop
    0x100005ba0:            b8 06 ff fb  add       %i3, -0x5, %i4
    0x100005ba4:            c1 6d 60 90  prefetch  [%l5 + 0x90], #n_reads
    0x100005ba8:            ed 6d a0 90  prefetch  [%l6 + 0x90], #n_writes_strong
    0x100005bac:            ae 05 e0 04  add       %l7, 0x4, %l7
    0x100005bb0:            ac 05 a0 20  add       %l6, 0x20, %l6
    0x100005bb4:            d9 1d 60 00  ldd       [%l5], %d12
    0x100005bb8:            80 a5 c0 1c  cmp       %l7, %i4
    0x100005bbc:            aa 05 60 20  add       %l5, 0x20, %l5
    0x100005bc0:            a1 a3 09 4a  fmuld     %d12, %d10, %d16
    0x100005bc4:            a9 a0 00 d0  fnegd     %d16, %d20
    0x100005bc8:            e9 3d bf e0  std       %d20, [%l6 - 0x20]
    0x100005bcc:            ff 1d 7f e8  ldd       [%l5 - 0x18], %d62
    0x100005bd0:            bb a7 c9 4a  fmuld     %d62, %d10, %d60
    0x100005bd4:            bd a0 00 dd  fnegd     %d60, %d30
    0x100005bd8:            fd 3d bf e8  std       %d30, [%l6 - 0x18]
    0x100005bdc:            f9 1d 7f f0  ldd       [%l5 - 0x10], %d28
    0x100005be0:            b5 a7 09 4a  fmuld     %d28, %d10, %d26
    0x100005be4:            b1 a0 00 da  fnegd     %d26, %d24
    0x100005be8:            f1 3d bf f0  std       %d24, [%l6 - 0x10]
    0x100005bec:            ed 1d 7f f8  ldd       [%l5 - 0x8], %d22
    0x100005bf0:            8d a5 89 4a  fmuld     %d22, %d10, %d6
    0x100005bf4:            a5 a0 00 c6  fnegd     %d6, %d18
    0x100005bf8:            04 4f ff eb  ble,pt    %icc, -0x54   <0x100005ba4>
    0x100005bfc:            e5 3d bf f8  std       %d18, [%l6 - 0x8]
    0x100005c00:            80 a5 c0 14  cmp       %l7, %l4
    0x100005c04:            14 40 00 0c  bg,pn     %icc, +0x30   <0x100005c34>
    0x100005c08:            01 00 00 00  nop
    0x100005c0c:            e1 1d 60 00  ldd       [%l5], %d16
    0x100005c10:            9d a4 09 4a  fmuld     %d16, %d10, %d14
    0x100005c14:            ae 05 e0 01  add       %l7, 0x1, %l7
    0x100005c18:            80 a5 c0 14  cmp       %l7, %l4
    0x100005c1c:            aa 05 60 08  add       %l5, 0x8, %l5
    0x100005c20:            b9 a0 00 ce  fnegd     %d14, %d28
    0x100005c24:            f9 3d a0 00  std       %d28, [%l6]
    0x100005c28:            ac 05 a0 08  add       %l6, 0x8, %l6
    0x100005c2c:            24 4f ff f9  ble,a,pt  %icc, -0x1c   <0x100005c10>
    0x100005c30:            e1 1d 60 00  ldd       [%l5], %d16
    0x100005c34:            a6 10 20 00  clr       %l3
    0x100005c38:            c1 1c a0 00  ldd       [%l2], %d0
    0x100005c3c:            ba 10 00 12  mov       %l2, %i5
    0x100005c40:            40 00 08 28  call      +0x20a0       <0x100007ce0>
    0x100005c44:            a6 04 e0 01  add       %l3, 0x1, %l3
    0x100005c48:            c1 3f 60 00  std       %d0, [%i5]
    0x100005c4c:            80 a4 c0 14  cmp       %l3, %l4
    0x100005c50:            ba 07 60 08  add       %i5, 0x8, %i5
    0x100005c54:            24 4f ff fb  ble,a,pt  %icc, -0x14   <0x100005c40>
    0x100005c58:            c1 1f 60 00  ldd       [%i5], %d0
    0x100005c5c:            80 a4 20 01  cmp       %l0, 0x1
    0x100005c60:            06 40 00 84  bl,pn     %icc, +0x210  <0x100005e70>
    0x100005c64:            94 26 00 12  sub       %i0, %l2, %o2
    0x100005c68:            92 24 80 18  sub       %l2, %i0, %o1
    0x100005c6c:            a8 02 7f f8  add       %o1, -0x8, %l4
    0x100005c70:            82 02 a0 08  add       %o2, 0x8, %g1
    0x100005c74:            90 06 20 08  add       %i0, 0x8, %o0
    0x100005c78:            ac 10 20 01  mov       0x1, %l6
    0x100005c7c:            ae 10 20 08  mov       0x8, %l7
    0x100005c80:            92 10 20 00  clr       %o1
    0x100005c84:            80 a2 60 03  cmp       %o1, 0x3
    0x100005c88:            06 40 00 0a  bl,pn     %icc, +0x28   <0x100005cb0>
    0x100005c8c:            80 a0 40 17  cmp       %g1, %l7
    0x100005c90:            8a 10 20 00  clr       %g5
    0x100005c94:            8b 66 f0 01  movge     %xcc, 0x1, %g5
    0x100005c98:            b0 10 20 00  clr       %i0
    0x100005c9c:            80 a5 20 08  cmp       %l4, 0x8
    0x100005ca0:            b1 66 f0 01  movge     %xcc, 0x1, %i0
    0x100005ca4:            80 91 40 18  orcc      %g5, %i0, %g0
    0x100005ca8:            12 48 00 1c  bne,pt    %icc, +0x70   <0x100005d18>
    0x100005cac:            b2 10 20 00  clr       %i1
    0x100005cb0:            80 a5 a0 01  cmp       %l6, 0x1
    0x100005cb4:            8a 10 20 00  clr       %g5
    0x100005cb8:            88 10 00 12  mov       %l2, %g4
    0x100005cbc:            d5 1a 20 00  ldd       [%o0], %d10
    0x100005cc0:            06 40 00 0c  bl,pn     %icc, +0x30   <0x100005cf0>
    0x100005cc4:            01 00 00 00  nop
    0x100005cc8:            8a 01 60 01  add       %g5, 0x1, %g5
    0x100005ccc:            f5 19 20 00  ldd       [%g4], %d26
    0x100005cd0:            88 01 20 08  add       %g4, 0x8, %g4
    0x100005cd4:            80 a1 40 09  cmp       %g5, %o1
    0x100005cd8:            95 a2 89 5a  fmuld     %d10, %d26, %d10
    0x100005cdc:            04 4f ff fb  ble,pt    %icc, -0x14   <0x100005cc8>
    0x100005ce0:            d5 3a 20 00  std       %d10, [%o0]
    0x100005ce4:            01 00 00 00  nop
    0x100005ce8:            10 80 00 5b  ba        +0x16c        <0x100005e54>
    0x100005cec:            ac 05 a0 01  add       %l6, 0x1, %l6
    0x100005cf0:            8a 01 60 01  add       %g5, 0x1, %g5
    0x100005cf4:            f5 19 20 00  ldd       [%g4], %d26
    0x100005cf8:            80 a1 40 09  cmp       %g5, %o1
    0x100005cfc:            88 01 20 08  add       %g4, 0x8, %g4
    0x100005d00:            95 a2 89 5a  fmuld     %d10, %d26, %d10
    0x100005d04:            d5 3a 20 00  std       %d10, [%o0]
    0x100005d08:            04 4f ff fb  ble,pt    %icc, -0x14   <0x100005cf4>
    0x100005d0c:            8a 01 60 01  add       %g5, 0x1, %g5
    0x100005d10:            10 80 00 51  ba        +0x144        <0x100005e54>
    0x100005d14:            ac 05 a0 01  add       %l6, 0x1, %l6
    0x100005d18:            80 a5 a0 18  cmp       %l6, 0x18
    0x100005d1c:            94 10 00 12  mov       %l2, %o2
    0x100005d20:            d1 1a 20 00  ldd       [%o0], %d8
    0x100005d24:            06 40 00 43  bl,pn     %icc, +0x10c  <0x100005e30>
    0x100005d28:            01 00 00 00  nop
    0x100005d2c:            dd 1c a0 08  ldd       [%l2 + 0x8], %d14
    0x100005d30:            e1 1c a0 00  ldd       [%l2], %d16
    0x100005d34:            d9 1c a0 10  ldd       [%l2 + 0x10], %d12
    0x100005d38:            d5 1c a0 18  ldd       [%l2 + 0x18], %d10
    0x100005d3c:            e5 1c a0 20  ldd       [%l2 + 0x20], %d18
    0x100005d40:            cd 1c a0 28  ldd       [%l2 + 0x28], %d6
    0x100005d44:            ed 1c a0 30  ldd       [%l2 + 0x30], %d22
    0x100005d48:            f1 1c a0 38  ldd       [%l2 + 0x38], %d24
    0x100005d4c:            3b 00 04 00  sethi     %hi(0x100000), %i5
    0x100005d50:            f5 1c a0 40  ldd       [%l2 + 0x40], %d26
    0x100005d54:            b8 17 60 05  or        %i5, 0x5, %i4
    0x100005d58:            b7 2f 30 0c  sllx      %i4, 0xc, %i3
    0x100005d5c:            e9 1e e9 38  ldd       [%i3 + 0x938], %d20
    0x100005d60:            91 a2 09 4a  fmuld     %d8, %d10, %d8
    0x100005d64:            f9 1c a0 48  ldd       [%l2 + 0x48], %d28
    0x100005d68:            bb a5 09 4e  fmuld     %d20, %d14, %d60
    0x100005d6c:            b7 a5 09 50  fmuld     %d20, %d16, %d58
    0x100005d70:            fd 1c a0 50  ldd       [%l2 + 0x50], %d30
    0x100005d74:            94 04 a0 60  add       %l2, 0x60, %o2
    0x100005d78:            b2 10 20 0c  mov       0xc, %i1
    0x100005d7c:            9d a5 09 4c  fmuld     %d20, %d12, %d14
    0x100005d80:            ff 1c a0 58  ldd       [%l2 + 0x58], %d62
    0x100005d84:            98 05 bf f4  add       %l6, -0xc, %o4
    0x100005d88:            b2 06 60 0c  add       %i1, 0xc, %i1
    0x100005d8c:            d9 1a a0 00  ldd       [%o2], %d12
    0x100005d90:            94 02 a0 60  add       %o2, 0x60, %o2
    0x100005d94:            a5 a6 c9 52  fmuld     %d58, %d18, %d18
    0x100005d98:            8d a7 49 46  fmuld     %d60, %d6, %d6
    0x100005d9c:            80 a6 40 0c  cmp       %i1, %o4
    0x100005da0:            fb 1a bf a8  ldd       [%o2 - 0x58], %d60
    0x100005da4:            ad a3 89 56  fmuld     %d14, %d22, %d22
    0x100005da8:            d5 1a bf b0  ldd       [%o2 - 0x50], %d10
    0x100005dac:            b1 a2 09 58  fmuld     %d8, %d24, %d24
    0x100005db0:            e1 1a bf b8  ldd       [%o2 - 0x48], %d16
    0x100005db4:            b5 a4 89 5a  fmuld     %d18, %d26, %d26
    0x100005db8:            e5 1a bf c0  ldd       [%o2 - 0x40], %d18
    0x100005dbc:            91 a1 89 5c  fmuld     %d6, %d28, %d8
    0x100005dc0:            cd 1a bf c8  ldd       [%o2 - 0x38], %d6
    0x100005dc4:            bd a5 89 5e  fmuld     %d22, %d30, %d30
    0x100005dc8:            ed 1a bf d0  ldd       [%o2 - 0x30], %d22
    0x100005dcc:            bf a6 09 5f  fmuld     %d24, %d62, %d62
    0x100005dd0:            f1 1a bf d8  ldd       [%o2 - 0x28], %d24
    0x100005dd4:            b7 a6 89 4c  fmuld     %d26, %d12, %d58
    0x100005dd8:            f5 1a bf e0  ldd       [%o2 - 0x20], %d26
    0x100005ddc:            bb a2 09 5d  fmuld     %d8, %d60, %d60
    0x100005de0:            f9 1a bf e8  ldd       [%o2 - 0x18], %d28
    0x100005de4:            9d a7 89 4a  fmuld     %d30, %d10, %d14
    0x100005de8:            fd 1a bf f0  ldd       [%o2 - 0x10], %d30
    0x100005dec:            91 a7 c9 50  fmuld     %d62, %d16, %d8
    0x100005df0:            04 4f ff e6  ble,pt    %icc, -0x68   <0x100005d88>
    0x100005df4:            ff 1a bf f8  ldd       [%o2 - 0x8], %d62
    0x100005df8:            95 a7 49 46  fmuld     %d60, %d6, %d10
    0x100005dfc:            99 a6 c9 52  fmuld     %d58, %d18, %d12
    0x100005e00:            9d a3 89 56  fmuld     %d14, %d22, %d14
    0x100005e04:            91 a2 09 58  fmuld     %d8, %d24, %d8
    0x100005e08:            80 a6 40 09  cmp       %i1, %o1
    0x100005e0c:            a9 a2 89 5c  fmuld     %d10, %d28, %d20
    0x100005e10:            a1 a3 09 5a  fmuld     %d12, %d26, %d16
    0x100005e14:            bb a3 89 5e  fmuld     %d14, %d30, %d60
    0x100005e18:            bd a2 09 5f  fmuld     %d8, %d62, %d30
    0x100005e1c:            bf a4 09 54  fmuld     %d16, %d20, %d62
    0x100005e20:            b9 a7 c9 5d  fmuld     %d62, %d60, %d28
    0x100005e24:            91 a7 09 5e  fmuld     %d28, %d30, %d8
    0x100005e28:            14 40 00 09  bg,pn     %icc, +0x24   <0x100005e4c>
    0x100005e2c:            01 00 00 00  nop
    0x100005e30:            b2 06 60 01  add       %i1, 0x1, %i1
    0x100005e34:            80 a6 40 09  cmp       %i1, %o1
    0x100005e38:            d5 1a a0 00  ldd       [%o2], %d10
    0x100005e3c:            94 02 a0 08  add       %o2, 0x8, %o2
    0x100005e40:            91 a2 09 4a  fmuld     %d8, %d10, %d8
    0x100005e44:            04 4f ff fc  ble,pt    %icc, -0x10   <0x100005e34>
    0x100005e48:            b2 06 60 01  add       %i1, 0x1, %i1
    0x100005e4c:            d1 3a 20 00  std       %d8, [%o0]
    0x100005e50:            ac 05 a0 01  add       %l6, 0x1, %l6
    0x100005e54:            80 a5 80 10  cmp       %l6, %l0
    0x100005e58:            a8 05 3f f8  add       %l4, -0x8, %l4
    0x100005e5c:            ae 05 e0 08  add       %l7, 0x8, %l7
    0x100005e60:            82 00 60 08  add       %g1, 0x8, %g1
    0x100005e64:            90 02 20 08  add       %o0, 0x8, %o0
    0x100005e68:            04 4f ff 87  ble,pt    %icc, -0x1e4  <0x100005c84>
    0x100005e6c:            92 05 bf ff  add       %l6, -0x1, %o1
    0x100005e70:            94 10 00 11  mov       %l1, %o2
    0x100005e74:            92 10 20 00  clr       %o1
    0x100005e78:            7f ff f4 3a  call      -0x2f18       <0x100002f60>
    0x100005e7c:            90 10 00 12  mov       %l2, %o0
    0x100005e80:            81 c7 e0 08  ret
    0x100005e84:            91 e8 20 01  restore   %g0, 0x1, %o0
    0x100005e88:            3f f0 00 00  0x3ff00000
    0x100005e8c:            00 00 00 00  illtrap   0x0
__1cZDiscount_Factors_Blocking6Fpdid0i_i_()
    0x100005e90:            9d e3 bf 40  save      %sp, -0xc0, %sp
    0x100005e94:            a6 06 7f ff  add       %i1, -0x1, %l3
    0x100005e98:            a3 3c e0 00  sra       %l3, 0x0, %l1
    0x100005e9c:            a0 4c 40 1c  mulx      %l1, %i4, %l0
    0x100005ea0:            ac 10 00 1b  mov       %i3, %l6
    0x100005ea4:            b7 3c 20 00  sra       %l0, 0x0, %i3
    0x100005ea8:            a4 06 ff ff  add       %i3, -0x1, %l2
    0x100005eac:            90 10 20 00  clr       %o0
    0x100005eb0:            92 10 00 12  mov       %l2, %o1
    0x100005eb4:            ab 3f 20 00  sra       %i4, 0x0, %l5
    0x100005eb8:            7f ff f4 18  call      -0x2fa0       <0x100002f18>
    0x100005ebc:            c9 3b a8 af  std       %d4, [%sp + 0x8af]
    0x100005ec0:            a0 84 3f ff  addcc     %l0, -0x1, %l0
    0x100005ec4:            0c 40 00 a0  bneg,pn   %icc, +0x280  <0x100006144>
    0x100005ec8:            a8 10 00 08  mov       %o0, %l4
    0x100005ecc:            f2 23 a8 b7  st        %i1, [%sp + 0x8b7]
    0x100005ed0:            c5 03 a8 b7  ld        [%sp + 0x8b7], %f2
    0x100005ed4:            c9 1b a8 af  ldd       [%sp + 0x8af], %d4
    0x100005ed8:            80 a4 20 03  cmp       %l0, 0x3
    0x100005edc:            bb a0 19 02  fitod     %f2, %d60
    0x100005ee0:            06 40 00 0a  bl,pn     %icc, +0x28   <0x100005f08>
    0x100005ee4:            a5 a1 09 dd  fdivd     %d4, %d60, %d18
    0x100005ee8:            92 22 00 16  sub       %o0, %l6, %o1
    0x100005eec:            8b 3a 70 3f  srax      %o1, 0x3f, %g5
    0x100005ef0:            90 1a 40 05  xor       %o1, %g5, %o0
    0x100005ef4:            89 2e f0 03  sllx      %i3, 0x3, %g4
    0x100005ef8:            b4 22 00 05  sub       %o0, %g5, %i2
    0x100005efc:            80 a6 80 04  cmp       %i2, %g4
    0x100005f00:            16 68 00 2f  bge,pt    %xcc, +0xbc   <0x100005fbc>
    0x100005f04:            ba 10 00 16  mov       %l6, %i5
    0x100005f08:            82 04 20 01  add       %l0, 0x1, %g1
    0x100005f0c:            80 a0 60 04  cmp       %g1, 0x4
    0x100005f10:            9e 10 20 00  clr       %o7
    0x100005f14:            9a 10 00 14  mov       %l4, %o5
    0x100005f18:            06 40 00 1d  bl,pn     %icc, +0x74   <0x100005f8c>
    0x100005f1c:            01 00 00 00  nop
    0x100005f20:            b8 24 20 03  sub       %l0, 0x3, %i4
    0x100005f24:            c1 6d a0 90  prefetch  [%l6 + 0x90], #n_reads
    0x100005f28:            ed 6b 60 90  prefetch  [%o5 + 0x90], #n_writes_strong
    0x100005f2c:            9e 03 e0 04  add       %o7, 0x4, %o7
    0x100005f30:            9a 03 60 20  add       %o5, 0x20, %o5
    0x100005f34:            d5 1d a0 00  ldd       [%l6], %d10
    0x100005f38:            80 a3 c0 1c  cmp       %o7, %i4
    0x100005f3c:            ac 05 a0 20  add       %l6, 0x20, %l6
    0x100005f40:            bd a2 89 52  fmuld     %d10, %d18, %d30
    0x100005f44:            a1 a0 00 de  fnegd     %d30, %d16
    0x100005f48:            e1 3b 7f e0  std       %d16, [%o5 - 0x20]
    0x100005f4c:            fb 1d bf e8  ldd       [%l6 - 0x18], %d60
    0x100005f50:            a9 a7 49 52  fmuld     %d60, %d18, %d20
    0x100005f54:            8d a0 00 d4  fnegd     %d20, %d6
    0x100005f58:            cd 3b 7f e8  std       %d6, [%o5 - 0x18]
    0x100005f5c:            d1 1d bf f0  ldd       [%l6 - 0x10], %d8
    0x100005f60:            b9 a2 09 52  fmuld     %d8, %d18, %d28
    0x100005f64:            b7 a0 00 dc  fnegd     %d28, %d58
    0x100005f68:            f7 3b 7f f0  std       %d58, [%o5 - 0x10]
    0x100005f6c:            d9 1d bf f8  ldd       [%l6 - 0x8], %d12
    0x100005f70:            9d a3 09 52  fmuld     %d12, %d18, %d14
    0x100005f74:            b5 a0 00 ce  fnegd     %d14, %d26
    0x100005f78:            04 4f ff eb  ble,pt    %icc, -0x54   <0x100005f24>
    0x100005f7c:            f5 3b 7f f8  std       %d26, [%o5 - 0x8]
    0x100005f80:            80 a3 c0 10  cmp       %o7, %l0
    0x100005f84:            14 40 00 0c  bg,pn     %icc, +0x30   <0x100005fb4>
    0x100005f88:            01 00 00 00  nop
    0x100005f8c:            d5 1d a0 00  ldd       [%l6], %d10
    0x100005f90:            bd a2 89 52  fmuld     %d10, %d18, %d30
    0x100005f94:            9e 03 e0 01  add       %o7, 0x1, %o7
    0x100005f98:            80 a3 c0 10  cmp       %o7, %l0
    0x100005f9c:            ac 05 a0 08  add       %l6, 0x8, %l6
    0x100005fa0:            a1 a0 00 de  fnegd     %d30, %d16
    0x100005fa4:            e1 3b 60 00  std       %d16, [%o5]
    0x100005fa8:            9a 03 60 08  add       %o5, 0x8, %o5
    0x100005fac:            24 4f ff f9  ble,a,pt  %icc, -0x1c   <0x100005f90>
    0x100005fb0:            d5 1d a0 00  ldd       [%l6], %d10
    0x100005fb4:            10 80 00 5b  ba        +0x16c        <0x100006120>
    0x100005fb8:            b8 10 20 00  clr       %i4
    0x100005fbc:            86 04 20 01  add       %l0, 0x1, %g3
    0x100005fc0:            80 a0 e0 0e  cmp       %g3, 0xe
    0x100005fc4:            b6 10 20 00  clr       %i3
    0x100005fc8:            ae 10 00 14  mov       %l4, %l7
    0x100005fcc:            06 40 00 4a  bl,pn     %icc, +0x128  <0x1000060f4>
    0x100005fd0:            01 00 00 00  nop
    0x100005fd4:            dd 1d a0 00  ldd       [%l6], %d14
    0x100005fd8:            d9 1d a0 08  ldd       [%l6 + 0x8], %d12
    0x100005fdc:            d5 1d a0 10  ldd       [%l6 + 0x10], %d10
    0x100005fe0:            d1 1d a0 18  ldd       [%l6 + 0x18], %d8
    0x100005fe4:            99 a3 09 52  fmuld     %d12, %d18, %d12
    0x100005fe8:            e1 1d a0 20  ldd       [%l6 + 0x20], %d16
    0x100005fec:            ba 05 a0 30  add       %l6, 0x30, %i5
    0x100005ff0:            b1 a0 00 52  fmovd     %d18, %d24
    0x100005ff4:            b6 10 20 06  mov       0x6, %i3
    0x100005ff8:            9d a3 89 52  fmuld     %d14, %d18, %d14
    0x100005ffc:            cd 1d a0 28  ldd       [%l6 + 0x28], %d6
    0x100006000:            b4 24 20 07  sub       %l0, 0x7, %i2
    0x100006004:            c1 6f 60 a0  prefetch  [%i5 + 0xa0], #n_reads
    0x100006008:            ed 6d e0 a0  prefetch  [%l7 + 0xa0], #n_writes_strong
    0x10000600c:            a5 a0 00 ce  fnegd     %d14, %d18
    0x100006010:            b6 06 e0 08  add       %i3, 0x8, %i3
    0x100006014:            e9 1f 60 00  ldd       [%i5], %d20
    0x100006018:            ad a2 89 58  fmuld     %d10, %d24, %d22
    0x10000601c:            e5 3d e0 00  std       %d18, [%l7]
    0x100006020:            80 a6 c0 1a  cmp       %i3, %i2
    0x100006024:            ae 05 e0 40  add       %l7, 0x40, %l7
    0x100006028:            b5 a0 00 cc  fnegd     %d12, %d26
    0x10000602c:            f9 1f 60 08  ldd       [%i5 + 0x8], %d28
    0x100006030:            ba 07 60 40  add       %i5, 0x40, %i5
    0x100006034:            bd a2 09 58  fmuld     %d8, %d24, %d30
    0x100006038:            f5 3d ff c8  std       %d26, [%l7 - 0x38]
    0x10000603c:            bf a0 00 d6  fnegd     %d22, %d62
    0x100006040:            bb a4 09 58  fmuld     %d16, %d24, %d60
    0x100006044:            dd 1f 7f d0  ldd       [%i5 - 0x30], %d14
    0x100006048:            ff 3d ff d0  std       %d62, [%l7 - 0x30]
    0x10000604c:            a1 a0 00 de  fnegd     %d30, %d16
    0x100006050:            91 a1 89 58  fmuld     %d6, %d24, %d8
    0x100006054:            e5 1f 7f d8  ldd       [%i5 - 0x28], %d18
    0x100006058:            e1 3d ff d8  std       %d16, [%l7 - 0x28]
    0x10000605c:            8d a0 00 dd  fnegd     %d60, %d6
    0x100006060:            99 a5 09 58  fmuld     %d20, %d24, %d12
    0x100006064:            d5 1f 7f e0  ldd       [%i5 - 0x20], %d10
    0x100006068:            cd 3d ff e0  std       %d6, [%l7 - 0x20]
    0x10000606c:            b7 a0 00 c8  fnegd     %d8, %d58
    0x100006070:            ad a7 09 58  fmuld     %d28, %d24, %d22
    0x100006074:            d1 1f 7f e8  ldd       [%i5 - 0x18], %d8
    0x100006078:            f7 3d ff e8  std       %d58, [%l7 - 0x18]
    0x10000607c:            b5 a0 00 cc  fnegd     %d12, %d26
    0x100006080:            9d a3 89 58  fmuld     %d14, %d24, %d14
    0x100006084:            e1 1f 7f f0  ldd       [%i5 - 0x10], %d16
    0x100006088:            f5 3d ff f0  std       %d26, [%l7 - 0x10]
    0x10000608c:            bf a0 00 d6  fnegd     %d22, %d62
    0x100006090:            99 a4 89 58  fmuld     %d18, %d24, %d12
    0x100006094:            cd 1f 7f f8  ldd       [%i5 - 0x8], %d6
    0x100006098:            04 4f ff db  ble,pt    %icc, -0x94   <0x100006004>
    0x10000609c:            ff 3d ff f8  std       %d62, [%l7 - 0x8]
    0x1000060a0:            bb a2 09 58  fmuld     %d8, %d24, %d60
    0x1000060a4:            b7 a2 89 58  fmuld     %d10, %d24, %d58
    0x1000060a8:            a5 a0 00 58  fmovd     %d24, %d18
    0x1000060ac:            ad a1 89 58  fmuld     %d6, %d24, %d22
    0x1000060b0:            b9 a0 00 ce  fnegd     %d14, %d28
    0x1000060b4:            b5 a4 09 58  fmuld     %d16, %d24, %d26
    0x1000060b8:            b1 a0 00 cc  fnegd     %d12, %d24
    0x1000060bc:            91 a0 00 dd  fnegd     %d60, %d8
    0x1000060c0:            95 a0 00 db  fnegd     %d58, %d10
    0x1000060c4:            bd a0 00 d6  fnegd     %d22, %d30
    0x1000060c8:            ae 05 e0 30  add       %l7, 0x30, %l7
    0x1000060cc:            f9 3d ff d0  std       %d28, [%l7 - 0x30]
    0x1000060d0:            f1 3d ff d8  std       %d24, [%l7 - 0x28]
    0x1000060d4:            d5 3d ff e0  std       %d10, [%l7 - 0x20]
    0x1000060d8:            d1 3d ff e8  std       %d8, [%l7 - 0x18]
    0x1000060dc:            fd 3d ff f8  std       %d30, [%l7 - 0x8]
    0x1000060e0:            80 a6 c0 10  cmp       %i3, %l0
    0x1000060e4:            bf a0 00 da  fnegd     %d26, %d62
    0x1000060e8:            ff 3d ff f0  std       %d62, [%l7 - 0x10]
    0x1000060ec:            14 40 00 0c  bg,pn     %icc, +0x30   <0x10000611c>
    0x1000060f0:            01 00 00 00  nop
    0x1000060f4:            ed 1f 60 00  ldd       [%i5], %d22
    0x1000060f8:            bf a5 89 52  fmuld     %d22, %d18, %d62
    0x1000060fc:            b6 06 e0 01  add       %i3, 0x1, %i3
    0x100006100:            80 a6 c0 10  cmp       %i3, %l0
    0x100006104:            ba 07 60 08  add       %i5, 0x8, %i5
    0x100006108:            b1 a0 00 df  fnegd     %d62, %d24
    0x10000610c:            f1 3d e0 00  std       %d24, [%l7]
    0x100006110:            ae 05 e0 08  add       %l7, 0x8, %l7
    0x100006114:            24 4f ff f9  ble,a,pt  %icc, -0x1c   <0x1000060f8>
    0x100006118:            ed 1f 60 00  ldd       [%i5], %d22
    0x10000611c:            b8 10 20 00  clr       %i4
    0x100006120:            c1 1d 20 00  ldd       [%l4], %d0
    0x100006124:            ba 10 00 14  mov       %l4, %i5
    0x100006128:            40 00 06 ee  call      +0x1bb8       <0x100007ce0>
    0x10000612c:            b8 07 20 01  add       %i4, 0x1, %i4
    0x100006130:            c1 3f 60 00  std       %d0, [%i5]
    0x100006134:            80 a7 00 10  cmp       %i4, %l0
    0x100006138:            ba 07 60 08  add       %i5, 0x8, %i5
    0x10000613c:            24 4f ff fb  ble,a,pt  %icc, -0x14   <0x100006128>
    0x100006140:            c1 1f 60 00  ldd       [%i5], %d0
    0x100006144:            94 4e 40 15  mulx      %i1, %l5, %o2
    0x100006148:            80 a2 a0 00  cmp       %o2, 0x0
    0x10000614c:            04 40 00 1f  ble,pn    %icc, +0x7c   <0x1000061c8>
    0x100006150:            96 02 bf ff  add       %o2, -0x1, %o3
    0x100006154:            2f 00 04 00  sethi     %hi(0x100000), %l7
    0x100006158:            b2 15 e0 05  or        %l7, 0x5, %i1
    0x10000615c:            9f 2e 70 0c  sllx      %i1, 0xc, %o7
    0x100006160:            84 02 e0 01  add       %o3, 0x1, %g2
    0x100006164:            80 a0 a0 04  cmp       %g2, 0x4
    0x100006168:            94 10 20 00  clr       %o2
    0x10000616c:            98 10 00 18  mov       %i0, %o4
    0x100006170:            cd 1b ee 88  ldd       [%o7 + 0xe88], %d6
    0x100006174:            06 40 00 0f  bl,pn     %icc, +0x3c   <0x1000061b0>
    0x100006178:            01 00 00 00  nop
    0x10000617c:            ba 22 e0 03  sub       %o3, 0x3, %i5
    0x100006180:            ed 6b 21 10  prefetch  [%o4 + 0x110], #n_writes_strong
    0x100006184:            cd 3b 20 00  std       %d6, [%o4]
    0x100006188:            94 02 a0 04  add       %o2, 0x4, %o2
    0x10000618c:            98 03 20 20  add       %o4, 0x20, %o4
    0x100006190:            cd 3b 3f e8  std       %d6, [%o4 - 0x18]
    0x100006194:            80 a2 80 1d  cmp       %o2, %i5
    0x100006198:            cd 3b 3f f0  std       %d6, [%o4 - 0x10]
    0x10000619c:            04 4f ff f9  ble,pt    %icc, -0x1c   <0x100006180>
    0x1000061a0:            cd 3b 3f f8  std       %d6, [%o4 - 0x8]
    0x1000061a4:            80 a2 80 0b  cmp       %o2, %o3
    0x1000061a8:            14 40 00 08  bg,pn     %icc, +0x20   <0x1000061c8>
    0x1000061ac:            01 00 00 00  nop
    0x1000061b0:            94 02 a0 01  add       %o2, 0x1, %o2
    0x1000061b4:            80 a2 80 0b  cmp       %o2, %o3
    0x1000061b8:            cd 3b 20 00  std       %d6, [%o4]
    0x1000061bc:            98 03 20 08  add       %o4, 0x8, %o4
    0x1000061c0:            04 4f ff fd  ble,pt    %icc, -0xc    <0x1000061b4>
    0x1000061c4:            94 02 a0 01  add       %o2, 0x1, %o2
    0x1000061c8:            a2 24 60 01  sub       %l1, 0x1, %l1
    0x1000061cc:            87 34 70 3f  srlx      %l1, 0x3f, %g3
    0x1000061d0:            9a 20 00 15  neg       %l5, %o5
    0x1000061d4:            ac 18 e0 01  xor       %g3, 0x1, %l6
    0x1000061d8:            99 33 70 3f  srlx      %o5, 0x3f, %o4
    0x1000061dc:            96 0b 00 16  and       %o4, %l6, %o3
    0x1000061e0:            80 8a e0 ff  btst      0xff, %o3
    0x1000061e4:            02 40 00 2d  be,pn     %icc, +0xb4   <0x100006298>
    0x1000061e8:            b5 2d 70 03  sllx      %l5, 0x3, %i2
    0x1000061ec:            82 05 7f ff  add       %l5, -0x1, %g1
    0x1000061f0:            b0 06 80 18  add       %i2, %i0, %i0
    0x1000061f4:            aa 10 20 01  mov       0x1, %l5
    0x1000061f8:            a0 10 20 00  clr       %l0
    0x1000061fc:            84 10 00 14  mov       %l4, %g2
    0x100006200:            88 10 00 18  mov       %i0, %g4
    0x100006204:            8a 05 7f ff  add       %l5, -0x1, %g5
    0x100006208:            b8 10 20 00  clr       %i4
    0x10000620c:            80 a5 60 01  cmp       %l5, 0x1
    0x100006210:            b6 10 00 02  mov       %g2, %i3
    0x100006214:            e9 19 20 00  ldd       [%g4], %d20
    0x100006218:            06 40 00 0d  bl,pn     %icc, +0x34   <0x10000624c>
    0x10000621c:            01 00 00 00  nop
    0x100006220:            93 2e b0 02  sllx      %i2, 0x2, %o1
    0x100006224:            c1 6e c0 09  prefetch  [%i3 + %o1], #n_reads
    0x100006228:            b8 07 20 01  add       %i4, 0x1, %i4
    0x10000622c:            e5 1e e0 00  ldd       [%i3], %d18
    0x100006230:            80 a7 00 05  cmp       %i4, %g5
    0x100006234:            a9 a5 09 52  fmuld     %d20, %d18, %d20
    0x100006238:            e9 39 20 00  std       %d20, [%g4]
    0x10000623c:            04 4f ff fa  ble,pt    %icc, -0x18   <0x100006224>
    0x100006240:            b6 06 c0 1a  add       %i3, %i2, %i3
    0x100006244:            10 80 00 0a  ba        +0x28         <0x10000626c>
    0x100006248:            01 00 00 00  nop
    0x10000624c:            b8 07 20 01  add       %i4, 0x1, %i4
    0x100006250:            e5 1e e0 00  ldd       [%i3], %d18
    0x100006254:            80 a7 00 05  cmp       %i4, %g5
    0x100006258:            b6 06 c0 1a  add       %i3, %i2, %i3
    0x10000625c:            a9 a5 09 52  fmuld     %d20, %d18, %d20
    0x100006260:            e9 39 20 00  std       %d20, [%g4]
    0x100006264:            04 4f ff fb  ble,pt    %icc, -0x14   <0x100006250>
    0x100006268:            b8 07 20 01  add       %i4, 0x1, %i4
    0x10000626c:            a0 04 20 01  add       %l0, 0x1, %l0
    0x100006270:            80 a4 00 01  cmp       %l0, %g1
    0x100006274:            88 01 20 08  add       %g4, 0x8, %g4
    0x100006278:            84 00 a0 08  add       %g2, 0x8, %g2
    0x10000627c:            04 4f ff e4  ble,pt    %icc, -0x70   <0x10000620c>
    0x100006280:            b8 10 20 00  clr       %i4
    0x100006284:            aa 05 60 01  add       %l5, 0x1, %l5
    0x100006288:            80 a5 40 13  cmp       %l5, %l3
    0x10000628c:            b0 06 00 1a  add       %i0, %i2, %i0
    0x100006290:            04 4f ff db  ble,pt    %icc, -0x94   <0x1000061fc>
    0x100006294:            a0 10 20 00  clr       %l0
    0x100006298:            94 10 00 12  mov       %l2, %o2
    0x10000629c:            92 10 20 00  clr       %o1
    0x1000062a0:            7f ff f3 30  call      -0x3340       <0x100002f60>
    0x1000062a4:            90 10 00 14  mov       %l4, %o0
    0x1000062a8:            81 c7 e0 08  ret
    0x1000062ac:            91 e8 20 01  restore   %g0, 0x1, %o0
    0x1000062b0:            3f f0 00 00  0x3ff00000
    0x1000062b4:            00 00 00 00  illtrap   0x0
    0x1000062b8:            3f e0 00 00  0x3fe00000
    0x1000062bc:            00 00 00 00  illtrap   0x0
    0x1000062c0:            00 00 00 00  illtrap   0x0
    0x1000062c4:            00 00 00 00  illtrap   0x0
    0x1000062c8:            bf f0 00 00  0xbff00000
    0x1000062cc:            00 00 00 00  illtrap   0x0
__1cVHJM_Swaption_Blocking6Fpddddddiid0p0llii_i_()
    0x1000062d0:            9d e3 bc 20  save      %sp, -0x3e0, %sp
    0x1000062d4:            e4 5f a8 af  ldx       [%fp + 0x8af], %l2
    0x1000062d8:            e4 27 a7 fb  st        %l2, [%fp + 0x7fb]
    0x1000062dc:            c1 07 a7 fb  ld        [%fp + 0x7fb], %f0
    0x1000062e0:            fa 5f a8 e7  ldx       [%fp + 0x8e7], %i5
    0x1000062e4:            fa 23 a8 d7  st        %i5, [%sp + 0x8d7]
    0x1000062e8:            b7 a0 19 00  fitod     %f0, %d58
    0x1000062ec:            e6 5f a8 d7  ldx       [%fp + 0x8d7], %l3
    0x1000062f0:            e2 5f a8 b7  ldx       [%fp + 0x8b7], %l1
    0x1000062f4:            ea 5f a8 df  ldx       [%fp + 0x8df], %l5
    0x1000062f8:            f0 73 a8 cf  stx       %i0, [%sp + 0x8cf]
    0x1000062fc:            e6 77 a7 df  stx       %l3, [%fp + 0x7df]
    0x100006300:            af a4 09 db  fdivd     %d16, %d58, %d54
    0x100006304:            3b 00 04 00  sethi     %hi(0x100000), %i5
    0x100006308:            a8 17 60 06  or        %i5, 0x6, %l4
    0x10000630c:            a9 2d 30 0c  sllx      %l4, 0xc, %l4
    0x100006310:            b4 05 22 c0  add       %l4, 0x2c0, %i2
    0x100006314:            ed 1e bf f0  ldd       [%i2 - 0x10], %d22
    0x100006318:            e3 1e bf f8  ldd       [%i2 - 0x8], %d48
    0x10000631c:            e9 1d 22 c0  ldd       [%l4 + 0x2c0], %d20
    0x100006320:            ad a5 89 d7  fdivd     %d22, %d54, %d22
    0x100006324:            bd a2 89 56  fmuld     %d10, %d22, %d30
    0x100006328:            9d a0 00 42  fmovd     %d2, %d14
    0x10000632c:            81 a9 0a 54  fcmpd     %fcc0, %d4, %d20
    0x100006330:            f4 73 a8 c7  stx       %i2, [%sp + 0x8c7]
    0x100006334:            bf a7 88 51  faddd     %d30, %d48, %d62
    0x100006338:            85 a0 1a 5f  fdtoi     %d62, %f2
    0x10000633c:            c5 23 a9 d7  st        %f2, [%sp + 0x9d7]
    0x100006340:            ee 03 a9 d7  ld        [%sp + 0x9d7], %l7
    0x100006344:            23 40 00 04  fbne,a,pn %fcc0, +0x10   <0x100006354>
    0x100006348:            db 1e bf f0  ldd       [%i2 - 0x10], %d44
    0x10000634c:            10 80 00 19  ba        +0x64         <0x1000063b0>
    0x100006350:            f2 03 a8 d7  ld        [%sp + 0x8d7], %i1
    0x100006354:            e1 3b a9 37  std       %d16, [%sp + 0x937]
    0x100006358:            d1 3b a9 8f  std       %d8, [%sp + 0x98f]
    0x10000635c:            d5 3b a9 77  std       %d10, [%sp + 0x977]
    0x100006360:            cd 3b a9 97  std       %d6, [%sp + 0x997]
    0x100006364:            c9 3b a9 d7  std       %d4, [%sp + 0x9d7]
    0x100006368:            f7 3b a9 87  std       %d58, [%sp + 0x987]
    0x10000636c:            ef 3b a9 57  std       %d54, [%sp + 0x957]
    0x100006370:            ab a3 89 44  fmuld     %d14, %d4, %d52
    0x100006374:            81 a5 48 4d  faddd     %d52, %d44, %d0
    0x100006378:            40 00 07 7a  call      +0x1de8       <0x100008160>
    0x10000637c:            ed 3b a9 7f  std       %d22, [%sp + 0x97f]
    0x100006380:            ef 1e bf f0  ldd       [%i2 - 0x10], %d54
    0x100006384:            c9 1b a9 d7  ldd       [%sp + 0x9d7], %d4
    0x100006388:            f7 1b a9 87  ldd       [%sp + 0x987], %d58
    0x10000638c:            d5 1b a9 77  ldd       [%sp + 0x977], %d10
    0x100006390:            9f a5 c9 c4  fdivd     %d54, %d4, %d46
    0x100006394:            e1 1b a9 37  ldd       [%sp + 0x937], %d16
    0x100006398:            d1 1b a9 8f  ldd       [%sp + 0x98f], %d8
    0x10000639c:            ed 1b a9 7f  ldd       [%sp + 0x97f], %d22
    0x1000063a0:            cd 1b a9 97  ldd       [%sp + 0x997], %d6
    0x1000063a4:            ef 1b a9 57  ldd       [%sp + 0x957], %d54
    0x1000063a8:            f2 03 a8 d7  ld        [%sp + 0x8d7], %i1
    0x1000063ac:            9d a3 c9 40  fmuld     %d46, %d0, %d14
    0x1000063b0:            bb 3e 60 00  sra       %i1, 0x0, %i5
    0x1000063b4:            b4 4c 80 1d  mulx      %l2, %i5, %i2
    0x1000063b8:            b1 3c a0 00  sra       %l2, 0x0, %i0
    0x1000063bc:            b9 3e a0 00  sra       %i2, 0x0, %i4
    0x1000063c0:            a0 07 3f ff  add       %i4, -0x1, %l0
    0x1000063c4:            a6 06 3f ff  add       %i0, -0x1, %l3
    0x1000063c8:            92 10 00 13  mov       %l3, %o1
    0x1000063cc:            96 10 00 10  mov       %l0, %o3
    0x1000063d0:            94 10 20 00  clr       %o2
    0x1000063d4:            90 10 20 00  clr       %o0
    0x1000063d8:            d5 3b a9 77  std       %d10, [%sp + 0x977]
    0x1000063dc:            d1 3b a9 8f  std       %d8, [%sp + 0x98f]
    0x1000063e0:            cd 3b a9 97  std       %d6, [%sp + 0x997]
    0x1000063e4:            dd 3b a9 9f  std       %d14, [%sp + 0x99f]
    0x1000063e8:            f7 3b a9 87  std       %d58, [%sp + 0x987]
    0x1000063ec:            e1 3b a9 37  std       %d16, [%sp + 0x937]
    0x1000063f0:            f0 73 a9 17  stx       %i0, [%sp + 0x917]
    0x1000063f4:            ef 3b a9 57  std       %d54, [%sp + 0x957]
    0x1000063f8:            7f ff f2 e0  call      -0x3480       <0x100002f78>
    0x1000063fc:            ed 3b a9 7f  std       %d22, [%sp + 0x97f]
    0x100006400:            92 10 00 13  mov       %l3, %o1
    0x100006404:            b4 10 00 08  mov       %o0, %i2
    0x100006408:            7f ff f2 c4  call      -0x34f0       <0x100002f18>
    0x10000640c:            90 10 20 00  clr       %o0
    0x100006410:            b6 06 3f fe  add       %i0, -0x2, %i3
    0x100006414:            8b 3c 60 00  sra       %l1, 0x0, %g5
    0x100006418:            d0 73 a8 df  stx       %o0, [%sp + 0x8df]
    0x10000641c:            96 10 00 1b  mov       %i3, %o3
    0x100006420:            94 10 20 00  clr       %o2
    0x100006424:            90 10 20 00  clr       %o0
    0x100006428:            ca 73 a9 07  stx       %g5, [%sp + 0x907]
    0x10000642c:            7f ff f2 d3  call      -0x34b4       <0x100002f78>
    0x100006430:            92 01 7f ff  add       %g5, -0x1, %o1
    0x100006434:            92 10 00 1b  mov       %i3, %o1
    0x100006438:            d0 73 a9 6f  stx       %o0, [%sp + 0x96f]
    0x10000643c:            7f ff f2 b7  call      -0x3524       <0x100002f18>
    0x100006440:            90 10 20 00  clr       %o0
    0x100006444:            92 10 00 10  mov       %l0, %o1
    0x100006448:            d0 73 a8 f7  stx       %o0, [%sp + 0x8f7]
    0x10000644c:            7f ff f2 b3  call      -0x3534       <0x100002f18>
    0x100006450:            90 10 20 00  clr       %o0
    0x100006454:            92 10 00 10  mov       %l0, %o1
    0x100006458:            d0 73 a9 0f  stx       %o0, [%sp + 0x90f]
    0x10000645c:            7f ff f2 af  call      -0x3544       <0x100002f18>
    0x100006460:            90 10 20 00  clr       %o0
    0x100006464:            ed 1b a9 7f  ldd       [%sp + 0x97f], %d22
    0x100006468:            cd 1b a9 97  ldd       [%sp + 0x997], %d6
    0x10000646c:            f7 1b a9 87  ldd       [%sp + 0x987], %d58
    0x100006470:            f6 5b a8 c7  ldx       [%sp + 0x8c7], %i3
    0x100006474:            b3 a1 89 56  fmuld     %d6, %d22, %d56
    0x100006478:            d0 73 a8 e7  stx       %o0, [%sp + 0x8e7]
    0x10000647c:            d7 1e ff f8  ldd       [%i3 - 0x8], %d42
    0x100006480:            90 10 20 00  clr       %o0
    0x100006484:            f3 3b a9 67  std       %d56, [%sp + 0x967]
    0x100006488:            ab a6 c8 d9  fsubd     %d58, %d56, %d52
    0x10000648c:            af a5 48 4b  faddd     %d52, %d42, %d54
    0x100006490:            95 a0 1a 57  fdtoi     %d54, %f10
    0x100006494:            d5 23 a9 5f  st        %f10, [%sp + 0x95f]
    0x100006498:            e0 03 a9 5f  ld        [%sp + 0x95f], %l0
    0x10000649c:            b9 3c 20 00  sra       %l0, 0x0, %i4
    0x1000064a0:            b2 4f 00 19  mulx      %i4, %i1, %i1
    0x1000064a4:            a3 3e 60 00  sra       %i1, 0x0, %l1
    0x1000064a8:            f8 73 a8 ff  stx       %i4, [%sp + 0x8ff]
    0x1000064ac:            b0 04 7f ff  add       %l1, -0x1, %i0
    0x1000064b0:            7f ff f2 9a  call      -0x3598       <0x100002f18>
    0x1000064b4:            92 10 00 18  mov       %i0, %o1
    0x1000064b8:            a6 10 00 08  mov       %o0, %l3
    0x1000064bc:            92 10 00 18  mov       %i0, %o1
    0x1000064c0:            7f ff f2 96  call      -0x35a8       <0x100002f18>
    0x1000064c4:            90 10 20 00  clr       %o0
    0x1000064c8:            d0 73 a8 ef  stx       %o0, [%sp + 0x8ef]
    0x1000064cc:            90 10 20 00  clr       %o0
    0x1000064d0:            7f ff f2 92  call      -0x35b8       <0x100002f18>
    0x1000064d4:            92 07 3f ff  add       %i4, -0x1, %o1
    0x1000064d8:            ed 1b a9 7f  ldd       [%sp + 0x97f], %d22
    0x1000064dc:            d1 1b a9 8f  ldd       [%sp + 0x98f], %d8
    0x1000064e0:            db 1e ff f8  ldd       [%i3 - 0x8], %d44
    0x1000064e4:            dd 1b a9 9f  ldd       [%sp + 0x99f], %d14
    0x1000064e8:            b7 a2 09 56  fmuld     %d8, %d22, %d58
    0x1000064ec:            d5 1b a9 77  ldd       [%sp + 0x977], %d10
    0x1000064f0:            b2 84 3f ff  addcc     %l0, -0x1, %i1
    0x1000064f4:            9f a6 c8 4d  faddd     %d58, %d44, %d46
    0x1000064f8:            99 a0 1a 4f  fdtoi     %d46, %f12
    0x1000064fc:            d9 23 a9 d7  st        %f12, [%sp + 0x9d7]
    0x100006500:            ec 03 a9 d7  ld        [%sp + 0x9d7], %l6
    0x100006504:            0c 40 00 1a  bneg,pn   %icc, +0x68   <0x10000656c>
    0x100006508:            a2 10 00 08  mov       %o0, %l1
    0x10000650c:            80 a4 20 04  cmp       %l0, 0x4
    0x100006510:            8a 10 20 00  clr       %g5
    0x100006514:            b6 10 00 08  mov       %o0, %i3
    0x100006518:            06 40 00 0f  bl,pn     %icc, +0x3c   <0x100006554>
    0x10000651c:            01 00 00 00  nop
    0x100006520:            92 04 3f fc  add       %l0, -0x4, %o1
    0x100006524:            ed 6e e1 10  prefetch  [%i3 + 0x110], #n_writes_strong
    0x100006528:            c0 76 e0 00  clrx      [%i3]
    0x10000652c:            8a 01 60 04  add       %g5, 0x4, %g5
    0x100006530:            b6 06 e0 20  add       %i3, 0x20, %i3
    0x100006534:            c0 76 ff e8  clrx      [%i3 - 0x18]
    0x100006538:            80 a1 40 09  cmp       %g5, %o1
    0x10000653c:            c0 76 ff f0  clrx      [%i3 - 0x10]
    0x100006540:            04 4f ff f9  ble,pt    %icc, -0x1c   <0x100006524>
    0x100006544:            c0 76 ff f8  clrx      [%i3 - 0x8]
    0x100006548:            80 a1 40 19  cmp       %g5, %i1
    0x10000654c:            14 40 00 08  bg,pn     %icc, +0x20   <0x10000656c>
    0x100006550:            01 00 00 00  nop
    0x100006554:            8a 01 60 01  add       %g5, 0x1, %g5
    0x100006558:            80 a1 40 19  cmp       %g5, %i1
    0x10000655c:            c0 76 e0 00  clrx      [%i3]
    0x100006560:            b6 06 e0 08  add       %i3, 0x8, %i3
    0x100006564:            04 4f ff fd  ble,pt    %icc, -0xc    <0x100006558>
    0x100006568:            8a 01 60 01  add       %g5, 0x1, %g5
    0x10000656c:            80 a5 c0 16  cmp       %l7, %l6
    0x100006570:            14 40 00 17  bg,pn     %icc, +0x5c   <0x1000065cc>
    0x100006574:            b7 3d e0 00  sra       %l7, 0x0, %i3
    0x100006578:            81 a3 89 4a  fmuld     %d14, %d10, %d0
    0x10000657c:            c1 3b a9 bf  std       %d0, [%sp + 0x9bf]
    0x100006580:            d0 5b a9 bf  ldx       [%sp + 0x9bf], %o0
    0x100006584:            b1 2e f0 03  sllx      %i3, 0x3, %i0
    0x100006588:            b8 10 00 17  mov       %l7, %i4
    0x10000658c:            40 00 05 d5  call      +0x1754       <0x100007ce0>
    0x100006590:            b6 06 00 11  add       %i0, %l1, %i3
    0x100006594:            de 5b a8 c7  ldx       [%sp + 0x8c7], %o7
    0x100006598:            80 a5 c0 16  cmp       %l7, %l6
    0x10000659c:            fb 1b e0 08  ldd       [%o7 + 0x8], %d60
    0x1000065a0:            22 40 00 06  be,a,pn   %icc, +0x18   <0x1000065b8>
    0x1000065a4:            c1 3e e0 00  std       %d0, [%i3]
    0x1000065a8:            97 a0 08 5d  faddd     %d0, %d60, %d42
    0x1000065ac:            d7 3e e0 00  std       %d42, [%i3]
    0x1000065b0:            10 80 00 03  ba        +0xc          <0x1000065bc>
    0x1000065b4:            b8 07 00 17  add       %i4, %l7, %i4
    0x1000065b8:            b8 07 00 17  add       %i4, %l7, %i4
    0x1000065bc:            80 a7 00 16  cmp       %i4, %l6
    0x1000065c0:            b6 06 c0 18  add       %i3, %i0, %i3
    0x1000065c4:            04 4f ff f7  ble,pt    %icc, -0x24   <0x1000065a0>
    0x1000065c8:            01 00 00 00  nop
    0x1000065cc:            d4 5f a8 c7  ldx       [%fp + 0x8c7], %o2
    0x1000065d0:            d0 5b a8 df  ldx       [%sp + 0x8df], %o0
    0x1000065d4:            7f ff f7 a9  call      -0x215c       <0x100004478>
    0x1000065d8:            d2 5b a9 17  ldx       [%sp + 0x917], %o1
    0x1000065dc:            80 a2 20 01  cmp       %o0, 0x1
    0x1000065e0:            22 40 00 04  be,a,pn   %icc, +0x10   <0x1000065f0>
    0x1000065e4:            d1 1b a9 37  ldd       [%sp + 0x937], %d8
    0x1000065e8:            81 c7 e0 08  ret
    0x1000065ec:            91 ea 20 00  restore   %o0, 0x0, %o0
    0x1000065f0:            da 5f a8 cf  ldx       [%fp + 0x8cf], %o5
    0x1000065f4:            d2 5b a9 6f  ldx       [%sp + 0x96f], %o1
    0x1000065f8:            d0 5b a8 f7  ldx       [%sp + 0x8f7], %o0
    0x1000065fc:            d6 5b a9 07  ldx       [%sp + 0x907], %o3
    0x100006600:            7f ff f8 a4  call      -0x1d70       <0x100004890>
    0x100006604:            d4 5b a9 17  ldx       [%sp + 0x917], %o2
    0x100006608:            80 a2 20 01  cmp       %o0, 0x1
    0x10000660c:            22 40 00 04  be,a,pn   %icc, +0x10   <0x10000661c>
    0x100006610:            f3 1b a9 67  ldd       [%sp + 0x967], %d56
    0x100006614:            81 c7 e0 08  ret
    0x100006618:            91 ea 20 00  restore   %o0, 0x0, %o0
    0x10000661c:            ed 1d 22 c0  ldd       [%l4 + 0x2c0], %d22
    0x100006620:            e9 1d 22 c0  ldd       [%l4 + 0x2c0], %d20
    0x100006624:            96 05 7f ff  add       %l5, -0x1, %o3
    0x100006628:            d6 73 a9 1f  stx       %o3, [%sp + 0x91f]
    0x10000662c:            ef 1b a9 57  ldd       [%sp + 0x957], %d54
    0x100006630:            80 a0 00 0b  cmp       %g0, %o3
    0x100006634:            e1 1b a9 37  ldd       [%sp + 0x937], %d16
    0x100006638:            14 60 01 72  bg,pn     %xcc, +0x5c8  <0x100006c00>
    0x10000663c:            b6 04 bf ff  add       %l2, -0x1, %i3
    0x100006640:            d8 5b a8 c7  ldx       [%sp + 0x8c7], %o4
    0x100006644:            da 03 a8 d7  ld        [%sp + 0x8d7], %o5
    0x100006648:            a1 3e e0 00  sra       %i3, 0x0, %l0
    0x10000664c:            e7 1b 3f f8  ldd       [%o4 - 0x8], %d50
    0x100006650:            a5 34 30 3f  srlx      %l0, 0x3f, %l2
    0x100006654:            cd 03 a9 5f  ld        [%sp + 0x95f], %f6
    0x100006658:            b8 03 7f ff  add       %o5, -0x1, %i4
    0x10000665c:            ab 3f 20 00  sra       %i4, 0x0, %l5
    0x100006660:            d4 5b a9 0f  ldx       [%sp + 0x90f], %o2
    0x100006664:            b1 35 70 3f  srlx      %l5, 0x3f, %i0
    0x100006668:            a5 a6 48 53  faddd     %d56, %d50, %d18
    0x10000666c:            88 1c a0 01  xor       %l2, 0x1, %g4
    0x100006670:            ae 1e 20 01  xor       %i0, 0x1, %l7
    0x100006674:            ac 0d c0 04  and       %l7, %g4, %l6
    0x100006678:            96 0d a0 ff  and       %l6, 0xff, %o3
    0x10000667c:            d6 23 a9 2f  st        %o3, [%sp + 0x92f]
    0x100006680:            91 a0 1a 52  fdtoi     %d18, %f8
    0x100006684:            d1 23 a9 d7  st        %f8, [%sp + 0x9d7]
    0x100006688:            d2 03 a9 d7  ld        [%sp + 0x9d7], %o1
    0x10000668c:            aa 10 20 00  clr       %l5
    0x100006690:            a5 2f 70 03  sllx      %i5, 0x3, %l2
    0x100006694:            87 3a 60 00  sra       %o1, 0x0, %g3
    0x100006698:            a1 28 f0 03  sllx      %g3, 0x3, %l0
    0x10000669c:            9a 4f 40 10  mulx      %i5, %l0, %o5
    0x1000066a0:            bb a0 19 06  fitod     %f6, %d60
    0x1000066a4:            92 03 40 0a  add       %o5, %o2, %o1
    0x1000066a8:            da 5f a8 cf  ldx       [%fp + 0x8cf], %o5
    0x1000066ac:            d2 73 a9 27  stx       %o1, [%sp + 0x927]
    0x1000066b0:            89 a7 49 57  fmuld     %d60, %d54, %d4
    0x1000066b4:            da 73 a8 af  stx       %o5, [%sp + 0x8af]
    0x1000066b8:            da 5b a8 f7  ldx       [%sp + 0x8f7], %o5
    0x1000066bc:            d4 5b a9 07  ldx       [%sp + 0x907], %o2
    0x1000066c0:            e1 3b a9 37  std       %d16, [%sp + 0x937]
    0x1000066c4:            c9 3b a9 3f  std       %d4, [%sp + 0x93f]
    0x1000066c8:            e9 3b a9 47  std       %d20, [%sp + 0x947]
    0x1000066cc:            ed 3b a9 4f  std       %d22, [%sp + 0x94f]
    0x1000066d0:            98 07 a7 df  add       %fp, 0x7df, %o4
    0x1000066d4:            d8 73 a8 b7  stx       %o4, [%sp + 0x8b7]
    0x1000066d8:            d8 5b a8 df  ldx       [%sp + 0x8df], %o4
    0x1000066dc:            90 10 00 1a  mov       %i2, %o0
    0x1000066e0:            8d a0 00 50  fmovd     %d16, %d6
    0x1000066e4:            fa 73 a8 bf  stx       %i5, [%sp + 0x8bf]
    0x1000066e8:            7f ff f4 10  call      -0x2fc0       <0x100003728>
    0x1000066ec:            d2 5b a9 17  ldx       [%sp + 0x917], %o1
    0x1000066f0:            80 a2 20 01  cmp       %o0, 0x1
    0x1000066f4:            32 40 01 5f  bne,a,pn  %icc, +0x57c  <0x100006c70>
    0x1000066f8:            94 10 00 08  mov       %o0, %o2
    0x1000066fc:            de 03 a9 2f  ld        [%sp + 0x92f], %o7
    0x100006700:            e1 1b a9 37  ldd       [%sp + 0x937], %d16
    0x100006704:            80 a3 e0 00  cmp       %o7, 0x0
    0x100006708:            02 40 00 39  be,pn     %icc, +0xe4   <0x1000067ec>
    0x10000670c:            94 10 20 00  clr       %o2
    0x100006710:            84 10 00 1a  mov       %i2, %g2
    0x100006714:            ca 5b a8 e7  ldx       [%sp + 0x8e7], %g5
    0x100006718:            ae 10 20 00  clr       %l7
    0x10000671c:            90 07 20 01  add       %i4, 0x1, %o0
    0x100006720:            80 a2 20 05  cmp       %o0, 0x5
    0x100006724:            9e 10 00 05  mov       %g5, %o7
    0x100006728:            ac 10 20 00  clr       %l6
    0x10000672c:            06 40 00 21  bl,pn     %icc, +0x84   <0x1000067b0>
    0x100006730:            01 00 00 00  nop
    0x100006734:            f0 58 a0 00  ldx       [%g2], %i0
    0x100006738:            9e 01 60 08  add       %g5, 0x8, %o7
    0x10000673c:            ae 10 20 01  mov       0x1, %l7
    0x100006740:            dd 1e 20 00  ldd       [%i0], %d14
    0x100006744:            82 27 20 03  sub       %i4, 0x3, %g1
    0x100006748:            dd 39 60 00  std       %d14, [%g5]
    0x10000674c:            ac 10 20 08  mov       0x8, %l6
    0x100006750:            ed 6b e1 10  prefetch  [%o7 + 0x110], #n_writes_strong
    0x100006754:            ae 05 e0 04  add       %l7, 0x4, %l7
    0x100006758:            9e 03 e0 20  add       %o7, 0x20, %o7
    0x10000675c:            c6 58 a0 00  ldx       [%g2], %g3
    0x100006760:            80 a5 c0 01  cmp       %l7, %g1
    0x100006764:            ef 18 c0 16  ldd       [%g3 + %l6], %d54
    0x100006768:            ef 3b ff e0  std       %d54, [%o7 - 0x20]
    0x10000676c:            9a 05 a0 08  add       %l6, 0x8, %o5
    0x100006770:            ec 58 a0 00  ldx       [%g2], %l6
    0x100006774:            ff 1d 80 0d  ldd       [%l6 + %o5], %d62
    0x100006778:            ff 3b ff e8  std       %d62, [%o7 - 0x18]
    0x10000677c:            96 03 60 08  add       %o5, 0x8, %o3
    0x100006780:            d8 58 a0 00  ldx       [%g2], %o4
    0x100006784:            fb 1b 00 0b  ldd       [%o4 + %o3], %d60
    0x100006788:            fb 3b ff f0  std       %d60, [%o7 - 0x10]
    0x10000678c:            88 03 60 10  add       %o5, 0x10, %g4
    0x100006790:            d2 58 a0 00  ldx       [%g2], %o1
    0x100006794:            f7 1a 40 04  ldd       [%o1 + %g4], %d58
    0x100006798:            f7 3b ff f8  std       %d58, [%o7 - 0x8]
    0x10000679c:            04 4f ff ed  ble,pt    %icc, -0x4c   <0x100006750>
    0x1000067a0:            ac 03 60 18  add       %o5, 0x18, %l6
    0x1000067a4:            80 a5 c0 1c  cmp       %l7, %i4
    0x1000067a8:            14 40 00 0b  bg,pn     %icc, +0x2c   <0x1000067d4>
    0x1000067ac:            01 00 00 00  nop
    0x1000067b0:            ae 05 e0 01  add       %l7, 0x1, %l7
    0x1000067b4:            d8 58 a0 00  ldx       [%g2], %o4
    0x1000067b8:            80 a5 c0 1c  cmp       %l7, %i4
    0x1000067bc:            dd 1b 00 16  ldd       [%o4 + %l6], %d14
    0x1000067c0:            ac 05 a0 08  add       %l6, 0x8, %l6
    0x1000067c4:            dd 3b e0 00  std       %d14, [%o7]
    0x1000067c8:            9e 03 e0 08  add       %o7, 0x8, %o7
    0x1000067cc:            04 4f ff fa  ble,pt    %icc, -0x18   <0x1000067b4>
    0x1000067d0:            ae 05 e0 01  add       %l7, 0x1, %l7
    0x1000067d4:            94 02 a0 01  add       %o2, 0x1, %o2
    0x1000067d8:            80 a2 80 1b  cmp       %o2, %i3
    0x1000067dc:            8a 01 40 12  add       %g5, %l2, %g5
    0x1000067e0:            84 00 a0 08  add       %g2, 0x8, %g2
    0x1000067e4:            04 4f ff ce  ble,pt    %icc, -0xc8   <0x10000671c>
    0x1000067e8:            ae 10 20 00  clr       %l7
    0x1000067ec:            d6 5b a8 e7  ldx       [%sp + 0x8e7], %o3
    0x1000067f0:            98 10 00 1d  mov       %i5, %o4
    0x1000067f4:            d0 5b a9 0f  ldx       [%sp + 0x90f], %o0
    0x1000067f8:            89 a0 00 50  fmovd     %d16, %d4
    0x1000067fc:            7f ff fd a5  call      -0x96c        <0x100005e90>
    0x100006800:            d2 5b a9 17  ldx       [%sp + 0x917], %o1
    0x100006804:            80 a2 20 01  cmp       %o0, 0x1
    0x100006808:            32 40 01 1a  bne,a,pn  %icc, +0x468  <0x100006c70>
    0x10000680c:            94 10 00 08  mov       %o0, %o2
    0x100006810:            c9 1b a9 3f  ldd       [%sp + 0x93f], %d4
    0x100006814:            80 a6 60 00  cmp       %i1, 0x0
    0x100006818:            06 40 00 58  bl,pn     %icc, +0x160  <0x100006978>
    0x10000681c:            f0 03 a8 d7  ld        [%sp + 0x8d7], %i0
    0x100006820:            80 a6 20 00  cmp       %i0, 0x0
    0x100006824:            04 40 00 47  ble,pn    %icc, +0x11c  <0x100006940>
    0x100006828:            8a 10 20 00  clr       %g5
    0x10000682c:            91 39 60 00  sra       %g5, 0x0, %o0
    0x100006830:            94 4a 00 12  mulx      %o0, %l2, %o2
    0x100006834:            97 2a 30 03  sllx      %o0, 0x3, %o3
    0x100006838:            98 4a c0 1d  mulx      %o3, %i5, %o4
    0x10000683c:            ae 07 20 01  add       %i4, 0x1, %l7
    0x100006840:            80 a5 e0 05  cmp       %l7, 0x5
    0x100006844:            96 02 80 13  add       %o2, %l3, %o3
    0x100006848:            9a 10 20 00  clr       %o5
    0x10000684c:            06 40 00 21  bl,pn     %icc, +0x84   <0x1000068d0>
    0x100006850:            01 00 00 00  nop
    0x100006854:            c2 5e 80 10  ldx       [%i2 + %l0], %g1
    0x100006858:            96 02 e0 08  add       %o3, 0x8, %o3
    0x10000685c:            9a 10 20 01  mov       0x1, %o5
    0x100006860:            f3 18 40 0c  ldd       [%g1 + %o4], %d56
    0x100006864:            b0 27 20 03  sub       %i4, 0x3, %i0
    0x100006868:            f3 3a ff f8  std       %d56, [%o3 - 0x8]
    0x10000686c:            98 03 20 08  add       %o4, 0x8, %o4
    0x100006870:            ed 6a e1 10  prefetch  [%o3 + 0x110], #n_writes_strong
    0x100006874:            9a 03 60 04  add       %o5, 0x4, %o5
    0x100006878:            96 02 e0 20  add       %o3, 0x20, %o3
    0x10000687c:            c4 5e 80 10  ldx       [%i2 + %l0], %g2
    0x100006880:            80 a3 40 18  cmp       %o5, %i0
    0x100006884:            e5 18 80 0c  ldd       [%g2 + %o4], %d18
    0x100006888:            e5 3a ff e0  std       %d18, [%o3 - 0x20]
    0x10000688c:            90 03 20 08  add       %o4, 0x8, %o0
    0x100006890:            de 5e 80 10  ldx       [%i2 + %l0], %o7
    0x100006894:            eb 1b c0 08  ldd       [%o7 + %o0], %d52
    0x100006898:            eb 3a ff e8  std       %d52, [%o3 - 0x18]
    0x10000689c:            86 03 20 10  add       %o4, 0x10, %g3
    0x1000068a0:            ec 5e 80 10  ldx       [%i2 + %l0], %l6
    0x1000068a4:            e7 1d 80 03  ldd       [%l6 + %g3], %d50
    0x1000068a8:            e7 3a ff f0  std       %d50, [%o3 - 0x10]
    0x1000068ac:            92 03 20 18  add       %o4, 0x18, %o1
    0x1000068b0:            d8 5e 80 10  ldx       [%i2 + %l0], %o4
    0x1000068b4:            e3 1b 00 09  ldd       [%o4 + %o1], %d48
    0x1000068b8:            e3 3a ff f8  std       %d48, [%o3 - 0x8]
    0x1000068bc:            04 4f ff ed  ble,pt    %icc, -0x4c   <0x100006870>
    0x1000068c0:            98 02 60 08  add       %o1, 0x8, %o4
    0x1000068c4:            80 a3 40 1c  cmp       %o5, %i4
    0x1000068c8:            14 40 00 0b  bg,pn     %icc, +0x2c   <0x1000068f4>
    0x1000068cc:            01 00 00 00  nop
    0x1000068d0:            9a 03 60 01  add       %o5, 0x1, %o5
    0x1000068d4:            c2 5e 80 10  ldx       [%i2 + %l0], %g1
    0x1000068d8:            80 a3 40 1c  cmp       %o5, %i4
    0x1000068dc:            f3 18 40 0c  ldd       [%g1 + %o4], %d56
    0x1000068e0:            98 03 20 08  add       %o4, 0x8, %o4
    0x1000068e4:            f3 3a e0 00  std       %d56, [%o3]
    0x1000068e8:            96 02 e0 08  add       %o3, 0x8, %o3
    0x1000068ec:            04 4f ff fa  ble,pt    %icc, -0x18   <0x1000068d4>
    0x1000068f0:            9a 03 60 01  add       %o5, 0x1, %o5
    0x1000068f4:            8a 01 60 01  add       %g5, 0x1, %g5
    0x1000068f8:            80 a1 40 19  cmp       %g5, %i1
    0x1000068fc:            04 4f ff cd  ble,pt    %icc, -0xcc   <0x100006830>
    0x100006900:            91 39 60 00  sra       %g5, 0x0, %o0
    0x100006904:            96 10 00 13  mov       %l3, %o3
    0x100006908:            d0 5b a8 ef  ldx       [%sp + 0x8ef], %o0
    0x10000690c:            98 10 00 1d  mov       %i5, %o4
    0x100006910:            7f ff fd 60  call      -0xa80        <0x100005e90>
    0x100006914:            d2 5b a8 ff  ldx       [%sp + 0x8ff], %o1
    0x100006918:            80 a2 20 01  cmp       %o0, 0x1
    0x10000691c:            12 40 00 d5  bne,pn    %icc, +0x354  <0x100006c70>
    0x100006920:            94 10 00 08  mov       %o0, %o2
    0x100006924:            e1 1b a9 37  ldd       [%sp + 0x937], %d16
    0x100006928:            c9 1b a9 3f  ldd       [%sp + 0x93f], %d4
    0x10000692c:            e9 1b a9 47  ldd       [%sp + 0x947], %d20
    0x100006930:            ed 1b a9 4f  ldd       [%sp + 0x94f], %d22
    0x100006934:            ac 10 20 00  clr       %l6
    0x100006938:            10 80 00 21  ba        +0x84         <0x1000069bc>
    0x10000693c:            ee 5b a8 ef  ldx       [%sp + 0x8ef], %l7
    0x100006940:            96 10 00 13  mov       %l3, %o3
    0x100006944:            d0 5b a8 ef  ldx       [%sp + 0x8ef], %o0
    0x100006948:            98 10 00 1d  mov       %i5, %o4
    0x10000694c:            7f ff fd 51  call      -0xabc        <0x100005e90>
    0x100006950:            d2 5b a8 ff  ldx       [%sp + 0x8ff], %o1
    0x100006954:            80 a2 20 01  cmp       %o0, 0x1
    0x100006958:            12 40 00 c6  bne,pn    %icc, +0x318  <0x100006c70>
    0x10000695c:            94 10 00 08  mov       %o0, %o2
    0x100006960:            e1 1b a9 37  ldd       [%sp + 0x937], %d16
    0x100006964:            c9 1b a9 3f  ldd       [%sp + 0x93f], %d4
    0x100006968:            e9 1b a9 47  ldd       [%sp + 0x947], %d20
    0x10000696c:            ed 1b a9 4f  ldd       [%sp + 0x94f], %d22
    0x100006970:            10 80 00 a0  ba        +0x280        <0x100006bf0>
    0x100006974:            aa 05 40 1d  add       %l5, %i5, %l5
    0x100006978:            96 10 00 13  mov       %l3, %o3
    0x10000697c:            d0 5b a8 ef  ldx       [%sp + 0x8ef], %o0
    0x100006980:            98 10 00 1d  mov       %i5, %o4
    0x100006984:            7f ff fd 43  call      -0xaf4        <0x100005e90>
    0x100006988:            d2 5b a8 ff  ldx       [%sp + 0x8ff], %o1
    0x10000698c:            80 a2 20 01  cmp       %o0, 0x1
    0x100006990:            12 40 00 b8  bne,pn    %icc, +0x2e0  <0x100006c70>
    0x100006994:            94 10 00 08  mov       %o0, %o2
    0x100006998:            c2 03 a8 d7  ld        [%sp + 0x8d7], %g1
    0x10000699c:            c9 1b a9 3f  ldd       [%sp + 0x93f], %d4
    0x1000069a0:            e1 1b a9 37  ldd       [%sp + 0x937], %d16
    0x1000069a4:            e9 1b a9 47  ldd       [%sp + 0x947], %d20
    0x1000069a8:            80 a0 60 00  cmp       %g1, 0x0
    0x1000069ac:            ed 1b a9 4f  ldd       [%sp + 0x94f], %d22
    0x1000069b0:            04 40 00 8f  ble,pn    %icc, +0x23c  <0x100006bec>
    0x1000069b4:            ac 10 20 00  clr       %l6
    0x1000069b8:            ee 5b a8 ef  ldx       [%sp + 0x8ef], %l7
    0x1000069bc:            f0 5b a9 27  ldx       [%sp + 0x927], %i0
    0x1000069c0:            80 a6 60 00  cmp       %i1, 0x0
    0x1000069c4:            db 1d 22 c0  ldd       [%l4 + 0x2c0], %d44
    0x1000069c8:            06 40 00 71  bl,pn     %icc, +0x1c4  <0x100006b8c>
    0x1000069cc:            88 10 20 00  clr       %g4
    0x1000069d0:            90 06 60 01  add       %i1, 0x1, %o0
    0x1000069d4:            80 a2 20 10  cmp       %o0, 0x10
    0x1000069d8:            92 10 00 11  mov       %l1, %o1
    0x1000069dc:            84 10 00 17  mov       %l7, %g2
    0x1000069e0:            06 40 00 61  bl,pn     %icc, +0x184  <0x100006b64>
    0x1000069e4:            01 00 00 00  nop
    0x1000069e8:            90 4c a0 0a  mulx      %l2, 0xa, %o0
    0x1000069ec:            fd 1c 60 08  ldd       [%l1 + 0x8], %d30
    0x1000069f0:            ef 1c 60 18  ldd       [%l1 + 0x18], %d54
    0x1000069f4:            d7 1c 80 17  ldd       [%l2 + %l7], %d42
    0x1000069f8:            e5 1c 60 00  ldd       [%l1], %d18
    0x1000069fc:            df 1d e0 00  ldd       [%l7], %d46
    0x100006a00:            f7 1c 60 10  ldd       [%l1 + 0x10], %d58
    0x100006a04:            e3 1c 60 20  ldd       [%l1 + 0x20], %d48
    0x100006a08:            ff 1c 60 28  ldd       [%l1 + 0x28], %d62
    0x100006a0c:            9a 05 c0 12  add       %l7, %l2, %o5
    0x100006a10:            dd 1c 80 0d  ldd       [%l2 + %o5], %d14
    0x100006a14:            96 03 40 12  add       %o5, %l2, %o3
    0x100006a18:            fb 1c 80 0b  ldd       [%l2 + %o3], %d60
    0x100006a1c:            e7 1c 60 30  ldd       [%l1 + 0x30], %d50
    0x100006a20:            8a 02 c0 12  add       %o3, %l2, %g5
    0x100006a24:            eb 1c 60 38  ldd       [%l1 + 0x38], %d52
    0x100006a28:            b3 a7 89 4b  fmuld     %d30, %d42, %d56
    0x100006a2c:            94 01 40 12  add       %g5, %l2, %o2
    0x100006a30:            d7 1c 80 0a  ldd       [%l2 + %o2], %d42
    0x100006a34:            82 02 80 12  add       %o2, %l2, %g1
    0x100006a38:            bb a5 c9 5d  fmuld     %d54, %d60, %d60
    0x100006a3c:            9a 00 40 12  add       %g1, %l2, %o5
    0x100006a40:            fd 1c 80 05  ldd       [%l2 + %g5], %d30
    0x100006a44:            af a4 89 4f  fmuld     %d18, %d46, %d54
    0x100006a48:            e5 1d 22 c0  ldd       [%l4 + 0x2c0], %d18
    0x100006a4c:            92 04 60 40  add       %l1, 0x40, %o1
    0x100006a50:            b3 a3 48 59  faddd     %d44, %d56, %d56
    0x100006a54:            db 1c 80 01  ldd       [%l2 + %g1], %d44
    0x100006a58:            88 10 20 08  mov       0x8, %g4
    0x100006a5c:            94 03 40 12  add       %o5, %l2, %o2
    0x100006a60:            b7 a6 c9 4e  fmuld     %d58, %d14, %d58
    0x100006a64:            a5 a4 88 57  faddd     %d18, %d54, %d18
    0x100006a68:            df 1c 80 0d  ldd       [%l2 + %o5], %d46
    0x100006a6c:            86 26 60 07  sub       %i1, 0x7, %g3
    0x100006a70:            c1 6a 60 48  prefetch  [%o1 + 0x48], #n_reads
    0x100006a74:            c1 6a 80 08  prefetch  [%o2 + %o0], #n_reads
    0x100006a78:            96 02 80 12  add       %o2, %l2, %o3
    0x100006a7c:            88 01 20 08  add       %g4, 0x8, %g4
    0x100006a80:            dd 1a 60 00  ldd       [%o1], %d14
    0x100006a84:            b7 a4 88 5b  faddd     %d18, %d58, %d58
    0x100006a88:            80 a1 00 03  cmp       %g4, %g3
    0x100006a8c:            e5 1c 80 0a  ldd       [%l2 + %o2], %d18
    0x100006a90:            a3 a4 49 5e  fmuld     %d48, %d30, %d48
    0x100006a94:            8a 02 c0 12  add       %o3, %l2, %g5
    0x100006a98:            ef 1a 60 08  ldd       [%o1 + 0x8], %d54
    0x100006a9c:            92 02 60 40  add       %o1, 0x40, %o1
    0x100006aa0:            bd a6 48 5d  faddd     %d56, %d60, %d30
    0x100006aa4:            bf a7 c9 4b  fmuld     %d62, %d42, %d62
    0x100006aa8:            d7 1c 80 0b  ldd       [%l2 + %o3], %d42
    0x100006aac:            94 01 40 12  add       %g5, %l2, %o2
    0x100006ab0:            f9 1a 7f d0  ldd       [%o1 - 0x30], %d28
    0x100006ab4:            b7 a6 c8 51  faddd     %d58, %d48, %d58
    0x100006ab8:            a7 a4 c9 4d  fmuld     %d50, %d44, %d50
    0x100006abc:            db 1c 80 05  ldd       [%l2 + %g5], %d44
    0x100006ac0:            82 02 80 12  add       %o2, %l2, %g1
    0x100006ac4:            f5 1a 7f d8  ldd       [%o1 - 0x28], %d26
    0x100006ac8:            bb a7 88 5f  faddd     %d30, %d62, %d60
    0x100006acc:            ab a5 49 4f  fmuld     %d52, %d46, %d52
    0x100006ad0:            f1 1c 80 0a  ldd       [%l2 + %o2], %d24
    0x100006ad4:            84 00 40 12  add       %g1, %l2, %g2
    0x100006ad8:            e3 1a 7f e0  ldd       [%o1 - 0x20], %d48
    0x100006adc:            b7 a6 c8 53  faddd     %d58, %d50, %d58
    0x100006ae0:            b3 a3 89 52  fmuld     %d14, %d18, %d56
    0x100006ae4:            fd 1c 80 01  ldd       [%l2 + %g1], %d30
    0x100006ae8:            9e 00 80 12  add       %g2, %l2, %o7
    0x100006aec:            ff 1a 7f e8  ldd       [%o1 - 0x18], %d62
    0x100006af0:            9d a7 48 55  faddd     %d60, %d52, %d14
    0x100006af4:            9f a5 c9 4b  fmuld     %d54, %d42, %d46
    0x100006af8:            d7 1c 80 02  ldd       [%l2 + %g2], %d42
    0x100006afc:            98 03 c0 12  add       %o7, %l2, %o4
    0x100006b00:            e7 1a 7f f0  ldd       [%o1 - 0x10], %d50
    0x100006b04:            a5 a6 c8 59  faddd     %d58, %d56, %d18
    0x100006b08:            b7 a7 09 4d  fmuld     %d28, %d44, %d58
    0x100006b0c:            db 1c 80 0f  ldd       [%l2 + %o7], %d44
    0x100006b10:            94 03 00 12  add       %o4, %l2, %o2
    0x100006b14:            eb 1a 7f f8  ldd       [%o1 - 0x8], %d52
    0x100006b18:            b3 a3 88 4f  faddd     %d14, %d46, %d56
    0x100006b1c:            df 1c 80 0c  ldd       [%l2 + %o4], %d46
    0x100006b20:            04 4f ff d4  ble,pt    %icc, -0xb0   <0x100006a70>
    0x100006b24:            bb a6 89 58  fmuld     %d26, %d24, %d60
    0x100006b28:            9d a6 48 5d  faddd     %d56, %d60, %d14
    0x100006b2c:            bb a4 49 5e  fmuld     %d48, %d30, %d60
    0x100006b30:            bd a4 88 5b  faddd     %d18, %d58, %d30
    0x100006b34:            97 a7 c9 4b  fmuld     %d62, %d42, %d42
    0x100006b38:            bf a5 49 4f  fmuld     %d52, %d46, %d62
    0x100006b3c:            af a4 c9 4d  fmuld     %d50, %d44, %d54
    0x100006b40:            80 a1 00 19  cmp       %g4, %i1
    0x100006b44:            84 02 80 12  add       %o2, %l2, %g2
    0x100006b48:            9b a7 88 5d  faddd     %d30, %d60, %d44
    0x100006b4c:            9f a3 88 4b  faddd     %d14, %d42, %d46
    0x100006b50:            b3 a3 48 57  faddd     %d44, %d54, %d56
    0x100006b54:            b7 a3 c8 5f  faddd     %d46, %d62, %d58
    0x100006b58:            9b a6 48 5b  faddd     %d56, %d58, %d44
    0x100006b5c:            14 40 00 0c  bg,pn     %icc, +0x30   <0x100006b8c>
    0x100006b60:            01 00 00 00  nop
    0x100006b64:            e5 18 a0 00  ldd       [%g2], %d18
    0x100006b68:            fb 1a 60 00  ldd       [%o1], %d60
    0x100006b6c:            88 01 20 01  add       %g4, 0x1, %g4
    0x100006b70:            80 a1 00 19  cmp       %g4, %i1
    0x100006b74:            97 a7 49 52  fmuld     %d60, %d18, %d42
    0x100006b78:            84 00 80 12  add       %g2, %l2, %g2
    0x100006b7c:            92 02 60 08  add       %o1, 0x8, %o1
    0x100006b80:            9b a3 48 4b  faddd     %d44, %d42, %d44
    0x100006b84:            24 4f ff f9  ble,a,pt  %icc, -0x1c   <0x100006b68>
    0x100006b88:            e5 18 a0 00  ldd       [%g2], %d18
    0x100006b8c:            d0 5b a8 c7  ldx       [%sp + 0x8c7], %o0
    0x100006b90:            c5 1d 22 c0  ldd       [%l4 + 0x2c0], %d2
    0x100006b94:            e1 3b a9 37  std       %d16, [%sp + 0x937]
    0x100006b98:            e3 1a 20 08  ldd       [%o0 + 0x8], %d48
    0x100006b9c:            c9 3b a9 3f  std       %d4, [%sp + 0x93f]
    0x100006ba0:            e9 3b a9 47  std       %d20, [%sp + 0x947]
    0x100006ba4:            81 a3 48 51  faddd     %d44, %d48, %d0
    0x100006ba8:            7f ff ed 9c  call      -0x4990       <0x100002218>
    0x100006bac:            ed 3b a9 4f  std       %d22, [%sp + 0x94f]
    0x100006bb0:            fd 1e 20 00  ldd       [%i0], %d30
    0x100006bb4:            ed 1b a9 4f  ldd       [%sp + 0x94f], %d22
    0x100006bb8:            e9 1b a9 47  ldd       [%sp + 0x947], %d20
    0x100006bbc:            bf a0 09 5e  fmuld     %d0, %d30, %d62
    0x100006bc0:            ac 05 a0 01  add       %l6, 0x1, %l6
    0x100006bc4:            80 a5 80 1c  cmp       %l6, %i4
    0x100006bc8:            e1 1b a9 37  ldd       [%sp + 0x937], %d16
    0x100006bcc:            c9 1b a9 3f  ldd       [%sp + 0x93f], %d4
    0x100006bd0:            ae 05 e0 08  add       %l7, 0x8, %l7
    0x100006bd4:            a7 a7 c9 5f  fmuld     %d62, %d62, %d50
    0x100006bd8:            ad a5 88 5f  faddd     %d22, %d62, %d22
    0x100006bdc:            b0 06 20 08  add       %i0, 0x8, %i0
    0x100006be0:            a9 a5 08 53  faddd     %d20, %d50, %d20
    0x100006be4:            04 4f ff 78  ble,pt    %icc, -0x220  <0x1000069c4>
    0x100006be8:            80 a6 60 00  cmp       %i1, 0x0
    0x100006bec:            aa 05 40 1d  add       %l5, %i5, %l5
    0x100006bf0:            c4 5b a9 1f  ldx       [%sp + 0x91f], %g2
    0x100006bf4:            80 a5 40 02  cmp       %l5, %g2
    0x100006bf8:            24 6f fe af  ble,a,pt  %xcc, -0x544  <0x1000066b4>
    0x100006bfc:            da 5f a8 cf  ldx       [%fp + 0x8cf], %o5
    0x100006c00:            eb 1f a8 df  ldd       [%fp + 0x8df], %d52
    0x100006c04:            c8 5b a8 c7  ldx       [%sp + 0x8c7], %g4
    0x100006c08:            1f 00 04 00  sethi     %hi(0x100000), %o7
    0x100006c0c:            b3 a0 11 15  fxtod     %d52, %d56
    0x100006c10:            ef 19 3f f0  ldd       [%g4 - 0x10], %d54
    0x100006c14:            f7 19 20 08  ldd       [%g4 + 0x8], %d58
    0x100006c18:            ba 13 e0 06  or        %o7, 0x6, %i5
    0x100006c1c:            a9 2f 70 0c  sllx      %i5, 0xc, %l4
    0x100006c20:            c1 1d 22 b0  ldd       [%l4 + 0x2b0], %d0
    0x100006c24:            9f a5 c9 d9  fdivd     %d54, %d56, %d46
    0x100006c28:            bd a5 89 4f  fmuld     %d22, %d46, %d30
    0x100006c2c:            a9 a5 09 4f  fmuld     %d20, %d46, %d20
    0x100006c30:            fd 3b a9 df  std       %d30, [%sp + 0x9df]
    0x100006c34:            85 a6 48 5b  faddd     %d56, %d58, %d2
    0x100006c38:            ad a7 89 5e  fmuld     %d30, %d30, %d22
    0x100006c3c:            9d a5 08 d6  fsubd     %d20, %d22, %d14
    0x100006c40:            a3 a0 01 4e  fabsd     %d14, %d48
    0x100006c44:            a7 a0 05 51  fsqrtd    %d48, %d50
    0x100006c48:            40 04 5c 86  call      +0x117218     <0x10011de60>
    0x100006c4c:            e7 3b a9 d7  std       %d50, [%sp + 0x9d7]
    0x100006c50:            bf a0 05 40  fsqrtd    %d0, %d62
    0x100006c54:            e7 1b a9 d7  ldd       [%sp + 0x9d7], %d50
    0x100006c58:            c6 5b a8 cf  ldx       [%sp + 0x8cf], %g3
    0x100006c5c:            fd 1b a9 df  ldd       [%sp + 0x9df], %d30
    0x100006c60:            a5 a4 c9 df  fdivd     %d50, %d62, %d18
    0x100006c64:            fd 38 e0 00  std       %d30, [%g3]
    0x100006c68:            e5 38 e0 08  std       %d18, [%g3 + 0x8]
    0x100006c6c:            94 10 20 01  mov       0x1, %o2
    0x100006c70:            81 c7 e0 08  ret
    0x100006c74:            91 ea a0 00  restore   %o2, 0x0, %o0
    0x100006c78:            00 00 00 00  illtrap   0x0
    0x100006c7c:            00 00 00 00  illtrap   0x0
    0x100006c80:            00 00 00 00  illtrap   0x0
    0x100006c84:            00 00 00 00  illtrap   0x0
    0x100006c88:            00 00 00 00  illtrap   0x0
    0x100006c8c:            00 00 00 00  illtrap   0x0
__1cGworker6Fpv_0_()
    0x100006c90:            9d e3 be 90  save      %sp, -0x170, %sp
    0x100006c94:            84 10 00 18  mov       %i0, %g2
    0x100006c98:            c4 73 a9 4f  stx       %g2, [%sp + 0x94f]
    0x100006c9c:            10 80 00 02  ba        +0x8          <0x100006ca4>
    0x100006ca0:            01 00 00 00  nop
    0x100006ca4:            01 00 00 01  sethi     %hi(0x400), %g0
    0x100006ca8:            c4 5b a9 4f  ldx       [%sp + 0x94f], %g2
    0x100006cac:            c6 00 a0 00  ld        [%g2], %g3
    0x100006cb0:            c6 23 a9 4b  st        %g3, [%sp + 0x94b]
    0x100006cb4:            09 00 04 00  sethi     %hi(0x100000), %g4
    0x100006cb8:            8a 11 21 1e  or        %g4, 0x11e, %g5
    0x100006cbc:            97 29 70 0c  sllx      %g5, 0xc, %o3
    0x100006cc0:            98 02 e4 90  add       %o3, 0x490, %o4
    0x100006cc4:            da 03 20 00  ld        [%o4], %o5
    0x100006cc8:            da 23 a9 1b  st        %o5, [%sp + 0x91b]
    0x100006ccc:            1f 00 04 00  sethi     %hi(0x100000), %o7
    0x100006cd0:            a0 13 e1 1e  or        %o7, 0x11e, %l0
    0x100006cd4:            a3 2c 30 0c  sllx      %l0, 0xc, %l1
    0x100006cd8:            a4 04 64 8c  add       %l1, 0x48c, %l2
    0x100006cdc:            e6 04 a0 00  ld        [%l2], %l3
    0x100006ce0:            e6 23 a9 17  st        %l3, [%sp + 0x917]
    0x100006ce4:            e8 03 a9 17  ld        [%sp + 0x917], %l4
    0x100006ce8:            aa 25 20 01  sub       %l4, 0x1, %l5
    0x100006cec:            ea 23 a9 13  st        %l5, [%sp + 0x913]
    0x100006cf0:            ec 03 a9 17  ld        [%sp + 0x917], %l6
    0x100006cf4:            ee 03 a9 13  ld        [%sp + 0x913], %l7
    0x100006cf8:            84 0d 80 17  and       %l6, %l7, %g2
    0x100006cfc:            80 a0 a0 00  cmp       %g2, 0x0
    0x100006d00:            12 40 00 1d  bne,pn    %icc, +0x74   <0x100006d74>
    0x100006d04:            01 00 00 00  nop
    0x100006d08:            c4 03 a9 17  ld        [%sp + 0x917], %g2
    0x100006d0c:            80 a0 a0 00  cmp       %g2, 0x0
    0x100006d10:            02 40 00 19  be,pn     %icc, +0x64   <0x100006d74>
    0x100006d14:            01 00 00 00  nop
    0x100006d18:            c4 03 a9 1b  ld        [%sp + 0x91b], %g2
    0x100006d1c:            87 38 a0 1f  sra       %g2, 0x1f, %g3
    0x100006d20:            c6 23 a9 0f  st        %g3, [%sp + 0x90f]
    0x100006d24:            c8 03 a9 1b  ld        [%sp + 0x91b], %g4
    0x100006d28:            ca 03 a9 0f  ld        [%sp + 0x90f], %g5
    0x100006d2c:            96 19 00 05  xor       %g4, %g5, %o3
    0x100006d30:            d8 03 a9 0f  ld        [%sp + 0x90f], %o4
    0x100006d34:            9a 22 c0 0c  sub       %o3, %o4, %o5
    0x100006d38:            de 03 a9 13  ld        [%sp + 0x913], %o7
    0x100006d3c:            a0 0b 40 0f  and       %o5, %o7, %l0
    0x100006d40:            e0 23 a9 0b  st        %l0, [%sp + 0x90b]
    0x100006d44:            e2 03 a9 0b  ld        [%sp + 0x90b], %l1
    0x100006d48:            80 a4 60 00  cmp       %l1, 0x0
    0x100006d4c:            02 40 00 18  be,pn     %icc, +0x60   <0x100006dac>
    0x100006d50:            01 00 00 00  nop
    0x100006d54:            c4 03 a9 0b  ld        [%sp + 0x90b], %g2
    0x100006d58:            c6 03 a9 0f  ld        [%sp + 0x90f], %g3
    0x100006d5c:            88 18 80 03  xor       %g2, %g3, %g4
    0x100006d60:            ca 03 a9 0f  ld        [%sp + 0x90f], %g5
    0x100006d64:            96 21 00 05  sub       %g4, %g5, %o3
    0x100006d68:            d6 23 a9 0b  st        %o3, [%sp + 0x90b]
    0x100006d6c:            10 80 00 10  ba        +0x40         <0x100006dac>
    0x100006d70:            01 00 00 00  nop
    0x100006d74:            c4 03 a9 1b  ld        [%sp + 0x91b], %g2
    0x100006d78:            87 38 a0 1f  sra       %g2, 0x1f, %g3
    0x100006d7c:            81 80 00 03  wr        %g0, %g3, %y
    0x100006d80:            c8 03 a9 1b  ld        [%sp + 0x91b], %g4
    0x100006d84:            ca 03 a9 17  ld        [%sp + 0x917], %g5
    0x100006d88:            96 f9 00 05  sdivcc    %g4, %g5, %o3
    0x100006d8c:            1e 40 00 03  bvc,pn    %icc, +0xc    <0x100006d98>
    0x100006d90:            01 00 00 00  nop
    0x100006d94:            17 20 00 00  sethi     %hi(0x80000000), %o3
    0x100006d98:            d8 03 a9 17  ld        [%sp + 0x917], %o4
    0x100006d9c:            9a 5a c0 0c  smul      %o3, %o4, %o5
    0x100006da0:            de 03 a9 1b  ld        [%sp + 0x91b], %o7
    0x100006da4:            a0 23 c0 0d  sub       %o7, %o5, %l0
    0x100006da8:            e0 23 a9 0b  st        %l0, [%sp + 0x90b]
    0x100006dac:            c4 03 a9 4b  ld        [%sp + 0x94b], %g2
    0x100006db0:            c6 03 a9 0b  ld        [%sp + 0x90b], %g3
    0x100006db4:            80 a0 80 03  cmp       %g2, %g3
    0x100006db8:            06 40 00 04  bl,pn     %icc, +0x10   <0x100006dc8>
    0x100006dbc:            01 00 00 00  nop
    0x100006dc0:            10 80 00 21  ba        +0x84         <0x100006e44>
    0x100006dc4:            01 00 00 00  nop
    0x100006dc8:            05 00 04 00  sethi     %hi(0x100000), %g2
    0x100006dcc:            86 10 a1 1e  or        %g2, 0x11e, %g3
    0x100006dd0:            89 28 f0 0c  sllx      %g3, 0xc, %g4
    0x100006dd4:            8a 01 24 90  add       %g4, 0x490, %g5
    0x100006dd8:            d6 01 60 00  ld        [%g5], %o3
    0x100006ddc:            19 00 04 00  sethi     %hi(0x100000), %o4
    0x100006de0:            9a 13 21 1e  or        %o4, 0x11e, %o5
    0x100006de4:            99 2b 70 0c  sllx      %o5, 0xc, %o4
    0x100006de8:            9a 03 24 8c  add       %o4, 0x48c, %o5
    0x100006dec:            d8 03 60 00  ld        [%o5], %o4
    0x100006df0:            9b 3a e0 1f  sra       %o3, 0x1f, %o5
    0x100006df4:            81 80 00 0d  wr        %g0, %o5, %y
    0x100006df8:            9e fa c0 0c  sdivcc    %o3, %o4, %o7
    0x100006dfc:            1e 40 00 03  bvc,pn    %icc, +0xc    <0x100006e08>
    0x100006e00:            01 00 00 00  nop
    0x100006e04:            1f 20 00 00  sethi     %hi(0x80000000), %o7
    0x100006e08:            a0 03 e0 01  add       %o7, 0x1, %l0
    0x100006e0c:            e0 23 a9 47  st        %l0, [%sp + 0x947]
    0x100006e10:            e2 03 a9 4b  ld        [%sp + 0x94b], %l1
    0x100006e14:            a5 3c 60 00  sra       %l1, 0x0, %l2
    0x100006e18:            e6 03 a9 47  ld        [%sp + 0x947], %l3
    0x100006e1c:            a9 3c e0 00  sra       %l3, 0x0, %l4
    0x100006e20:            a6 4c 80 14  mulx      %l2, %l4, %l3
    0x100006e24:            e6 23 a9 43  st        %l3, [%sp + 0x943]
    0x100006e28:            e8 03 a9 4b  ld        [%sp + 0x94b], %l4
    0x100006e2c:            aa 05 20 01  add       %l4, 0x1, %l5
    0x100006e30:            ec 03 a9 47  ld        [%sp + 0x947], %l6
    0x100006e34:            ae 5d 40 16  smul      %l5, %l6, %l7
    0x100006e38:            ee 23 a9 3f  st        %l7, [%sp + 0x93f]
    0x100006e3c:            10 80 00 6b  ba        +0x1ac        <0x100006fe8>
    0x100006e40:            01 00 00 00  nop
    0x100006e44:            05 00 04 00  sethi     %hi(0x100000), %g2
    0x100006e48:            86 10 a1 1e  or        %g2, 0x11e, %g3
    0x100006e4c:            89 28 f0 0c  sllx      %g3, 0xc, %g4
    0x100006e50:            8a 01 24 90  add       %g4, 0x490, %g5
    0x100006e54:            d6 01 60 00  ld        [%g5], %o3
    0x100006e58:            19 00 04 00  sethi     %hi(0x100000), %o4
    0x100006e5c:            9a 13 21 1e  or        %o4, 0x11e, %o5
    0x100006e60:            99 2b 70 0c  sllx      %o5, 0xc, %o4
    0x100006e64:            9a 03 24 8c  add       %o4, 0x48c, %o5
    0x100006e68:            d8 03 60 00  ld        [%o5], %o4
    0x100006e6c:            9b 3a e0 1f  sra       %o3, 0x1f, %o5
    0x100006e70:            81 80 00 0d  wr        %g0, %o5, %y
    0x100006e74:            9e fa c0 0c  sdivcc    %o3, %o4, %o7
    0x100006e78:            1e 40 00 03  bvc,pn    %icc, +0xc    <0x100006e84>
    0x100006e7c:            01 00 00 00  nop
    0x100006e80:            1f 20 00 00  sethi     %hi(0x80000000), %o7
    0x100006e84:            de 23 a9 47  st        %o7, [%sp + 0x947]
    0x100006e88:            21 00 04 00  sethi     %hi(0x100000), %l0
    0x100006e8c:            a2 14 21 1e  or        %l0, 0x11e, %l1
    0x100006e90:            a5 2c 70 0c  sllx      %l1, 0xc, %l2
    0x100006e94:            a6 04 a4 90  add       %l2, 0x490, %l3
    0x100006e98:            e8 04 e0 00  ld        [%l3], %l4
    0x100006e9c:            e8 23 a9 07  st        %l4, [%sp + 0x907]
    0x100006ea0:            2b 00 04 00  sethi     %hi(0x100000), %l5
    0x100006ea4:            ac 15 61 1e  or        %l5, 0x11e, %l6
    0x100006ea8:            af 2d b0 0c  sllx      %l6, 0xc, %l7
    0x100006eac:            84 05 e4 8c  add       %l7, 0x48c, %g2
    0x100006eb0:            c6 00 a0 00  ld        [%g2], %g3
    0x100006eb4:            c6 23 a9 03  st        %g3, [%sp + 0x903]
    0x100006eb8:            c8 03 a9 03  ld        [%sp + 0x903], %g4
    0x100006ebc:            8a 21 20 01  sub       %g4, 0x1, %g5
    0x100006ec0:            ca 23 a8 ff  st        %g5, [%sp + 0x8ff]
    0x100006ec4:            d6 03 a9 03  ld        [%sp + 0x903], %o3
    0x100006ec8:            d8 03 a8 ff  ld        [%sp + 0x8ff], %o4
    0x100006ecc:            9a 0a c0 0c  and       %o3, %o4, %o5
    0x100006ed0:            80 a3 60 00  cmp       %o5, 0x0
    0x100006ed4:            12 40 00 1d  bne,pn    %icc, +0x74   <0x100006f48>
    0x100006ed8:            01 00 00 00  nop
    0x100006edc:            c4 03 a9 03  ld        [%sp + 0x903], %g2
    0x100006ee0:            80 a0 a0 00  cmp       %g2, 0x0
    0x100006ee4:            02 40 00 19  be,pn     %icc, +0x64   <0x100006f48>
    0x100006ee8:            01 00 00 00  nop
    0x100006eec:            c4 03 a9 07  ld        [%sp + 0x907], %g2
    0x100006ef0:            87 38 a0 1f  sra       %g2, 0x1f, %g3
    0x100006ef4:            c6 23 a8 fb  st        %g3, [%sp + 0x8fb]
    0x100006ef8:            c8 03 a9 07  ld        [%sp + 0x907], %g4
    0x100006efc:            ca 03 a8 fb  ld        [%sp + 0x8fb], %g5
    0x100006f00:            96 19 00 05  xor       %g4, %g5, %o3
    0x100006f04:            d8 03 a8 fb  ld        [%sp + 0x8fb], %o4
    0x100006f08:            9a 22 c0 0c  sub       %o3, %o4, %o5
    0x100006f0c:            de 03 a8 ff  ld        [%sp + 0x8ff], %o7
    0x100006f10:            a0 0b 40 0f  and       %o5, %o7, %l0
    0x100006f14:            e0 23 a8 f7  st        %l0, [%sp + 0x8f7]
    0x100006f18:            e2 03 a8 f7  ld        [%sp + 0x8f7], %l1
    0x100006f1c:            80 a4 60 00  cmp       %l1, 0x0
    0x100006f20:            02 40 00 18  be,pn     %icc, +0x60   <0x100006f80>
    0x100006f24:            01 00 00 00  nop
    0x100006f28:            c4 03 a8 f7  ld        [%sp + 0x8f7], %g2
    0x100006f2c:            c6 03 a8 fb  ld        [%sp + 0x8fb], %g3
    0x100006f30:            88 18 80 03  xor       %g2, %g3, %g4
    0x100006f34:            ca 03 a8 fb  ld        [%sp + 0x8fb], %g5
    0x100006f38:            96 21 00 05  sub       %g4, %g5, %o3
    0x100006f3c:            d6 23 a8 f7  st        %o3, [%sp + 0x8f7]
    0x100006f40:            10 80 00 10  ba        +0x40         <0x100006f80>
    0x100006f44:            01 00 00 00  nop
    0x100006f48:            c4 03 a9 07  ld        [%sp + 0x907], %g2
    0x100006f4c:            87 38 a0 1f  sra       %g2, 0x1f, %g3
    0x100006f50:            81 80 00 03  wr        %g0, %g3, %y
    0x100006f54:            c8 03 a9 07  ld        [%sp + 0x907], %g4
    0x100006f58:            ca 03 a9 03  ld        [%sp + 0x903], %g5
    0x100006f5c:            96 f9 00 05  sdivcc    %g4, %g5, %o3
    0x100006f60:            1e 40 00 03  bvc,pn    %icc, +0xc    <0x100006f6c>
    0x100006f64:            01 00 00 00  nop
    0x100006f68:            17 20 00 00  sethi     %hi(0x80000000), %o3
    0x100006f6c:            d8 03 a9 03  ld        [%sp + 0x903], %o4
    0x100006f70:            9a 5a c0 0c  smul      %o3, %o4, %o5
    0x100006f74:            de 03 a9 07  ld        [%sp + 0x907], %o7
    0x100006f78:            a0 23 c0 0d  sub       %o7, %o5, %l0
    0x100006f7c:            e0 23 a8 f7  st        %l0, [%sp + 0x8f7]
    0x100006f80:            c4 03 a8 f7  ld        [%sp + 0x8f7], %g2
    0x100006f84:            c4 23 a9 57  st        %g2, [%sp + 0x957]
    0x100006f88:            c6 03 a9 47  ld        [%sp + 0x947], %g3
    0x100006f8c:            88 00 e0 01  add       %g3, 0x1, %g4
    0x100006f90:            ca 03 a9 57  ld        [%sp + 0x957], %g5
    0x100006f94:            96 59 40 04  smul      %g5, %g4, %o3
    0x100006f98:            d6 23 a9 5f  st        %o3, [%sp + 0x95f]
    0x100006f9c:            d8 03 a9 4b  ld        [%sp + 0x94b], %o4
    0x100006fa0:            da 03 a9 57  ld        [%sp + 0x957], %o5
    0x100006fa4:            9e 23 00 0d  sub       %o4, %o5, %o7
    0x100006fa8:            e0 03 a9 47  ld        [%sp + 0x947], %l0
    0x100006fac:            a2 5b c0 10  smul      %o7, %l0, %l1
    0x100006fb0:            e4 03 a9 5f  ld        [%sp + 0x95f], %l2
    0x100006fb4:            a6 04 80 11  add       %l2, %l1, %l3
    0x100006fb8:            e6 23 a9 43  st        %l3, [%sp + 0x943]
    0x100006fbc:            e8 03 a9 4b  ld        [%sp + 0x94b], %l4
    0x100006fc0:            ea 03 a9 57  ld        [%sp + 0x957], %l5
    0x100006fc4:            ac 25 00 15  sub       %l4, %l5, %l6
    0x100006fc8:            ae 05 a0 01  add       %l6, 0x1, %l7
    0x100006fcc:            c4 03 a9 47  ld        [%sp + 0x947], %g2
    0x100006fd0:            86 5d c0 02  smul      %l7, %g2, %g3
    0x100006fd4:            c8 03 a9 5f  ld        [%sp + 0x95f], %g4
    0x100006fd8:            8a 01 00 03  add       %g4, %g3, %g5
    0x100006fdc:            ca 23 a9 3f  st        %g5, [%sp + 0x93f]
    0x100006fe0:            10 80 00 02  ba        +0x8          <0x100006fe8>
    0x100006fe4:            01 00 00 00  nop
    0x100006fe8:            05 00 04 00  sethi     %hi(0x100000), %g2
    0x100006fec:            86 10 a1 1e  or        %g2, 0x11e, %g3
    0x100006ff0:            89 28 f0 0c  sllx      %g3, 0xc, %g4
    0x100006ff4:            8a 01 24 8c  add       %g4, 0x48c, %g5
    0x100006ff8:            d6 01 60 00  ld        [%g5], %o3
    0x100006ffc:            98 02 ff ff  add       %o3, -0x1, %o4
    0x100007000:            da 03 a9 4b  ld        [%sp + 0x94b], %o5
    0x100007004:            80 a3 40 0c  cmp       %o5, %o4
    0x100007008:            02 40 00 04  be,pn     %icc, +0x10   <0x100007018>
    0x10000700c:            01 00 00 00  nop
    0x100007010:            10 80 00 0a  ba        +0x28         <0x100007038>
    0x100007014:            01 00 00 00  nop
    0x100007018:            05 00 04 00  sethi     %hi(0x100000), %g2
    0x10000701c:            86 10 a1 1e  or        %g2, 0x11e, %g3
    0x100007020:            89 28 f0 0c  sllx      %g3, 0xc, %g4
    0x100007024:            8a 01 24 90  add       %g4, 0x490, %g5
    0x100007028:            d6 01 60 00  ld        [%g5], %o3
    0x10000702c:            d6 23 a9 3f  st        %o3, [%sp + 0x93f]
    0x100007030:            10 80 00 02  ba        +0x8          <0x100007038>
    0x100007034:            01 00 00 00  nop
    0x100007038:            c4 03 a9 43  ld        [%sp + 0x943], %g2
    0x10000703c:            c4 23 a9 37  st        %g2, [%sp + 0x937]
    0x100007040:            c6 03 a9 3f  ld        [%sp + 0x93f], %g3
    0x100007044:            c8 03 a9 37  ld        [%sp + 0x937], %g4
    0x100007048:            80 a1 00 03  cmp       %g4, %g3
    0x10000704c:            06 40 00 04  bl,pn     %icc, +0x10   <0x10000705c>
    0x100007050:            01 00 00 00  nop
    0x100007054:            10 80 01 02  ba        +0x408        <0x10000745c>
    0x100007058:            01 00 00 00  nop
    0x10000705c:            10 80 00 02  ba        +0x8          <0x100007064>
    0x100007060:            01 00 00 00  nop
    0x100007064:            c4 03 a9 37  ld        [%sp + 0x937], %g2
    0x100007068:            87 38 a0 00  sra       %g2, 0x0, %g3
    0x10000706c:            89 28 f0 03  sllx      %g3, 0x3, %g4
    0x100007070:            8a 21 00 03  sub       %g4, %g3, %g5
    0x100007074:            89 29 70 01  sllx      %g5, 0x1, %g4
    0x100007078:            8a 21 00 03  sub       %g4, %g3, %g5
    0x10000707c:            97 29 70 03  sllx      %g5, 0x3, %o3
    0x100007080:            19 00 04 00  sethi     %hi(0x100000), %o4
    0x100007084:            9a 13 21 1e  or        %o4, 0x11e, %o5
    0x100007088:            99 2b 70 0c  sllx      %o5, 0xc, %o4
    0x10000708c:            9a 03 2e d8  add       %o4, 0xed8, %o5
    0x100007090:            d8 5b 60 00  ldx       [%o5], %o4
    0x100007094:            9a 03 00 0b  add       %o4, %o3, %o5
    0x100007098:            9e 03 60 40  add       %o5, 0x40, %o7
    0x10000709c:            e0 03 e0 00  ld        [%o7], %l0
    0x1000070a0:            a3 3c 20 00  sra       %l0, 0x0, %l1
    0x1000070a4:            e2 73 a8 af  stx       %l1, [%sp + 0x8af]
    0x1000070a8:            e4 03 a9 37  ld        [%sp + 0x937], %l2
    0x1000070ac:            a7 3c a0 00  sra       %l2, 0x0, %l3
    0x1000070b0:            a9 2c f0 03  sllx      %l3, 0x3, %l4
    0x1000070b4:            aa 25 00 13  sub       %l4, %l3, %l5
    0x1000070b8:            a9 2d 70 01  sllx      %l5, 0x1, %l4
    0x1000070bc:            aa 25 00 13  sub       %l4, %l3, %l5
    0x1000070c0:            ad 2d 70 03  sllx      %l5, 0x3, %l6
    0x1000070c4:            2f 00 04 00  sethi     %hi(0x100000), %l7
    0x1000070c8:            84 15 e1 1e  or        %l7, 0x11e, %g2
    0x1000070cc:            87 28 b0 0c  sllx      %g2, 0xc, %g3
    0x1000070d0:            88 00 ee d8  add       %g3, 0xed8, %g4
    0x1000070d4:            ca 59 20 00  ldx       [%g4], %g5
    0x1000070d8:            96 01 40 16  add       %g5, %l6, %o3
    0x1000070dc:            98 02 e0 50  add       %o3, 0x50, %o4
    0x1000070e0:            da 03 20 00  ld        [%o4], %o5
    0x1000070e4:            9f 3b 60 00  sra       %o5, 0x0, %o7
    0x1000070e8:            de 73 a8 b7  stx       %o7, [%sp + 0x8b7]
    0x1000070ec:            e0 03 a9 37  ld        [%sp + 0x937], %l0
    0x1000070f0:            a3 3c 20 00  sra       %l0, 0x0, %l1
    0x1000070f4:            a5 2c 70 03  sllx      %l1, 0x3, %l2
    0x1000070f8:            a6 24 80 11  sub       %l2, %l1, %l3
    0x1000070fc:            a5 2c f0 01  sllx      %l3, 0x1, %l2
    0x100007100:            a6 24 80 11  sub       %l2, %l1, %l3
    0x100007104:            a9 2c f0 03  sllx      %l3, 0x3, %l4
    0x100007108:            2b 00 04 00  sethi     %hi(0x100000), %l5
    0x10000710c:            ac 15 61 1e  or        %l5, 0x11e, %l6
    0x100007110:            ab 2d b0 0c  sllx      %l6, 0xc, %l5
    0x100007114:            ac 05 6e d8  add       %l5, 0xed8, %l6
    0x100007118:            ea 5d a0 00  ldx       [%l6], %l5
    0x10000711c:            ac 05 40 14  add       %l5, %l4, %l6
    0x100007120:            ae 05 a0 58  add       %l6, 0x58, %l7
    0x100007124:            c4 5d e0 00  ldx       [%l7], %g2
    0x100007128:            c4 73 a8 c7  stx       %g2, [%sp + 0x8c7]
    0x10000712c:            c6 03 a9 37  ld        [%sp + 0x937], %g3
    0x100007130:            89 38 e0 00  sra       %g3, 0x0, %g4
    0x100007134:            8b 29 30 03  sllx      %g4, 0x3, %g5
    0x100007138:            96 21 40 04  sub       %g5, %g4, %o3
    0x10000713c:            99 2a f0 01  sllx      %o3, 0x1, %o4
    0x100007140:            9a 23 00 04  sub       %o4, %g4, %o5
    0x100007144:            9f 2b 70 03  sllx      %o5, 0x3, %o7
    0x100007148:            21 00 04 00  sethi     %hi(0x100000), %l0
    0x10000714c:            a2 14 21 1e  or        %l0, 0x11e, %l1
    0x100007150:            a1 2c 70 0c  sllx      %l1, 0xc, %l0
    0x100007154:            a2 04 2e d8  add       %l0, 0xed8, %l1
    0x100007158:            e0 5c 60 00  ldx       [%l1], %l0
    0x10000715c:            a2 04 00 0f  add       %l0, %o7, %l1
    0x100007160:            a4 04 60 60  add       %l1, 0x60, %l2
    0x100007164:            e6 5c a0 00  ldx       [%l2], %l3
    0x100007168:            e6 73 a8 cf  stx       %l3, [%sp + 0x8cf]
    0x10000716c:            29 00 04 00  sethi     %hi(0x100000), %l4
    0x100007170:            aa 15 21 1e  or        %l4, 0x11e, %l5
    0x100007174:            ad 2d 70 0c  sllx      %l5, 0xc, %l6
    0x100007178:            ae 05 ae b0  add       %l6, 0xeb0, %l7
    0x10000717c:            c4 5d e0 00  ldx       [%l7], %g2
    0x100007180:            c6 03 a9 37  ld        [%sp + 0x937], %g3
    0x100007184:            89 38 e0 00  sra       %g3, 0x0, %g4
    0x100007188:            86 00 80 04  add       %g2, %g4, %g3
    0x10000718c:            c6 73 a8 d7  stx       %g3, [%sp + 0x8d7]
    0x100007190:            09 00 04 00  sethi     %hi(0x100000), %g4
    0x100007194:            8a 11 21 1e  or        %g4, 0x11e, %g5
    0x100007198:            97 29 70 0c  sllx      %g5, 0xc, %o3
    0x10000719c:            98 02 e4 88  add       %o3, 0x488, %o4
    0x1000071a0:            da 03 20 00  ld        [%o4], %o5
    0x1000071a4:            9f 3b 60 00  sra       %o5, 0x0, %o7
    0x1000071a8:            de 73 a8 df  stx       %o7, [%sp + 0x8df]
    0x1000071ac:            a0 10 20 10  mov       0x10, %l0
    0x1000071b0:            e0 73 a8 e7  stx       %l0, [%sp + 0x8e7]
    0x1000071b4:            a2 10 20 00  clr       %l1
    0x1000071b8:            e2 73 a8 ef  stx       %l1, [%sp + 0x8ef]
    0x1000071bc:            e4 03 a9 37  ld        [%sp + 0x937], %l2
    0x1000071c0:            a7 3c a0 00  sra       %l2, 0x0, %l3
    0x1000071c4:            a9 2c f0 03  sllx      %l3, 0x3, %l4
    0x1000071c8:            aa 25 00 13  sub       %l4, %l3, %l5
    0x1000071cc:            a9 2d 70 01  sllx      %l5, 0x1, %l4
    0x1000071d0:            aa 25 00 13  sub       %l4, %l3, %l5
    0x1000071d4:            ad 2d 70 03  sllx      %l5, 0x3, %l6
    0x1000071d8:            2f 00 04 00  sethi     %hi(0x100000), %l7
    0x1000071dc:            84 15 e1 1e  or        %l7, 0x11e, %g2
    0x1000071e0:            87 28 b0 0c  sllx      %g2, 0xc, %g3
    0x1000071e4:            88 00 ee d8  add       %g3, 0xed8, %g4
    0x1000071e8:            ca 59 20 00  ldx       [%g4], %g5
    0x1000071ec:            96 01 40 16  add       %g5, %l6, %o3
    0x1000071f0:            98 02 e0 18  add       %o3, 0x18, %o4
    0x1000071f4:            c3 1b 20 00  ldd       [%o4], %d32
    0x1000071f8:            da 03 a9 37  ld        [%sp + 0x937], %o5
    0x1000071fc:            9f 3b 60 00  sra       %o5, 0x0, %o7
    0x100007200:            a1 2b f0 03  sllx      %o7, 0x3, %l0
    0x100007204:            a2 24 00 0f  sub       %l0, %o7, %l1
    0x100007208:            a1 2c 70 01  sllx      %l1, 0x1, %l0
    0x10000720c:            a2 24 00 0f  sub       %l0, %o7, %l1
    0x100007210:            a5 2c 70 03  sllx      %l1, 0x3, %l2
    0x100007214:            27 00 04 00  sethi     %hi(0x100000), %l3
    0x100007218:            a8 14 e1 1e  or        %l3, 0x11e, %l4
    0x10000721c:            a7 2d 30 0c  sllx      %l4, 0xc, %l3
    0x100007220:            a8 04 ee d8  add       %l3, 0xed8, %l4
    0x100007224:            e6 5d 20 00  ldx       [%l4], %l3
    0x100007228:            a8 04 c0 12  add       %l3, %l2, %l4
    0x10000722c:            aa 05 20 20  add       %l4, 0x20, %l5
    0x100007230:            c7 1d 60 00  ldd       [%l5], %d34
    0x100007234:            ec 03 a9 37  ld        [%sp + 0x937], %l6
    0x100007238:            af 3d a0 00  sra       %l6, 0x0, %l7
    0x10000723c:            85 2d f0 03  sllx      %l7, 0x3, %g2
    0x100007240:            86 20 80 17  sub       %g2, %l7, %g3
    0x100007244:            89 28 f0 01  sllx      %g3, 0x1, %g4
    0x100007248:            8a 21 00 17  sub       %g4, %l7, %g5
    0x10000724c:            97 29 70 03  sllx      %g5, 0x3, %o3
    0x100007250:            19 00 04 00  sethi     %hi(0x100000), %o4
    0x100007254:            9a 13 21 1e  or        %o4, 0x11e, %o5
    0x100007258:            99 2b 70 0c  sllx      %o5, 0xc, %o4
    0x10000725c:            9a 03 2e d8  add       %o4, 0xed8, %o5
    0x100007260:            d8 5b 60 00  ldx       [%o5], %o4
    0x100007264:            9a 03 00 0b  add       %o4, %o3, %o5
    0x100007268:            9e 03 60 28  add       %o5, 0x28, %o7
    0x10000726c:            cb 1b e0 00  ldd       [%o7], %d36
    0x100007270:            e0 03 a9 37  ld        [%sp + 0x937], %l0
    0x100007274:            a3 3c 20 00  sra       %l0, 0x0, %l1
    0x100007278:            a5 2c 70 03  sllx      %l1, 0x3, %l2
    0x10000727c:            a6 24 80 11  sub       %l2, %l1, %l3
    0x100007280:            a5 2c f0 01  sllx      %l3, 0x1, %l2
    0x100007284:            a6 24 80 11  sub       %l2, %l1, %l3
    0x100007288:            a9 2c f0 03  sllx      %l3, 0x3, %l4
    0x10000728c:            2b 00 04 00  sethi     %hi(0x100000), %l5
    0x100007290:            ac 15 61 1e  or        %l5, 0x11e, %l6
    0x100007294:            ab 2d b0 0c  sllx      %l6, 0xc, %l5
    0x100007298:            ac 05 6e d8  add       %l5, 0xed8, %l6
    0x10000729c:            ea 5d a0 00  ldx       [%l6], %l5
    0x1000072a0:            ac 05 40 14  add       %l5, %l4, %l6
    0x1000072a4:            ae 05 a0 30  add       %l6, 0x30, %l7
    0x1000072a8:            cf 1d e0 00  ldd       [%l7], %d38
    0x1000072ac:            c4 03 a9 37  ld        [%sp + 0x937], %g2
    0x1000072b0:            87 38 a0 00  sra       %g2, 0x0, %g3
    0x1000072b4:            89 28 f0 03  sllx      %g3, 0x3, %g4
    0x1000072b8:            8a 21 00 03  sub       %g4, %g3, %g5
    0x1000072bc:            89 29 70 01  sllx      %g5, 0x1, %g4
    0x1000072c0:            8a 21 00 03  sub       %g4, %g3, %g5
    0x1000072c4:            97 29 70 03  sllx      %g5, 0x3, %o3
    0x1000072c8:            19 00 04 00  sethi     %hi(0x100000), %o4
    0x1000072cc:            9a 13 21 1e  or        %o4, 0x11e, %o5
    0x1000072d0:            99 2b 70 0c  sllx      %o5, 0xc, %o4
    0x1000072d4:            9a 03 2e d8  add       %o4, 0xed8, %o5
    0x1000072d8:            d8 5b 60 00  ldx       [%o5], %o4
    0x1000072dc:            9a 03 00 0b  add       %o4, %o3, %o5
    0x1000072e0:            9e 03 60 38  add       %o5, 0x38, %o7
    0x1000072e4:            d3 1b e0 00  ldd       [%o7], %d40
    0x1000072e8:            e0 03 a9 37  ld        [%sp + 0x937], %l0
    0x1000072ec:            a3 3c 20 00  sra       %l0, 0x0, %l1
    0x1000072f0:            a5 2c 70 03  sllx      %l1, 0x3, %l2
    0x1000072f4:            a6 24 80 11  sub       %l2, %l1, %l3
    0x1000072f8:            a5 2c f0 01  sllx      %l3, 0x1, %l2
    0x1000072fc:            a6 24 80 11  sub       %l2, %l1, %l3
    0x100007300:            a9 2c f0 03  sllx      %l3, 0x3, %l4
    0x100007304:            2b 00 04 00  sethi     %hi(0x100000), %l5
    0x100007308:            ac 15 61 1e  or        %l5, 0x11e, %l6
    0x10000730c:            ab 2d b0 0c  sllx      %l6, 0xc, %l5
    0x100007310:            ac 05 6e d8  add       %l5, 0xed8, %l6
    0x100007314:            ea 5d a0 00  ldx       [%l6], %l5
    0x100007318:            ac 05 40 14  add       %l5, %l4, %l6
    0x10000731c:            ae 05 a0 48  add       %l6, 0x48, %l7
    0x100007320:            d7 1d e0 00  ldd       [%l7], %d42
    0x100007324:            84 03 a9 27  add       %sp, 0x927, %g2
    0x100007328:            85 a0 00 41  fmovd     %d32, %d2
    0x10000732c:            89 a0 00 43  fmovd     %d34, %d4
    0x100007330:            8d a0 00 45  fmovd     %d36, %d6
    0x100007334:            91 a0 00 47  fmovd     %d38, %d8
    0x100007338:            95 a0 00 49  fmovd     %d40, %d10
    0x10000733c:            a1 a0 00 4b  fmovd     %d42, %d16
    0x100007340:            90 10 00 02  mov       %g2, %o0
    0x100007344:            7f ff fb e3  call      -0x1074       <0x1000062d0>
    0x100007348:            01 00 00 00  nop
    0x10000734c:            86 10 00 08  mov       %o0, %g3
    0x100007350:            c6 23 a9 57  st        %g3, [%sp + 0x957]
    0x100007354:            c8 03 a9 57  ld        [%sp + 0x957], %g4
    0x100007358:            80 a1 20 01  cmp       %g4, 0x1
    0x10000735c:            02 40 00 16  be,pn     %icc, +0x58   <0x1000073b4>
    0x100007360:            01 00 00 00  nop
    0x100007364:            10 80 00 02  ba        +0x8          <0x10000736c>
    0x100007368:            01 00 00 00  nop
    0x10000736c:            05 00 04 00  sethi     %hi(0x100000), %g2
    0x100007370:            86 10 a0 08  or        %g2, 0x8, %g3
    0x100007374:            89 28 f0 0c  sllx      %g3, 0xc, %g4
    0x100007378:            8a 01 28 52  add       %g4, 0x852, %g5
    0x10000737c:            96 10 00 05  mov       %g5, %o3
    0x100007380:            19 00 04 00  sethi     %hi(0x100000), %o4
    0x100007384:            9a 13 20 08  or        %o4, 0x8, %o5
    0x100007388:            99 2b 70 0c  sllx      %o5, 0xc, %o4
    0x10000738c:            9a 03 28 60  add       %o4, 0x860, %o5
    0x100007390:            98 10 00 0d  mov       %o5, %o4
    0x100007394:            90 10 00 0b  mov       %o3, %o0
    0x100007398:            92 10 00 0c  mov       %o4, %o1
    0x10000739c:            9a 10 20 70  mov       0x70, %o5
    0x1000073a0:            94 10 00 0d  mov       %o5, %o2
    0x1000073a4:            40 04 5a b7  call      +0x116adc     <0x10011de80>
    0x1000073a8:            01 00 00 00  nop
    0x1000073ac:            10 80 00 02  ba        +0x8          <0x1000073b4>
    0x1000073b0:            01 00 00 00  nop
    0x1000073b4:            c3 1b a9 27  ldd       [%sp + 0x927], %d32
    0x1000073b8:            c4 03 a9 37  ld        [%sp + 0x937], %g2
    0x1000073bc:            87 38 a0 00  sra       %g2, 0x0, %g3
    0x1000073c0:            89 28 f0 03  sllx      %g3, 0x3, %g4
    0x1000073c4:            8a 21 00 03  sub       %g4, %g3, %g5
    0x1000073c8:            89 29 70 01  sllx      %g5, 0x1, %g4
    0x1000073cc:            8a 21 00 03  sub       %g4, %g3, %g5
    0x1000073d0:            97 29 70 03  sllx      %g5, 0x3, %o3
    0x1000073d4:            19 00 04 00  sethi     %hi(0x100000), %o4
    0x1000073d8:            9a 13 21 1e  or        %o4, 0x11e, %o5
    0x1000073dc:            99 2b 70 0c  sllx      %o5, 0xc, %o4
    0x1000073e0:            9a 03 2e d8  add       %o4, 0xed8, %o5
    0x1000073e4:            d8 5b 60 00  ldx       [%o5], %o4
    0x1000073e8:            9a 03 00 0b  add       %o4, %o3, %o5
    0x1000073ec:            9e 03 60 08  add       %o5, 0x8, %o7
    0x1000073f0:            c3 3b e0 00  std       %d32, [%o7]
    0x1000073f4:            c3 1b a9 2f  ldd       [%sp + 0x92f], %d32
    0x1000073f8:            e0 03 a9 37  ld        [%sp + 0x937], %l0
    0x1000073fc:            a3 3c 20 00  sra       %l0, 0x0, %l1
    0x100007400:            a5 2c 70 03  sllx      %l1, 0x3, %l2
    0x100007404:            a6 24 80 11  sub       %l2, %l1, %l3
    0x100007408:            a5 2c f0 01  sllx      %l3, 0x1, %l2
    0x10000740c:            a6 24 80 11  sub       %l2, %l1, %l3
    0x100007410:            a9 2c f0 03  sllx      %l3, 0x3, %l4
    0x100007414:            2b 00 04 00  sethi     %hi(0x100000), %l5
    0x100007418:            ac 15 61 1e  or        %l5, 0x11e, %l6
    0x10000741c:            ab 2d b0 0c  sllx      %l6, 0xc, %l5
    0x100007420:            ac 05 6e d8  add       %l5, 0xed8, %l6
    0x100007424:            ea 5d a0 00  ldx       [%l6], %l5
    0x100007428:            ac 05 40 14  add       %l5, %l4, %l6
    0x10000742c:            ae 05 a0 10  add       %l6, 0x10, %l7
    0x100007430:            c3 3d e0 00  std       %d32, [%l7]
    0x100007434:            c4 03 a9 37  ld        [%sp + 0x937], %g2
    0x100007438:            86 00 a0 01  add       %g2, 0x1, %g3
    0x10000743c:            c6 23 a9 37  st        %g3, [%sp + 0x937]
    0x100007440:            c8 03 a9 3f  ld        [%sp + 0x93f], %g4
    0x100007444:            ca 03 a9 37  ld        [%sp + 0x937], %g5
    0x100007448:            80 a1 40 04  cmp       %g5, %g4
    0x10000744c:            06 47 ff 06  bl,pn     %icc, -0x3e8  <0x100007064>
    0x100007450:            01 00 00 00  nop
    0x100007454:            10 80 00 02  ba        +0x8          <0x10000745c>
    0x100007458:            01 00 00 00  nop
    0x10000745c:            01 00 00 02  sethi     %hi(0x800), %g0
    0x100007460:            c0 73 a9 1f  clrx      [%sp + 0x91f]
    0x100007464:            10 80 00 02  ba        +0x8          <0x10000746c>
    0x100007468:            01 00 00 00  nop
    0x10000746c:            c4 5b a9 1f  ldx       [%sp + 0x91f], %g2
    0x100007470:            b0 10 00 02  mov       %g2, %i0
    0x100007474:            81 c7 e0 08  ret
    0x100007478:            81 e8 00 00  restore
__1cLprint_usage6Fpc_v_()
    0x10000747c:            19 00 04 00  sethi     %hi(0x100000), %o4
    0x100007480:            1b 00 04 00  sethi     %hi(0x100000), %o5
    0x100007484:            96 13 20 08  or        %o4, 0x8, %o3
    0x100007488:            9a 13 61 1e  or        %o5, 0x11e, %o5
    0x10000748c:            95 2b 70 0c  sllx      %o5, 0xc, %o2
    0x100007490:            91 2a f0 0c  sllx      %o3, 0xc, %o0
    0x100007494:            92 02 a5 b0  add       %o2, 0x5b0, %o1
    0x100007498:            82 10 00 0f  mov       %o7, %g1
    0x10000749c:            90 02 28 73  add       %o0, 0x873, %o0
    0x1000074a0:            40 04 5a 50  call      +0x116940     <0x10011dde0>
    0x1000074a4:            9e 10 00 01  mov       %g1, %o7
    0x1000074a8:            41 df ff ff  call      +0x77ffffc    <0x1078074a4>
    0x1000074ac:            ff c0 00 00  0xffc00000
    0x1000074b0:            3f 84 7a e1  fbo,a     +0x11eb84     <0x100126034>
    0x1000074b4:            47 ae 14 7b  call      +0x1eb851ec   <0x11eb8c6a0>
    0x1000074b8:            3f 82 87 c2  fbo,a     +0xa1f08      <0x1000a93c0>
    0x1000074bc:            00 c0 f0 20  brnr,pn   %g3, +0xc080  <0x10001353c>
    0x1000074c0:            3f 80 c4 58  fbo,a     +0x31160      <0x100038620>
    0x1000074c4:            8a 04 d1 20  add       %l3, %g0, %g5
    0x1000074c8:            3f 7e 57 d9  fbo,a,pt  %fcc3, -0x6a09c <0xfff9d42c>
    0x1000074cc:            db a9 08 a2  0xdba908a2
    0x1000074d0:            3f 7b 74 9a  fbo,a,pt  %fcc3, +0xdd268 <0x1000e4738>
    0x1000074d4:            dc 8f b8 6f  lduba     [%fp - 0x791] %asi, %sp
    0x1000074d8:            3f 78 d7 9d  fbo,a,pt  %fcc3, +0x35e74 <0x10003d34c>
    0x1000074dc:            0a 67 62 0f  bcs,pn    %xcc, -0x277c4 <0xfffdfd18>
    0x1000074e0:            3f 76 7a 95  fbo,a,pn  %fcc3, -0x615ac <0xfffa5f34>
    0x1000074e4:            c8 53 c1 48  ldsh      [%o7 + %o0], %g4
    0x1000074e8:            3f 74 57 3a  fbo,a,pn  %fcc3, -0xea318 <0xfff1d1d0>
    0x1000074ec:            79 78 91 e2  call      -0x1a1db878   <0xe5e2bc74>
    0x1000074f0:            3f 72 67 40  fbo,a,pn  %fcc3, +0x99d00 <0x1000a11f0>
    0x1000074f4:            80 f9 8f a3  sdivcc    %g6, %g3, %g0
    0x1000074f8:            3f 70 a7 82  fbo,a,pn  %fcc3, +0x29e08 <0x100031300>
    0x1000074fc:            90 68 98 70  udivx     %g2, %l0, %o0
    0x100007500:            3f 6e 23 6c  fbo,a,pt  %fcc2, -0x77250 <0xfff902b0>
    0x100007504:            15 d2 d0 1c  0x15d2d01c
    0x100007508:            3f 50 62 4d  fbo,a,pn  %fcc1, +0x18934 <0x10001fe3c>
    0x10000750c:            d2 f1 a9 fc  stxa      %o1, [%g6 + 0x9fc] %asi
    0x100007510:            3f 48 93 74  fbo,a,pt  %fcc0, +0x24dd0 <0x10002c2e0>
    0x100007514:            bc 6a 7e fa  udivx     %o1, -0x106, %fp
    0x100007518:            3f 40 62 4d  fbo,a,pn  %fcc0, +0x18934 <0x10001fe4c>
    0x10000751c:            d2 f1 a9 fc  stxa      %o1, [%g6 + 0x9fc] %asi
    0x100007520:            3f 30 62 4d  sethi     %hi(0xc1893400), %i7
    0x100007524:            d2 f1 a9 fc  stxa      %o1, [%g6 + 0x9fc] %asi
    0x100007528:            00 00 00 00  illtrap   0x0
    0x10000752c:            00 00 00 00  illtrap   0x0
    0x100007530:            bf 30 62 4d  srl       %g1, 0xd, %i7
    0x100007534:            d2 f1 a9 fc  stxa      %o1, [%g6 + 0x9fc] %asi
    0x100007538:            bf 40 62 4d  0xbf40624d
    0x10000753c:            d2 f1 a9 fc  stxa      %o1, [%g6 + 0x9fc] %asi
    0x100007540:            bf 48 93 74  rdhpr     %hrstba, %i7
    0x100007544:            bc 6a 7e fa  udivx     %o1, -0x106, %fp
    0x100007548:            bf 50 62 4d  rdpr      %tnpc, %i7
    0x10000754c:            d2 f1 a9 fc  stxa      %o1, [%g6 + 0x9fc] %asi
    0x100007550:            bf 54 7a e1  0xbf547ae1
    0x100007554:            47 ae 14 7b  call      +0x1eb851ec   <0x11eb8c740>
    0x100007558:            3f b9 99 99  fbo,a     -0x19999c     <0xffe6dbbc>
    0x10000755c:            99 99 99 9a  0x9999999a
    0x100007560:            3f 74 7a e1  fbo,a,pn  %fcc3, -0xe147c <0xfff260e4>
    0x100007564:            47 ae 14 7b  call      +0x1eb851ec   <0x11eb8c750>
main()
    0x100007568:            9d e3 be 60  save      %sp, -0x1a0, %sp
    0x10000756c:            3b 00 04 00  sethi     %hi(0x100000), %i5
    0x100007570:            b4 17 60 08  or        %i5, 0x8, %i2
    0x100007574:            af 2e b0 0c  sllx      %i2, 0xc, %l7
    0x100007578:            90 05 e8 bf  add       %l7, 0x8bf, %o0
    0x10000757c:            39 00 04 00  sethi     %hi(0x100000), %i4
    0x100007580:            b6 17 20 07  or        %i4, 0x7, %i3
    0x100007584:            bb 2e f0 0c  sllx      %i3, 0xc, %i5
    0x100007588:            40 04 5a 46  call      +0x116918     <0x10011dea0>
    0x10000758c:            a8 07 65 50  add       %i5, 0x550, %l4
    0x100007590:            40 04 5a 4c  call      +0x116930     <0x10011dec0>
    0x100007594:            90 10 20 00  clr       %o0
    0x100007598:            80 a6 20 05  cmp       %i0, 0x5
    0x10000759c:            12 40 01 6a  bne,pn    %icc, +0x5a8  <0x100007b44>
    0x1000075a0:            01 00 00 00  nop
    0x1000075a4:            d0 5e 60 08  ldx       [%i1 + 0x8], %o0
    0x1000075a8:            21 00 04 00  sethi     %hi(0x100000), %l0
    0x1000075ac:            a2 14 21 1e  or        %l0, 0x11e, %l1
    0x1000075b0:            a1 2c 70 0c  sllx      %l1, 0xc, %l0
    0x1000075b4:            37 00 04 00  sethi     %hi(0x100000), %i3
    0x1000075b8:            40 04 5a 4a  call      +0x116928     <0x10011dee0>
    0x1000075bc:            27 00 04 00  sethi     %hi(0x100000), %l3
    0x1000075c0:            aa 14 e1 1e  or        %l3, 0x11e, %l5
    0x1000075c4:            b5 2d 70 0c  sllx      %l5, 0xc, %i2
    0x1000075c8:            d0 26 a4 88  st        %o0, [%i2 + 0x488]
    0x1000075cc:            40 04 5a 45  call      +0x116914     <0x10011dee0>
    0x1000075d0:            d0 5e 60 10  ldx       [%i1 + 0x10], %o0
    0x1000075d4:            d0 24 24 8c  st        %o0, [%l0 + 0x48c]
    0x1000075d8:            40 04 5a 42  call      +0x116908     <0x10011dee0>
    0x1000075dc:            d0 5e 60 18  ldx       [%i1 + 0x18], %o0
    0x1000075e0:            86 16 e1 1e  or        %i3, 0x11e, %g3
    0x1000075e4:            03 00 04 00  sethi     %hi(0x100000), %g1
    0x1000075e8:            a6 10 60 08  or        %g1, 0x8, %l3
    0x1000075ec:            a3 28 f0 0c  sllx      %g3, 0xc, %l1
    0x1000075f0:            ab 2c f0 0c  sllx      %l3, 0xc, %l5
    0x1000075f4:            d0 74 64 a0  stx       %o0, [%l1 + 0x4a0]
    0x1000075f8:            92 05 68 d7  add       %l5, 0x8d7, %o1
    0x1000075fc:            e6 5e 60 20  ldx       [%i1 + 0x20], %l3
    0x100007600:            40 04 5a 40  call      +0x116900     <0x10011df00>
    0x100007604:            90 10 00 13  mov       %l3, %o0
    0x100007608:            02 c2 01 55  brz,pn    %o0, +0x554   <0x100007b5c>
    0x10000760c:            aa 10 00 08  mov       %o0, %l5
    0x100007610:            37 00 04 00  sethi     %hi(0x100000), %i3
    0x100007614:            86 16 e1 1e  or        %i3, 0x11e, %g3
    0x100007618:            b7 28 f0 0c  sllx      %g3, 0xc, %i3
    0x10000761c:            03 00 04 00  sethi     %hi(0x100000), %g1
    0x100007620:            86 10 60 08  or        %g1, 0x8, %g3
    0x100007624:            83 28 f0 0c  sllx      %g3, 0xc, %g1
    0x100007628:            92 00 68 fb  add       %g1, 0x8fb, %o1
    0x10000762c:            90 10 00 15  mov       %l5, %o0
    0x100007630:            40 04 5a 3c  call      +0x1168f0     <0x10011df20>
    0x100007634:            94 06 e4 90  add       %i3, 0x490, %o2
    0x100007638:            80 a2 20 01  cmp       %o0, 0x1
    0x10000763c:            12 40 01 52  bne,pn    %icc, +0x548  <0x100007b84>
    0x100007640:            c6 06 e4 90  ld        [%i3 + 0x490], %g3
    0x100007644:            c2 04 24 8c  ld        [%l0 + 0x48c], %g1
    0x100007648:            80 a0 c0 01  cmp       %g3, %g1
    0x10000764c:            06 40 01 5a  bl,pn     %icc, +0x568  <0x100007bb4>
    0x100007650:            03 00 04 00  sethi     %hi(0x100000), %g1
    0x100007654:            86 10 60 08  or        %g1, 0x8, %g3
    0x100007658:            83 28 f0 0c  sllx      %g3, 0xc, %g1
    0x10000765c:            90 00 69 4b  add       %g1, 0x94b, %o0
    0x100007660:            c6 06 a4 88  ld        [%i2 + 0x488], %g3
    0x100007664:            c2 06 e4 90  ld        [%i3 + 0x490], %g1
    0x100007668:            f4 04 24 8c  ld        [%l0 + 0x48c], %i2
    0x10000766c:            93 38 e0 00  sra       %g3, 0x0, %o1
    0x100007670:            97 38 60 00  sra       %g1, 0x0, %o3
    0x100007674:            40 04 5a 0b  call      +0x11682c     <0x10011dea0>
    0x100007678:            95 3e a0 00  sra       %i2, 0x0, %o2
    0x10000767c:            7f ff ea ed  call      -0x544c       <0x100002230>
    0x100007680:            90 04 64 a0  add       %l1, 0x4a0, %o0
    0x100007684:            fb 1d 3f 58  ldd       [%l4 - 0xa8], %d60
    0x100007688:            07 00 04 00  sethi     %hi(0x100000), %g3
    0x10000768c:            82 10 e1 1e  or        %g3, 0x11e, %g1
    0x100007690:            b7 a0 09 5d  fmuld     %d0, %d60, %d58
    0x100007694:            f4 04 24 8c  ld        [%l0 + 0x48c], %i2
    0x100007698:            87 28 70 0c  sllx      %g1, 0xc, %g3
    0x10000769c:            80 a6 a0 01  cmp       %i2, 0x1
    0x1000076a0:            b3 a0 10 5b  fdtox     %d58, %d56
    0x1000076a4:            f3 38 ee b0  std       %d56, [%g3 + 0xeb0]
    0x1000076a8:            12 40 01 54  bne,pn    %icc, +0x550  <0x100007bf8>
    0x1000076ac:            21 00 04 00  sethi     %hi(0x100000), %l0
    0x1000076b0:            35 00 04 00  sethi     %hi(0x100000), %i2
    0x1000076b4:            a4 14 21 1e  or        %l0, 0x11e, %l2
    0x1000076b8:            a2 16 a1 1e  or        %i2, 0x11e, %l1
    0x1000076bc:            ad 2c b0 0c  sllx      %l2, 0xc, %l6
    0x1000076c0:            d2 05 a4 98  ld        [%l6 + 0x498], %o1
    0x1000076c4:            a3 2c 70 0c  sllx      %l1, 0xc, %l1
    0x1000076c8:            f2 04 64 94  ld        [%l1 + 0x494], %i1
    0x1000076cc:            9f 3a 60 00  sra       %o1, 0x0, %o7
    0x1000076d0:            92 03 ff ff  add       %o7, -0x1, %o1
    0x1000076d4:            94 10 20 00  clr       %o2
    0x1000076d8:            9b 3e 60 00  sra       %i1, 0x0, %o5
    0x1000076dc:            90 10 20 00  clr       %o0
    0x1000076e0:            7f ff ee 26  call      -0x4768       <0x100002f78>
    0x1000076e4:            96 03 7f fe  add       %o5, -0x2, %o3
    0x1000076e8:            d8 5a 20 00  ldx       [%o0], %o4
    0x1000076ec:            ff 1d 3f 60  ldd       [%l4 - 0xa0], %d62
    0x1000076f0:            fb 1d 3f 68  ldd       [%l4 - 0x98], %d60
    0x1000076f4:            ff 3b 20 00  std       %d62, [%o4]
    0x1000076f8:            d6 5a 20 00  ldx       [%o0], %o3
    0x1000076fc:            f7 1d 3f 70  ldd       [%l4 - 0x90], %d58
    0x100007700:            f3 1d 3f 78  ldd       [%l4 - 0x88], %d56
    0x100007704:            ff 3a e0 08  std       %d62, [%o3 + 0x8]
    0x100007708:            d4 5a 20 00  ldx       [%o0], %o2
    0x10000770c:            ef 1d 3f 80  ldd       [%l4 - 0x80], %d54
    0x100007710:            ed 1d 3f 88  ldd       [%l4 - 0x78], %d22
    0x100007714:            ff 3a a0 10  std       %d62, [%o2 + 0x10]
    0x100007718:            c8 5a 20 00  ldx       [%o0], %g4
    0x10000771c:            e9 1d 3f 90  ldd       [%l4 - 0x70], %d20
    0x100007720:            e5 1d 3f 98  ldd       [%l4 - 0x68], %d18
    0x100007724:            ff 39 20 18  std       %d62, [%g4 + 0x18]
    0x100007728:            ca 5a 20 00  ldx       [%o0], %g5
    0x10000772c:            e1 1d 3f a0  ldd       [%l4 - 0x60], %d16
    0x100007730:            dd 1d 3f a8  ldd       [%l4 - 0x58], %d14
    0x100007734:            ff 39 60 20  std       %d62, [%g5 + 0x20]
    0x100007738:            ee 5a 20 00  ldx       [%o0], %l7
    0x10000773c:            d9 1d 3f b0  ldd       [%l4 - 0x50], %d12
    0x100007740:            d5 1d 3f b8  ldd       [%l4 - 0x48], %d10
    0x100007744:            ff 3d e0 28  std       %d62, [%l7 + 0x28]
    0x100007748:            c4 5a 20 00  ldx       [%o0], %g2
    0x10000774c:            d1 1d 3f c0  ldd       [%l4 - 0x40], %d8
    0x100007750:            cd 1d 3f c8  ldd       [%l4 - 0x38], %d6
    0x100007754:            ff 38 a0 30  std       %d62, [%g2 + 0x30]
    0x100007758:            f8 5a 20 00  ldx       [%o0], %i4
    0x10000775c:            c9 1d 3f d0  ldd       [%l4 - 0x30], %d4
    0x100007760:            c5 1d 3f d8  ldd       [%l4 - 0x28], %d2
    0x100007764:            ff 3f 20 38  std       %d62, [%i4 + 0x38]
    0x100007768:            f0 5a 20 00  ldx       [%o0], %i0
    0x10000776c:            fd 1d 3f e0  ldd       [%l4 - 0x20], %d30
    0x100007770:            f9 1d 3f e8  ldd       [%l4 - 0x18], %d28
    0x100007774:            ff 3e 20 40  std       %d62, [%i0 + 0x40]
    0x100007778:            c2 5a 20 00  ldx       [%o0], %g1
    0x10000777c:            f5 1d 3f f0  ldd       [%l4 - 0x10], %d26
    0x100007780:            f1 1f 65 50  ldd       [%i5 + 0x550], %d24
    0x100007784:            ff 38 60 48  std       %d62, [%g1 + 0x48]
    0x100007788:            c2 5a 20 08  ldx       [%o0 + 0x8], %g1
    0x10000778c:            ff 1d 3f f8  ldd       [%l4 - 0x8], %d62
    0x100007790:            a4 10 00 08  mov       %o0, %l2
    0x100007794:            fb 38 60 00  std       %d60, [%g1]
    0x100007798:            c2 5a 20 08  ldx       [%o0 + 0x8], %g1
    0x10000779c:            f7 38 60 08  std       %d58, [%g1 + 0x8]
    0x1000077a0:            c2 5a 20 08  ldx       [%o0 + 0x8], %g1
    0x1000077a4:            f3 38 60 10  std       %d56, [%g1 + 0x10]
    0x1000077a8:            c2 5a 20 08  ldx       [%o0 + 0x8], %g1
    0x1000077ac:            ef 38 60 18  std       %d54, [%g1 + 0x18]
    0x1000077b0:            c2 5a 20 08  ldx       [%o0 + 0x8], %g1
    0x1000077b4:            ed 38 60 20  std       %d22, [%g1 + 0x20]
    0x1000077b8:            c2 5a 20 08  ldx       [%o0 + 0x8], %g1
    0x1000077bc:            e9 38 60 28  std       %d20, [%g1 + 0x28]
    0x1000077c0:            c2 5a 20 08  ldx       [%o0 + 0x8], %g1
    0x1000077c4:            e5 38 60 30  std       %d18, [%g1 + 0x30]
    0x1000077c8:            c2 5a 20 08  ldx       [%o0 + 0x8], %g1
    0x1000077cc:            e1 38 60 38  std       %d16, [%g1 + 0x38]
    0x1000077d0:            c2 5a 20 08  ldx       [%o0 + 0x8], %g1
    0x1000077d4:            dd 38 60 40  std       %d14, [%g1 + 0x40]
    0x1000077d8:            c2 5a 20 08  ldx       [%o0 + 0x8], %g1
    0x1000077dc:            d9 38 60 48  std       %d12, [%g1 + 0x48]
    0x1000077e0:            c2 5a 20 10  ldx       [%o0 + 0x10], %g1
    0x1000077e4:            d5 38 60 00  std       %d10, [%g1]
    0x1000077e8:            c2 5a 20 10  ldx       [%o0 + 0x10], %g1
    0x1000077ec:            d1 38 60 08  std       %d8, [%g1 + 0x8]
    0x1000077f0:            c2 5a 20 10  ldx       [%o0 + 0x10], %g1
    0x1000077f4:            cd 38 60 10  std       %d6, [%g1 + 0x10]
    0x1000077f8:            c2 5a 20 10  ldx       [%o0 + 0x10], %g1
    0x1000077fc:            c9 38 60 18  std       %d4, [%g1 + 0x18]
    0x100007800:            c2 5a 20 10  ldx       [%o0 + 0x10], %g1
    0x100007804:            c5 38 60 20  std       %d2, [%g1 + 0x20]
    0x100007808:            c2 5a 20 10  ldx       [%o0 + 0x10], %g1
    0x10000780c:            fd 38 60 28  std       %d30, [%g1 + 0x28]
    0x100007810:            c2 5a 20 10  ldx       [%o0 + 0x10], %g1
    0x100007814:            f9 38 60 30  std       %d28, [%g1 + 0x30]
    0x100007818:            c2 5a 20 10  ldx       [%o0 + 0x10], %g1
    0x10000781c:            f5 38 60 38  std       %d26, [%g1 + 0x38]
    0x100007820:            c2 5a 20 10  ldx       [%o0 + 0x10], %g1
    0x100007824:            ff 38 60 40  std       %d62, [%g1 + 0x40]
    0x100007828:            c2 5a 20 10  ldx       [%o0 + 0x10], %g1
    0x10000782c:            f1 38 60 48  std       %d24, [%g1 + 0x48]
    0x100007830:            c2 06 e4 90  ld        [%i3 + 0x490], %g1
    0x100007834:            87 38 60 00  sra       %g1, 0x0, %g3
    0x100007838:            83 28 f0 03  sllx      %g3, 0x3, %g1
    0x10000783c:            82 20 40 03  sub       %g1, %g3, %g1
    0x100007840:            83 28 70 01  sllx      %g1, 0x1, %g1
    0x100007844:            82 20 40 03  sub       %g1, %g3, %g1
    0x100007848:            40 04 59 76  call      +0x1165d8     <0x10011de20>
    0x10000784c:            91 28 70 03  sllx      %g1, 0x3, %o0
    0x100007850:            07 00 04 00  sethi     %hi(0x100000), %g3
    0x100007854:            82 10 e1 1e  or        %g3, 0x11e, %g1
    0x100007858:            c6 06 e4 90  ld        [%i3 + 0x490], %g3
    0x10000785c:            b5 28 70 0c  sllx      %g1, 0xc, %i2
    0x100007860:            80 a0 e0 00  cmp       %g3, 0x0
    0x100007864:            04 40 00 75  ble,pn    %icc, +0x1d4  <0x100007a38>
    0x100007868:            d0 76 ae d8  stx       %o0, [%i2 + 0xed8]
    0x10000786c:            88 10 00 08  mov       %o0, %g4
    0x100007870:            ba 10 20 00  clr       %i5
    0x100007874:            a0 10 20 00  clr       %l0
    0x100007878:            15 00 04 00  sethi     %hi(0x100000), %o2
    0x10000787c:            90 12 a0 08  or        %o2, 0x8, %o0
    0x100007880:            8b 2a 30 0c  sllx      %o0, 0xc, %g5
    0x100007884:            92 01 69 c4  add       %g5, 0x9c4, %o1
    0x100007888:            fa 21 00 10  st        %i5, [%g4 + %l0]
    0x10000788c:            90 10 00 15  mov       %l5, %o0
    0x100007890:            ee 5e ae d8  ldx       [%i2 + 0xed8], %l7
    0x100007894:            b0 05 c0 10  add       %l7, %l0, %i0
    0x100007898:            84 06 20 48  add       %i0, 0x48, %g2
    0x10000789c:            82 06 20 40  add       %i0, 0x40, %g1
    0x1000078a0:            b8 06 20 38  add       %i0, 0x38, %i4
    0x1000078a4:            86 06 20 50  add       %i0, 0x50, %g3
    0x1000078a8:            9a 06 20 30  add       %i0, 0x30, %o5
    0x1000078ac:            c4 73 a8 c7  stx       %g2, [%sp + 0x8c7]
    0x1000078b0:            98 06 20 28  add       %i0, 0x28, %o4
    0x1000078b4:            c2 73 a8 b7  stx       %g1, [%sp + 0x8b7]
    0x1000078b8:            96 06 20 20  add       %i0, 0x20, %o3
    0x1000078bc:            f8 73 a8 af  stx       %i4, [%sp + 0x8af]
    0x1000078c0:            94 06 20 18  add       %i0, 0x18, %o2
    0x1000078c4:            40 04 59 97  call      +0x11665c     <0x10011df20>
    0x1000078c8:            c6 73 a8 bf  stx       %g3, [%sp + 0x8bf]
    0x1000078cc:            80 a2 20 08  cmp       %o0, 0x8
    0x1000078d0:            12 40 00 d9  bne,pn    %icc, +0x364  <0x100007c34>
    0x1000078d4:            ee 04 64 94  ld        [%l1 + 0x494], %l7
    0x1000078d8:            90 10 20 00  clr       %o0
    0x1000078dc:            83 3d e0 00  sra       %l7, 0x0, %g1
    0x1000078e0:            7f ff ed 8e  call      -0x49c8       <0x100002f18>
    0x1000078e4:            92 00 7f ff  add       %g1, -0x1, %o1
    0x1000078e8:            c4 5e ae d8  ldx       [%i2 + 0xed8], %g2
    0x1000078ec:            d1 1d 20 08  ldd       [%l4 + 0x8], %d8
    0x1000078f0:            86 04 00 02  add       %l0, %g2, %g3
    0x1000078f4:            d0 70 e0 58  stx       %o0, [%g3 + 0x58]
    0x1000078f8:            c8 5e ae d8  ldx       [%i2 + 0xed8], %g4
    0x1000078fc:            b8 04 00 04  add       %l0, %g4, %i4
    0x100007900:            f0 5f 20 58  ldx       [%i4 + 0x58], %i0
    0x100007904:            d1 3e 20 00  std       %d8, [%i0]
    0x100007908:            f2 5e ae d8  ldx       [%i2 + 0xed8], %i1
    0x10000790c:            92 06 40 10  add       %i1, %l0, %o1
    0x100007910:            da 02 60 40  ld        [%o1 + 0x40], %o5
    0x100007914:            ac 03 7f ff  add       %o5, -0x1, %l6
    0x100007918:            80 a5 a0 01  cmp       %l6, 0x1
    0x10000791c:            06 40 00 12  bl,pn     %icc, +0x48   <0x100007964>
    0x100007920:            8a 10 20 01  mov       0x1, %g5
    0x100007924:            cd 1d 20 10  ldd       [%l4 + 0x10], %d6
    0x100007928:            d8 5a 60 58  ldx       [%o1 + 0x58], %o4
    0x10000792c:            90 10 20 08  mov       0x8, %o0
    0x100007930:            9e 03 00 08  add       %o4, %o0, %o7
    0x100007934:            c5 1b ff f8  ldd       [%o7 - 0x8], %d2
    0x100007938:            8a 01 60 01  add       %g5, 0x1, %g5
    0x10000793c:            89 a0 88 46  faddd     %d2, %d6, %d4
    0x100007940:            c9 3b 00 08  std       %d4, [%o4 + %o0]
    0x100007944:            d6 5e ae d8  ldx       [%i2 + 0xed8], %o3
    0x100007948:            90 02 20 08  add       %o0, 0x8, %o0
    0x10000794c:            92 02 c0 10  add       %o3, %l0, %o1
    0x100007950:            da 02 60 40  ld        [%o1 + 0x40], %o5
    0x100007954:            94 03 7f ff  add       %o5, -0x1, %o2
    0x100007958:            80 a1 40 0a  cmp       %g5, %o2
    0x10000795c:            24 4f ff f5  ble,a,pt  %icc, -0x2c   <0x100007930>
    0x100007960:            d8 5a 60 58  ldx       [%o1 + 0x58], %o4
    0x100007964:            c8 02 60 50  ld        [%o1 + 0x50], %g4
    0x100007968:            b9 3b 60 00  sra       %o5, 0x0, %i4
    0x10000796c:            94 10 20 00  clr       %o2
    0x100007970:            b1 39 20 00  sra       %g4, 0x0, %i0
    0x100007974:            90 10 20 00  clr       %o0
    0x100007978:            96 07 3f fe  add       %i4, -0x2, %o3
    0x10000797c:            7f ff ed 7f  call      -0x4a04       <0x100002f78>
    0x100007980:            92 06 3f ff  add       %i0, -0x1, %o1
    0x100007984:            f2 5e ae d8  ldx       [%i2 + 0xed8], %i1
    0x100007988:            ac 04 00 19  add       %l0, %i1, %l6
    0x10000798c:            d0 75 a0 60  stx       %o0, [%l6 + 0x60]
    0x100007990:            c8 5e ae d8  ldx       [%i2 + 0xed8], %g4
    0x100007994:            b0 01 00 10  add       %g4, %l0, %i0
    0x100007998:            d2 06 20 50  ld        [%i0 + 0x50], %o1
    0x10000799c:            9a 82 7f ff  addcc     %o1, -0x1, %o5
    0x1000079a0:            0c 40 00 20  bneg,pn   %icc, +0x80   <0x100007a20>
    0x1000079a4:            ae 10 20 00  clr       %l7
    0x1000079a8:            de 06 20 40  ld        [%i0 + 0x40], %o7
    0x1000079ac:            84 10 00 12  mov       %l2, %g2
    0x1000079b0:            82 10 20 00  clr       %g1
    0x1000079b4:            86 03 ff fe  add       %o7, -0x2, %g3
    0x1000079b8:            80 a0 e0 00  cmp       %g3, 0x0
    0x1000079bc:            06 40 00 13  bl,pn     %icc, +0x4c   <0x100007a08>
    0x1000079c0:            8a 10 20 00  clr       %g5
    0x1000079c4:            da 5e 20 60  ldx       [%i0 + 0x60], %o5
    0x1000079c8:            90 10 20 00  clr       %o0
    0x1000079cc:            d8 58 a0 00  ldx       [%g2], %o4
    0x1000079d0:            d6 5b 40 01  ldx       [%o5 + %g1], %o3
    0x1000079d4:            8a 01 60 01  add       %g5, 0x1, %g5
    0x1000079d8:            c5 1b 00 08  ldd       [%o4 + %o0], %d2
    0x1000079dc:            c5 3a c0 08  std       %d2, [%o3 + %o0]
    0x1000079e0:            c8 5e ae d8  ldx       [%i2 + 0xed8], %g4
    0x1000079e4:            90 02 20 08  add       %o0, 0x8, %o0
    0x1000079e8:            b0 01 00 10  add       %g4, %l0, %i0
    0x1000079ec:            d4 06 20 40  ld        [%i0 + 0x40], %o2
    0x1000079f0:            86 02 bf fe  add       %o2, -0x2, %g3
    0x1000079f4:            80 a1 40 03  cmp       %g5, %g3
    0x1000079f8:            24 4f ff f5  ble,a,pt  %icc, -0x2c   <0x1000079cc>
    0x1000079fc:            da 5e 20 60  ldx       [%i0 + 0x60], %o5
    0x100007a00:            f2 06 20 50  ld        [%i0 + 0x50], %i1
    0x100007a04:            9a 06 7f ff  add       %i1, -0x1, %o5
    0x100007a08:            ae 05 e0 01  add       %l7, 0x1, %l7
    0x100007a0c:            80 a5 c0 0d  cmp       %l7, %o5
    0x100007a10:            82 00 60 08  add       %g1, 0x8, %g1
    0x100007a14:            84 00 a0 08  add       %g2, 0x8, %g2
    0x100007a18:            04 4f ff e9  ble,pt    %icc, -0x5c   <0x1000079bc>
    0x100007a1c:            80 a0 e0 00  cmp       %g3, 0x0
    0x100007a20:            ba 07 60 01  add       %i5, 0x1, %i5
    0x100007a24:            de 06 e4 90  ld        [%i3 + 0x490], %o7
    0x100007a28:            a0 04 20 68  add       %l0, 0x68, %l0
    0x100007a2c:            80 a7 40 0f  cmp       %i5, %o7
    0x100007a30:            06 4f ff 93  bl,pt     %icc, -0x1b4  <0x10000787c>
    0x100007a34:            15 00 04 00  sethi     %hi(0x100000), %o2
    0x100007a38:            40 04 59 42  call      +0x116508     <0x10011df40>
    0x100007a3c:            90 10 00 15  mov       %l5, %o0
    0x100007a40:            90 07 a7 fb  add       %fp, 0x7fb, %o0
    0x100007a44:            7f ff fc 93  call      -0xdb4        <0x100006c90>
    0x100007a48:            c0 27 a7 fb  clr       [%fp + 0x7fb]
    0x100007a4c:            e6 06 e4 90  ld        [%i3 + 0x490], %l3
    0x100007a50:            80 a4 e0 00  cmp       %l3, 0x0
    0x100007a54:            04 40 00 38  ble,pn    %icc, +0xe0   <0x100007b34>
    0x100007a58:            2d 00 04 00  sethi     %hi(0x100000), %l6
    0x100007a5c:            aa 15 a1 1e  or        %l6, 0x11e, %l5
    0x100007a60:            29 00 04 00  sethi     %hi(0x100000), %l4
    0x100007a64:            a7 2d 70 0c  sllx      %l5, 0xc, %l3
    0x100007a68:            a4 15 20 08  or        %l4, 0x8, %l2
    0x100007a6c:            a2 04 e4 b0  add       %l3, 0x4b0, %l1
    0x100007a70:            a1 2c b0 0c  sllx      %l2, 0xc, %l0
    0x100007a74:            ac 04 61 00  add       %l1, 0x100, %l6
    0x100007a78:            b2 04 2a 09  add       %l0, 0xa09, %i1
    0x100007a7c:            a8 10 20 00  clr       %l4
    0x100007a80:            aa 10 20 00  clr       %l5
    0x100007a84:            90 10 00 16  mov       %l6, %o0
    0x100007a88:            ee 5e ae d8  ldx       [%i2 + 0xed8], %l7
    0x100007a8c:            95 3d 20 00  sra       %l4, 0x0, %o2
    0x100007a90:            92 10 00 19  mov       %i1, %o1
    0x100007a94:            b0 05 c0 15  add       %l7, %l5, %i0
    0x100007a98:            d8 5e 20 10  ldx       [%i0 + 0x10], %o4
    0x100007a9c:            a8 05 20 01  add       %l4, 0x1, %l4
    0x100007aa0:            40 04 58 d8  call      +0x116360     <0x10011de00>
    0x100007aa4:            d6 5e 20 08  ldx       [%i0 + 0x8], %o3
    0x100007aa8:            d2 06 e4 90  ld        [%i3 + 0x490], %o1
    0x100007aac:            aa 05 60 68  add       %l5, 0x68, %l5
    0x100007ab0:            80 a5 00 09  cmp       %l4, %o1
    0x100007ab4:            06 4f ff f5  bl,pt     %icc, -0x2c   <0x100007a88>
    0x100007ab8:            90 10 00 16  mov       %l6, %o0
    0x100007abc:            80 a2 60 00  cmp       %o1, 0x0
    0x100007ac0:            04 40 00 1d  ble,pn    %icc, +0x74   <0x100007b34>
    0x100007ac4:            b8 10 20 00  clr       %i4
    0x100007ac8:            ba 10 20 00  clr       %i5
    0x100007acc:            92 10 20 00  clr       %o1
    0x100007ad0:            da 5e ae d8  ldx       [%i2 + 0xed8], %o5
    0x100007ad4:            b8 07 20 01  add       %i4, 0x1, %i4
    0x100007ad8:            98 03 40 1d  add       %o5, %i5, %o4
    0x100007adc:            d6 03 20 40  ld        [%o4 + 0x40], %o3
    0x100007ae0:            d0 5b 20 58  ldx       [%o4 + 0x58], %o0
    0x100007ae4:            95 3a e0 00  sra       %o3, 0x0, %o2
    0x100007ae8:            7f ff ed 1e  call      -0x4b88       <0x100002f60>
    0x100007aec:            94 02 bf ff  add       %o2, -0x1, %o2
    0x100007af0:            96 10 20 00  clr       %o3
    0x100007af4:            92 10 20 00  clr       %o1
    0x100007af8:            d0 5e ae d8  ldx       [%i2 + 0xed8], %o0
    0x100007afc:            8a 02 00 1d  add       %o0, %i5, %g5
    0x100007b00:            c8 01 60 40  ld        [%g5 + 0x40], %g4
    0x100007b04:            ba 07 60 68  add       %i5, 0x68, %i5
    0x100007b08:            c6 01 60 50  ld        [%g5 + 0x50], %g3
    0x100007b0c:            85 39 20 00  sra       %g4, 0x0, %g2
    0x100007b10:            98 00 bf fe  add       %g2, -0x2, %o4
    0x100007b14:            83 38 e0 00  sra       %g3, 0x0, %g1
    0x100007b18:            d0 59 60 60  ldx       [%g5 + 0x60], %o0
    0x100007b1c:            7f ff ed 6b  call      -0x4a54       <0x1000030c8>
    0x100007b20:            94 00 7f ff  add       %g1, -0x1, %o2
    0x100007b24:            d2 06 e4 90  ld        [%i3 + 0x490], %o1
    0x100007b28:            80 a7 00 09  cmp       %i4, %o1
    0x100007b2c:            06 4f ff e9  bl,pt     %icc, -0x5c   <0x100007ad0>
    0x100007b30:            92 10 20 00  clr       %o1
    0x100007b34:            40 04 58 c3  call      +0x11630c     <0x10011de40>
    0x100007b38:            d0 5e ae d8  ldx       [%i2 + 0xed8], %o0
    0x100007b3c:            81 c7 e0 08  ret
    0x100007b40:            91 e8 20 00  restore   %g0, 0x0, %o0
    0x100007b44:            7f ff fe 4e  call      -0x6c8        <0x10000747c>
    0x100007b48:            d0 5e 60 00  ldx       [%i1], %o0
    0x100007b4c:            40 04 58 95  call      +0x116254     <0x10011dda0>
    0x100007b50:            90 10 20 01  mov       0x1, %o0
    0x100007b54:            10 bf fe 95  ba        -0x5ac        <0x1000075a8>
    0x100007b58:            d0 5e 60 08  ldx       [%i1 + 0x8], %o0
    0x100007b5c:            37 00 04 00  sethi     %hi(0x100000), %i3
    0x100007b60:            86 16 e0 08  or        %i3, 0x8, %g3
    0x100007b64:            83 28 f0 0c  sllx      %g3, 0xc, %g1
    0x100007b68:            90 00 68 d9  add       %g1, 0x8d9, %o0
    0x100007b6c:            40 04 58 cd  call      +0x116334     <0x10011dea0>
    0x100007b70:            92 10 00 13  mov       %l3, %o1
    0x100007b74:            40 04 58 8b  call      +0x11622c     <0x10011dda0>
    0x100007b78:            90 10 20 01  mov       0x1, %o0
    0x100007b7c:            10 bf fe a6  ba        -0x568        <0x100007614>
    0x100007b80:            37 00 04 00  sethi     %hi(0x100000), %i3
    0x100007b84:            03 00 04 00  sethi     %hi(0x100000), %g1
    0x100007b88:            86 10 60 08  or        %g1, 0x8, %g3
    0x100007b8c:            83 28 f0 0c  sllx      %g3, 0xc, %g1
    0x100007b90:            90 00 68 fe  add       %g1, 0x8fe, %o0
    0x100007b94:            40 04 58 c3  call      +0x11630c     <0x10011dea0>
    0x100007b98:            92 10 00 13  mov       %l3, %o1
    0x100007b9c:            40 04 58 e9  call      +0x1163a4     <0x10011df40>
    0x100007ba0:            90 10 00 15  mov       %l5, %o0
    0x100007ba4:            40 04 58 7f  call      +0x1161fc     <0x10011dda0>
    0x100007ba8:            90 10 20 01  mov       0x1, %o0
    0x100007bac:            10 bf fe a6  ba        -0x568        <0x100007644>
    0x100007bb0:            c6 06 e4 90  ld        [%i3 + 0x490], %g3
    0x100007bb4:            03 00 04 00  sethi     %hi(0x100000), %g1
    0x100007bb8:            86 10 61 1e  or        %g1, 0x11e, %g3
    0x100007bbc:            83 28 f0 0c  sllx      %g3, 0xc, %g1
    0x100007bc0:            92 00 65 b0  add       %g1, 0x5b0, %o1
    0x100007bc4:            07 00 04 00  sethi     %hi(0x100000), %g3
    0x100007bc8:            82 10 e0 08  or        %g3, 0x8, %g1
    0x100007bcc:            87 28 70 0c  sllx      %g1, 0xc, %g3
    0x100007bd0:            40 04 58 84  call      +0x116210     <0x10011dde0>
    0x100007bd4:            90 00 e9 25  add       %g3, 0x925, %o0
    0x100007bd8:            40 04 58 da  call      +0x116368     <0x10011df40>
    0x100007bdc:            90 10 00 15  mov       %l5, %o0
    0x100007be0:            7f ff fe 27  call      -0x764        <0x10000747c>
    0x100007be4:            d0 5e 60 00  ldx       [%i1], %o0
    0x100007be8:            40 04 58 6e  call      +0x1161b8     <0x10011dda0>
    0x100007bec:            90 10 20 01  mov       0x1, %o0
    0x100007bf0:            10 bf fe 99  ba        -0x59c        <0x100007654>
    0x100007bf4:            03 00 04 00  sethi     %hi(0x100000), %g1
    0x100007bf8:            03 00 04 00  sethi     %hi(0x100000), %g1
    0x100007bfc:            86 10 61 1e  or        %g1, 0x11e, %g3
    0x100007c00:            83 28 f0 0c  sllx      %g3, 0xc, %g1
    0x100007c04:            92 00 65 b0  add       %g1, 0x5b0, %o1
    0x100007c08:            07 00 04 00  sethi     %hi(0x100000), %g3
    0x100007c0c:            82 10 e0 08  or        %g3, 0x8, %g1
    0x100007c10:            87 28 70 0c  sllx      %g1, 0xc, %g3
    0x100007c14:            40 04 58 73  call      +0x1161cc     <0x10011dde0>
    0x100007c18:            90 00 e9 96  add       %g3, 0x996, %o0
    0x100007c1c:            40 04 58 c9  call      +0x116324     <0x10011df40>
    0x100007c20:            90 10 00 15  mov       %l5, %o0
    0x100007c24:            40 04 58 5f  call      +0x11617c     <0x10011dda0>
    0x100007c28:            90 10 20 01  mov       0x1, %o0
    0x100007c2c:            10 bf fe a2  ba        -0x578        <0x1000076b4>
    0x100007c30:            35 00 04 00  sethi     %hi(0x100000), %i2
    0x100007c34:            1f 00 04 00  sethi     %hi(0x100000), %o7
    0x100007c38:            98 13 e0 08  or        %o7, 0x8, %o4
    0x100007c3c:            97 2b 30 0c  sllx      %o4, 0xc, %o3
    0x100007c40:            90 02 e9 e2  add       %o3, 0x9e2, %o0
    0x100007c44:            40 04 58 97  call      +0x11625c     <0x10011dea0>
    0x100007c48:            92 10 00 13  mov       %l3, %o1
    0x100007c4c:            40 04 58 bd  call      +0x1162f4     <0x10011df40>
    0x100007c50:            90 10 00 15  mov       %l5, %o0
    0x100007c54:            40 04 58 53  call      +0x11614c     <0x10011dda0>
    0x100007c58:            90 10 20 01  mov       0x1, %o0
    0x100007c5c:            10 bf ff 1f  ba        -0x384        <0x1000078d8>
    0x100007c60:            ee 04 64 94  ld        [%l1 + 0x494], %l7
    0x100007c64:            00 00 00 00  illtrap   0x0
    0x100007c68:            00 00 00 00  illtrap   0x0
    0x100007c6c:            00 00 00 00  illtrap   0x0
    0x100007c70:            00 00 00 00  illtrap   0x0
    0x100007c74:            00 00 00 00  illtrap   0x0
    0x100007c78:            00 00 00 00  illtrap   0x0
    0x100007c7c:            00 00 00 00  illtrap   0x0
    0x100007c80:            3f 17 e4 d4  sethi     %hi(0x5f935000), %i7
    0x100007c84:            9e c0 b0 d3  addccc    %g2, -0xf2d, %o7
    0x100007c88:            40 11 0e 33  call      +0x4438cc     <0x10044b554>
    0x100007c8c:            59 a1 c3 b5  call      +0x66870ed4   <0x166878b60>
    0x100007c90:            40 2f d6 68  call      +0xbf59a0     <0x100bfd630>
    0x100007c94:            87 a3 49 81  0x87a34981
    0x100007c98:            40 11 3a f8  call      +0x44ebe0     <0x100456878>
    0x100007c9c:            f5 a3 c0 b7  sta       %f26, [%o7 + %l7] 0x05
    0x100007ca0:            40 1a aa 76  call      +0x6aa9d8     <0x1006b2678>
    0x100007ca4:            3f ef 62 32  0x3fef6232
    0x100007ca8:            40 63 ff e0  call      +0x18fff80    <0x101907c28>
    0x100007cac:            c8 2c 1a 9a  stb       %g4, [%l0 + %i2]
    0x100007cb0:            7f e1 cc f3  call      -0x78cc34     <0xff87b07c>
    0x100007cb4:            85 eb c8 a0  restore   %o7, %g0, %g2
    0x100007cb8:            00 07 30 d6  illtrap   0x730d6
    0x100007cbc:            78 19 e8 d2  call      -0x1f985cb8   <0xe0682004>
    0x100007cc0:            3f e0 00 00  0x3fe00000
    0x100007cc4:            00 00 00 00  illtrap   0x0
    0x100007cc8:            00 00 00 00  illtrap   0x0
    0x100007ccc:            00 00 00 00  illtrap   0x0
    0x100007cd0:            00 00 00 00  illtrap   0x0
    0x100007cd4:            00 00 00 00  illtrap   0x0
    0x100007cd8:            00 00 00 00  illtrap   0x0
    0x100007cdc:            00 00 00 00  illtrap   0x0
exp()
    0x100007ce0:            9d e3 bf 40  save      %sp, -0xc0, %sp
    0x100007ce4:            c1 23 a8 af  st        %f0, [%sp + 0x8af]
    0x100007ce8:            3b 00 00 00  sethi     %hi(0x0), %i5
    0x100007cec:            39 00 00 00  sethi     %hi(0x0), %i4
    0x100007cf0:            c3 23 a8 b3  st        %f1, [%sp + 0x8b3]
    0x100007cf4:            ba 17 60 01  or        %i5, 0x1, %i5
    0x100007cf8:            b2 17 20 01  or        %i4, 0x1, %i1
    0x100007cfc:            35 00 00 1f  sethi     %hi(0x7c00), %i2
    0x100007d00:            b1 2f 70 20  sllx      %i5, 0x20, %i0
    0x100007d04:            37 00 00 23  sethi     %hi(0x8c00), %i3
    0x100007d08:            af 2e 70 20  sllx      %i1, 0x20, %l7
    0x100007d0c:            a0 16 00 1a  or        %i0, %i2, %l0
    0x100007d10:            a8 15 c0 1b  or        %l7, %i3, %l4
    0x100007d14:            a2 04 20 98  add       %l0, 0x98, %l1
    0x100007d18:            9c 03 a0 00  add       %sp, 0x0, %sp
    0x100007d1c:            9c 03 a0 00  add       %sp, 0x0, %sp
    0x100007d20:            9c 03 a0 00  add       %sp, 0x0, %sp
    0x100007d24:            9c 03 a0 00  add       %sp, 0x0, %sp
    0x100007d28:            c2 03 a8 af  ld        [%sp + 0x8af], %g1
    0x100007d2c:            a7 38 60 14  sra       %g1, 0x14, %l3
    0x100007d30:            ac 04 e0 0b  add       %l3, 0xb, %l6
    0x100007d34:            aa 0d a7 f0  and       %l6, 0x7f0, %l5
    0x100007d38:            80 a5 64 00  cmp       %l5, 0x400
    0x100007d3c:            12 40 00 28  bne,pn    %icc, +0xa0   <0x100007ddc>
    0x100007d40:            b6 05 20 08  add       %l4, 0x8, %i3
    0x100007d44:            c9 1c 7f e8  ldd       [%l1 - 0x18], %d4
    0x100007d48:            ac 1c e0 01  xor       %l3, 0x1, %l6
    0x100007d4c:            aa 0c e7 ff  and       %l3, 0x7ff, %l5
    0x100007d50:            f5 1c 7f f0  ldd       [%l1 - 0x10], %d26
    0x100007d54:            a5 2d a0 14  sll       %l6, 0x14, %l2
    0x100007d58:            a8 10 24 0e  mov       0x40e, %l4
    0x100007d5c:            f9 1c 60 08  ldd       [%l1 + 0x8], %d28
    0x100007d60:            9e 18 40 12  xor       %g1, %l2, %o7
    0x100007d64:            82 25 00 15  sub       %l4, %l5, %g1
    0x100007d68:            e1 1c 7f f8  ldd       [%l1 - 0x8], %d16
    0x100007d6c:            9a 0c e8 00  and       %l3, 0x800, %o5
    0x100007d70:            99 3b c0 01  sra       %o7, %g1, %o4
    0x100007d74:            d1 1c 60 10  ldd       [%l1 + 0x10], %d8
    0x100007d78:            96 13 00 0d  or        %o4, %o5, %o3
    0x100007d7c:            f1 1c 20 98  ldd       [%l0 + 0x98], %d24
    0x100007d80:            a3 2a e0 01  sll       %o3, 0x1, %l1
    0x100007d84:            a1 3c 60 00  sra       %l1, 0x0, %l0
    0x100007d88:            95 2c 30 03  sllx      %l0, 0x3, %o2
    0x100007d8c:            c5 1e c0 0a  ldd       [%i3 + %o2], %d2
    0x100007d90:            b6 02 80 1b  add       %o2, %i3, %i3
    0x100007d94:            d9 1e e0 08  ldd       [%i3 + 0x8], %d12
    0x100007d98:            a9 a0 08 c2  fsubd     %d0, %d2, %d20
    0x100007d9c:            95 a3 09 44  fmuld     %d12, %d4, %d10
    0x100007da0:            bd a5 08 5c  faddd     %d20, %d28, %d30
    0x100007da4:            ad a5 09 54  fmuld     %d20, %d20, %d22
    0x100007da8:            8d a5 08 5a  faddd     %d20, %d26, %d6
    0x100007dac:            9d a2 89 54  fmuld     %d10, %d20, %d14
    0x100007db0:            89 a5 08 58  faddd     %d20, %d24, %d4
    0x100007db4:            a5 a5 89 5e  fmuld     %d22, %d30, %d18
    0x100007db8:            85 a5 09 46  fmuld     %d20, %d6, %d2
    0x100007dbc:            bf a4 88 48  faddd     %d18, %d8, %d62
    0x100007dc0:            b9 a0 88 50  faddd     %d2, %d16, %d28
    0x100007dc4:            b5 a1 09 5f  fmuld     %d4, %d62, %d26
    0x100007dc8:            95 a3 89 5c  fmuld     %d14, %d28, %d10
    0x100007dcc:            b1 a2 89 5a  fmuld     %d10, %d26, %d24
    0x100007dd0:            81 a3 08 58  faddd     %d12, %d24, %d0
    0x100007dd4:            81 c7 e0 08  ret
    0x100007dd8:            81 e8 20 00  restore   %g0, 0x0, %g0
    0x100007ddc:            35 00 00 00  sethi     %hi(0x0), %i2
    0x100007de0:            33 00 00 22  sethi     %hi(0x8800), %i1
    0x100007de4:            b8 16 a0 01  or        %i2, 0x1, %i4
    0x100007de8:            b0 0c e7 ff  and       %l3, 0x7ff, %i0
    0x100007dec:            bb 2f 30 20  sllx      %i4, 0x20, %i5
    0x100007df0:            80 a6 24 05  cmp       %i0, 0x405
    0x100007df4:            ae 17 40 19  or        %i5, %i1, %l7
    0x100007df8:            06 40 00 93  bl,pn     %icc, +0x24c  <0x100008044>
    0x100007dfc:            ba 05 e2 c8  add       %l7, 0x2c8, %i5
    0x100007e00:            80 a6 24 08  cmp       %i0, 0x408
    0x100007e04:            16 40 00 36  bge,pn    %icc, +0xd8   <0x100007edc>
    0x100007e08:            a6 10 24 07  mov       0x407, %l3
    0x100007e0c:            9f 38 60 12  sra       %g1, 0x12, %o7
    0x100007e10:            e9 1c 7f e8  ldd       [%l1 - 0x18], %d20
    0x100007e14:            9a 24 c0 18  sub       %l3, %i0, %o5
    0x100007e18:            98 1b e0 04  xor       %o7, 0x4, %o4
    0x100007e1c:            ed 1c 7f f0  ldd       [%l1 - 0x10], %d22
    0x100007e20:            95 3b 00 0d  sra       %o4, %o5, %o2
    0x100007e24:            97 30 60 1c  srl       %g1, 0x1c, %o3
    0x100007e28:            f1 1c 60 08  ldd       [%l1 + 0x8], %d24
    0x100007e2c:            92 0a ff f8  and       %o3, -0x8, %o1
    0x100007e30:            90 0a a0 07  and       %o2, 0x7, %o0
    0x100007e34:            d9 1c 7f f8  ldd       [%l1 - 0x8], %d12
    0x100007e38:            dd 1c 60 10  ldd       [%l1 + 0x10], %d14
    0x100007e3c:            88 12 00 09  or        %o0, %o1, %g4
    0x100007e40:            8a 10 24 0e  mov       0x40e, %g5
    0x100007e44:            cd 1c 20 98  ldd       [%l0 + 0x98], %d6
    0x100007e48:            a4 21 40 18  sub       %g5, %i0, %l2
    0x100007e4c:            a3 29 20 01  sll       %g4, 0x1, %l1
    0x100007e50:            a1 30 60 14  srl       %g1, 0x14, %l0
    0x100007e54:            b9 3c 60 00  sra       %l1, 0x0, %i4
    0x100007e58:            83 38 40 12  sra       %g1, %l2, %g1
    0x100007e5c:            b1 2f 30 03  sllx      %i4, 0x3, %i0
    0x100007e60:            b4 0c 38 00  and       %l0, -0x800, %i2
    0x100007e64:            b2 08 67 ff  and       %g1, 0x7ff, %i1
    0x100007e68:            f5 1f 40 18  ldd       [%i5 + %i0], %d26
    0x100007e6c:            ae 16 40 1a  or        %i1, %i2, %l7
    0x100007e70:            ba 06 00 1d  add       %i0, %i5, %i5
    0x100007e74:            ad 2d e0 01  sll       %l7, 0x1, %l6
    0x100007e78:            c5 1f 60 08  ldd       [%i5 + 0x8], %d2
    0x100007e7c:            ab 3d a0 00  sra       %l6, 0x0, %l5
    0x100007e80:            bd a0 08 da  fsubd     %d0, %d26, %d30
    0x100007e84:            a9 2d 70 03  sllx      %l5, 0x3, %l4
    0x100007e88:            ff 1e c0 14  ldd       [%i3 + %l4], %d62
    0x100007e8c:            b6 05 00 1b  add       %l4, %i3, %i3
    0x100007e90:            c9 1e e0 08  ldd       [%i3 + 0x8], %d4
    0x100007e94:            a1 a7 88 df  fsubd     %d30, %d62, %d16
    0x100007e98:            95 a1 09 42  fmuld     %d4, %d2, %d10
    0x100007e9c:            a5 a4 08 58  faddd     %d16, %d24, %d18
    0x100007ea0:            91 a4 09 50  fmuld     %d16, %d16, %d8
    0x100007ea4:            b9 a4 08 56  faddd     %d16, %d22, %d28
    0x100007ea8:            b5 a2 89 54  fmuld     %d10, %d20, %d26
    0x100007eac:            89 a4 08 46  faddd     %d16, %d6, %d4
    0x100007eb0:            bf a2 09 52  fmuld     %d8, %d18, %d62
    0x100007eb4:            bd a4 09 5c  fmuld     %d16, %d28, %d30
    0x100007eb8:            ad a6 89 50  fmuld     %d26, %d16, %d22
    0x100007ebc:            85 a7 c8 4e  faddd     %d62, %d14, %d2
    0x100007ec0:            b1 a7 88 4c  faddd     %d30, %d12, %d24
    0x100007ec4:            a9 a1 09 42  fmuld     %d4, %d2, %d20
    0x100007ec8:            8d a5 89 58  fmuld     %d22, %d24, %d6
    0x100007ecc:            a5 a1 89 54  fmuld     %d6, %d20, %d18
    0x100007ed0:            81 a2 88 52  faddd     %d10, %d18, %d0
    0x100007ed4:            81 c7 e0 08  ret
    0x100007ed8:            81 e8 20 00  restore   %g0, 0x0, %g0
    0x100007edc:            0b 10 21 8b  sethi     %hi(0x40862c00), %g5
    0x100007ee0:            88 01 62 42  add       %g5, 0x242, %g4
    0x100007ee4:            80 a0 40 04  cmp       %g1, %g4
    0x100007ee8:            34 40 00 54  bg,a,pn   %icc, +0x150  <0x100008038>
    0x100007eec:            ff 1c 60 18  ldd       [%l1 + 0x18], %d62
    0x100007ef0:            12 48 00 09  bne,pt    %icc, +0x24   <0x100007f14>
    0x100007ef4:            d0 03 a8 b3  ld        [%sp + 0x8b3], %o0
    0x100007ef8:            15 3f be 8e  sethi     %hi(0xfefa3800), %o2
    0x100007efc:            92 02 a1 ef  add       %o2, 0x1ef, %o1
    0x100007f00:            80 a2 00 09  cmp       %o0, %o1
    0x100007f04:            18 40 00 4c  bgu,pn    %icc, +0x130  <0x100008034>
    0x100007f08:            19 30 21 d2  sethi     %hi(0xc0874800), %o4
    0x100007f0c:            10 80 00 04  ba        +0x10         <0x100007f1c>
    0x100007f10:            96 03 21 10  add       %o4, 0x110, %o3
    0x100007f14:            19 30 21 d2  sethi     %hi(0xc0874800), %o4
    0x100007f18:            96 03 21 10  add       %o4, 0x110, %o3
    0x100007f1c:            80 a0 40 0b  cmp       %g1, %o3
    0x100007f20:            38 40 00 40  bgu,a,pn  %icc, +0x100  <0x100008020>
    0x100007f24:            dd 1c 60 20  ldd       [%l1 + 0x20], %d14
    0x100007f28:            02 40 00 04  be,pn     %icc, +0x10   <0x100007f38>
    0x100007f2c:            a5 30 60 1f  srl       %g1, 0x1f, %l2
    0x100007f30:            10 80 00 08  ba        +0x20         <0x100007f50>
    0x100007f34:            a7 30 60 1d  srl       %g1, 0x1d, %l3
    0x100007f38:            1f 35 4b 4c  sethi     %hi(0xd52d3000), %o7
    0x100007f3c:            9a 03 e0 51  add       %o7, 0x51, %o5
    0x100007f40:            80 a2 00 0d  cmp       %o0, %o5
    0x100007f44:            18 40 00 36  bgu,pn    %icc, +0xd8   <0x10000801c>
    0x100007f48:            a5 30 60 1f  srl       %g1, 0x1f, %l2
    0x100007f4c:            a7 30 60 1d  srl       %g1, 0x1d, %l3
    0x100007f50:            9f 38 60 11  sra       %g1, 0x11, %o7
    0x100007f54:            9a 0c ff fc  and       %l3, -0x4, %o5
    0x100007f58:            c9 1c 7f f0  ldd       [%l1 - 0x10], %d4
    0x100007f5c:            98 0b e0 03  and       %o7, 0x3, %o4
    0x100007f60:            93 30 60 14  srl       %g1, 0x14, %o1
    0x100007f64:            c5 1c 60 08  ldd       [%l1 + 0x8], %d2
    0x100007f68:            96 13 00 0d  or        %o4, %o5, %o3
    0x100007f6c:            91 38 60 06  sra       %g1, 0x6, %o0
    0x100007f70:            f1 1c 7f e8  ldd       [%l1 - 0x18], %d24
    0x100007f74:            95 2a e0 01  sll       %o3, 0x1, %o2
    0x100007f78:            b8 07 7f 80  add       %i5, -0x80, %i4
    0x100007f7c:            ed 1c 20 98  ldd       [%l0 + 0x98], %d22
    0x100007f80:            8b 3a a0 00  sra       %o2, 0x0, %g5
    0x100007f84:            b4 0a 27 ff  and       %o0, 0x7ff, %i2
    0x100007f88:            d9 1c 7f f8  ldd       [%l1 - 0x8], %d12
    0x100007f8c:            af 29 70 03  sllx      %g5, 0x3, %l7
    0x100007f90:            88 0a 78 00  and       %o1, -0x800, %g4
    0x100007f94:            dd 1c 60 10  ldd       [%l1 + 0x10], %d14
    0x100007f98:            d1 1d c0 1c  ldd       [%l7 + %i4], %d8
    0x100007f9c:            b2 16 80 04  or        %i2, %g4, %i1
    0x100007fa0:            ac 05 c0 1c  add       %l7, %i4, %l6
    0x100007fa4:            b1 2e 60 01  sll       %i1, 0x1, %i0
    0x100007fa8:            f9 1d a0 08  ldd       [%l6 + 0x8], %d28
    0x100007fac:            a8 04 a0 0a  add       %l2, 0xa, %l4
    0x100007fb0:            ab 3e 20 00  sra       %i0, 0x0, %l5
    0x100007fb4:            a7 2d 30 03  sllx      %l4, 0x3, %l3
    0x100007fb8:            bf a0 08 c8  fsubd     %d0, %d8, %d62
    0x100007fbc:            83 2d 70 03  sllx      %l5, 0x3, %g1
    0x100007fc0:            d1 1c c0 1d  ldd       [%l3 + %i5], %d8
    0x100007fc4:            e1 1e c0 01  ldd       [%i3 + %g1], %d16
    0x100007fc8:            b6 00 40 1b  add       %g1, %i3, %i3
    0x100007fcc:            f5 1e e0 08  ldd       [%i3 + 0x8], %d26
    0x100007fd0:            a1 a7 c8 d0  fsubd     %d62, %d16, %d16
    0x100007fd4:            95 a6 89 5c  fmuld     %d26, %d28, %d10
    0x100007fd8:            a9 a4 08 42  faddd     %d16, %d2, %d20
    0x100007fdc:            bd a4 09 50  fmuld     %d16, %d16, %d30
    0x100007fe0:            8d a4 08 44  faddd     %d16, %d4, %d6
    0x100007fe4:            a5 a2 89 58  fmuld     %d10, %d24, %d18
    0x100007fe8:            89 a4 08 56  faddd     %d16, %d22, %d4
    0x100007fec:            bf a7 89 54  fmuld     %d30, %d20, %d62
    0x100007ff0:            b5 a4 09 46  fmuld     %d16, %d6, %d26
    0x100007ff4:            b9 a4 89 50  fmuld     %d18, %d16, %d28
    0x100007ff8:            85 a7 c8 4e  faddd     %d62, %d14, %d2
    0x100007ffc:            b1 a6 88 4c  faddd     %d26, %d12, %d24
    0x100008000:            ad a1 09 42  fmuld     %d4, %d2, %d22
    0x100008004:            a9 a7 09 58  fmuld     %d28, %d24, %d20
    0x100008008:            bd a5 09 56  fmuld     %d20, %d22, %d30
    0x10000800c:            8d a2 88 5e  faddd     %d10, %d30, %d6
    0x100008010:            81 a2 09 46  fmuld     %d8, %d6, %d0
    0x100008014:            81 c7 e0 08  ret
    0x100008018:            81 e8 20 00  restore   %g0, 0x0, %g0
    0x10000801c:            dd 1c 60 20  ldd       [%l1 + 0x20], %d14
    0x100008020:            a5 a0 00 ce  fnegd     %d14, %d18
    0x100008024:            a1 a4 89 c0  fdivd     %d18, %d0, %d16
    0x100008028:            81 a4 09 4e  fmuld     %d16, %d14, %d0
    0x10000802c:            81 c7 e0 08  ret
    0x100008030:            81 e8 20 00  restore   %g0, 0x0, %g0
    0x100008034:            ff 1c 60 18  ldd       [%l1 + 0x18], %d62
    0x100008038:            81 a0 09 5f  fmuld     %d0, %d62, %d0
    0x10000803c:            81 c7 e0 08  ret
    0x100008040:            81 e8 20 00  restore   %g0, 0x0, %g0
    0x100008044:            80 a6 23 e4  cmp       %i0, 0x3e4
    0x100008048:            06 40 00 16  bl,pn     %icc, +0x58   <0x1000080a0>
    0x10000804c:            d1 1c 7f f0  ldd       [%l1 - 0x10], %d8
    0x100008050:            b1 a0 09 40  fmuld     %d0, %d0, %d24
    0x100008054:            d5 1c 60 08  ldd       [%l1 + 0x8], %d10
    0x100008058:            ed 1c 7f f8  ldd       [%l1 - 0x8], %d22
    0x10000805c:            b5 a0 08 48  faddd     %d0, %d8, %d26
    0x100008060:            dd 1c 7f e8  ldd       [%l1 - 0x18], %d14
    0x100008064:            bd a0 08 4a  faddd     %d0, %d10, %d30
    0x100008068:            d9 1c 20 98  ldd       [%l0 + 0x98], %d12
    0x10000806c:            e9 1c 60 10  ldd       [%l1 + 0x10], %d20
    0x100008070:            b9 a0 09 4e  fmuld     %d0, %d14, %d28
    0x100008074:            e1 1f 60 d0  ldd       [%i5 + 0xd0], %d16
    0x100008078:            bf a0 09 5a  fmuld     %d0, %d26, %d62
    0x10000807c:            a5 a0 08 4c  faddd     %d0, %d12, %d18
    0x100008080:            85 a6 09 5e  fmuld     %d24, %d30, %d2
    0x100008084:            89 a7 c8 56  faddd     %d62, %d22, %d4
    0x100008088:            8d a0 88 54  faddd     %d2, %d20, %d6
    0x10000808c:            95 a7 09 44  fmuld     %d28, %d4, %d10
    0x100008090:            91 a4 89 46  fmuld     %d18, %d6, %d8
    0x100008094:            81 a2 89 48  fmuld     %d10, %d8, %d0
    0x100008098:            10 80 00 0a  ba        +0x28         <0x1000080c0>
    0x10000809c:            81 a4 08 40  faddd     %d16, %d0, %d0
    0x1000080a0:            80 a6 23 ca  cmp       %i0, 0x3ca
    0x1000080a4:            e1 1f 60 d0  ldd       [%i5 + 0xd0], %d16
    0x1000080a8:            06 40 00 05  bl,pn     %icc, +0x14   <0x1000080bc>
    0x1000080ac:            c5 1c 60 28  ldd       [%l1 + 0x28], %d2
    0x1000080b0:            89 a0 09 42  fmuld     %d0, %d2, %d4
    0x1000080b4:            8d a4 08 44  faddd     %d16, %d4, %d6
    0x1000080b8:            81 a0 09 46  fmuld     %d0, %d6, %d0
    0x1000080bc:            81 a4 08 40  faddd     %d16, %d0, %d0
    0x1000080c0:            81 c7 e0 08  ret
    0x1000080c4:            81 e8 20 00  restore   %g0, 0x0, %g0
    0x1000080c8:            00 00 00 00  illtrap   0x0
    0x1000080cc:            00 00 00 00  illtrap   0x0
    0x1000080d0:            00 00 00 00  illtrap   0x0
    0x1000080d4:            00 00 00 00  illtrap   0x0
    0x1000080d8:            00 00 00 00  illtrap   0x0
    0x1000080dc:            00 00 00 00  illtrap   0x0
    0x1000080e0:            3f f0 00 00  0x3ff00000
    0x1000080e4:            00 00 00 00  illtrap   0x0
    0x1000080e8:            00 00 00 00  illtrap   0x0
    0x1000080ec:            00 00 00 00  illtrap   0x0
    0x1000080f0:            3f d5 55 55  0x3fd55555
    0x1000080f4:            55 55 5e 83  call      +0x55557a0c   <0x15555fb00>
    0x1000080f8:            bf e0 00 00  save      %g0, %g0, %i7
    0x1000080fc:            00 00 00 00  illtrap   0x0
    0x100008100:            bf cf ff ff  return    %i7 - 0x1
    0x100008104:            ff ff b8 40  0xffffb840
    0x100008108:            3f c9 99 99  0x3fc99999
    0x10000810c:            98 21 55 69  sub       %g5, %o1, %o4
    0x100008110:            3f c2 49 2d  0x3fc2492d
    0x100008114:            1b 23 30 10  sethi     %hi(0x8cc04000), %o5
    0x100008118:            bf c5 55 55  jmpl      %l5 + %l5, %i7
    0x10000811c:            48 ce e8 eb  call      +0x233ba3ac   <0x1233c24c8>
    0x100008120:            3f bc 58 8d  fbo,a     -0xe9dcc      <0xfff1e354>
    0x100008124:            3a 22 3f b0  illtrap   0x223fb0
    0x100008128:            bf c0 00 9d  jmpl      %i5, %i7
    0x10000812c:            10 58 b3 ef  0x1058b3ef
    0x100008130:            bf b6 69 ae  0xbfb669ae
    0x100008134:            7e 3d aa 5c  call      -0x7095690    <0xf8f72aa4>
    0x100008138:            3f e5 55 55  0x3fe55555
    0x10000813c:            55 51 00 a9  call      +0x554402a4   <0x1554483e0>
    0x100008140:            3f d9 99 b4  0x3fd999b4
    0x100008144:            4b fc c4 82  call      +0x2ff31208   <0x12ff3934c>
    0x100008148:            43 f0 00 00  call      +0xfc00000    <0x10fc08148>
    0x10000814c:            00 00 00 00  illtrap   0x0
    0x100008150:            00 00 00 00  illtrap   0x0
    0x100008154:            00 00 00 00  illtrap   0x0
    0x100008158:            00 00 00 00  illtrap   0x0
    0x10000815c:            00 00 00 00  illtrap   0x0
log()
    0x100008160:            9d e3 bf 40  save      %sp, -0xc0, %sp
    0x100008164:            c1 23 a8 af  st        %f0, [%sp + 0x8af]
    0x100008168:            3b 00 00 00  sethi     %hi(0x0), %i5
    0x10000816c:            33 00 00 07  sethi     %hi(0x1c00), %i1
    0x100008170:            c3 23 a8 b3  st        %f1, [%sp + 0x8b3]
    0x100008174:            b6 17 60 01  or        %i5, 0x1, %i3
    0x100008178:            35 00 00 20  sethi     %hi(0x8000), %i2
    0x10000817c:            b1 2e f0 20  sllx      %i3, 0x20, %i0
    0x100008180:            aa 06 63 f8  add       %i1, 0x3f8, %l5
    0x100008184:            b6 16 00 1a  or        %i0, %i2, %i3
    0x100008188:            81 41 40 00  rd        %pc, %g0
    0x10000818c:            f8 03 a8 af  ld        [%sp + 0x8af], %i4
    0x100008190:            af 3f 20 0c  sra       %i4, 0xc, %l7
    0x100008194:            ac 05 e0 10  add       %l7, 0x10, %l6
    0x100008198:            a9 3d a0 05  sra       %l6, 0x5, %l4
    0x10000819c:            80 a5 00 15  cmp       %l4, %l5
    0x1000081a0:            12 40 00 3b  bne,pn    %icc, +0xec   <0x10000828c>
    0x1000081a4:            ba 06 e0 e8  add       %i3, 0xe8, %i5
    0x1000081a8:            ec 03 a8 b3  ld        [%sp + 0x8b3], %l6
    0x1000081ac:            cd 1f 7f f8  ldd       [%i5 - 0x8], %d6
    0x1000081b0:            2b 30 04 00  sethi     %hi(0xc0100000), %l5
    0x1000081b4:            a0 07 00 15  add       %i4, %l5, %l0
    0x1000081b8:            80 94 00 16  orcc      %l0, %l6, %g0
    0x1000081bc:            12 40 00 05  bne,pn    %icc, +0x14   <0x1000081d0>
    0x1000081c0:            9d a0 08 c6  fsubd     %d0, %d6, %d14
    0x1000081c4:            c1 1e e0 e8  ldd       [%i3 + 0xe8], %d0
    0x1000081c8:            81 c7 e0 08  ret
    0x1000081cc:            81 e8 20 00  restore   %g0, 0x0, %g0
    0x1000081d0:            fd 1f 60 08  ldd       [%i5 + 0x8], %d30
    0x1000081d4:            82 07 20 20  add       %i4, 0x20, %g1
    0x1000081d8:            2f 00 3f f0  sethi     %hi(0xffc000), %l7
    0x1000081dc:            95 a3 89 4e  fmuld     %d14, %d14, %d10
    0x1000081e0:            9f 38 60 06  sra       %g1, 0x6, %o7
    0x1000081e4:            80 a3 c0 17  cmp       %o7, %l7
    0x1000081e8:            12 40 00 0c  bne,pn    %icc, +0x30   <0x100008218>
    0x1000081ec:            99 a3 89 5e  fmuld     %d14, %d30, %d12
    0x1000081f0:            f5 1f 60 10  ldd       [%i5 + 0x10], %d26
    0x1000081f4:            b9 a2 89 4a  fmuld     %d10, %d10, %d28
    0x1000081f8:            e5 1f 60 18  ldd       [%i5 + 0x18], %d18
    0x1000081fc:            99 a3 08 5a  faddd     %d12, %d26, %d12
    0x100008200:            89 a7 09 52  fmuld     %d28, %d18, %d4
    0x100008204:            bf a2 89 4c  fmuld     %d10, %d12, %d62
    0x100008208:            95 a7 c8 44  faddd     %d62, %d4, %d10
    0x10000820c:            81 a3 88 4a  faddd     %d14, %d10, %d0
    0x100008210:            81 c7 e0 08  ret
    0x100008214:            81 e8 20 00  restore   %g0, 0x0, %g0
    0x100008218:            f5 1f 60 38  ldd       [%i5 + 0x38], %d26
    0x10000821c:            a5 a2 89 4a  fmuld     %d10, %d10, %d18
    0x100008220:            fd 1f 60 28  ldd       [%i5 + 0x28], %d30
    0x100008224:            f9 1f 60 40  ldd       [%i5 + 0x40], %d28
    0x100008228:            89 a3 89 5a  fmuld     %d14, %d26, %d4
    0x10000822c:            cd 1f 60 30  ldd       [%i5 + 0x30], %d6
    0x100008230:            b1 a3 89 5e  fmuld     %d14, %d30, %d24
    0x100008234:            ff 1f 60 20  ldd       [%i5 + 0x20], %d62
    0x100008238:            ed 1f 60 10  ldd       [%i5 + 0x10], %d22
    0x10000823c:            a1 a4 89 4a  fmuld     %d18, %d10, %d16
    0x100008240:            d1 1f 60 18  ldd       [%i5 + 0x18], %d8
    0x100008244:            b5 a1 08 5c  faddd     %d4, %d28, %d26
    0x100008248:            85 a3 89 5f  fmuld     %d14, %d62, %d2
    0x10000824c:            e9 1f 60 48  ldd       [%i5 + 0x48], %d20
    0x100008250:            89 a6 08 46  faddd     %d24, %d6, %d4
    0x100008254:            99 a3 08 56  faddd     %d12, %d22, %d12
    0x100008258:            8d a4 89 54  fmuld     %d18, %d20, %d6
    0x10000825c:            b9 a2 89 5a  fmuld     %d10, %d26, %d28
    0x100008260:            bf a0 88 48  faddd     %d2, %d8, %d62
    0x100008264:            bd a2 89 4c  fmuld     %d10, %d12, %d30
    0x100008268:            b1 a1 08 5c  faddd     %d4, %d28, %d24
    0x10000826c:            95 a4 89 5f  fmuld     %d18, %d62, %d10
    0x100008270:            ad a6 08 46  faddd     %d24, %d6, %d22
    0x100008274:            85 a7 88 4a  faddd     %d30, %d10, %d2
    0x100008278:            91 a4 09 56  fmuld     %d16, %d22, %d8
    0x10000827c:            a9 a0 88 48  faddd     %d2, %d8, %d20
    0x100008280:            81 a3 88 54  faddd     %d14, %d20, %d0
    0x100008284:            81 c7 e0 08  ret
    0x100008288:            81 e8 20 00  restore   %g0, 0x0, %g0
    0x10000828c:            9f 3f 20 14  sra       %i4, 0x14, %o7
    0x100008290:            82 10 24 07  mov       0x407, %g1
    0x100008294:            ae 03 fc 08  add       %o7, -0x3f8, %l7
    0x100008298:            82 20 40 0f  sub       %g1, %o7, %g1
    0x10000829c:            80 95 c0 01  orcc      %l7, %g1, %g0
    0x1000082a0:            06 40 00 1f  bl,pn     %icc, +0x7c   <0x10000831c>
    0x1000082a4:            35 00 00 00  sethi     %hi(0x0), %i2
    0x1000082a8:            f5 1f 60 50  ldd       [%i5 + 0x50], %d26
    0x1000082ac:            fd 1f 60 58  ldd       [%i5 + 0x58], %d30
    0x1000082b0:            b0 16 a0 01  or        %i2, 0x1, %i0
    0x1000082b4:            0b 30 20 00  sethi     %hi(0xc0800000), %g5
    0x1000082b8:            bb 2e 30 20  sllx      %i0, 0x20, %i5
    0x1000082bc:            b8 07 00 05  add       %i4, %g5, %i4
    0x1000082c0:            19 00 00 67  sethi     %hi(0x19c00), %o4
    0x1000082c4:            93 3f 20 0a  sra       %i4, 0xa, %o1
    0x1000082c8:            88 17 40 0c  or        %i5, %o4, %g4
    0x1000082cc:            b2 0a 7f f0  and       %o1, -0x10, %i1
    0x1000082d0:            96 01 20 c0  add       %g4, 0xc0, %o3
    0x1000082d4:            d9 1e 40 0b  ldd       [%i1 + %o3], %d12
    0x1000082d8:            a6 06 40 0b  add       %i1, %o3, %l3
    0x1000082dc:            e9 1c e0 08  ldd       [%l3 + 0x8], %d20
    0x1000082e0:            9d a0 08 4c  faddd     %d0, %d12, %d14
    0x1000082e4:            a5 a0 08 cc  fsubd     %d0, %d12, %d18
    0x1000082e8:            bf a4 89 ce  fdivd     %d18, %d14, %d62
    0x1000082ec:            b1 a7 c9 5f  fmuld     %d62, %d62, %d24
    0x1000082f0:            ad a7 c8 5f  faddd     %d62, %d62, %d22
    0x1000082f4:            b9 a7 c9 5e  fmuld     %d62, %d30, %d28
    0x1000082f8:            a1 a7 c9 5a  fmuld     %d62, %d26, %d16
    0x1000082fc:            89 a6 09 5c  fmuld     %d24, %d28, %d4
    0x100008300:            8d a6 09 50  fmuld     %d24, %d16, %d6
    0x100008304:            91 a6 09 44  fmuld     %d24, %d4, %d8
    0x100008308:            85 a5 88 46  faddd     %d22, %d6, %d2
    0x10000830c:            95 a0 88 48  faddd     %d2, %d8, %d10
    0x100008310:            81 a5 08 4a  faddd     %d20, %d10, %d0
    0x100008314:            81 c7 e0 08  ret
    0x100008318:            81 e8 20 00  restore   %g0, 0x0, %g0
    0x10000831c:            15 00 04 00  sethi     %hi(0x100000), %o2
    0x100008320:            29 00 08 00  sethi     %hi(0x200000), %l4
    0x100008324:            90 07 00 0a  add       %i4, %o2, %o0
    0x100008328:            80 a2 00 14  cmp       %o0, %l4
    0x10000832c:            16 40 00 3f  bge,pn    %icc, +0xfc   <0x100008428>
    0x100008330:            80 a3 e7 ff  cmp       %o7, 0x7ff
    0x100008334:            36 40 00 9b  bge,a,pn  %icc, +0x26c  <0x1000085a0>
    0x100008338:            81 a0 09 40  fmuld     %d0, %d0, %d0
    0x10000833c:            e0 03 a8 b3  ld        [%sp + 0x8b3], %l0
    0x100008340:            a5 2f 20 01  sll       %i4, 0x1, %l2
    0x100008344:            80 94 80 10  orcc      %l2, %l0, %g0
    0x100008348:            12 40 00 07  bne,pn    %icc, +0x1c   <0x100008364>
    0x10000834c:            d1 1f 7f f8  ldd       [%i5 - 0x8], %d8
    0x100008350:            85 a0 09 40  fmuld     %d0, %d0, %d2
    0x100008354:            95 a0 00 c8  fnegd     %d8, %d10
    0x100008358:            81 a2 89 c2  fdivd     %d10, %d2, %d0
    0x10000835c:            81 c7 e0 08  ret
    0x100008360:            81 e8 20 00  restore   %g0, 0x0, %g0
    0x100008364:            80 a7 20 00  cmp       %i4, 0x0
    0x100008368:            16 40 00 06  bge,pn    %icc, +0x18   <0x100008380>
    0x10000836c:            cd 1e e0 e8  ldd       [%i3 + 0xe8], %d6
    0x100008370:            89 a0 09 46  fmuld     %d0, %d6, %d4
    0x100008374:            81 a1 09 c6  fdivd     %d4, %d6, %d0
    0x100008378:            81 c7 e0 08  ret
    0x10000837c:            81 e8 20 00  restore   %g0, 0x0, %g0
    0x100008380:            e9 1f 60 60  ldd       [%i5 + 0x60], %d20
    0x100008384:            39 00 00 00  sethi     %hi(0x0), %i4
    0x100008388:            19 00 00 66  sethi     %hi(0x19800), %o4
    0x10000838c:            b8 17 20 01  or        %i4, 0x1, %i4
    0x100008390:            35 00 00 00  sethi     %hi(0x0), %i2
    0x100008394:            b9 2f 30 20  sllx      %i4, 0x20, %i4
    0x100008398:            b6 10 24 3f  mov       0x43f, %i3
    0x10000839c:            81 a0 09 54  fmuld     %d0, %d20, %d0
    0x1000083a0:            c1 23 a8 af  st        %f0, [%sp + 0x8af]
    0x1000083a4:            b8 17 00 0c  or        %i4, %o4, %i4
    0x1000083a8:            98 16 a0 01  or        %i2, 0x1, %o4
    0x1000083ac:            92 07 20 80  add       %i4, 0x80, %o1
    0x1000083b0:            ab 2b 30 20  sllx      %o4, 0x20, %l5
    0x1000083b4:            35 00 00 65  sethi     %hi(0x19400), %i2
    0x1000083b8:            98 15 40 1a  or        %l5, %i2, %o4
    0x1000083bc:            a6 03 20 80  add       %o4, 0x80, %l3
    0x1000083c0:            9c 03 a0 00  add       %sp, 0x0, %sp
    0x1000083c4:            9c 03 a0 00  add       %sp, 0x0, %sp
    0x1000083c8:            9c 03 a0 00  add       %sp, 0x0, %sp
    0x1000083cc:            9c 03 a0 00  add       %sp, 0x0, %sp
    0x1000083d0:            9c 03 a0 00  add       %sp, 0x0, %sp
    0x1000083d4:            f8 03 a8 af  ld        [%sp + 0x8af], %i4
    0x1000083d8:            97 3f 20 14  sra       %i4, 0x14, %o3
    0x1000083dc:            b4 26 c0 0b  sub       %i3, %o3, %i2
    0x1000083e0:            ab 3e a0 00  sra       %i2, 0x0, %l5
    0x1000083e4:            94 0e a0 1f  and       %i2, 0x1f, %o2
    0x1000083e8:            96 0d 7f e0  and       %l5, -0x20, %o3
    0x1000083ec:            a9 2a a0 02  sll       %o2, 0x2, %l4
    0x1000083f0:            f9 1a 40 0b  ldd       [%o1 + %o3], %d28
    0x1000083f4:            99 3d 20 00  sra       %l4, 0x0, %o4
    0x1000083f8:            aa 02 c0 09  add       %o3, %o1, %l5
    0x1000083fc:            b7 2b 30 03  sllx      %o4, 0x3, %i3
    0x100008400:            80 a6 a3 ff  cmp       %i2, 0x3ff
    0x100008404:            b0 06 c0 13  add       %i3, %l3, %i0
    0x100008408:            a1 a0 09 5c  fmuld     %d0, %d28, %d16
    0x10000840c:            32 40 00 3c  bne,a,pn  %icc, +0xf0   <0x1000084fc>
    0x100008410:            fd 1e 20 18  ldd       [%i0 + 0x18], %d30
    0x100008414:            ed 1f 60 60  ldd       [%i5 + 0x60], %d22
    0x100008418:            ff 1e 20 18  ldd       [%i0 + 0x18], %d62
    0x10000841c:            bd a7 c9 56  fmuld     %d62, %d22, %d30
    0x100008420:            10 80 00 38  ba        +0xe0         <0x100008500>
    0x100008424:            27 00 03 ff  sethi     %hi(0xffc00), %l3
    0x100008428:            80 a3 e3 ff  cmp       %o7, 0x3ff
    0x10000842c:            16 40 00 1c  bge,pn    %icc, +0x70   <0x10000849c>
    0x100008430:            2b 00 00 00  sethi     %hi(0x0), %l5
    0x100008434:            b6 15 60 01  or        %l5, 0x1, %i3
    0x100008438:            96 10 23 ff  mov       0x3ff, %o3
    0x10000843c:            a6 22 c0 0f  sub       %o3, %o7, %l3
    0x100008440:            29 00 00 66  sethi     %hi(0x19800), %l4
    0x100008444:            95 2e f0 20  sllx      %i3, 0x20, %o2
    0x100008448:            13 00 00 00  sethi     %hi(0x0), %o1
    0x10000844c:            a1 3c e0 00  sra       %l3, 0x0, %l0
    0x100008450:            90 0c e0 1f  and       %l3, 0x1f, %o0
    0x100008454:            a4 12 80 14  or        %o2, %l4, %l2
    0x100008458:            8a 12 60 01  or        %o1, 0x1, %g5
    0x10000845c:            a2 0c 3f e0  and       %l0, -0x20, %l1
    0x100008460:            9a 04 a0 80  add       %l2, 0x80, %o5
    0x100008464:            b1 2a 20 02  sll       %o0, 0x2, %i0
    0x100008468:            33 00 00 65  sethi     %hi(0x19400), %i1
    0x10000846c:            f1 1c 40 0d  ldd       [%l1 + %o5], %d24
    0x100008470:            89 29 70 20  sllx      %g5, 0x20, %g4
    0x100008474:            83 3e 20 00  sra       %i0, 0x0, %g1
    0x100008478:            ae 11 00 19  or        %g4, %i1, %l7
    0x10000847c:            ad 28 70 03  sllx      %g1, 0x3, %l6
    0x100008480:            9e 05 e0 80  add       %l7, 0x80, %o7
    0x100008484:            a1 a0 09 58  fmuld     %d0, %d24, %d16
    0x100008488:            aa 04 40 0d  add       %l1, %o5, %l5
    0x10000848c:            b0 05 80 0f  add       %l6, %o7, %i0
    0x100008490:            fd 1e 20 18  ldd       [%i0 + 0x18], %d30
    0x100008494:            10 80 00 1b  ba        +0x6c         <0x100008500>
    0x100008498:            27 00 03 ff  sethi     %hi(0xffc00), %l3
    0x10000849c:            33 00 00 00  sethi     %hi(0x0), %i1
    0x1000084a0:            b6 03 fc 01  add       %o7, -0x3ff, %i3
    0x1000084a4:            b0 16 60 01  or        %i1, 0x1, %i0
    0x1000084a8:            2d 00 00 64  sethi     %hi(0x19000), %l6
    0x1000084ac:            af 2e 30 20  sllx      %i0, 0x20, %l7
    0x1000084b0:            35 00 00 00  sethi     %hi(0x0), %i2
    0x1000084b4:            aa 15 c0 16  or        %l7, %l6, %l5
    0x1000084b8:            a4 16 a0 01  or        %i2, 0x1, %l2
    0x1000084bc:            a9 3e e0 00  sra       %i3, 0x0, %l4
    0x1000084c0:            a6 0e e0 1f  and       %i3, 0x1f, %l3
    0x1000084c4:            9a 05 60 80  add       %l5, 0x80, %o5
    0x1000084c8:            a2 0d 3f e0  and       %l4, -0x20, %l1
    0x1000084cc:            b1 2c e0 02  sll       %l3, 0x2, %i0
    0x1000084d0:            2f 00 00 63  sethi     %hi(0x18c00), %l7
    0x1000084d4:            e1 1c 40 0d  ldd       [%l1 + %o5], %d16
    0x1000084d8:            b3 2c b0 20  sllx      %l2, 0x20, %i1
    0x1000084dc:            9f 3e 20 00  sra       %i0, 0x0, %o7
    0x1000084e0:            ac 16 40 17  or        %i1, %l7, %l6
    0x1000084e4:            b5 2b f0 03  sllx      %o7, 0x3, %i2
    0x1000084e8:            98 05 a0 80  add       %l6, 0x80, %o4
    0x1000084ec:            a1 a0 09 50  fmuld     %d0, %d16, %d16
    0x1000084f0:            aa 04 40 0d  add       %l1, %o5, %l5
    0x1000084f4:            b0 06 80 0c  add       %i2, %o4, %i0
    0x1000084f8:            fd 1e 20 18  ldd       [%i0 + 0x18], %d30
    0x1000084fc:            27 00 03 ff  sethi     %hi(0xffc00), %l3
    0x100008500:            a2 04 e3 ff  add       %l3, 0x3ff, %l1
    0x100008504:            25 00 00 00  sethi     %hi(0x0), %l2
    0x100008508:            c5 1e 20 10  ldd       [%i0 + 0x10], %d2
    0x10000850c:            b8 0f 00 11  and       %i4, %l1, %i4
    0x100008510:            9e 14 a0 01  or        %l2, 0x1, %o7
    0x100008514:            c9 1d 60 10  ldd       [%l5 + 0x10], %d4
    0x100008518:            9b 37 20 0e  srl       %i4, 0xe, %o5
    0x10000851c:            17 00 00 67  sethi     %hi(0x19c00), %o3
    0x100008520:            d1 1d 60 08  ldd       [%l5 + 0x8], %d8
    0x100008524:            94 13 61 c0  or        %o5, 0x1c0, %o2
    0x100008528:            99 2b f0 20  sllx      %o7, 0x20, %o4
    0x10000852c:            cd 1e 20 08  ldd       [%i0 + 0x8], %d6
    0x100008530:            a1 2a a0 01  sll       %o2, 0x1, %l0
    0x100008534:            92 13 00 0b  or        %o4, %o3, %o1
    0x100008538:            a9 a1 08 42  faddd     %d4, %d2, %d20
    0x10000853c:            f1 1f 60 58  ldd       [%i5 + 0x58], %d24
    0x100008540:            91 34 20 00  srl       %l0, 0x0, %o0
    0x100008544:            8a 02 60 c0  add       %o1, 0xc0, %g5
    0x100008548:            ed 1f 60 50  ldd       [%i5 + 0x50], %d22
    0x10000854c:            89 2a 30 03  sllx      %o0, 0x3, %g4
    0x100008550:            99 a2 08 46  faddd     %d8, %d6, %d12
    0x100008554:            c5 19 40 04  ldd       [%g5 + %g4], %d2
    0x100008558:            82 01 00 05  add       %g4, %g5, %g1
    0x10000855c:            d5 18 60 08  ldd       [%g1 + 0x8], %d10
    0x100008560:            9d a7 89 42  fmuld     %d30, %d2, %d14
    0x100008564:            a5 a3 08 4a  faddd     %d12, %d10, %d18
    0x100008568:            b5 a4 08 4e  faddd     %d16, %d14, %d26
    0x10000856c:            a1 a4 08 ce  fsubd     %d16, %d14, %d16
    0x100008570:            bf a4 09 da  fdivd     %d16, %d26, %d62
    0x100008574:            91 a7 c9 5f  fmuld     %d62, %d62, %d8
    0x100008578:            bd a7 c8 5f  faddd     %d62, %d62, %d30
    0x10000857c:            b9 a7 c9 58  fmuld     %d62, %d24, %d28
    0x100008580:            89 a7 c9 56  fmuld     %d62, %d22, %d4
    0x100008584:            95 a5 08 5e  faddd     %d20, %d30, %d10
    0x100008588:            8d a7 09 48  fmuld     %d28, %d8, %d6
    0x10000858c:            85 a1 09 48  fmuld     %d4, %d8, %d2
    0x100008590:            99 a2 09 46  fmuld     %d8, %d6, %d12
    0x100008594:            9d a2 88 42  faddd     %d10, %d2, %d14
    0x100008598:            b5 a3 88 4c  faddd     %d14, %d12, %d26
    0x10000859c:            81 a4 88 5a  faddd     %d18, %d26, %d0
    0x1000085a0:            81 c7 e0 08  ret
    0x1000085a4:            81 e8 20 00  restore   %g0, 0x0, %g0

section .init
_init()
    0x1000085a8:            9d e3 bf 50  save      %sp, -0xb0, %sp
    0x1000085ac:            01 00 00 00  nop
    0x1000085b0:            40 00 00 1c  call      +0x70         <0x100008620>
    0x1000085b4:            01 00 00 00  nop
    0x1000085b8:            9d e3 bf 50  save      %sp, -0xb0, %sp
    0x1000085bc:            40 00 00 02  call      +0x8          <0x1000085c4>
    0x1000085c0:            01 00 00 00  nop
    0x1000085c4:            d0 5b e0 24  ldx       [%o7 + 0x24], %o0
    0x1000085c8:            90 03 c0 08  add       %o7, %o0, %o0
    0x1000085cc:            ee 5a 3f f8  ldx       [%o0 - 0x8], %l7
    0x1000085d0:            9f c5 c0 00  jmpl      %l7, %o7
    0x1000085d4:            01 00 00 00  nop
    0x1000085d8:            81 c7 e0 08  ret
    0x1000085dc:            81 e8 00 00  restore
    0x1000085e0:            00 00 00 00  illtrap   0x0
    0x1000085e4:            00 11 5d bc  illtrap   0x115dbc
    0x1000085e8:            9d e3 bf 50  save      %sp, -0xb0, %sp
    0x1000085ec:            40 00 00 02  call      +0x8          <0x1000085f4>
    0x1000085f0:            01 00 00 00  nop
    0x1000085f4:            d0 5b e0 24  ldx       [%o7 + 0x24], %o0
    0x1000085f8:            90 03 c0 08  add       %o7, %o0, %o0
    0x1000085fc:            ee 5a 3f e8  ldx       [%o0 - 0x18], %l7
    0x100008600:            9f c5 c0 00  jmpl      %l7, %o7
    0x100008604:            01 00 00 00  nop
    0x100008608:            81 c7 e0 08  ret
    0x10000860c:            81 e8 00 00  restore
    0x100008610:            00 00 00 00  illtrap   0x0
    0x100008614:            00 11 5d 8c  illtrap   0x115d8c
    0x100008618:            00 00 00 00  illtrap   0x0
    0x10000861c:            00 11 5d c8  illtrap   0x115dc8
    0x100008620:            d0 5b e0 68  ldx       [%o7 + 0x68], %o0
    0x100008624:            90 03 c0 08  add       %o7, %o0, %o0
    0x100008628:            e0 5a 3f f0  ldx       [%o0 - 0x10], %l0
    0x10000862c:            e2 5a 3f e0  ldx       [%o0 - 0x20], %l1
    0x100008630:            e8 5a 3f c8  ldx       [%o0 - 0x38], %l4
    0x100008634:            e4 5a 3f d8  ldx       [%o0 - 0x28], %l2
    0x100008638:            e6 5a 3f d0  ldx       [%o0 - 0x30], %l3
    0x10000863c:            ea 5a 3f c0  ldx       [%o0 - 0x40], %l5
    0x100008640:            80 a4 00 00  cmp       %l0, %g0
    0x100008644:            02 80 00 0c  be        +0x30         <0x100008674>
    0x100008648:            01 00 00 00  nop
    0x10000864c:            9f c4 00 00  jmpl      %l0, %o7
    0x100008650:            01 00 00 00  nop
    0x100008654:            80 a4 80 00  cmp       %l2, %g0
    0x100008658:            02 80 00 07  be        +0x1c         <0x100008674>
    0x10000865c:            01 00 00 00  nop
    0x100008660:            80 a5 40 00  cmp       %l5, %g0
    0x100008664:            02 80 00 04  be        +0x10         <0x100008674>
    0x100008668:            01 00 00 00  nop
    0x10000866c:            9f c5 40 00  jmpl      %l5, %o7
    0x100008670:            90 14 c0 00  or        %l3, %g0, %o0
    0x100008674:            80 a4 40 00  cmp       %l1, %g0
    0x100008678:            02 80 00 0c  be        +0x30         <0x1000086a8>
    0x10000867c:            01 00 00 00  nop
    0x100008680:            9f c4 40 00  jmpl      %l1, %o7
    0x100008684:            01 00 00 00  nop
    0x100008688:            80 a4 80 00  cmp       %l2, %g0
    0x10000868c:            02 80 00 07  be        +0x1c         <0x1000086a8>
    0x100008690:            01 00 00 00  nop
    0x100008694:            80 a5 40 00  cmp       %l5, %g0
    0x100008698:            02 80 00 04  be        +0x10         <0x1000086a8>
    0x10000869c:            01 00 00 00  nop
    0x1000086a0:            9f c5 40 00  jmpl      %l5, %o7
    0x1000086a4:            90 15 00 00  or        %l4, %g0, %o0
    0x1000086a8:            81 c7 e0 08  ret
    0x1000086ac:            81 e8 00 00  restore

section .fini
_fini()
    0x1000086b0:            9d e3 bf 50  save      %sp, -0xb0, %sp
    0x1000086b4:            01 00 00 00  nop
    0x1000086b8:            40 00 00 06  call      +0x18         <0x1000086d0>
    0x1000086bc:            01 00 00 00  nop
    0x1000086c0:            00 00 00 00  illtrap   0x0
    0x1000086c4:            00 11 5c f8  illtrap   0x115cf8
    0x1000086c8:            00 00 00 00  illtrap   0x0
    0x1000086cc:            00 11 5c c0  illtrap   0x115cc0
    0x1000086d0:            d0 5b e0 08  ldx       [%o7 + 0x8], %o0
    0x1000086d4:            90 03 c0 08  add       %o7, %o0, %o0
    0x1000086d8:            ee 5b e0 10  ldx       [%o7 + 0x10], %l7
    0x1000086dc:            ae 03 c0 17  add       %o7, %l7, %l7
    0x1000086e0:            e0 5a 3f f8  ldx       [%o0 - 0x8], %l0
    0x1000086e4:            80 a4 00 00  cmp       %l0, %g0
    0x1000086e8:            02 80 00 05  be        +0x14         <0x1000086fc>
    0x1000086ec:            01 00 00 00  nop
    0x1000086f0:            d2 5a 20 08  ldx       [%o0 + 0x8], %o1
    0x1000086f4:            9f c4 00 00  jmpl      %l0, %o7
    0x1000086f8:            d0 5a 00 00  ldx       [%o0], %o0
    0x1000086fc:            e6 5d ff f8  ldx       [%l7 - 0x8], %l3
    0x100008700:            e4 5d ff d8  ldx       [%l7 - 0x28], %l2
    0x100008704:            e0 5d ff e8  ldx       [%l7 - 0x18], %l0
    0x100008708:            80 a4 80 00  cmp       %l2, %g0
    0x10000870c:            12 80 00 0c  bne       +0x30         <0x10000873c>
    0x100008710:            01 00 00 00  nop
    0x100008714:            80 a4 c0 00  cmp       %l3, %g0
    0x100008718:            02 80 00 04  be        +0x10         <0x100008728>
    0x10000871c:            01 00 00 00  nop
    0x100008720:            9f c4 c0 00  jmpl      %l3, %o7
    0x100008724:            90 15 c0 00  or        %l7, %g0, %o0
    0x100008728:            80 a4 00 00  cmp       %l0, %g0
    0x10000872c:            02 80 00 04  be        +0x10         <0x10000873c>
    0x100008730:            01 00 00 00  nop
    0x100008734:            9f c4 00 00  jmpl      %l0, %o7
    0x100008738:            01 00 00 00  nop
    0x10000873c:            81 c7 e0 08  ret
    0x100008740:            81 e8 00 00  restore
