disassembly for water/WATER-SPATIAL


section .text
_start()
    0x100002b00:            bc 10 20 00  clr       %fp
    0x100002b04:            e0 5b a8 7f  ldx       [%sp + 0x87f], %l0
    0x100002b08:            1b 00 00 00  sethi     %hi(0x0), %o5
    0x100002b0c:            9a 13 60 01  or        %o5, 0x1, %o5
    0x100002b10:            9b 2b 70 20  sllx      %o5, 0x20, %o5
    0x100002b14:            13 00 04 bc  sethi     %hi(0x12f000), %o1
    0x100002b18:            92 12 40 0d  or        %o1, %o5, %o1
    0x100002b1c:            e0 22 62 f8  st        %l0, [%o1 + 0x2f8]
    0x100002b20:            a2 03 a8 87  add       %sp, 0x887, %l1
    0x100002b24:            1b 00 00 00  sethi     %hi(0x0), %o5
    0x100002b28:            9a 13 60 01  or        %o5, 0x1, %o5
    0x100002b2c:            9b 2b 70 20  sllx      %o5, 0x20, %o5
    0x100002b30:            13 00 04 bc  sethi     %hi(0x12f000), %o1
    0x100002b34:            92 12 40 0d  or        %o1, %o5, %o1
    0x100002b38:            e2 72 62 f0  stx       %l1, [%o1 + 0x2f0]
    0x100002b3c:            1b 00 00 00  sethi     %hi(0x0), %o5
    0x100002b40:            9a 13 60 01  or        %o5, 0x1, %o5
    0x100002b44:            9b 2b 70 20  sllx      %o5, 0x20, %o5
    0x100002b48:            13 00 04 b7  sethi     %hi(0x12dc00), %o1
    0x100002b4c:            92 12 40 0d  or        %o1, %o5, %o1
    0x100002b50:            e2 72 60 c0  stx       %l1, [%o1 + 0xc0]
    0x100002b54:            a5 2c 20 03  sll       %l0, 0x3, %l2
    0x100002b58:            a4 04 a0 08  add       %l2, 0x8, %l2
    0x100002b5c:            a4 04 40 12  add       %l1, %l2, %l2
    0x100002b60:            1b 00 00 00  sethi     %hi(0x0), %o5
    0x100002b64:            9a 13 60 01  or        %o5, 0x1, %o5
    0x100002b68:            9b 2b 70 20  sllx      %o5, 0x20, %o5
    0x100002b6c:            27 00 04 b7  sethi     %hi(0x12dc00), %l3
    0x100002b70:            a6 14 c0 0d  or        %l3, %o5, %l3
    0x100002b74:            e8 5c e0 98  ldx       [%l3 + 0x98], %l4
    0x100002b78:            80 a5 20 00  cmp       %l4, 0x0
    0x100002b7c:            12 80 00 03  bne       +0xc          <0x100002b88>
    0x100002b80:            01 00 00 00  nop
    0x100002b84:            e4 74 e0 98  stx       %l2, [%l3 + 0x98]
    0x100002b88:            2b 00 00 00  sethi     %hi(0x0), %l5
    0x100002b8c:            aa 15 60 01  or        %l5, 0x1, %l5
    0x100002b90:            80 90 00 15  tst       %l5
    0x100002b94:            02 80 00 15  be        +0x54         <0x100002be8>
    0x100002b98:            01 00 00 00  nop
    0x100002b9c:            1b 00 00 00  sethi     %hi(0x0), %o5
    0x100002ba0:            9a 13 60 01  or        %o5, 0x1, %o5
    0x100002ba4:            9b 2b 70 20  sllx      %o5, 0x20, %o5
    0x100002ba8:            29 00 04 b7  sethi     %hi(0x12dc00), %l4
    0x100002bac:            a8 15 00 0d  or        %l4, %o5, %l4
    0x100002bb0:            ad 2d 60 02  sll       %l5, 0x2, %l6
    0x100002bb4:            c1 2d 20 b8  stx       %fsr, [%l4 + 0xb8]
    0x100002bb8:            ae 0d a3 00  and       %l6, 0x300, %l7
    0x100002bbc:            ac 0d 60 3f  and       %l5, 0x3f, %l6
    0x100002bc0:            ac 15 80 17  or        %l6, %l7, %l6
    0x100002bc4:            ab 2d a0 16  sll       %l6, 0x16, %l5
    0x100002bc8:            ec 05 20 b8  ld        [%l4 + 0xb8], %l6
    0x100002bcc:            ae 20 00 17  neg       %l7
    0x100002bd0:            af 3d e0 1f  sra       %l7, 0x1f, %l7
    0x100002bd4:            af 2d e0 1e  sll       %l7, 0x1e, %l7
    0x100002bd8:            ac 2d 80 17  andn      %l6, %l7, %l6
    0x100002bdc:            ac 15 80 15  or        %l6, %l5, %l6
    0x100002be0:            ec 25 20 b8  st        %l6, [%l4 + 0xb8]
    0x100002be4:            c1 0d 20 b8  ldx       [%l4 + 0xb8], %fsr
    0x100002be8:            9c 23 a0 30  sub       %sp, 0x30, %sp
    0x100002bec:            80 90 00 01  tst       %g1
    0x100002bf0:            02 80 00 04  be        +0x10         <0x100002c00>
    0x100002bf4:            01 00 00 00  nop
    0x100002bf8:            40 04 aa a2  call      +0x12aa88     <0x10012d680>
    0x100002bfc:            90 10 00 01  mov       %g1, %o0
    0x100002c00:            1b 00 00 00  sethi     %hi(0x0), %o5
    0x100002c04:            9a 13 60 01  or        %o5, 0x1, %o5
    0x100002c08:            9b 2b 70 20  sllx      %o5, 0x20, %o5
    0x100002c0c:            11 00 00 33  sethi     %hi(0xcc00), %o0
    0x100002c10:            90 12 00 0d  or        %o0, %o5, %o0
    0x100002c14:            40 04 aa 9b  call      +0x12aa6c     <0x10012d680>
    0x100002c18:            90 12 21 60  or        %o0, 0x160, %o0
    0x100002c1c:            13 00 00 00  sethi     %hi(0x0), %o1
    0x100002c20:            92 12 60 01  or        %o1, 0x1, %o1
    0x100002c24:            93 2a 70 20  sllx      %o1, 0x20, %o1
    0x100002c28:            11 00 04 b7  sethi     %hi(0x12dc00), %o0
    0x100002c2c:            90 12 00 09  or        %o0, %o1, %o0
    0x100002c30:            d0 5a 20 c8  ldx       [%o0 + 0xc8], %o0
    0x100002c34:            80 90 00 08  tst       %o0
    0x100002c38:            12 80 00 0d  bne       +0x34         <0x100002c6c>
    0x100002c3c:            01 00 00 00  nop
    0x100002c40:            13 00 00 00  sethi     %hi(0x0), %o1
    0x100002c44:            92 12 60 01  or        %o1, 0x1, %o1
    0x100002c48:            93 2a 70 20  sllx      %o1, 0x20, %o1
    0x100002c4c:            11 00 04 b7  sethi     %hi(0x12dc00), %o0
    0x100002c50:            90 12 00 09  or        %o0, %o1, %o0
    0x100002c54:            d0 5a 20 d0  ldx       [%o0 + 0xd0], %o0
    0x100002c58:            80 90 00 08  tst       %o0
    0x100002c5c:            02 80 00 04  be        +0x10         <0x100002c6c>
    0x100002c60:            01 00 00 00  nop
    0x100002c64:            40 04 aa 87  call      +0x12aa1c     <0x10012d680>
    0x100002c68:            01 00 00 00  nop
    0x100002c6c:            40 00 28 39  call      +0xa0e4       <0x10000cd50>
    0x100002c70:            01 00 00 00  nop
    0x100002c74:            90 10 00 10  mov       %l0, %o0
    0x100002c78:            92 10 00 11  mov       %l1, %o1
    0x100002c7c:            40 00 19 51  call      +0x6544       <0x1000091c0>
    0x100002c80:            94 10 00 12  mov       %l2, %o2
    0x100002c84:            40 04 aa 87  call      +0x12aa1c     <0x10012d6a0>
    0x100002c88:            01 00 00 00  nop
    0x100002c8c:            40 04 aa 8d  call      +0x12aa34     <0x10012d6c0>
    0x100002c90:            01 00 00 00  nop
    0x100002c94:            00 00 00 00  illtrap   0x0
    0x100002c98:            3f f0 00 00  0x3ff00000
    0x100002c9c:            00 00 00 00  illtrap   0x0
    0x100002ca0:            00 00 00 00  illtrap   0x0
    0x100002ca4:            00 00 00 00  illtrap   0x0
BNDRY()
    0x100002ca8:            9d e3 be d0  save      %sp, -0x130, %sp
    0x100002cac:            39 00 04 00  sethi     %hi(0x100000), %i4
    0x100002cb0:            b6 17 21 2f  or        %i4, 0x12f, %i3
    0x100002cb4:            a7 2e f0 0c  sllx      %i3, 0xc, %l3
    0x100002cb8:            e2 5c e3 28  ldx       [%l3 + 0x328], %l1
    0x100002cbc:            a5 2e 30 03  sllx      %i0, 0x3, %l2
    0x100002cc0:            fa 5c 40 12  ldx       [%l1 + %l2], %i5
    0x100002cc4:            02 c7 40 9c  brz,pn    %i5, +0x270   <0x100002f34>
    0x100002cc8:            fa 73 a8 af  stx       %i5, [%sp + 0x8af]
    0x100002ccc:            15 00 04 00  sethi     %hi(0x100000), %o2
    0x100002cd0:            21 00 04 00  sethi     %hi(0x100000), %l0
    0x100002cd4:            17 00 04 00  sethi     %hi(0x100000), %o3
    0x100002cd8:            8a 12 a0 02  or        %o2, 0x2, %g5
    0x100002cdc:            09 00 04 00  sethi     %hi(0x100000), %g4
    0x100002ce0:            90 12 e1 2e  or        %o3, 0x12e, %o0
    0x100002ce4:            b5 29 70 0c  sllx      %g5, 0xc, %i2
    0x100002ce8:            92 14 21 2e  or        %l0, 0x12e, %o1
    0x100002cec:            ea 5b a8 af  ldx       [%sp + 0x8af], %l5
    0x100002cf0:            86 11 21 2f  or        %g4, 0x12f, %g3
    0x100002cf4:            f4 73 a8 bf  stx       %i2, [%sp + 0x8bf]
    0x100002cf8:            b9 2a 30 0c  sllx      %o0, 0xc, %i4
    0x100002cfc:            ed 1f 26 a8  ldd       [%i4 + 0x6a8], %d22
    0x100002d00:            b7 2a 70 0c  sllx      %o1, 0xc, %i3
    0x100002d04:            d0 5e e2 b0  ldx       [%i3 + 0x2b0], %o0
    0x100002d08:            bb 28 f0 0c  sllx      %g3, 0xc, %i5
    0x100002d0c:            fa 73 a8 b7  stx       %i5, [%sp + 0x8b7]
    0x100002d10:            b2 06 ac 98  add       %i2, 0xc98, %i1
    0x100002d14:            f2 73 a8 c7  stx       %i1, [%sp + 0x8c7]
    0x100002d18:            e4 5d 60 00  ldx       [%l5], %l2
    0x100002d1c:            e2 5d 60 08  ldx       [%l5 + 0x8], %l1
    0x100002d20:            e8 5d 60 10  ldx       [%l5 + 0x10], %l4
    0x100002d24:            a1 2c b0 03  sllx      %l2, 0x3, %l0
    0x100002d28:            f4 5c 00 08  ldx       [%l0 + %o0], %i2
    0x100002d2c:            a7 2c 70 03  sllx      %l1, 0x3, %l3
    0x100002d30:            e8 73 a8 cf  stx       %l4, [%sp + 0x8cf]
    0x100002d34:            ea 5e 80 13  ldx       [%i2 + %l3], %l5
    0x100002d38:            bb 2d 30 05  sllx      %l4, 0x5, %i5
    0x100002d3c:            e8 5f 40 15  ldx       [%i5 + %l5], %l4
    0x100002d40:            02 c5 00 78  brz,pn    %l4, +0x1e0   <0x100002f20>
    0x100002d44:            92 02 00 10  add       %o0, %l0, %o1
    0x100002d48:            f0 5b a8 c7  ldx       [%sp + 0x8c7], %i0
    0x100002d4c:            b4 10 20 00  clr       %i2
    0x100002d50:            f1 1e 20 08  ldd       [%i0 + 0x8], %d24
    0x100002d54:            ea 5d 22 a0  ldx       [%l4 + 0x2a0], %l5
    0x100002d58:            ac 10 20 00  clr       %l6
    0x100002d5c:            c5 1d 20 20  ldd       [%l4 + 0x20], %d2
    0x100002d60:            ae 05 20 18  add       %l4, 0x18, %l7
    0x100002d64:            81 a8 8a d6  fcmped    %fcc0, %d2, %d22
    0x100002d68:            3d 40 00 0f  fbule,a,pn %fcc0, +0x3c   <0x100002da4>
    0x100002d6c:            83 a8 8a d8  fcmped    %fcc1, %d2, %d24
    0x100002d70:            d1 1d e0 00  ldd       [%l7], %d8
    0x100002d74:            e9 1d e0 10  ldd       [%l7 + 0x10], %d20
    0x100002d78:            95 a2 08 d6  fsubd     %d8, %d22, %d10
    0x100002d7c:            d5 3d e0 00  std       %d10, [%l7]
    0x100002d80:            d9 1f 26 a8  ldd       [%i4 + 0x6a8], %d12
    0x100002d84:            a1 a0 88 cc  fsubd     %d2, %d12, %d16
    0x100002d88:            e1 3d e0 08  std       %d16, [%l7 + 0x8]
    0x100002d8c:            e5 1f 26 a8  ldd       [%i4 + 0x6a8], %d18
    0x100002d90:            bd a5 08 d2  fsubd     %d20, %d18, %d30
    0x100002d94:            fd 3d e0 10  std       %d30, [%l7 + 0x10]
    0x100002d98:            ed 1f 26 a8  ldd       [%i4 + 0x6a8], %d22
    0x100002d9c:            10 80 00 10  ba        +0x40         <0x100002ddc>
    0x100002da0:            ac 05 a0 01  add       %l6, 0x1, %l6
    0x100002da4:            19 50 00 0d  fbuge,pn  %fcc1, +0x34   <0x100002dd8>
    0x100002da8:            b9 a0 00 42  fmovd     %d2, %d28
    0x100002dac:            fd 1d e0 00  ldd       [%l7], %d30
    0x100002db0:            f5 1d e0 10  ldd       [%l7 + 0x10], %d26
    0x100002db4:            ad a7 88 56  faddd     %d30, %d22, %d22
    0x100002db8:            ed 3d e0 00  std       %d22, [%l7]
    0x100002dbc:            c5 1f 26 a8  ldd       [%i4 + 0x6a8], %d2
    0x100002dc0:            89 a7 08 42  faddd     %d28, %d2, %d4
    0x100002dc4:            c9 3d e0 08  std       %d4, [%l7 + 0x8]
    0x100002dc8:            cd 1f 26 a8  ldd       [%i4 + 0x6a8], %d6
    0x100002dcc:            81 a6 88 46  faddd     %d26, %d6, %d0
    0x100002dd0:            c1 3d e0 10  std       %d0, [%l7 + 0x10]
    0x100002dd4:            ed 1f 26 a8  ldd       [%i4 + 0x6a8], %d22
    0x100002dd8:            ac 05 a0 01  add       %l6, 0x1, %l6
    0x100002ddc:            80 a5 a0 02  cmp       %l6, 0x2
    0x100002de0:            ae 05 e0 18  add       %l7, 0x18, %l7
    0x100002de4:            24 6f ff e0  ble,a,pt  %xcc, -0x80   <0x100002d64>
    0x100002de8:            c5 1d e0 08  ldd       [%l7 + 0x8], %d2
    0x100002dec:            da 5b a8 b7  ldx       [%sp + 0x8b7], %o5
    0x100002df0:            d8 5b a8 bf  ldx       [%sp + 0x8bf], %o4
    0x100002df4:            c9 1d 20 20  ldd       [%l4 + 0x20], %d4
    0x100002df8:            c1 1b 62 78  ldd       [%o5 + 0x278], %d0
    0x100002dfc:            c5 1b 2c 98  ldd       [%o4 + 0xc98], %d2
    0x100002e00:            cd 1d 20 38  ldd       [%l4 + 0x38], %d6
    0x100002e04:            91 a0 89 c0  fdivd     %d2, %d0, %d8
    0x100002e08:            95 a1 09 48  fmuld     %d4, %d8, %d10
    0x100002e0c:            c1 1d 20 50  ldd       [%l4 + 0x50], %d0
    0x100002e10:            9d a1 89 48  fmuld     %d6, %d8, %d14
    0x100002e14:            a5 a0 09 48  fmuld     %d0, %d8, %d18
    0x100002e18:            99 a0 10 4a  fdtox     %d10, %d12
    0x100002e1c:            d9 3b a9 1f  std       %d12, [%sp + 0x91f]
    0x100002e20:            ee 5b a9 1f  ldx       [%sp + 0x91f], %l7
    0x100002e24:            a1 a0 10 4e  fdtox     %d14, %d16
    0x100002e28:            a9 a0 10 52  fdtox     %d18, %d20
    0x100002e2c:            e1 3b a8 ff  std       %d16, [%sp + 0x8ff]
    0x100002e30:            e9 3b a8 df  std       %d20, [%sp + 0x8df]
    0x100002e34:            ec 5b a8 ff  ldx       [%sp + 0x8ff], %l6
    0x100002e38:            80 a5 c0 12  cmp       %l7, %l2
    0x100002e3c:            f2 5b a8 df  ldx       [%sp + 0x8df], %i1
    0x100002e40:            12 60 00 0a  bne,pn    %xcc, +0x28   <0x100002e68>
    0x100002e44:            80 a5 80 11  cmp       %l6, %l1
    0x100002e48:            12 60 00 08  bne,pn    %xcc, +0x20   <0x100002e68>
    0x100002e4c:            de 5b a8 cf  ldx       [%sp + 0x8cf], %o7
    0x100002e50:            80 a6 40 0f  cmp       %i1, %o7
    0x100002e54:            32 60 00 06  bne,a,pn  %xcc, +0x18   <0x100002e6c>
    0x100002e58:            d6 5a 60 00  ldx       [%o1], %o3
    0x100002e5c:            b4 10 00 14  mov       %l4, %i2
    0x100002e60:            10 80 00 2e  ba        +0xb8         <0x100002f18>
    0x100002e64:            a8 10 00 15  mov       %l5, %l4
    0x100002e68:            d6 5a 60 00  ldx       [%o1], %o3
    0x100002e6c:            d4 5a c0 13  ldx       [%o3 + %l3], %o2
    0x100002e70:            b0 07 60 08  add       %i5, 0x8, %i0
    0x100002e74:            40 04 aa 1b  call      +0x12a86c     <0x10012d6e0>
    0x100002e78:            90 06 00 0a  add       %i0, %o2, %o0
    0x100002e7c:            22 c6 80 06  brz,a,pn  %i2, +0x18    <0x100002e94>
    0x100002e80:            c2 5e e2 b0  ldx       [%i3 + 0x2b0], %g1
    0x100002e84:            d8 5d 22 a0  ldx       [%l4 + 0x2a0], %o4
    0x100002e88:            d8 76 a2 a0  stx       %o4, [%i2 + 0x2a0]
    0x100002e8c:            10 80 00 07  ba        +0x1c         <0x100002ea8>
    0x100002e90:            c4 5e e2 b0  ldx       [%i3 + 0x2b0], %g2
    0x100002e94:            de 5c 00 01  ldx       [%l0 + %g1], %o7
    0x100002e98:            c4 5d 22 a0  ldx       [%l4 + 0x2a0], %g2
    0x100002e9c:            da 5b c0 13  ldx       [%o7 + %l3], %o5
    0x100002ea0:            c4 77 40 0d  stx       %g2, [%i5 + %o5]
    0x100002ea4:            c4 5e e2 b0  ldx       [%i3 + 0x2b0], %g2
    0x100002ea8:            c2 5c 00 02  ldx       [%l0 + %g2], %g1
    0x100002eac:            ad 2d b0 03  sllx      %l6, 0x3, %l6
    0x100002eb0:            de 58 40 13  ldx       [%g1 + %l3], %o7
    0x100002eb4:            90 06 00 0f  add       %i0, %o7, %o0
    0x100002eb8:            40 04 aa 12  call      +0x12a848     <0x10012d700>
    0x100002ebc:            af 2d f0 03  sllx      %l7, 0x3, %l7
    0x100002ec0:            da 5e e2 b0  ldx       [%i3 + 0x2b0], %o5
    0x100002ec4:            b1 2e 70 05  sllx      %i1, 0x5, %i0
    0x100002ec8:            b2 06 20 08  add       %i0, 0x8, %i1
    0x100002ecc:            d8 5d c0 0d  ldx       [%l7 + %o5], %o4
    0x100002ed0:            d6 5b 00 16  ldx       [%o4 + %l6], %o3
    0x100002ed4:            40 04 aa 03  call      +0x12a80c     <0x10012d6e0>
    0x100002ed8:            90 06 40 0b  add       %i1, %o3, %o0
    0x100002edc:            d4 5e e2 b0  ldx       [%i3 + 0x2b0], %o2
    0x100002ee0:            d2 5d c0 0a  ldx       [%l7 + %o2], %o1
    0x100002ee4:            d0 5a 40 16  ldx       [%o1 + %l6], %o0
    0x100002ee8:            ca 5e 00 08  ldx       [%i0 + %o0], %g5
    0x100002eec:            e8 76 00 08  stx       %l4, [%i0 + %o0]
    0x100002ef0:            ca 75 22 a0  stx       %g5, [%l4 + 0x2a0]
    0x100002ef4:            c8 5e e2 b0  ldx       [%i3 + 0x2b0], %g4
    0x100002ef8:            c6 5d c0 04  ldx       [%l7 + %g4], %g3
    0x100002efc:            e8 58 c0 16  ldx       [%g3 + %l6], %l4
    0x100002f00:            40 04 aa 00  call      +0x12a800     <0x10012d700>
    0x100002f04:            90 06 40 14  add       %i1, %l4, %o0
    0x100002f08:            d0 5e e2 b0  ldx       [%i3 + 0x2b0], %o0
    0x100002f0c:            a8 10 00 15  mov       %l5, %l4
    0x100002f10:            ed 1f 26 a8  ldd       [%i4 + 0x6a8], %d22
    0x100002f14:            92 02 00 10  add       %o0, %l0, %o1
    0x100002f18:            2a fd 7f 8e  brnz,a,pt %l5, -0x1c8   <0x100002d50>
    0x100002f1c:            f0 5b a8 c7  ldx       [%sp + 0x8c7], %i0
    0x100002f20:            ee 5b a8 af  ldx       [%sp + 0x8af], %l7
    0x100002f24:            ec 5d e0 18  ldx       [%l7 + 0x18], %l6
    0x100002f28:            ec 73 a8 af  stx       %l6, [%sp + 0x8af]
    0x100002f2c:            2a fd bf 7b  brnz,a,pt %l6, -0x214   <0x100002d18>
    0x100002f30:            ea 5b a8 af  ldx       [%sp + 0x8af], %l5
    0x100002f34:            81 c7 e0 08  ret
    0x100002f38:            81 e8 20 00  restore   %g0, 0x0, %g0
    0x100002f3c:            00 00 00 00  illtrap   0x0
    0x100002f40:            3f f0 00 00  0x3ff00000
    0x100002f44:            00 00 00 00  illtrap   0x0
    0x100002f48:            3f c5 55 55  0x3fc55555
    0x100002f4c:            55 55 55 55  call      +0x55555554   <0x1555584a0>
    0x100002f50:            3f ea aa aa  0x3feaaaaa
    0x100002f54:            aa aa aa ab  andncc    %o2, 0xaab, %l5
    0x100002f58:            3f d5 55 55  0x3fd55555
    0x100002f5c:            55 55 55 55  call      +0x55555554   <0x1555584b0>
    0x100002f60:            3f c4 44 44  0x3fc44444
    0x100002f64:            44 44 44 44  call      +0x11111110   <0x111114074>
    0x100002f68:            3f e8 00 00  0x3fe80000
    0x100002f6c:            00 00 00 00  illtrap   0x0
    0x100002f70:            3f e0 00 00  0x3fe00000
    0x100002f74:            00 00 00 00  illtrap   0x0
    0x100002f78:            3f b5 55 55  fbo,a     -0x2aaaac     <0xffd584cc>
    0x100002f7c:            55 55 55 55  call      +0x55555554   <0x1555584d0>
    0x100002f80:            3f c3 33 33  0x3fc33333
    0x100002f84:            33 33 33 33  sethi     %hi(0xcccccc00), %i1
    0x100002f88:            3f e6 4f a4  0x3fe64fa4
    0x100002f8c:            fa 4f a4 fa  ldsb      [%fp + 0x4fa], %i5
    0x100002f90:            3f e3 8e 38  0x3fe38e38
    0x100002f94:            e3 8e 38 e4  0xe38e38e4
    0x100002f98:            3f 91 11 11  fbo,a     +0x444444     <0x1004473dc>
    0x100002f9c:            11 11 11 11  sethi     %hi(0x44444400), %o0
    0x100002fa0:            3f c2 43 b9  0x3fc243b9
    0x100002fa4:            90 ee 64 3c  0x90ee643c
    0x100002fa8:            3f e5 1c 71  0x3fe51c71
    0x100002fac:            c7 1c 71 c7  ldd       [%l1 - 0xe39], %d34
    0x100002fb0:            3f e6 38 e3  0x3fe638e3
    0x100002fb4:            8e 38 e3 8e  xnor      %g3, 0x38e, %g7
    0x100002fb8:            3f cf 1c 71  0x3fcf1c71
    0x100002fbc:            c7 1c 71 c7  ldd       [%l1 - 0xe39], %d34
    0x100002fc0:            3f a5 55 55  fbo,a     -0x6aaaac     <0xff958514>
    0x100002fc4:            55 55 55 55  call      +0x55555554   <0x155558518>
    0x100002fc8:            3f 66 c1 6c  fbo,a,pn  %fcc2, -0x4fa50 <0xfffb3578>
    0x100002fcc:            16 c1 6c 17  0x16c16c17
    0x100002fd0:            3f c1 75 d7  0x3fc175d7
    0x100002fd4:            5d 75 d7 5d  call      +0x75d75d74   <0x175d78d48>
    0x100002fd8:            3f e4 32 a8  0x3fe432a8
    0x100002fdc:            7f dd 53 2b  call      -0x8ab354     <0xff757c88>
    0x100002fe0:            3f e8 5b 05  0x3fe85b05
    0x100002fe4:            b0 5b 05 b0  smul      %o4, %l0, %i0
    0x100002fe8:            3f d4 00 00  0x3fd40000
    0x100002fec:            00 00 00 00  illtrap   0x0
    0x100002ff0:            3f b2 22 22  fbo,a     -0x377778     <0xffc8b878>
    0x100002ff4:            22 22 22 22  illtrap   0x222222
    0x100002ff8:            3f 81 11 11  fbo,a     +0x44444      <0x10004743c>
    0x100002ffc:            11 11 11 11  sethi     %hi(0x44444400), %o0
    0x100003000:            3f 3a 01 a0  sethi     %hi(0xe8068000), %i7
    0x100003004:            1a 01 a0 1a  illtrap   0x1a01a
    0x100003008:            bf f0 00 00  0xbff00000
    0x10000300c:            00 00 00 00  illtrap   0x0
    0x100003010:            3f ee a1 61  0x3feea161
    0x100003014:            e4 f7 65 fe  stxa      %l2, [%i5 + 0x5fe] %asi
    0x100003018:            3f f0 b7 25  0x3ff0b725
    0x10000301c:            c3 73 37 4f  0xc373374f
    0x100003020:            3f f1 76 7b  0x3ff1767b
    0x100003024:            f7 16 7b 78  ldq       [%i1 - 0x488], %f27
    0x100003028:            3f fd 2f ff  0x3ffd2fff
    0x10000302c:            36 ac 64 77  bge,a     -0x4e6e24     <0xffb1c208>
    0x100003030:            40 2f ff b7  call      +0xbffedc     <0x100c02f0c>
    0x100003034:            e9 0f f9 72  0xe90ff972
    0x100003038:            3f f0 20 0d  0x3ff0200d
    0x10000303c:            1b 71 75 8e  fble,pn   %fcc3, +0x5d638 <0x100060674>
    0x100003040:            40 32 03 dd  call      +0xc80f74     <0x100c83fb4>
    0x100003044:            97 f6 2b 6b  0x97f62b6b
    0x100003048:            3c d2 03 af  0x3cd203af
    0x10000304c:            9e e7 56 16  subccc    %i5, %l6, %o7
    0x100003050:            3e 45 79 8e  bvc,a,pn  %icc, -0xa19c8 <0xfff61688>
    0x100003054:            e2 30 8c 3a  sth       %l1, [%g2 + %i2]
    0x100003058:            3b 00 0f 5c  sethi     %hi(0x3d7000), %i5
    0x10000305c:            6d 28 54 9d  call      -0x4b5ead8c   <0xb4a182d0>
    0x100003060:            3c a3 e5 be  bpos,a    -0x706908     <0xff8fc758>
    0x100003064:            63 fd fd d9  call      -0x7008089c   <0x8ff827c8>
    0x100003068:            44 df e1 64  call      +0x137f8590   <0x1137fb5f8>
    0x10000306c:            91 25 74 2f  mulscc    %l5, -0xbd1, %o0
    0x100003070:            3f e0 67 2f  0x3fe0672f
    0x100003074:            ba 01 ee ee  add       %g7, 0xeee, %i5
    0x100003078:            3f a8 a0 4d  fbo,a     -0x5d7ecc     <0xffa2b1ac>
    0x10000307c:            12 01 8a 44  illtrap   0x18a44
    0x100003080:            bf 77 d9 db  popc      %i3, %i7
    0x100003084:            a9 08 a2 66  tsubcc    %g2, 0x266, %l4
    0x100003088:            3f 90 d8 cb  fbo,a     +0x43632c     <0x1004393b4>
    0x10000308c:            07 d0 ae da  0x07d0aeda
    0x100003090:            bf e2 4d 16  save      %o1, %l6, %i7
    0x100003094:            33 48 2b e9  fbe,a,pt  %fcc0, +0xafa4 <0x10000e038>
    0x100003098:            bf 7f 46 ed  movre     %i5, %o5, %i7
    0x10000309c:            24 5b 29 1c  0x245b291c
    0x1000030a0:            bf 5e 96 c3  flushw
    0x1000030a4:            fc 43 b2 dd  ldsw      [%sp - 0xd23], %fp
    0x1000030a8:            bf 60 c4 de  movul     %fcc0, %fp, %i7
    0x1000030ac:            c1 c1 d6 d0  0xc1c1d6d0
    0x1000030b0:            bf 9f 91 e6  wrhpr     %fp, %g6, %hstick_cmpr
    0x1000030b4:            46 f1 56 19  call      +0x1bc55864   <0x11bc58918>
    0x1000030b8:            bf 83 4d 26  0xbf834d26
    0x1000030bc:            fa 3f cc 9f  std       %i5, [%i7 + %i7]
    0x1000030c0:            3f ea fa ac  0x3feafaac
    0x1000030c4:            d9 e8 3e 42  prefetcha [-0x1be] %asi, 0xc
    0x1000030c8:            bf 5f 9f 01  flushw
    0x1000030cc:            b8 66 e4 3b  subc      %i3, 0x43b, %i4
    0x1000030d0:            bf 68 93 74  sdivx     %g2, %l4, %i7
    0x1000030d4:            bc 6a 7e fa  udivx     %o1, -0x106, %fp
    0x1000030d8:            3f 6d 7d bf  fbo,a,pt  %fcc2, -0xa0904 <0xfff627d4>
    0x1000030dc:            48 7f cb 92  call      +0x21ff2e48   <0x121ff5f24>
    0x1000030e0:            bf 88 93 74  0xbf889374
    0x1000030e4:            bc 6a 7e fa  udivx     %o1, -0x106, %fp
    0x1000030e8:            3f 78 93 74  fbo,a,pt  %fcc3, +0x24dd0 <0x100027eb8>
    0x1000030ec:            bc 6a 7e fa  udivx     %o1, -0x106, %fp
    0x1000030f0:            bf 73 a9 2a  popc      0x92a, %i7
    0x1000030f4:            30 55 32 61  chkpt     -0xb367c <0xfff4fa78>
    0x1000030f8:            3f 95 9b 3d  fbo,a     +0x566cf4     <0x100569dec>
    0x1000030fc:            07 c8 4b 5e  0x07c84b5e
    0x100003100:            3f 79 a7 3b  fbo,a,pt  %fcc3, +0x69cec <0x10006cdec>
    0x100003104:            42 cc 2d 6b  call      +0xb30b5ac    <0x10b30e6b0>
    0x100003108:            3f b2 4f 3c  fbo,a     -0x36c310     <0xffc96df8>
    0x10000310c:            ff 0e e9 52  0xff0ee952
    0x100003110:            40 7c 75 02  call      +0x1f1d408    <0x101f20518>
    0x100003114:            75 25 46 0b  call      -0x2b6ae7d4   <0xd4954940>
    0x100003118:            40 14 9c 60  call      +0x527180     <0x10052a298>
    0x10000311c:            31 98 ff 40  fba,a     +0x63fd00     <0x100642e1c>
    0x100003120:            3f d1 d7 d5  0x3fd1d7d5
    0x100003124:            33 ce 8e 99  0x33ce8e99
    0x100003128:            40 06 16 35  call      +0x1858d4     <0x1001889fc>
    0x10000312c:            38 c6 f0 eb  0x38c6f0eb
    0x100003130:            3f e3 7c 93  0x3fe37c93
    0x100003134:            84 2b c9 32  andn      %o7, %l2, %g2
    0x100003138:            40 07 b1 f6  call      +0x1ec7d8     <0x1001ef910>
    0x10000313c:            44 95 5b 46  call      +0x12556d18   <0x112559e54>
    0x100003140:            3f bd 4e 20  fbo,a     -0xac780      <0xfff569c0>
    0x100003144:            49 76 96 8a  call      +0x25da5a28   <0x125da8b6c>
    0x100003148:            40 01 dd b9  call      +0x776e4      <0x10007a82c>
    0x10000314c:            91 86 a5 a1  0x9186a5a1
    0x100003150:            40 a2 54 31  call      +0x28950c4    <0x102898214>
    0x100003154:            80 54 fb 79  umul      %l3, -0x487, %g0
    0x100003158:            3f e8 a1 89  0x3fe8a189
    0x10000315c:            46 a6 c1 82  call      +0x1a9b0608   <0x11a9b3764>
    0x100003160:            3f fc db d2  0x3ffcdbd2
    0x100003164:            1c c8 7f f4  0x1cc87ff4
    0x100003168:            3f d0 5c 8e  0x3fd05c8e
    0x10000316c:            a6 f2 54 d1  udivcc    %o1, %l1, %l3
    0x100003170:            3f e1 61 ae  0x3fe161ae
    0x100003174:            a6 71 18 71  udiv      %g4, %l1, %l3
    0x100003178:            3f cd 3c a2  0x3fcd3ca2
    0x10000317c:            b3 1d cf 1e  tsubcctv  %l7, %fp, %i1
    0x100003180:            3f c2 4f 3c  0x3fc24f3c
    0x100003184:            ff 0e e9 52  0xff0ee952
    0x100003188:            3f d2 4f 3c  0x3fd24f3c
    0x10000318c:            ff 0e e9 52  0xff0ee952
CNSTNT()
    0x100003190:            9d e3 be 70  save      %sp, -0x190, %sp
    0x100003194:            2f 00 04 00  sethi     %hi(0x100000), %l7
    0x100003198:            96 15 e1 2f  or        %l7, 0x12f, %o3
    0x10000319c:            bb 2a f0 0c  sllx      %o3, 0xc, %i5
    0x1000031a0:            03 00 04 00  sethi     %hi(0x100000), %g1
    0x1000031a4:            98 10 61 2e  or        %g1, 0x12e, %o4
    0x1000031a8:            fa 73 a9 4f  stx       %i5, [%sp + 0x94f]
    0x1000031ac:            bb 2b 30 0c  sllx      %o4, 0xc, %i5
    0x1000031b0:            39 00 04 00  sethi     %hi(0x100000), %i4
    0x1000031b4:            fa 73 a9 57  stx       %i5, [%sp + 0x957]
    0x1000031b8:            ba 17 21 2e  or        %i4, 0x12e, %i5
    0x1000031bc:            37 00 04 00  sethi     %hi(0x100000), %i3
    0x1000031c0:            21 00 04 00  sethi     %hi(0x100000), %l0
    0x1000031c4:            27 00 04 00  sethi     %hi(0x100000), %l3
    0x1000031c8:            ac 16 e0 02  or        %i3, 0x2, %l6
    0x1000031cc:            b9 2f 70 0c  sllx      %i5, 0xc, %i4
    0x1000031d0:            a2 14 21 2e  or        %l0, 0x12e, %l1
    0x1000031d4:            84 14 e1 2e  or        %l3, 0x12e, %g2
    0x1000031d8:            29 00 04 00  sethi     %hi(0x100000), %l4
    0x1000031dc:            b7 2d b0 0c  sllx      %l6, 0xc, %i3
    0x1000031e0:            bb 2c 70 0c  sllx      %l1, 0xc, %i5
    0x1000031e4:            f9 1e ef 40  ldd       [%i3 + 0xf40], %d28
    0x1000031e8:            a1 28 b0 0c  sllx      %g2, 0xc, %l0
    0x1000031ec:            f0 73 a8 b7  stx       %i0, [%sp + 0x8b7]
    0x1000031f0:            86 15 21 2e  or        %l4, 0x12e, %g3
    0x1000031f4:            f2 73 a8 af  stx       %i1, [%sp + 0x8af]
    0x1000031f8:            09 00 04 00  sethi     %hi(0x100000), %g4
    0x1000031fc:            2b 00 04 00  sethi     %hi(0x100000), %l5
    0x100003200:            a3 28 f0 0c  sllx      %g3, 0xc, %l1
    0x100003204:            8a 11 21 2f  or        %g4, 0x12f, %g5
    0x100003208:            94 15 61 2f  or        %l5, 0x12f, %o2
    0x10000320c:            31 00 04 00  sethi     %hi(0x100000), %i0
    0x100003210:            2d 00 04 00  sethi     %hi(0x100000), %l6
    0x100003214:            03 00 04 00  sethi     %hi(0x100000), %g1
    0x100003218:            05 00 04 00  sethi     %hi(0x100000), %g2
    0x10000321c:            9a 16 21 2f  or        %i0, 0x12f, %o5
    0x100003220:            a5 29 70 0c  sllx      %g5, 0xc, %l2
    0x100003224:            a9 2a b0 0c  sllx      %o2, 0xc, %l4
    0x100003228:            ae 15 a1 2f  or        %l6, 0x12f, %l7
    0x10000322c:            96 10 61 2f  or        %g1, 0x12f, %o3
    0x100003230:            86 10 a1 2f  or        %g2, 0x12f, %g3
    0x100003234:            11 00 04 00  sethi     %hi(0x100000), %o0
    0x100003238:            19 00 04 00  sethi     %hi(0x100000), %o4
    0x10000323c:            09 00 04 00  sethi     %hi(0x100000), %g4
    0x100003240:            b3 2b 70 0c  sllx      %o5, 0xc, %i1
    0x100003244:            92 12 21 2f  or        %o0, 0x12f, %o1
    0x100003248:            ab 2d f0 0c  sllx      %l7, 0xc, %l5
    0x10000324c:            ad 2a f0 0c  sllx      %o3, 0xc, %l6
    0x100003250:            b0 13 21 2f  or        %o4, 0x12f, %i0
    0x100003254:            85 28 f0 0c  sllx      %g3, 0xc, %g2
    0x100003258:            8a 11 21 2f  or        %g4, 0x12f, %g5
    0x10000325c:            1f 00 04 00  sethi     %hi(0x100000), %o7
    0x100003260:            15 00 04 00  sethi     %hi(0x100000), %o2
    0x100003264:            a7 2a 70 0c  sllx      %o1, 0xc, %l3
    0x100003268:            af 2e 30 0c  sllx      %i0, 0xc, %l7
    0x10000326c:            87 29 70 0c  sllx      %g5, 0xc, %g3
    0x100003270:            96 12 a1 2f  or        %o2, 0x12f, %o3
    0x100003274:            b4 13 e1 2f  or        %o7, 0x12f, %i2
    0x100003278:            1b 00 04 00  sethi     %hi(0x100000), %o5
    0x10000327c:            11 00 04 00  sethi     %hi(0x100000), %o0
    0x100003280:            19 00 04 00  sethi     %hi(0x100000), %o4
    0x100003284:            9e 13 61 2f  or        %o5, 0x12f, %o7
    0x100003288:            92 12 21 2f  or        %o0, 0x12f, %o1
    0x10000328c:            8b 2a f0 0c  sllx      %o3, 0xc, %g5
    0x100003290:            b0 13 21 2f  or        %o4, 0x12f, %i0
    0x100003294:            15 00 04 00  sethi     %hi(0x100000), %o2
    0x100003298:            83 2b f0 0c  sllx      %o7, 0xc, %g1
    0x10000329c:            91 2e 30 0c  sllx      %i0, 0xc, %o0
    0x1000032a0:            96 12 a1 2f  or        %o2, 0x12f, %o3
    0x1000032a4:            1b 00 04 00  sethi     %hi(0x100000), %o5
    0x1000032a8:            19 00 04 00  sethi     %hi(0x100000), %o4
    0x1000032ac:            89 2a 70 0c  sllx      %o1, 0xc, %g4
    0x1000032b0:            9e 13 61 2f  or        %o5, 0x12f, %o7
    0x1000032b4:            95 2a f0 0c  sllx      %o3, 0xc, %o2
    0x1000032b8:            b0 13 21 2f  or        %o4, 0x12f, %i0
    0x1000032bc:            93 2b f0 0c  sllx      %o7, 0xc, %o1
    0x1000032c0:            97 2e 30 0c  sllx      %i0, 0xc, %o3
    0x1000032c4:            1b 00 04 00  sethi     %hi(0x100000), %o5
    0x1000032c8:            9e 13 61 2e  or        %o5, 0x12e, %o7
    0x1000032cc:            31 00 04 00  sethi     %hi(0x100000), %i0
    0x1000032d0:            9a 16 21 2d  or        %i0, 0x12d, %o5
    0x1000032d4:            99 2b f0 0c  sllx      %o7, 0xc, %o4
    0x1000032d8:            b1 2b 70 0c  sllx      %o5, 0xc, %i0
    0x1000032dc:            f0 73 a8 bf  stx       %i0, [%sp + 0x8bf]
    0x1000032e0:            1f 00 04 00  sethi     %hi(0x100000), %o7
    0x1000032e4:            b0 13 e1 2d  or        %o7, 0x12d, %i0
    0x1000032e8:            9f 2e 30 0c  sllx      %i0, 0xc, %o7
    0x1000032ec:            de 73 a8 c7  stx       %o7, [%sp + 0x8c7]
    0x1000032f0:            1b 00 04 00  sethi     %hi(0x100000), %o5
    0x1000032f4:            9e 13 61 2d  or        %o5, 0x12d, %o7
    0x1000032f8:            9b 2b f0 0c  sllx      %o7, 0xc, %o5
    0x1000032fc:            da 73 a8 cf  stx       %o5, [%sp + 0x8cf]
    0x100003300:            31 00 04 00  sethi     %hi(0x100000), %i0
    0x100003304:            9a 16 21 2d  or        %i0, 0x12d, %o5
    0x100003308:            b1 2b 70 0c  sllx      %o5, 0xc, %i0
    0x10000330c:            f0 73 a8 d7  stx       %i0, [%sp + 0x8d7]
    0x100003310:            1f 00 04 00  sethi     %hi(0x100000), %o7
    0x100003314:            b0 13 e1 2d  or        %o7, 0x12d, %i0
    0x100003318:            9f 2e 30 0c  sllx      %i0, 0xc, %o7
    0x10000331c:            de 73 a8 df  stx       %o7, [%sp + 0x8df]
    0x100003320:            1b 00 04 00  sethi     %hi(0x100000), %o5
    0x100003324:            9e 13 61 2d  or        %o5, 0x12d, %o7
    0x100003328:            9b 2b f0 0c  sllx      %o7, 0xc, %o5
    0x10000332c:            da 73 a8 e7  stx       %o5, [%sp + 0x8e7]
    0x100003330:            31 00 04 00  sethi     %hi(0x100000), %i0
    0x100003334:            9a 16 21 2d  or        %i0, 0x12d, %o5
    0x100003338:            b1 2b 70 0c  sllx      %o5, 0xc, %i0
    0x10000333c:            f0 73 a8 ef  stx       %i0, [%sp + 0x8ef]
    0x100003340:            1f 00 04 00  sethi     %hi(0x100000), %o7
    0x100003344:            b0 13 e1 2d  or        %o7, 0x12d, %i0
    0x100003348:            9f 2e 30 0c  sllx      %i0, 0xc, %o7
    0x10000334c:            de 73 a8 f7  stx       %o7, [%sp + 0x8f7]
    0x100003350:            1b 00 04 00  sethi     %hi(0x100000), %o5
    0x100003354:            9e 13 61 2e  or        %o5, 0x12e, %o7
    0x100003358:            9b 2b f0 0c  sllx      %o7, 0xc, %o5
    0x10000335c:            da 73 a8 ff  stx       %o5, [%sp + 0x8ff]
    0x100003360:            31 00 04 00  sethi     %hi(0x100000), %i0
    0x100003364:            9a 16 21 2e  or        %i0, 0x12e, %o5
    0x100003368:            b1 2b 70 0c  sllx      %o5, 0xc, %i0
    0x10000336c:            f0 73 a9 07  stx       %i0, [%sp + 0x907]
    0x100003370:            1f 00 04 00  sethi     %hi(0x100000), %o7
    0x100003374:            b0 13 e1 2e  or        %o7, 0x12e, %i0
    0x100003378:            9f 2e 30 0c  sllx      %i0, 0xc, %o7
    0x10000337c:            de 73 a9 0f  stx       %o7, [%sp + 0x90f]
    0x100003380:            1b 00 04 00  sethi     %hi(0x100000), %o5
    0x100003384:            9e 13 61 2e  or        %o5, 0x12e, %o7
    0x100003388:            9b 2b f0 0c  sllx      %o7, 0xc, %o5
    0x10000338c:            da 73 a9 17  stx       %o5, [%sp + 0x917]
    0x100003390:            31 00 04 00  sethi     %hi(0x100000), %i0
    0x100003394:            9a 16 21 2d  or        %i0, 0x12d, %o5
    0x100003398:            b1 2b 70 0c  sllx      %o5, 0xc, %i0
    0x10000339c:            f0 73 a9 1f  stx       %i0, [%sp + 0x91f]
    0x1000033a0:            1f 00 04 00  sethi     %hi(0x100000), %o7
    0x1000033a4:            b0 13 e1 2d  or        %o7, 0x12d, %i0
    0x1000033a8:            9f 2e 30 0c  sllx      %i0, 0xc, %o7
    0x1000033ac:            de 73 a9 27  stx       %o7, [%sp + 0x927]
    0x1000033b0:            1b 00 04 00  sethi     %hi(0x100000), %o5
    0x1000033b4:            9e 13 61 2e  or        %o5, 0x12e, %o7
    0x1000033b8:            9b 2b f0 0c  sllx      %o7, 0xc, %o5
    0x1000033bc:            31 00 04 00  sethi     %hi(0x100000), %i0
    0x1000033c0:            9e 16 21 2e  or        %i0, 0x12e, %o7
    0x1000033c4:            b1 2b f0 0c  sllx      %o7, 0xc, %i0
    0x1000033c8:            f0 73 a9 2f  stx       %i0, [%sp + 0x92f]
    0x1000033cc:            31 00 04 00  sethi     %hi(0x100000), %i0
    0x1000033d0:            9e 16 21 2f  or        %i0, 0x12f, %o7
    0x1000033d4:            9f 2b f0 0c  sllx      %o7, 0xc, %o7
    0x1000033d8:            de 73 a9 37  stx       %o7, [%sp + 0x937]
    0x1000033dc:            31 00 04 00  sethi     %hi(0x100000), %i0
    0x1000033e0:            9e 16 21 2f  or        %i0, 0x12f, %o7
    0x1000033e4:            b1 2b f0 0c  sllx      %o7, 0xc, %i0
    0x1000033e8:            f0 73 a9 3f  stx       %i0, [%sp + 0x93f]
    0x1000033ec:            31 00 04 00  sethi     %hi(0x100000), %i0
    0x1000033f0:            9e 16 21 2f  or        %i0, 0x12f, %o7
    0x1000033f4:            9f 2b f0 0c  sllx      %o7, 0xc, %o7
    0x1000033f8:            de 73 a9 47  stx       %o7, [%sp + 0x947]
    0x1000033fc:            31 00 04 00  sethi     %hi(0x100000), %i0
    0x100003400:            9e 16 21 2e  or        %i0, 0x12e, %o7
    0x100003404:            b1 2b f0 0c  sllx      %o7, 0xc, %i0
    0x100003408:            f0 73 a9 5f  stx       %i0, [%sp + 0x95f]
    0x10000340c:            31 00 04 00  sethi     %hi(0x100000), %i0
    0x100003410:            9e 16 21 2f  or        %i0, 0x12f, %o7
    0x100003414:            9f 2b f0 0c  sllx      %o7, 0xc, %o7
    0x100003418:            de 73 a9 67  stx       %o7, [%sp + 0x967]
    0x10000341c:            31 00 04 00  sethi     %hi(0x100000), %i0
    0x100003420:            9e 16 21 2f  or        %i0, 0x12f, %o7
    0x100003424:            b1 2b f0 0c  sllx      %o7, 0xc, %i0
    0x100003428:            f0 73 a9 6f  stx       %i0, [%sp + 0x96f]
    0x10000342c:            31 00 04 00  sethi     %hi(0x100000), %i0
    0x100003430:            9e 16 21 2e  or        %i0, 0x12e, %o7
    0x100003434:            9f 2b f0 0c  sllx      %o7, 0xc, %o7
    0x100003438:            de 73 a9 77  stx       %o7, [%sp + 0x977]
    0x10000343c:            31 00 04 00  sethi     %hi(0x100000), %i0
    0x100003440:            9e 16 21 2e  or        %i0, 0x12e, %o7
    0x100003444:            31 00 04 00  sethi     %hi(0x100000), %i0
    0x100003448:            b0 16 21 2f  or        %i0, 0x12f, %i0
    0x10000344c:            b1 2e 30 0c  sllx      %i0, 0xc, %i0
    0x100003450:            f0 73 a9 7f  stx       %i0, [%sp + 0x97f]
    0x100003454:            b0 06 ef 40  add       %i3, 0xf40, %i0
    0x100003458:            c5 1e 21 20  ldd       [%i0 + 0x120], %d2
    0x10000345c:            c9 1e 21 28  ldd       [%i0 + 0x128], %d4
    0x100003460:            cd 1e 21 30  ldd       [%i0 + 0x130], %d6
    0x100003464:            d5 1e 21 38  ldd       [%i0 + 0x138], %d10
    0x100003468:            c1 1e 21 40  ldd       [%i0 + 0x140], %d0
    0x10000346c:            f1 1e 21 48  ldd       [%i0 + 0x148], %d24
    0x100003470:            e5 1e 21 50  ldd       [%i0 + 0x150], %d18
    0x100003474:            f5 1e 21 58  ldd       [%i0 + 0x158], %d26
    0x100003478:            fd 1e 21 60  ldd       [%i0 + 0x160], %d30
    0x10000347c:            e9 1e 21 68  ldd       [%i0 + 0x168], %d20
    0x100003480:            c5 3e 61 60  std       %d2, [%i1 + 0x160]
    0x100003484:            d9 1e 21 70  ldd       [%i0 + 0x170], %d12
    0x100003488:            cd 3f 26 b8  std       %d6, [%i4 + 0x6b8]
    0x10000348c:            d1 1e 21 78  ldd       [%i0 + 0x178], %d8
    0x100003490:            dd 1e 21 80  ldd       [%i0 + 0x180], %d14
    0x100003494:            d5 3f 66 d0  std       %d10, [%i5 + 0x6d0]
    0x100003498:            e1 1e 21 88  ldd       [%i0 + 0x188], %d16
    0x10000349c:            c1 3c 26 c0  std       %d0, [%l0 + 0x6c0]
    0x1000034a0:            ed 1e 21 90  ldd       [%i0 + 0x190], %d22
    0x1000034a4:            f1 3c 66 c8  std       %d24, [%l1 + 0x6c8]
    0x1000034a8:            c5 1e 21 98  ldd       [%i0 + 0x198], %d2
    0x1000034ac:            cd 1e 21 a8  ldd       [%i0 + 0x1a8], %d6
    0x1000034b0:            d5 1e 21 b0  ldd       [%i0 + 0x1b0], %d10
    0x1000034b4:            c1 1e 21 b8  ldd       [%i0 + 0x1b8], %d0
    0x1000034b8:            f2 5b a8 bf  ldx       [%sp + 0x8bf], %i1
    0x1000034bc:            f8 5b a8 cf  ldx       [%sp + 0x8cf], %i4
    0x1000034c0:            fa 5b a8 d7  ldx       [%sp + 0x8d7], %i5
    0x1000034c4:            e0 5b a8 df  ldx       [%sp + 0x8df], %l0
    0x1000034c8:            e2 5b a8 e7  ldx       [%sp + 0x8e7], %l1
    0x1000034cc:            e5 3c a1 68  std       %d18, [%l2 + 0x168]
    0x1000034d0:            f1 1e 21 c0  ldd       [%i0 + 0x1c0], %d24
    0x1000034d4:            e4 5b a8 ef  ldx       [%sp + 0x8ef], %l2
    0x1000034d8:            f5 3c e1 90  std       %d26, [%l3 + 0x190]
    0x1000034dc:            fd 3d 21 70  std       %d30, [%l4 + 0x170]
    0x1000034e0:            e9 3d 61 78  std       %d20, [%l5 + 0x178]
    0x1000034e4:            d9 3d a1 80  std       %d12, [%l6 + 0x180]
    0x1000034e8:            d1 3d e1 88  std       %d8, [%l7 + 0x188]
    0x1000034ec:            dd 38 62 88  std       %d14, [%g1 + 0x288]
    0x1000034f0:            e1 38 a2 c8  std       %d16, [%g2 + 0x2c8]
    0x1000034f4:            e5 1e 21 c8  ldd       [%i0 + 0x1c8], %d18
    0x1000034f8:            ed 38 e2 90  std       %d22, [%g3 + 0x290]
    0x1000034fc:            f5 1e 21 d0  ldd       [%i0 + 0x1d0], %d26
    0x100003500:            c5 39 22 a0  std       %d2, [%g4 + 0x2a0]
    0x100003504:            fd 1e 21 d8  ldd       [%i0 + 0x1d8], %d30
    0x100003508:            cd 3a 22 a8  std       %d6, [%o0 + 0x2a8]
    0x10000350c:            e9 1e 21 e0  ldd       [%i0 + 0x1e0], %d20
    0x100003510:            d9 1e 21 e8  ldd       [%i0 + 0x1e8], %d12
    0x100003514:            d5 3a 62 b0  std       %d10, [%o1 + 0x2b0]
    0x100003518:            d1 1e 21 f0  ldd       [%i0 + 0x1f0], %d8
    0x10000351c:            c1 3a a2 b8  std       %d0, [%o2 + 0x2b8]
    0x100003520:            dd 1e 21 f8  ldd       [%i0 + 0x1f8], %d14
    0x100003524:            e6 5b a8 f7  ldx       [%sp + 0x8f7], %l3
    0x100003528:            e8 5b a8 ff  ldx       [%sp + 0x8ff], %l4
    0x10000352c:            ea 5b a9 07  ldx       [%sp + 0x907], %l5
    0x100003530:            ec 5b a9 0f  ldx       [%sp + 0x90f], %l6
    0x100003534:            ee 5b a9 17  ldx       [%sp + 0x917], %l7
    0x100003538:            c2 5b a9 1f  ldx       [%sp + 0x91f], %g1
    0x10000353c:            c4 5b a9 27  ldx       [%sp + 0x927], %g2
    0x100003540:            c6 5b a9 2f  ldx       [%sp + 0x92f], %g3
    0x100003544:            c8 5b a9 37  ldx       [%sp + 0x937], %g4
    0x100003548:            d0 5b a9 47  ldx       [%sp + 0x947], %o0
    0x10000354c:            d2 5b a9 4f  ldx       [%sp + 0x94f], %o1
    0x100003550:            d4 5b a9 57  ldx       [%sp + 0x957], %o2
    0x100003554:            f1 3a e2 c0  std       %d24, [%o3 + 0x2c0]
    0x100003558:            e1 1e 22 00  ldd       [%i0 + 0x200], %d16
    0x10000355c:            d6 5b a9 5f  ldx       [%sp + 0x95f], %o3
    0x100003560:            e5 3b 22 80  std       %d18, [%o4 + 0x280]
    0x100003564:            f5 3e 6d 38  std       %d26, [%i1 + 0xd38]
    0x100003568:            e9 3f 2d 40  std       %d20, [%i4 + 0xd40]
    0x10000356c:            d9 3f 6d 60  std       %d12, [%i5 + 0xd60]
    0x100003570:            d1 3c 2d 48  std       %d8, [%l0 + 0xd48]
    0x100003574:            dd 3c 6d 68  std       %d14, [%l1 + 0xd68]
    0x100003578:            ed 1e 22 08  ldd       [%i0 + 0x208], %d22
    0x10000357c:            c5 1e 22 10  ldd       [%i0 + 0x210], %d2
    0x100003580:            cd 1e 22 20  ldd       [%i0 + 0x220], %d6
    0x100003584:            d5 1e 22 28  ldd       [%i0 + 0x228], %d10
    0x100003588:            c1 1e 22 30  ldd       [%i0 + 0x230], %d0
    0x10000358c:            f1 1e 22 38  ldd       [%i0 + 0x238], %d24
    0x100003590:            e5 1e 22 40  ldd       [%i0 + 0x240], %d18
    0x100003594:            f5 1e 22 48  ldd       [%i0 + 0x248], %d26
    0x100003598:            e9 1e 21 10  ldd       [%i0 + 0x110], %d20
    0x10000359c:            dd 1e 20 f8  ldd       [%i0 + 0xf8], %d14
    0x1000035a0:            e1 3c ad 50  std       %d16, [%l2 + 0xd50]
    0x1000035a4:            d9 1e 21 08  ldd       [%i0 + 0x108], %d12
    0x1000035a8:            ed 3c ed 70  std       %d22, [%l3 + 0xd70]
    0x1000035ac:            d1 1e 21 00  ldd       [%i0 + 0x100], %d8
    0x1000035b0:            c5 3d 22 90  std       %d2, [%l4 + 0x290]
    0x1000035b4:            e1 1e 20 f0  ldd       [%i0 + 0xf0], %d16
    0x1000035b8:            cd 3d a2 a0  std       %d6, [%l6 + 0x2a0]
    0x1000035bc:            e5 3b 63 50  std       %d18, [%o5 + 0x350]
    0x1000035c0:            d5 3d e2 a8  std       %d10, [%l7 + 0x2a8]
    0x1000035c4:            c1 38 6d 78  std       %d0, [%g1 + 0xd78]
    0x1000035c8:            f1 38 ad 80  std       %d24, [%g2 + 0xd80]
    0x1000035cc:            f5 38 e3 58  std       %d26, [%g3 + 0x358]
    0x1000035d0:            d9 3a 21 e8  std       %d12, [%o0 + 0x1e8]
    0x1000035d4:            d1 3a 61 f0  std       %d8, [%o1 + 0x1f0]
    0x1000035d8:            dd 3a a6 e8  std       %d14, [%o2 + 0x6e8]
    0x1000035dc:            b5 2e b0 0c  sllx      %i2, 0xc, %i2
    0x1000035e0:            c9 3e a1 58  std       %d4, [%i2 + 0x158]
    0x1000035e4:            c9 1e 21 a0  ldd       [%i0 + 0x1a0], %d4
    0x1000035e8:            f4 5b a8 c7  ldx       [%sp + 0x8c7], %i2
    0x1000035ec:            c9 39 62 98  std       %d4, [%g5 + 0x298]
    0x1000035f0:            ca 5b a9 3f  ldx       [%sp + 0x93f], %g5
    0x1000035f4:            fd 3e ad 58  std       %d30, [%i2 + 0xd58]
    0x1000035f8:            c9 1e 22 18  ldd       [%i0 + 0x218], %d4
    0x1000035fc:            fd 1e 21 18  ldd       [%i0 + 0x118], %d30
    0x100003600:            c9 3d 62 98  std       %d4, [%l5 + 0x298]
    0x100003604:            fd 39 21 e0  std       %d30, [%g4 + 0x1e0]
    0x100003608:            e9 39 61 d8  std       %d20, [%g5 + 0x1d8]
    0x10000360c:            e1 3a e7 20  std       %d16, [%o3 + 0x720]
    0x100003610:            cd 1e 20 d0  ldd       [%i0 + 0xd0], %d6
    0x100003614:            f2 5b a9 77  ldx       [%sp + 0x977], %i1
    0x100003618:            d8 5b a9 67  ldx       [%sp + 0x967], %o4
    0x10000361c:            da 5b a9 6f  ldx       [%sp + 0x96f], %o5
    0x100003620:            c9 1e 20 d8  ldd       [%i0 + 0xd8], %d4
    0x100003624:            f4 5b a8 af  ldx       [%sp + 0x8af], %i2
    0x100003628:            ed 1e 20 e8  ldd       [%i0 + 0xe8], %d22
    0x10000362c:            c9 3e 67 40  std       %d4, [%i1 + 0x740]
    0x100003630:            c5 1e 20 e0  ldd       [%i0 + 0xe0], %d2
    0x100003634:            ed 3b 21 50  std       %d22, [%o4 + 0x150]
    0x100003638:            f8 5b a9 7f  ldx       [%sp + 0x97f], %i4
    0x10000363c:            c5 3b 61 c8  std       %d2, [%o5 + 0x1c8]
    0x100003640:            9f 2b f0 0c  sllx      %o7, 0xc, %o7
    0x100003644:            cd 3b e3 68  std       %d6, [%o7 + 0x368]
    0x100003648:            de 5b a8 b7  ldx       [%sp + 0x8b7], %o7
    0x10000364c:            b2 10 20 02  mov       0x2, %i1
    0x100003650:            f9 3e a0 08  std       %d28, [%i2 + 0x8]
    0x100003654:            80 a6 40 0f  cmp       %i1, %o7
    0x100003658:            a4 10 20 03  mov       0x3, %l2
    0x10000365c:            14 60 00 60  bg,pn     %xcc, +0x180  <0x1000037dc>
    0x100003660:            e4 77 22 d8  stx       %l2, [%i4 + 0x2d8]
    0x100003664:            b5 2b f0 04  sllx      %o7, 0x4, %i2
    0x100003668:            a3 2b f0 03  sllx      %o7, 0x3, %l1
    0x10000366c:            a4 04 7f f8  add       %l1, -0x8, %l2
    0x100003670:            86 10 20 02  mov       0x2, %g3
    0x100003674:            a6 10 20 01  mov       0x1, %l3
    0x100003678:            fa 5b a8 af  ldx       [%sp + 0x8af], %i5
    0x10000367c:            cd 1e 20 c8  ldd       [%i0 + 0xc8], %d6
    0x100003680:            c9 1e ef 40  ldd       [%i3 + 0xf40], %d4
    0x100003684:            b8 07 40 1a  add       %i5, %i2, %i4
    0x100003688:            98 07 60 10  add       %i5, 0x10, %o4
    0x10000368c:            ba 10 20 08  mov       0x8, %i5
    0x100003690:            a0 27 40 11  sub       %i5, %l1, %l0
    0x100003694:            9a 07 00 10  add       %i4, %l0, %o5
    0x100003698:            96 10 00 0c  mov       %o4, %o3
    0x10000369c:            e6 73 a8 bf  stx       %l3, [%sp + 0x8bf]
    0x1000036a0:            80 a4 e0 04  cmp       %l3, 0x4
    0x1000036a4:            e5 1b a8 bf  ldd       [%sp + 0x8bf], %d18
    0x1000036a8:            88 10 20 02  mov       0x2, %g4
    0x1000036ac:            f5 1e ef 40  ldd       [%i3 + 0xf40], %d26
    0x1000036b0:            aa 10 00 0d  mov       %o5, %l5
    0x1000036b4:            a8 10 00 0c  mov       %o4, %l4
    0x1000036b8:            bd a0 11 12  fxtod     %d18, %d30
    0x1000036bc:            c9 3a e0 00  std       %d4, [%o3]
    0x1000036c0:            06 60 00 32  bl,pn     %xcc, +0xc8   <0x100003788>
    0x1000036c4:            01 00 00 00  nop
    0x1000036c8:            84 4c a0 03  mulx      %l2, 0x3, %g2
    0x1000036cc:            c1 1e ef 40  ldd       [%i3 + 0xf40], %d0
    0x1000036d0:            ed 1b 20 00  ldd       [%o4], %d22
    0x1000036d4:            88 10 20 04  mov       0x4, %g4
    0x1000036d8:            a1 a0 09 da  fdivd     %d0, %d26, %d16
    0x1000036dc:            90 03 00 12  add       %o4, %l2, %o0
    0x1000036e0:            a8 20 e0 01  sub       %g3, 0x1, %l4
    0x1000036e4:            8a 03 40 12  add       %o5, %l2, %g5
    0x1000036e8:            b1 a4 09 56  fmuld     %d16, %d22, %d24
    0x1000036ec:            95 a6 88 44  faddd     %d26, %d4, %d10
    0x1000036f0:            91 a7 88 46  faddd     %d30, %d6, %d8
    0x1000036f4:            a5 a6 09 5e  fmuld     %d24, %d30, %d18
    0x1000036f8:            85 a0 09 ca  fdivd     %d0, %d10, %d2
    0x1000036fc:            e5 3b 60 00  std       %d18, [%o5]
    0x100003700:            c1 6a 00 02  prefetch  [%o0 + %g2], #n_reads
    0x100003704:            ed 69 40 02  prefetch  [%g5 + %g2], #n_writes_strong
    0x100003708:            88 01 20 02  add       %g4, 0x2, %g4
    0x10000370c:            80 a1 00 14  cmp       %g4, %l4
    0x100003710:            f5 1a 20 00  ldd       [%o0], %d26
    0x100003714:            a9 a2 88 44  faddd     %d10, %d4, %d20
    0x100003718:            99 a0 09 d4  fdivd     %d0, %d20, %d12
    0x10000371c:            b9 a0 89 5a  fmuld     %d2, %d26, %d28
    0x100003720:            bd a7 09 48  fmuld     %d28, %d8, %d30
    0x100003724:            aa 01 40 12  add       %g5, %l2, %l5
    0x100003728:            fd 39 60 00  std       %d30, [%g5]
    0x10000372c:            ad a2 08 46  faddd     %d8, %d6, %d22
    0x100003730:            94 02 00 12  add       %o0, %l2, %o2
    0x100003734:            d1 1c 80 08  ldd       [%l2 + %o0], %d8
    0x100003738:            95 a5 08 44  faddd     %d20, %d4, %d10
    0x10000373c:            85 a0 09 ca  fdivd     %d0, %d10, %d2
    0x100003740:            9d a3 09 48  fmuld     %d12, %d8, %d14
    0x100003744:            a1 a3 89 56  fmuld     %d14, %d22, %d16
    0x100003748:            8a 05 40 12  add       %l5, %l2, %g5
    0x10000374c:            e1 3d 60 00  std       %d16, [%l5]
    0x100003750:            90 02 80 12  add       %o2, %l2, %o0
    0x100003754:            04 6f ff eb  ble,pt    %xcc, -0x54   <0x100003700>
    0x100003758:            91 a5 88 46  faddd     %d22, %d6, %d8
    0x10000375c:            c1 1c 80 0a  ldd       [%l2 + %o2], %d0
    0x100003760:            80 a1 00 03  cmp       %g4, %g3
    0x100003764:            bd a2 08 46  faddd     %d8, %d6, %d30
    0x100003768:            99 a0 89 40  fmuld     %d2, %d0, %d12
    0x10000376c:            a8 02 00 12  add       %o0, %l2, %l4
    0x100003770:            b5 a2 88 44  faddd     %d10, %d4, %d26
    0x100003774:            aa 01 40 12  add       %g5, %l2, %l5
    0x100003778:            9d a3 09 48  fmuld     %d12, %d8, %d14
    0x10000377c:            dd 39 60 00  std       %d14, [%g5]
    0x100003780:            14 60 00 10  bg,pn     %xcc, +0x40   <0x1000037c0>
    0x100003784:            01 00 00 00  nop
    0x100003788:            c1 1e ef 40  ldd       [%i3 + 0xf40], %d0
    0x10000378c:            95 a0 09 da  fdivd     %d0, %d26, %d10
    0x100003790:            f9 1d 20 00  ldd       [%l4], %d28
    0x100003794:            88 01 20 01  add       %g4, 0x1, %g4
    0x100003798:            b5 a6 88 44  faddd     %d26, %d4, %d26
    0x10000379c:            81 a7 89 5c  fmuld     %d30, %d28, %d0
    0x1000037a0:            80 a1 00 03  cmp       %g4, %g3
    0x1000037a4:            bd a7 88 46  faddd     %d30, %d6, %d30
    0x1000037a8:            a8 05 00 12  add       %l4, %l2, %l4
    0x1000037ac:            b1 a0 09 4a  fmuld     %d0, %d10, %d24
    0x1000037b0:            f1 3d 60 00  std       %d24, [%l5]
    0x1000037b4:            aa 05 40 12  add       %l5, %l2, %l5
    0x1000037b8:            24 6f ff f5  ble,a,pt  %xcc, -0x2c   <0x10000378c>
    0x1000037bc:            c1 1e ef 40  ldd       [%i3 + 0xf40], %d0
    0x1000037c0:            86 00 e0 01  add       %g3, 0x1, %g3
    0x1000037c4:            80 a0 c0 0f  cmp       %g3, %o7
    0x1000037c8:            96 02 e0 08  add       %o3, 0x8, %o3
    0x1000037cc:            98 03 20 08  add       %o4, 0x8, %o4
    0x1000037d0:            9a 03 60 08  add       %o5, 0x8, %o5
    0x1000037d4:            04 6f ff b2  ble,pt    %xcc, -0x138  <0x10000369c>
    0x1000037d8:            a6 00 ff ff  add       %g3, -0x1, %l3
    0x1000037dc:            09 00 04 00  sethi     %hi(0x100000), %g4
    0x1000037e0:            8a 11 21 2e  or        %g4, 0x12e, %g5
    0x1000037e4:            92 03 ff ff  add       %o7, -0x1, %o1
    0x1000037e8:            91 29 70 0c  sllx      %g5, 0xc, %o0
    0x1000037ec:            d5 1e ef 40  ldd       [%i3 + 0xf40], %d10
    0x1000037f0:            80 a2 60 05  cmp       %o1, 0x5
    0x1000037f4:            94 02 23 08  add       %o0, 0x308, %o2
    0x1000037f8:            06 60 00 31  bl,pn     %xcc, +0xc4   <0x1000038bc>
    0x1000037fc:            d5 3a 23 08  std       %d10, [%o0 + 0x308]
    0x100003800:            02 60 00 23  be,pn     %xcc, +0x8c   <0x10000388c>
    0x100003804:            80 a2 60 06  cmp       %o1, 0x6
    0x100003808:            22 68 00 14  be,a,pt   %xcc, +0x50   <0x100003858>
    0x10000380c:            f9 1e 20 60  ldd       [%i0 + 0x60], %d28
    0x100003810:            80 a2 60 07  cmp       %o1, 0x7
    0x100003814:            12 60 00 46  bne,pn    %xcc, +0x118  <0x10000392c>
    0x100003818:            ed 1e 20 90  ldd       [%i0 + 0x90], %d22
    0x10000381c:            e9 1e 20 98  ldd       [%i0 + 0x98], %d20
    0x100003820:            e9 3a bf f8  std       %d20, [%o2 - 0x8]
    0x100003824:            d9 1e 20 c0  ldd       [%i0 + 0xc0], %d12
    0x100003828:            d9 3a a0 28  std       %d12, [%o2 + 0x28]
    0x10000382c:            d1 1e 20 b8  ldd       [%i0 + 0xb8], %d8
    0x100003830:            d1 3a a0 20  std       %d8, [%o2 + 0x20]
    0x100003834:            dd 1e 20 b0  ldd       [%i0 + 0xb0], %d14
    0x100003838:            dd 3a a0 18  std       %d14, [%o2 + 0x18]
    0x10000383c:            e1 1e 20 a8  ldd       [%i0 + 0xa8], %d16
    0x100003840:            e1 3a a0 10  std       %d16, [%o2 + 0x10]
    0x100003844:            ed 3a bf f0  std       %d22, [%o2 - 0x10]
    0x100003848:            c5 1e 20 a0  ldd       [%i0 + 0xa0], %d2
    0x10000384c:            c5 3a a0 08  std       %d2, [%o2 + 0x8]
    0x100003850:            81 c7 e0 08  ret
    0x100003854:            81 e8 20 00  restore   %g0, 0x0, %g0
    0x100003858:            c9 1e 20 68  ldd       [%i0 + 0x68], %d4
    0x10000385c:            c9 3a bf f8  std       %d4, [%o2 - 0x8]
    0x100003860:            cd 1e 20 88  ldd       [%i0 + 0x88], %d6
    0x100003864:            cd 3a a0 20  std       %d6, [%o2 + 0x20]
    0x100003868:            d5 1e 20 80  ldd       [%i0 + 0x80], %d10
    0x10000386c:            d5 3a a0 18  std       %d10, [%o2 + 0x18]
    0x100003870:            c1 1e 20 78  ldd       [%i0 + 0x78], %d0
    0x100003874:            c1 3a a0 10  std       %d0, [%o2 + 0x10]
    0x100003878:            f9 3a bf f0  std       %d28, [%o2 - 0x10]
    0x10000387c:            f1 1e 20 70  ldd       [%i0 + 0x70], %d24
    0x100003880:            f1 3a a0 08  std       %d24, [%o2 + 0x8]
    0x100003884:            81 c7 e0 08  ret
    0x100003888:            81 e8 20 00  restore   %g0, 0x0, %g0
    0x10000388c:            f5 1e 20 08  ldd       [%i0 + 0x8], %d26
    0x100003890:            e5 1e 20 58  ldd       [%i0 + 0x58], %d18
    0x100003894:            e5 3a a0 18  std       %d18, [%o2 + 0x18]
    0x100003898:            fd 1e 20 50  ldd       [%i0 + 0x50], %d30
    0x10000389c:            f5 3a a0 10  std       %d26, [%o2 + 0x10]
    0x1000038a0:            e9 1e 20 48  ldd       [%i0 + 0x48], %d20
    0x1000038a4:            fd 3a a0 08  std       %d30, [%o2 + 0x8]
    0x1000038a8:            e9 3a bf f8  std       %d20, [%o2 - 0x8]
    0x1000038ac:            d9 1e 20 40  ldd       [%i0 + 0x40], %d12
    0x1000038b0:            d9 3a bf f0  std       %d12, [%o2 - 0x10]
    0x1000038b4:            81 c7 e0 08  ret
    0x1000038b8:            81 e8 20 00  restore   %g0, 0x0, %g0
    0x1000038bc:            80 a2 60 03  cmp       %o1, 0x3
    0x1000038c0:            26 60 00 17  bl,a,pn   %xcc, +0x5c   <0x10000391c>
    0x1000038c4:            80 a2 60 01  cmp       %o1, 0x1
    0x1000038c8:            02 60 00 0d  be,pn     %xcc, +0x34   <0x1000038fc>
    0x1000038cc:            80 a2 60 04  cmp       %o1, 0x4
    0x1000038d0:            12 60 00 17  bne,pn    %xcc, +0x5c   <0x10000392c>
    0x1000038d4:            e1 1e 20 20  ldd       [%i0 + 0x20], %d16
    0x1000038d8:            d1 1e 20 28  ldd       [%i0 + 0x28], %d8
    0x1000038dc:            d1 3a bf f8  std       %d8, [%o2 - 0x8]
    0x1000038e0:            dd 1e 20 38  ldd       [%i0 + 0x38], %d14
    0x1000038e4:            dd 3a a0 10  std       %d14, [%o2 + 0x10]
    0x1000038e8:            e1 3a bf f0  std       %d16, [%o2 - 0x10]
    0x1000038ec:            ed 1e 20 30  ldd       [%i0 + 0x30], %d22
    0x1000038f0:            ed 3a a0 08  std       %d22, [%o2 + 0x8]
    0x1000038f4:            81 c7 e0 08  ret
    0x1000038f8:            81 e8 20 00  restore   %g0, 0x0, %g0
    0x1000038fc:            c9 1e 20 08  ldd       [%i0 + 0x8], %d4
    0x100003900:            c5 1e 20 10  ldd       [%i0 + 0x10], %d2
    0x100003904:            c5 3a bf f8  std       %d2, [%o2 - 0x8]
    0x100003908:            c9 3a bf f0  std       %d4, [%o2 - 0x10]
    0x10000390c:            cd 1e 20 18  ldd       [%i0 + 0x18], %d6
    0x100003910:            cd 3a a0 08  std       %d6, [%o2 + 0x8]
    0x100003914:            81 c7 e0 08  ret
    0x100003918:            81 e8 20 00  restore   %g0, 0x0, %g0
    0x10000391c:            02 60 00 06  be,pn     %xcc, +0x18   <0x100003934>
    0x100003920:            80 a2 60 02  cmp       %o1, 0x2
    0x100003924:            02 60 00 05  be,pn     %xcc, +0x14   <0x100003938>
    0x100003928:            37 00 04 00  sethi     %hi(0x100000), %i3
    0x10000392c:            81 c7 e0 08  ret
    0x100003930:            81 e8 20 00  restore   %g0, 0x0, %g0
    0x100003934:            37 00 04 00  sethi     %hi(0x100000), %i3
    0x100003938:            2d 00 04 00  sethi     %hi(0x100000), %l6
    0x10000393c:            ae 16 e0 2c  or        %i3, 0x2c, %l7
    0x100003940:            82 15 a1 2e  or        %l6, 0x12e, %g1
    0x100003944:            85 2d f0 0c  sllx      %l7, 0xc, %g2
    0x100003948:            87 28 70 0c  sllx      %g1, 0xc, %g3
    0x10000394c:            f2 58 e6 98  ldx       [%g3 + 0x698], %i1
    0x100003950:            b0 00 aa f8  add       %g2, 0xaf8, %i0
    0x100003954:            40 04 a7 73  call      +0x129dcc     <0x10012d720>
    0x100003958:            81 e8 20 00  restore   %g0, 0x0, %g0
    0x10000395c:            00 00 00 00  illtrap   0x0
    0x100003960:            00 00 00 00  illtrap   0x0
    0x100003964:            00 00 00 00  illtrap   0x0
CSHIFT()
    0x100003968:            81 a1 08 c6  fsubd     %d4, %d6, %d0
    0x10000396c:            c1 3b 20 00  std       %d0, [%o4]
    0x100003970:            1b 00 04 00  sethi     %hi(0x100000), %o5
    0x100003974:            9a 13 60 03  or        %o5, 0x3, %o5
    0x100003978:            c1 1a 60 00  ldd       [%o1], %d0
    0x10000397c:            97 2b 70 0c  sllx      %o5, 0xc, %o3
    0x100003980:            f7 1a e9 60  ldd       [%o3 + 0x960], %d58
    0x100003984:            85 a1 08 c0  fsubd     %d4, %d0, %d2
    0x100003988:            c5 3b 20 08  std       %d2, [%o4 + 0x8]
    0x10000398c:            d1 1a 60 10  ldd       [%o1 + 0x10], %d8
    0x100003990:            94 10 20 00  clr       %o2
    0x100003994:            9d a1 08 c8  fsubd     %d4, %d8, %d14
    0x100003998:            dd 3b 20 10  std       %d14, [%o4 + 0x10]
    0x10000399c:            e1 1a 20 00  ldd       [%o0], %d16
    0x1000039a0:            a5 a4 08 c6  fsubd     %d16, %d6, %d18
    0x1000039a4:            e5 3b 20 18  std       %d18, [%o4 + 0x18]
    0x1000039a8:            e9 1a 20 10  ldd       [%o0 + 0x10], %d20
    0x1000039ac:            ad a5 08 c6  fsubd     %d20, %d6, %d22
    0x1000039b0:            ed 3b 20 20  std       %d22, [%o4 + 0x20]
    0x1000039b4:            f1 1a 60 00  ldd       [%o1], %d24
    0x1000039b8:            f5 1a 20 00  ldd       [%o0], %d26
    0x1000039bc:            b9 a6 88 d8  fsubd     %d26, %d24, %d28
    0x1000039c0:            f9 3b 20 28  std       %d28, [%o4 + 0x28]
    0x1000039c4:            fd 1a 60 10  ldd       [%o1 + 0x10], %d30
    0x1000039c8:            f3 1a 20 00  ldd       [%o0], %d56
    0x1000039cc:            bb a6 48 de  fsubd     %d56, %d30, %d60
    0x1000039d0:            fb 3b 20 30  std       %d60, [%o4 + 0x30]
    0x1000039d4:            c1 1a 20 10  ldd       [%o0 + 0x10], %d0
    0x1000039d8:            ff 1a 60 00  ldd       [%o1], %d62
    0x1000039dc:            85 a0 08 df  fsubd     %d0, %d62, %d2
    0x1000039e0:            c5 3b 20 38  std       %d2, [%o4 + 0x38]
    0x1000039e4:            d1 1a 60 10  ldd       [%o1 + 0x10], %d8
    0x1000039e8:            dd 1a 20 10  ldd       [%o0 + 0x10], %d14
    0x1000039ec:            a1 a3 88 c8  fsubd     %d14, %d8, %d16
    0x1000039f0:            e1 3b 20 40  std       %d16, [%o4 + 0x40]
    0x1000039f4:            e5 1a 60 08  ldd       [%o1 + 0x8], %d18
    0x1000039f8:            e9 1a 20 08  ldd       [%o0 + 0x8], %d20
    0x1000039fc:            ad a5 08 d2  fsubd     %d20, %d18, %d22
    0x100003a00:            ed 3b 20 48  std       %d22, [%o4 + 0x48]
    0x100003a04:            f5 1a 20 08  ldd       [%o0 + 0x8], %d26
    0x100003a08:            f1 1a 60 00  ldd       [%o1], %d24
    0x100003a0c:            b9 a6 88 d8  fsubd     %d26, %d24, %d28
    0x100003a10:            f9 3b 20 50  std       %d28, [%o4 + 0x50]
    0x100003a14:            fd 1a 60 10  ldd       [%o1 + 0x10], %d30
    0x100003a18:            f3 1a 20 08  ldd       [%o0 + 0x8], %d56
    0x100003a1c:            f5 1b 20 00  ldd       [%o4], %d26
    0x100003a20:            bb a6 48 de  fsubd     %d56, %d30, %d60
    0x100003a24:            fb 3b 20 58  std       %d60, [%o4 + 0x58]
    0x100003a28:            c1 1a 20 00  ldd       [%o0], %d0
    0x100003a2c:            ff 1a 60 08  ldd       [%o1 + 0x8], %d62
    0x100003a30:            85 a0 08 df  fsubd     %d0, %d62, %d2
    0x100003a34:            c5 3b 20 60  std       %d2, [%o4 + 0x60]
    0x100003a38:            d1 1a 60 08  ldd       [%o1 + 0x8], %d8
    0x100003a3c:            dd 1a 20 10  ldd       [%o0 + 0x10], %d14
    0x100003a40:            a1 a3 88 c8  fsubd     %d14, %d8, %d16
    0x100003a44:            e1 3b 20 68  std       %d16, [%o4 + 0x68]
    0x100003a48:            b1 a0 01 5a  fabsd     %d26, %d24
    0x100003a4c:            81 ae 0a ca  fcmped    %fcc0, %d24, %d10
    0x100003a50:            3d 40 00 0c  fbule,a,pn %fcc0, +0x30   <0x100003a80>
    0x100003a54:            94 02 a0 01  add       %o2, 0x1, %o2
    0x100003a58:            83 ae 8a db  fcmped    %fcc1, %d26, %d58
    0x100003a5c:            19 50 00 05  fbuge,pn  %fcc1, +0x14   <0x100003a70>
    0x100003a60:            a9 a0 01 4c  fabsd     %d12, %d20
    0x100003a64:            ad a0 00 d4  fnegd     %d20, %d22
    0x100003a68:            10 80 00 04  ba        +0x10         <0x100003a78>
    0x100003a6c:            a5 a6 88 d6  fsubd     %d26, %d22, %d18
    0x100003a70:            ad a0 01 4c  fabsd     %d12, %d22
    0x100003a74:            a5 a6 88 d6  fsubd     %d26, %d22, %d18
    0x100003a78:            e5 3b 20 00  std       %d18, [%o4]
    0x100003a7c:            94 02 a0 01  add       %o2, 0x1, %o2
    0x100003a80:            80 a2 a0 0d  cmp       %o2, 0xd
    0x100003a84:            98 03 20 08  add       %o4, 0x8, %o4
    0x100003a88:            24 6f ff f0  ble,a,pt  %xcc, -0x40   <0x100003a48>
    0x100003a8c:            f5 1b 20 00  ldd       [%o4], %d26
    0x100003a90:            81 c3 e0 08  retl
    0x100003a94:            01 00 00 00  nop
    0x100003a98:            3f d5 55 55  0x3fd55555
    0x100003a9c:            55 55 55 55  call      +0x55555554   <0x155558ff0>
    0x100003aa0:            bd 06 84 9b  taddcc    %i2, %i3, %fp
    0x100003aa4:            86 a1 2b 9b  subcc     %g4, 0xb9b, %g3
    0x100003aa8:            3f e0 00 00  0x3fe00000
    0x100003aac:            00 00 00 00  illtrap   0x0
    0x100003ab0:            00 00 00 00  illtrap   0x0
    0x100003ab4:            00 00 00 00  illtrap   0x0
    0x100003ab8:            3f f0 00 00  0x3ff00000
    0x100003abc:            00 00 00 00  illtrap   0x0
    0x100003ac0:            40 00 00 00  call      +0x0          <0x100003ac0>
    0x100003ac4:            00 00 00 00  illtrap   0x0
INITIA()
    0x100003ac8:            9d e3 ba 20  save      %sp, -0x5e0, %sp
    0x100003acc:            2f 00 04 00  sethi     %hi(0x100000), %l7
    0x100003ad0:            ac 15 e0 2c  or        %l7, 0x2c, %l6
    0x100003ad4:            a9 2d b0 0c  sllx      %l6, 0xc, %l4
    0x100003ad8:            2b 00 04 00  sethi     %hi(0x100000), %l5
    0x100003adc:            a2 05 2c 48  add       %l4, 0xc48, %l1
    0x100003ae0:            b2 15 60 03  or        %l5, 0x3, %i1
    0x100003ae4:            92 04 7e f8  add       %l1, -0x108, %o1
    0x100003ae8:            90 04 7e e8  add       %l1, -0x118, %o0
    0x100003aec:            b3 2e 70 0c  sllx      %i1, 0xc, %i1
    0x100003af0:            40 04 a7 14  call      +0x129c50     <0x10012d740>
    0x100003af4:            a0 06 6a b8  add       %i1, 0xab8, %l0
    0x100003af8:            02 c2 03 37  brz,pn    %o0, +0xcdc   <0x1000047d4>
    0x100003afc:            b6 10 00 08  mov       %o0, %i3
    0x100003b00:            27 00 04 00  sethi     %hi(0x100000), %l3
    0x100003b04:            90 14 e1 2e  or        %l3, 0x12e, %o0
    0x100003b08:            8b 2a 30 0c  sllx      %o0, 0xc, %g5
    0x100003b0c:            f7 19 66 e8  ldd       [%g5 + 0x6e8], %d58
    0x100003b10:            3b 00 04 00  sethi     %hi(0x100000), %i5
    0x100003b14:            b4 17 61 2e  or        %i5, 0x12e, %i2
    0x100003b18:            8b 2e b0 0c  sllx      %i2, 0xc, %g5
    0x100003b1c:            e9 19 67 20  ldd       [%g5 + 0x720], %d20
    0x100003b20:            ca 73 a8 af  stx       %g5, [%sp + 0x8af]
    0x100003b24:            39 00 04 00  sethi     %hi(0x100000), %i4
    0x100003b28:            90 17 21 2e  or        %i4, 0x12e, %o0
    0x100003b2c:            89 2a 30 0c  sllx      %o0, 0xc, %g4
    0x100003b30:            e5 19 27 00  ldd       [%g4 + 0x700], %d18
    0x100003b34:            c8 73 a8 b7  stx       %g4, [%sp + 0x8b7]
    0x100003b38:            09 00 04 00  sethi     %hi(0x100000), %g4
    0x100003b3c:            8a 11 20 03  or        %g4, 0x3, %g5
    0x100003b40:            a9 29 70 0c  sllx      %g5, 0xc, %l4
    0x100003b44:            c5 1d 2a 98  ldd       [%l4 + 0xa98], %d2
    0x100003b48:            2b 00 04 00  sethi     %hi(0x100000), %l5
    0x100003b4c:            2f 00 04 00  sethi     %hi(0x100000), %l7
    0x100003b50:            27 00 04 00  sethi     %hi(0x100000), %l3
    0x100003b54:            a4 14 e1 2f  or        %l3, 0x12f, %l2
    0x100003b58:            3b 00 04 00  sethi     %hi(0x100000), %i5
    0x100003b5c:            b4 17 61 2f  or        %i5, 0x12f, %i2
    0x100003b60:            b5 2e b0 0c  sllx      %i2, 0xc, %i2
    0x100003b64:            39 00 04 00  sethi     %hi(0x100000), %i4
    0x100003b68:            a1 a5 09 5b  fmuld     %d20, %d58, %d16
    0x100003b6c:            81 a0 11 12  fxtod     %d18, %d0
    0x100003b70:            b1 a0 05 50  fsqrtd    %d16, %d24
    0x100003b74:            f1 3f a7 e7  std       %d24, [%fp + 0x7e7]
    0x100003b78:            f7 3f a7 df  std       %d58, [%fp + 0x7df]
    0x100003b7c:            40 00 1a 99  call      +0x6a64       <0x10000a5e0>
    0x100003b80:            f7 3f a7 ef  std       %d58, [%fp + 0x7ef]
    0x100003b84:            ed 1c 3f e8  ldd       [%l0 - 0x18], %d22
    0x100003b88:            ef 1c 3f f0  ldd       [%l0 - 0x10], %d54
    0x100003b8c:            9e 15 61 2e  or        %l5, 0x12e, %o7
    0x100003b90:            ad 2b f0 0c  sllx      %o7, 0xc, %l6
    0x100003b94:            cd 1d a6 a8  ldd       [%l6 + 0x6a8], %d6
    0x100003b98:            9a 15 e1 2f  or        %l7, 0x12f, %o5
    0x100003b9c:            b1 2b 70 0c  sllx      %o5, 0xc, %i0
    0x100003ba0:            d9 1e 21 50  ldd       [%i0 + 0x150], %d12
    0x100003ba4:            94 07 a7 87  add       %fp, 0x787, %o2
    0x100003ba8:            92 07 a7 8f  add       %fp, 0x78f, %o1
    0x100003bac:            9d a0 08 56  faddd     %d0, %d22, %d14
    0x100003bb0:            dd 3b a9 07  std       %d14, [%sp + 0x907]
    0x100003bb4:            81 a3 09 57  fmuld     %d12, %d54, %d0
    0x100003bb8:            ad a1 89 ce  fdivd     %d6, %d14, %d22
    0x100003bbc:            ed 3b a8 ef  std       %d22, [%sp + 0x8ef]
    0x100003bc0:            bb a5 89 57  fmuld     %d22, %d54, %d60
    0x100003bc4:            40 00 1d 5f  call      +0x757c       <0x10000b140>
    0x100003bc8:            fb 3b aa 2f  std       %d60, [%sp + 0xa2f]
    0x100003bcc:            05 00 04 00  sethi     %hi(0x100000), %g2
    0x100003bd0:            98 10 a1 2e  or        %g2, 0x12e, %o4
    0x100003bd4:            97 2b 30 0c  sllx      %o4, 0xc, %o3
    0x100003bd8:            c9 1a e3 68  ldd       [%o3 + 0x368], %d4
    0x100003bdc:            ff 1f a7 87  ldd       [%fp + 0x787], %d62
    0x100003be0:            dd 1f a7 8f  ldd       [%fp + 0x78f], %d14
    0x100003be4:            d2 5b a9 07  ldx       [%sp + 0x907], %o1
    0x100003be8:            90 04 7f 28  add       %l1, -0xd8, %o0
    0x100003bec:            b1 a1 09 5f  fmuld     %d4, %d62, %d24
    0x100003bf0:            99 a1 09 4e  fmuld     %d4, %d14, %d12
    0x100003bf4:            f1 3b a8 ff  std       %d24, [%sp + 0x8ff]
    0x100003bf8:            40 04 a6 da  call      +0x129b68     <0x10012d760>
    0x100003bfc:            d9 3b a8 f7  std       %d12, [%sp + 0x8f7]
    0x100003c00:            d2 5d a6 a8  ldx       [%l6 + 0x6a8], %o1
    0x100003c04:            40 04 a6 d7  call      +0x129b5c     <0x10012d760>
    0x100003c08:            90 04 7f 38  add       %l1, -0xc8, %o0
    0x100003c0c:            15 00 04 00  sethi     %hi(0x100000), %o2
    0x100003c10:            92 12 a1 2f  or        %o2, 0x12f, %o1
    0x100003c14:            87 2a 70 0c  sllx      %o1, 0xc, %g3
    0x100003c18:            d2 58 e2 80  ldx       [%g3 + 0x280], %o1
    0x100003c1c:            40 04 a6 d1  call      +0x129b44     <0x10012d760>
    0x100003c20:            90 04 7f 48  add       %l1, -0xb8, %o0
    0x100003c24:            87 2c b0 0c  sllx      %l2, 0xc, %g3
    0x100003c28:            90 04 7f 58  add       %l1, -0xa8, %o0
    0x100003c2c:            c6 73 a8 c7  stx       %g3, [%sp + 0x8c7]
    0x100003c30:            40 04 a6 cc  call      +0x129b30     <0x10012d760>
    0x100003c34:            d2 58 e2 78  ldx       [%g3 + 0x278], %o1
    0x100003c38:            90 04 7f 70  add       %l1, -0x90, %o0
    0x100003c3c:            40 04 a6 c9  call      +0x129b24     <0x10012d760>
    0x100003c40:            d2 5e a3 20  ldx       [%i2 + 0x320], %o1
    0x100003c44:            90 04 7f 88  add       %l1, -0x78, %o0
    0x100003c48:            40 04 a6 c6  call      +0x129b18     <0x10012d760>
    0x100003c4c:            d2 5b a8 ef  ldx       [%sp + 0x8ef], %o1
    0x100003c50:            90 04 7f 98  add       %l1, -0x68, %o0
    0x100003c54:            40 04 a6 c3  call      +0x129b0c     <0x10012d760>
    0x100003c58:            d2 5b aa 2f  ldx       [%sp + 0xa2f], %o1
    0x100003c5c:            90 04 7f a8  add       %l1, -0x58, %o0
    0x100003c60:            40 04 a6 c0  call      +0x129b00     <0x10012d760>
    0x100003c64:            d2 5b a8 ff  ldx       [%sp + 0x8ff], %o1
    0x100003c68:            90 04 7f b8  add       %l1, -0x48, %o0
    0x100003c6c:            40 04 a6 bd  call      +0x129af4     <0x10012d760>
    0x100003c70:            d2 5b a8 f7  ldx       [%sp + 0x8f7], %o1
    0x100003c74:            90 17 21 2e  or        %i4, 0x12e, %o0
    0x100003c78:            89 2a 30 0c  sllx      %o0, 0xc, %g4
    0x100003c7c:            40 04 a6 c1  call      +0x129b04     <0x10012d780>
    0x100003c80:            90 01 27 d0  add       %g4, 0x7d0, %o0
    0x100003c84:            0b 00 04 00  sethi     %hi(0x100000), %g5
    0x100003c88:            a8 11 61 2e  or        %g5, 0x12e, %l4
    0x100003c8c:            ab 2d 30 0c  sllx      %l4, 0xc, %l5
    0x100003c90:            d2 5d 66 98  ldx       [%l5 + 0x698], %o1
    0x100003c94:            40 04 a6 a3  call      +0x129a8c     <0x10012d720>
    0x100003c98:            90 04 7f c8  add       %l1, -0x38, %o0
    0x100003c9c:            40 04 a6 b9  call      +0x129ae4     <0x10012d780>
    0x100003ca0:            d0 5d 66 98  ldx       [%l5 + 0x698], %o0
    0x100003ca4:            fb 1b aa 2f  ldd       [%sp + 0xa2f], %d60
    0x100003ca8:            92 10 00 11  mov       %l1, %o1
    0x100003cac:            94 07 a7 b7  add       %fp, 0x7b7, %o2
    0x100003cb0:            b3 a0 10 5d  fdtox     %d60, %d56
    0x100003cb4:            90 10 00 1b  mov       %i3, %o0
    0x100003cb8:            f3 3b a8 bf  std       %d56, [%sp + 0x8bf]
    0x100003cbc:            40 04 a6 b9  call      +0x129ae4     <0x10012d7a0>
    0x100003cc0:            a2 10 20 00  clr       %l1
    0x100003cc4:            d5 1c 3f f8  ldd       [%l0 - 0x8], %d10
    0x100003cc8:            dd 1b a9 07  ldd       [%sp + 0x907], %d14
    0x100003ccc:            e1 1c 3f f8  ldd       [%l0 - 0x8], %d16
    0x100003cd0:            1f 00 04 00  sethi     %hi(0x100000), %o7
    0x100003cd4:            81 aa 8a ce  fcmped    %fcc0, %d10, %d14
    0x100003cd8:            e5 1c 3f f8  ldd       [%l0 - 0x8], %d18
    0x100003cdc:            ae 13 e1 2f  or        %o7, 0x12f, %l7
    0x100003ce0:            e9 1c 3f f8  ldd       [%l0 - 0x8], %d20
    0x100003ce4:            19 40 00 e0  fbuge,pn  %fcc0, +0x380  <0x100004064>
    0x100003ce8:            bb 2d f0 0c  sllx      %l7, 0xc, %i5
    0x100003cec:            e6 5b a8 bf  ldx       [%sp + 0x8bf], %l3
    0x100003cf0:            ed 1b a8 ef  ldd       [%sp + 0x8ef], %d22
    0x100003cf4:            d9 1b a8 f7  ldd       [%sp + 0x8f7], %d12
    0x100003cf8:            c0 73 a8 cf  clrx      [%sp + 0x8cf]
    0x100003cfc:            f1 1b a8 ff  ldd       [%sp + 0x8ff], %d24
    0x100003d00:            e6 73 aa 2f  stx       %l3, [%sp + 0xa2f]
    0x100003d04:            d5 1b aa 2f  ldd       [%sp + 0xa2f], %d10
    0x100003d08:            c0 73 a8 d7  clrx      [%sp + 0x8d7]
    0x100003d0c:            e4 5b a8 bf  ldx       [%sp + 0x8bf], %l2
    0x100003d10:            95 a0 11 0a  fxtod     %d10, %d10
    0x100003d14:            e4 73 aa 2f  stx       %l2, [%sp + 0xa2f]
    0x100003d18:            b7 a2 88 58  faddd     %d10, %d24, %d58
    0x100003d1c:            91 a0 10 5b  fdtox     %d58, %d8
    0x100003d20:            d1 3f a7 c7  std       %d8, [%fp + 0x7c7]
    0x100003d24:            d1 3f a7 d7  std       %d8, [%fp + 0x7d7]
    0x100003d28:            e6 77 a7 cf  stx       %l3, [%fp + 0x7cf]
    0x100003d2c:            ef 1b aa 2f  ldd       [%sp + 0xa2f], %d54
    0x100003d30:            d5 3b a9 2f  std       %d10, [%sp + 0x92f]
    0x100003d34:            ec 5b a8 bf  ldx       [%sp + 0x8bf], %l6
    0x100003d38:            91 a0 11 17  fxtod     %d54, %d8
    0x100003d3c:            a6 10 20 00  clr       %l3
    0x100003d40:            bf a2 08 4c  faddd     %d8, %d12, %d62
    0x100003d44:            bb a2 08 cc  fsubd     %d8, %d12, %d60
    0x100003d48:            89 a0 10 5f  fdtox     %d62, %d4
    0x100003d4c:            c9 3f a7 9f  std       %d4, [%fp + 0x79f]
    0x100003d50:            b3 a0 10 5d  fdtox     %d60, %d56
    0x100003d54:            f3 3f a7 af  std       %d56, [%fp + 0x7af]
    0x100003d58:            e4 77 a7 a7  stx       %l2, [%fp + 0x7a7]
    0x100003d5c:            ed 3b a8 ef  std       %d22, [%sp + 0x8ef]
    0x100003d60:            d9 3b a8 f7  std       %d12, [%sp + 0x8f7]
    0x100003d64:            f1 3b a8 ff  std       %d24, [%sp + 0x8ff]
    0x100003d68:            dd 3b a9 07  std       %d14, [%sp + 0x907]
    0x100003d6c:            e5 3b a9 0f  std       %d18, [%sp + 0x90f]
    0x100003d70:            e1 3b a9 17  std       %d16, [%sp + 0x917]
    0x100003d74:            e9 3b a9 1f  std       %d20, [%sp + 0x91f]
    0x100003d78:            d1 3b a9 27  std       %d8, [%sp + 0x927]
    0x100003d7c:            40 04 a6 91  call      +0x129a44     <0x10012d7c0>
    0x100003d80:            90 10 22 a8  mov       0x2a8, %o0
    0x100003d84:            f8 5f 62 d8  ldx       [%i5 + 0x2d8], %i4
    0x100003d88:            d5 1b a9 2f  ldd       [%sp + 0x92f], %d10
    0x100003d8c:            e5 1b a9 0f  ldd       [%sp + 0x90f], %d18
    0x100003d90:            ed 1b a8 ef  ldd       [%sp + 0x8ef], %d22
    0x100003d94:            d9 1b a8 f7  ldd       [%sp + 0x8f7], %d12
    0x100003d98:            f1 1b a8 ff  ldd       [%sp + 0x8ff], %d24
    0x100003d9c:            ec 73 aa 2f  stx       %l6, [%sp + 0xa2f]
    0x100003da0:            cd 1b aa 2f  ldd       [%sp + 0xa2f], %d6
    0x100003da4:            d1 1b a9 27  ldd       [%sp + 0x927], %d8
    0x100003da8:            dd 1b a9 07  ldd       [%sp + 0x907], %d14
    0x100003dac:            e1 1b a9 17  ldd       [%sp + 0x917], %d16
    0x100003db0:            8d a0 11 06  fxtod     %d6, %d6
    0x100003db4:            e9 1b a9 1f  ldd       [%sp + 0x91f], %d20
    0x100003db8:            04 c7 00 50  brlez,pn  %i4, +0x140   <0x100003ef8>
    0x100003dbc:            a4 10 00 08  mov       %o0, %l2
    0x100003dc0:            39 00 04 00  sethi     %hi(0x100000), %i4
    0x100003dc4:            88 17 20 2c  or        %i4, 0x2c, %g4
    0x100003dc8:            87 29 30 0c  sllx      %g4, 0xc, %g3
    0x100003dcc:            b0 00 ec 60  add       %g3, 0xc60, %i0
    0x100003dd0:            aa 10 20 00  clr       %l5
    0x100003dd4:            ac 02 20 18  add       %o0, 0x18, %l6
    0x100003dd8:            ae 07 a7 c7  add       %fp, 0x7c7, %l7
    0x100003ddc:            ef 1f a7 9f  ldd       [%fp + 0x79f], %d54
    0x100003de0:            a8 07 a7 9f  add       %fp, 0x79f, %l4
    0x100003de4:            c9 1d e0 00  ldd       [%l7], %d4
    0x100003de8:            f1 3b a8 ff  std       %d24, [%sp + 0x8ff]
    0x100003dec:            ed 3b a8 ef  std       %d22, [%sp + 0x8ef]
    0x100003df0:            d9 3b a8 f7  std       %d12, [%sp + 0x8f7]
    0x100003df4:            dd 3b a9 07  std       %d14, [%sp + 0x907]
    0x100003df8:            e5 3b a9 0f  std       %d18, [%sp + 0x90f]
    0x100003dfc:            e1 3b a9 17  std       %d16, [%sp + 0x917]
    0x100003e00:            e9 3b a9 1f  std       %d20, [%sp + 0x91f]
    0x100003e04:            d1 3b a9 27  std       %d8, [%sp + 0x927]
    0x100003e08:            d5 3b a9 2f  std       %d10, [%sp + 0x92f]
    0x100003e0c:            cd 3b aa 2f  std       %d6, [%sp + 0xa2f]
    0x100003e10:            cd 3d a0 30  std       %d6, [%l6 + 0x30]
    0x100003e14:            b1 a0 11 04  fxtod     %d4, %d24
    0x100003e18:            f1 3d a0 00  std       %d24, [%l6]
    0x100003e1c:            ad a0 11 17  fxtod     %d54, %d22
    0x100003e20:            ed 3d a0 18  std       %d22, [%l6 + 0x18]
    0x100003e24:            90 10 00 1b  mov       %i3, %o0
    0x100003e28:            92 06 3f f0  add       %i0, -0x10, %o1
    0x100003e2c:            40 04 a6 5d  call      +0x129974     <0x10012d7a0>
    0x100003e30:            94 05 a0 48  add       %l6, 0x48, %o2
    0x100003e34:            90 10 00 1b  mov       %i3, %o0
    0x100003e38:            92 06 3f f8  add       %i0, -0x8, %o1
    0x100003e3c:            40 04 a6 59  call      +0x129964     <0x10012d7a0>
    0x100003e40:            94 05 a0 60  add       %l6, 0x60, %o2
    0x100003e44:            90 10 00 1b  mov       %i3, %o0
    0x100003e48:            92 10 00 18  mov       %i0, %o1
    0x100003e4c:            40 04 a6 55  call      +0x129954     <0x10012d7a0>
    0x100003e50:            94 05 a0 78  add       %l6, 0x78, %o2
    0x100003e54:            f7 1d a0 48  ldd       [%l6 + 0x48], %d58
    0x100003e58:            fb 1d a0 60  ldd       [%l6 + 0x60], %d60
    0x100003e5c:            ff 1d a0 78  ldd       [%l6 + 0x78], %d62
    0x100003e60:            e1 1b a9 17  ldd       [%sp + 0x917], %d16
    0x100003e64:            e5 1b a9 0f  ldd       [%sp + 0x90f], %d18
    0x100003e68:            e9 1b a9 1f  ldd       [%sp + 0x91f], %d20
    0x100003e6c:            f8 5f 62 d8  ldx       [%i5 + 0x2d8], %i4
    0x100003e70:            f3 1c 3f f8  ldd       [%l0 - 0x8], %d56
    0x100003e74:            f3 3d a1 80  std       %d56, [%l6 + 0x180]
    0x100003e78:            f3 3d a1 68  std       %d56, [%l6 + 0x168]
    0x100003e7c:            f3 3d a1 50  std       %d56, [%l6 + 0x150]
    0x100003e80:            f3 3d a1 38  std       %d56, [%l6 + 0x138]
    0x100003e84:            f3 3d a1 20  std       %d56, [%l6 + 0x120]
    0x100003e88:            f3 3d a1 08  std       %d56, [%l6 + 0x108]
    0x100003e8c:            f3 3d a0 f0  std       %d56, [%l6 + 0xf0]
    0x100003e90:            f3 3d a0 d8  std       %d56, [%l6 + 0xd8]
    0x100003e94:            f3 3d a0 c0  std       %d56, [%l6 + 0xc0]
    0x100003e98:            f3 3d a0 a8  std       %d56, [%l6 + 0xa8]
    0x100003e9c:            f3 3d a0 90  std       %d56, [%l6 + 0x90]
    0x100003ea0:            f3 3d a1 e0  std       %d56, [%l6 + 0x1e0]
    0x100003ea4:            d5 1b a9 2f  ldd       [%sp + 0x92f], %d10
    0x100003ea8:            f3 3d a1 c8  std       %d56, [%l6 + 0x1c8]
    0x100003eac:            cd 1b aa 2f  ldd       [%sp + 0xa2f], %d6
    0x100003eb0:            d1 1b a9 27  ldd       [%sp + 0x927], %d8
    0x100003eb4:            f1 1b a8 ff  ldd       [%sp + 0x8ff], %d24
    0x100003eb8:            90 05 a0 90  add       %l6, 0x90, %o0
    0x100003ebc:            ed 1b a8 ef  ldd       [%sp + 0x8ef], %d22
    0x100003ec0:            aa 05 60 01  add       %l5, 0x1, %l5
    0x100003ec4:            f3 3d a1 b0  std       %d56, [%l6 + 0x1b0]
    0x100003ec8:            a1 a4 08 5f  faddd     %d16, %d62, %d16
    0x100003ecc:            d9 1b a8 f7  ldd       [%sp + 0x8f7], %d12
    0x100003ed0:            80 a5 40 1c  cmp       %l5, %i4
    0x100003ed4:            a5 a4 88 5d  faddd     %d18, %d60, %d18
    0x100003ed8:            f3 3a 21 08  std       %d56, [%o0 + 0x108]
    0x100003edc:            dd 1b a9 07  ldd       [%sp + 0x907], %d14
    0x100003ee0:            a8 05 20 08  add       %l4, 0x8, %l4
    0x100003ee4:            ae 05 e0 08  add       %l7, 0x8, %l7
    0x100003ee8:            a9 a5 08 5b  faddd     %d20, %d58, %d20
    0x100003eec:            ac 05 a0 08  add       %l6, 0x8, %l6
    0x100003ef0:            26 6f ff bd  bl,a,pt   %xcc, -0x10c  <0x100003de4>
    0x100003ef4:            ef 1d 20 00  ldd       [%l4], %d54
    0x100003ef8:            d2 5b a8 c7  ldx       [%sp + 0x8c7], %o1
    0x100003efc:            f3 1e 6a b8  ldd       [%i1 + 0xab8], %d56
    0x100003f00:            ef 1c a0 20  ldd       [%l2 + 0x20], %d54
    0x100003f04:            c9 1a 62 78  ldd       [%o1 + 0x278], %d4
    0x100003f08:            ff 1c a0 38  ldd       [%l2 + 0x38], %d62
    0x100003f0c:            fb 1c a0 50  ldd       [%l2 + 0x50], %d60
    0x100003f10:            89 a6 49 c4  fdivd     %d56, %d4, %d4
    0x100003f14:            c4 5e a3 20  ldx       [%i2 + 0x320], %g2
    0x100003f18:            07 00 04 00  sethi     %hi(0x100000), %g3
    0x100003f1c:            90 10 e1 2e  or        %g3, 0x12e, %o0
    0x100003f20:            89 2a 30 0c  sllx      %o0, 0xc, %g4
    0x100003f24:            ea 59 22 b0  ldx       [%g4 + 0x2b0], %l5
    0x100003f28:            c0 74 a2 a0  clrx      [%l2 + 0x2a0]
    0x100003f2c:            b7 a5 c9 44  fmuld     %d54, %d4, %d58
    0x100003f30:            af a7 c9 44  fmuld     %d62, %d4, %d54
    0x100003f34:            b3 a1 88 56  faddd     %d6, %d22, %d56
    0x100003f38:            bb a7 49 44  fmuld     %d60, %d4, %d60
    0x100003f3c:            8d a0 10 5b  fdtox     %d58, %d6
    0x100003f40:            cd 3b a9 bf  std       %d6, [%sp + 0x9bf]
    0x100003f44:            e8 5b a9 bf  ldx       [%sp + 0x9bf], %l4
    0x100003f48:            bf a0 10 57  fdtox     %d54, %d62
    0x100003f4c:            ff 3b a9 df  std       %d62, [%sp + 0x9df]
    0x100003f50:            ee 5b a9 df  ldx       [%sp + 0x9df], %l7
    0x100003f54:            8a 05 3f ff  add       %l4, -0x1, %g5
    0x100003f58:            80 a5 00 02  cmp       %l4, %g2
    0x100003f5c:            a9 66 d0 05  movge     %xcc, %g5, %l4
    0x100003f60:            ad 2d 30 03  sllx      %l4, 0x3, %l6
    0x100003f64:            f0 5d 40 16  ldx       [%l5 + %l6], %i0
    0x100003f68:            9e 05 ff ff  add       %l7, -0x1, %o7
    0x100003f6c:            80 a5 c0 02  cmp       %l7, %g2
    0x100003f70:            af 66 d0 0f  movge     %xcc, %o7, %l7
    0x100003f74:            89 a0 10 5d  fdtox     %d60, %d4
    0x100003f78:            c9 3b a9 9f  std       %d4, [%sp + 0x99f]
    0x100003f7c:            d6 5b a9 9f  ldx       [%sp + 0x99f], %o3
    0x100003f80:            9b 2d f0 03  sllx      %l7, 0x3, %o5
    0x100003f84:            d2 5e 00 0d  ldx       [%i0 + %o5], %o1
    0x100003f88:            98 02 ff ff  add       %o3, -0x1, %o4
    0x100003f8c:            80 a2 c0 02  cmp       %o3, %g2
    0x100003f90:            97 66 d0 0c  movge     %xcc, %o4, %o3
    0x100003f94:            b7 a0 10 59  fdtox     %d56, %d58
    0x100003f98:            f7 3b a9 7f  std       %d58, [%sp + 0x97f]
    0x100003f9c:            95 2a f0 05  sllx      %o3, 0x5, %o2
    0x100003fa0:            c6 5a 40 0a  ldx       [%o1 + %o2], %g3
    0x100003fa4:            ec 5b a9 7f  ldx       [%sp + 0x97f], %l6
    0x100003fa8:            02 c0 c0 0d  brz,pn    %g3, +0x34    <0x100003fdc>
    0x100003fac:            a2 04 60 01  add       %l1, 0x1, %l1
    0x100003fb0:            92 10 00 03  mov       %g3, %o1
    0x100003fb4:            c6 58 e2 a0  ldx       [%g3 + 0x2a0], %g3
    0x100003fb8:            22 c0 c0 0a  brz,a,pn  %g3, +0x28    <0x100003fe0>
    0x100003fbc:            e4 72 62 a0  stx       %l2, [%o1 + 0x2a0]
    0x100003fc0:            92 10 00 03  mov       %g3, %o1
    0x100003fc4:            c6 58 e2 a0  ldx       [%g3 + 0x2a0], %g3
    0x100003fc8:            2a f8 ff fb  brnz,a,pt %g3, -0x14    <0x100003fb4>
    0x100003fcc:            92 10 00 03  mov       %g3, %o1
    0x100003fd0:            e4 72 62 a0  stx       %l2, [%o1 + 0x2a0]
    0x100003fd4:            10 80 00 04  ba        +0x10         <0x100003fe4>
    0x100003fd8:            a6 04 e0 01  add       %l3, 0x1, %l3
    0x100003fdc:            e4 72 40 0a  stx       %l2, [%o1 + %o2]
    0x100003fe0:            a6 04 e0 01  add       %l3, 0x1, %l3
    0x100003fe4:            e6 73 aa 2f  stx       %l3, [%sp + 0xa2f]
    0x100003fe8:            cd 1b aa 2f  ldd       [%sp + 0xa2f], %d6
    0x100003fec:            bf a0 11 06  fxtod     %d6, %d62
    0x100003ff0:            83 af ca ce  fcmped    %fcc1, %d62, %d14
    0x100003ff4:            29 5f ff 5a  fbl,a,pt  %fcc1, -0x298  <0x100003d5c>
    0x100003ff8:            d5 3b a9 2f  std       %d10, [%sp + 0x92f]
    0x100003ffc:            d6 5b a8 d7  ldx       [%sp + 0x8d7], %o3
    0x100004000:            af a2 08 56  faddd     %d8, %d22, %d54
    0x100004004:            94 02 e0 01  add       %o3, 0x1, %o2
    0x100004008:            d4 73 a8 d7  stx       %o2, [%sp + 0x8d7]
    0x10000400c:            f3 1b a8 d7  ldd       [%sp + 0x8d7], %d56
    0x100004010:            bb a0 10 57  fdtox     %d54, %d60
    0x100004014:            b7 a0 11 19  fxtod     %d56, %d58
    0x100004018:            fb 3b a9 ff  std       %d60, [%sp + 0x9ff]
    0x10000401c:            e4 5b a9 ff  ldx       [%sp + 0x9ff], %l2
    0x100004020:            85 ae ca ce  fcmped    %fcc2, %d58, %d14
    0x100004024:            29 6f ff 42  fbl,a,pt  %fcc2, -0x2f8  <0x100003d2c>
    0x100004028:            e4 73 aa 2f  stx       %l2, [%sp + 0xa2f]
    0x10000402c:            da 5b a8 cf  ldx       [%sp + 0x8cf], %o5
    0x100004030:            bf a2 88 56  faddd     %d10, %d22, %d62
    0x100004034:            98 03 60 01  add       %o5, 0x1, %o4
    0x100004038:            d8 73 a8 cf  stx       %o4, [%sp + 0x8cf]
    0x10000403c:            cd 1b a8 cf  ldd       [%sp + 0x8cf], %d6
    0x100004040:            89 a0 10 5f  fdtox     %d62, %d4
    0x100004044:            91 a0 11 06  fxtod     %d6, %d8
    0x100004048:            c9 3b aa 1f  std       %d4, [%sp + 0xa1f]
    0x10000404c:            e6 5b aa 1f  ldx       [%sp + 0xa1f], %l3
    0x100004050:            87 aa 0a ce  fcmped    %fcc3, %d8, %d14
    0x100004054:            29 7f ff 2c  fbl,a,pt  %fcc3, -0x350  <0x100003d04>
    0x100004058:            e6 73 aa 2f  stx       %l3, [%sp + 0xa2f]
    0x10000405c:            10 80 00 04  ba        +0x10         <0x10000406c>
    0x100004060:            e6 5b a8 b7  ldx       [%sp + 0x8b7], %l3
    0x100004064:            f8 5f 62 d8  ldx       [%i5 + 0x2d8], %i4
    0x100004068:            e6 5b a8 b7  ldx       [%sp + 0x8b7], %l3
    0x10000406c:            d4 5c e7 00  ldx       [%l3 + 0x700], %o2
    0x100004070:            80 a2 80 11  cmp       %o2, %l1
    0x100004074:            12 60 01 ec  bne,pn    %xcc, +0x7b0  <0x100004824>
    0x100004078:            01 00 00 00  nop
    0x10000407c:            fa 5c e7 00  ldx       [%l3 + 0x700], %i5
    0x100004080:            92 4f 00 1d  mulx      %i4, %i5, %o1
    0x100004084:            d2 73 aa 2f  stx       %o1, [%sp + 0xa2f]
    0x100004088:            dd 1b aa 2f  ldd       [%sp + 0xa2f], %d14
    0x10000408c:            d5 1e 6a b8  ldd       [%i1 + 0xab8], %d10
    0x100004090:            ed 1c 3f f8  ldd       [%l0 - 0x8], %d22
    0x100004094:            f1 1c 3f f8  ldd       [%l0 - 0x8], %d24
    0x100004098:            99 a0 11 0e  fxtod     %d14, %d12
    0x10000409c:            ef 1c 3f f8  ldd       [%l0 - 0x8], %d54
    0x1000040a0:            e0 5e a3 20  ldx       [%i2 + 0x320], %l0
    0x1000040a4:            8d a2 89 cc  fdivd     %d10, %d12, %d6
    0x1000040a8:            99 a4 09 46  fmuld     %d16, %d6, %d12
    0x1000040ac:            9d a4 89 46  fmuld     %d18, %d6, %d14
    0x1000040b0:            95 a5 09 46  fmuld     %d20, %d6, %d10
    0x1000040b4:            04 c4 00 99  brlez,pn  %l0, +0x264   <0x100004318>
    0x1000040b8:            ba 04 3f ff  add       %l0, -0x1, %i5
    0x1000040bc:            1b 00 04 00  sethi     %hi(0x100000), %o5
    0x1000040c0:            a4 13 61 2e  or        %o5, 0x12e, %l2
    0x1000040c4:            97 2c b0 0c  sllx      %l2, 0xc, %o3
    0x1000040c8:            ef 3f a7 b7  std       %d54, [%fp + 0x7b7]
    0x1000040cc:            19 00 04 00  sethi     %hi(0x100000), %o4
    0x1000040d0:            f0 5a e2 b0  ldx       [%o3 + 0x2b0], %i0
    0x1000040d4:            94 13 21 2e  or        %o4, 0x12e, %o2
    0x1000040d8:            f0 73 a8 e7  stx       %i0, [%sp + 0x8e7]
    0x1000040dc:            a7 2a b0 0c  sllx      %o2, 0xc, %l3
    0x1000040e0:            c0 73 a8 df  clrx      [%sp + 0x8df]
    0x1000040e4:            a2 10 20 00  clr       %l1
    0x1000040e8:            e0 5b a8 e7  ldx       [%sp + 0x8e7], %l0
    0x1000040ec:            a4 10 20 00  clr       %l2
    0x1000040f0:            ac 10 20 00  clr       %l6
    0x1000040f4:            ee 5c 20 00  ldx       [%l0], %l7
    0x1000040f8:            e8 5c 80 17  ldx       [%l2 + %l7], %l4
    0x1000040fc:            aa 10 20 00  clr       %l5
    0x100004100:            e0 5d 20 00  ldx       [%l4], %l0
    0x100004104:            02 c4 00 72  brz,pn    %l0, +0x1c8   <0x1000042cc>
    0x100004108:            de 5b a8 af  ldx       [%sp + 0x8af], %o7
    0x10000410c:            d1 1e 6a b8  ldd       [%i1 + 0xab8], %d8
    0x100004110:            f3 1e 6a b8  ldd       [%i1 + 0xab8], %d56
    0x100004114:            e1 1b e7 20  ldd       [%o7 + 0x720], %d16
    0x100004118:            f7 1c e6 e8  ldd       [%l3 + 0x6e8], %d58
    0x10000411c:            1f 00 04 00  sethi     %hi(0x100000), %o7
    0x100004120:            a9 a2 09 d0  fdivd     %d8, %d16, %d20
    0x100004124:            b7 a6 49 db  fdivd     %d56, %d58, %d58
    0x100004128:            e1 1c 20 60  ldd       [%l0 + 0x60], %d16
    0x10000412c:            9a 13 e0 03  or        %o7, 0x3, %o5
    0x100004130:            b1 2b 70 0c  sllx      %o5, 0xc, %i0
    0x100004134:            81 a4 08 ca  fsubd     %d16, %d10, %d0
    0x100004138:            c5 1e 2a c0  ldd       [%i0 + 0xac0], %d2
    0x10000413c:            d9 3b a9 47  std       %d12, [%sp + 0x947]
    0x100004140:            dd 3b a9 3f  std       %d14, [%sp + 0x93f]
    0x100004144:            f1 3b a9 4f  std       %d24, [%sp + 0x94f]
    0x100004148:            f7 3b aa 5f  std       %d58, [%sp + 0xa5f]
    0x10000414c:            e9 3b aa 67  std       %d20, [%sp + 0xa67]
    0x100004150:            ef 3b a9 5f  std       %d54, [%sp + 0x95f]
    0x100004154:            ed 3b a9 57  std       %d22, [%sp + 0x957]
    0x100004158:            40 00 19 22  call      +0x6488       <0x10000a5e0>
    0x10000415c:            d5 3b a9 37  std       %d10, [%sp + 0x937]
    0x100004160:            d9 1c 20 70  ldd       [%l0 + 0x70], %d12
    0x100004164:            d5 1b a9 37  ldd       [%sp + 0x937], %d10
    0x100004168:            9d a0 00 40  fmovd     %d0, %d14
    0x10000416c:            c5 1e 2a c0  ldd       [%i0 + 0xac0], %d2
    0x100004170:            81 a3 08 ca  fsubd     %d12, %d10, %d0
    0x100004174:            40 00 19 1b  call      +0x646c       <0x10000a5e0>
    0x100004178:            dd 3b aa 57  std       %d14, [%sp + 0xa57]
    0x10000417c:            dd 1b aa 57  ldd       [%sp + 0xa57], %d14
    0x100004180:            d1 1c 20 68  ldd       [%l0 + 0x68], %d8
    0x100004184:            d5 1b a9 37  ldd       [%sp + 0x937], %d10
    0x100004188:            ad a3 88 40  faddd     %d14, %d0, %d22
    0x10000418c:            f7 1b aa 5f  ldd       [%sp + 0xa5f], %d58
    0x100004190:            81 a2 08 ca  fsubd     %d8, %d10, %d0
    0x100004194:            ef 1b a9 5f  ldd       [%sp + 0x95f], %d54
    0x100004198:            c5 1e 2a c0  ldd       [%i0 + 0xac0], %d2
    0x10000419c:            95 a5 89 5b  fmuld     %d22, %d58, %d10
    0x1000041a0:            b1 a5 c8 4a  faddd     %d54, %d10, %d24
    0x1000041a4:            40 00 19 0f  call      +0x643c       <0x10000a5e0>
    0x1000041a8:            f1 3b aa 4f  std       %d24, [%sp + 0xa4f]
    0x1000041ac:            e9 1b aa 67  ldd       [%sp + 0xa67], %d20
    0x1000041b0:            f1 1b aa 4f  ldd       [%sp + 0xa4f], %d24
    0x1000041b4:            dd 1b a9 3f  ldd       [%sp + 0x93f], %d14
    0x1000041b8:            b3 a0 09 54  fmuld     %d0, %d20, %d56
    0x1000041bc:            c5 1e 2a c0  ldd       [%i0 + 0xac0], %d2
    0x1000041c0:            af a6 08 59  faddd     %d24, %d56, %d54
    0x1000041c4:            ef 3f a7 b7  std       %d54, [%fp + 0x7b7]
    0x1000041c8:            fb 1c 20 78  ldd       [%l0 + 0x78], %d60
    0x1000041cc:            81 a7 48 ce  fsubd     %d60, %d14, %d0
    0x1000041d0:            40 00 19 04  call      +0x6410       <0x10000a5e0>
    0x1000041d4:            ef 3b a9 5f  std       %d54, [%sp + 0x95f]
    0x1000041d8:            dd 1b a9 3f  ldd       [%sp + 0x93f], %d14
    0x1000041dc:            f7 1c 20 88  ldd       [%l0 + 0x88], %d58
    0x1000041e0:            c5 1e 2a c0  ldd       [%i0 + 0xac0], %d2
    0x1000041e4:            a5 a0 00 40  fmovd     %d0, %d18
    0x1000041e8:            81 a6 c8 ce  fsubd     %d58, %d14, %d0
    0x1000041ec:            40 00 18 fd  call      +0x63f4       <0x10000a5e0>
    0x1000041f0:            e5 3b aa 47  std       %d18, [%sp + 0xa47]
    0x1000041f4:            e5 1b aa 47  ldd       [%sp + 0xa47], %d18
    0x1000041f8:            f7 1b aa 5f  ldd       [%sp + 0xa5f], %d58
    0x1000041fc:            e9 1c 20 80  ldd       [%l0 + 0x80], %d20
    0x100004200:            8d a4 88 40  faddd     %d18, %d0, %d6
    0x100004204:            dd 1b a9 3f  ldd       [%sp + 0x93f], %d14
    0x100004208:            f1 1b a9 4f  ldd       [%sp + 0x94f], %d24
    0x10000420c:            c5 1e 2a c0  ldd       [%i0 + 0xac0], %d2
    0x100004210:            81 a5 08 ce  fsubd     %d20, %d14, %d0
    0x100004214:            bf a1 89 5b  fmuld     %d6, %d58, %d62
    0x100004218:            9d a6 08 5f  faddd     %d24, %d62, %d14
    0x10000421c:            40 00 18 f1  call      +0x63c4       <0x10000a5e0>
    0x100004220:            dd 3b aa 3f  std       %d14, [%sp + 0xa3f]
    0x100004224:            e9 1b aa 67  ldd       [%sp + 0xa67], %d20
    0x100004228:            c9 1c 20 90  ldd       [%l0 + 0x90], %d4
    0x10000422c:            dd 1b aa 3f  ldd       [%sp + 0xa3f], %d14
    0x100004230:            a1 a0 09 54  fmuld     %d0, %d20, %d16
    0x100004234:            d9 1b a9 47  ldd       [%sp + 0x947], %d12
    0x100004238:            c5 1e 2a c0  ldd       [%i0 + 0xac0], %d2
    0x10000423c:            81 a1 08 cc  fsubd     %d4, %d12, %d0
    0x100004240:            b1 a3 88 50  faddd     %d14, %d16, %d24
    0x100004244:            40 00 18 e7  call      +0x639c       <0x10000a5e0>
    0x100004248:            f1 3b a9 4f  std       %d24, [%sp + 0x94f]
    0x10000424c:            d1 1c 20 a0  ldd       [%l0 + 0xa0], %d8
    0x100004250:            d9 1b a9 47  ldd       [%sp + 0x947], %d12
    0x100004254:            95 a0 00 40  fmovd     %d0, %d10
    0x100004258:            c5 1e 2a c0  ldd       [%i0 + 0xac0], %d2
    0x10000425c:            81 a2 08 cc  fsubd     %d8, %d12, %d0
    0x100004260:            40 00 18 e0  call      +0x6380       <0x10000a5e0>
    0x100004264:            d5 3b aa 37  std       %d10, [%sp + 0xa37]
    0x100004268:            d5 1b aa 37  ldd       [%sp + 0xa37], %d10
    0x10000426c:            d9 1b a9 47  ldd       [%sp + 0x947], %d12
    0x100004270:            f3 1c 20 98  ldd       [%l0 + 0x98], %d56
    0x100004274:            af a2 88 40  faddd     %d10, %d0, %d54
    0x100004278:            f7 1b aa 5f  ldd       [%sp + 0xa5f], %d58
    0x10000427c:            81 a6 48 cc  fsubd     %d56, %d12, %d0
    0x100004280:            ed 1b a9 57  ldd       [%sp + 0x957], %d22
    0x100004284:            c5 1e 2a c0  ldd       [%i0 + 0xac0], %d2
    0x100004288:            99 a5 c9 5b  fmuld     %d54, %d58, %d12
    0x10000428c:            bb a5 88 4c  faddd     %d22, %d12, %d60
    0x100004290:            40 00 18 d4  call      +0x6350       <0x10000a5e0>
    0x100004294:            fb 3b aa 2f  std       %d60, [%sp + 0xa2f]
    0x100004298:            e9 1b aa 67  ldd       [%sp + 0xa67], %d20
    0x10000429c:            fb 1b aa 2f  ldd       [%sp + 0xa2f], %d60
    0x1000042a0:            e0 5c 22 a0  ldx       [%l0 + 0x2a0], %l0
    0x1000042a4:            d5 1b a9 37  ldd       [%sp + 0x937], %d10
    0x1000042a8:            dd 1b a9 3f  ldd       [%sp + 0x93f], %d14
    0x1000042ac:            a5 a0 09 54  fmuld     %d0, %d20, %d18
    0x1000042b0:            d9 1b a9 47  ldd       [%sp + 0x947], %d12
    0x1000042b4:            f1 1b a9 4f  ldd       [%sp + 0x94f], %d24
    0x1000042b8:            ef 1b a9 5f  ldd       [%sp + 0x95f], %d54
    0x1000042bc:            f7 1b aa 5f  ldd       [%sp + 0xa5f], %d58
    0x1000042c0:            ad a7 48 52  faddd     %d60, %d18, %d22
    0x1000042c4:            0a fc 3f 99  brnz,pt   %l0, -0x19c   <0x100004128>
    0x1000042c8:            1f 00 04 00  sethi     %hi(0x100000), %o7
    0x1000042cc:            ac 05 a0 01  add       %l6, 0x1, %l6
    0x1000042d0:            80 a5 80 1d  cmp       %l6, %i5
    0x1000042d4:            aa 05 60 20  add       %l5, 0x20, %l5
    0x1000042d8:            24 6f ff 8b  ble,a,pt  %xcc, -0x1d4  <0x100004104>
    0x1000042dc:            e0 5d 00 15  ldx       [%l4 + %l5], %l0
    0x1000042e0:            a2 04 60 01  add       %l1, 0x1, %l1
    0x1000042e4:            80 a4 40 1d  cmp       %l1, %i5
    0x1000042e8:            a4 04 a0 08  add       %l2, 0x8, %l2
    0x1000042ec:            04 6f ff 83  ble,pt    %xcc, -0x1f4  <0x1000040f8>
    0x1000042f0:            ac 10 20 00  clr       %l6
    0x1000042f4:            ec 5b a8 df  ldx       [%sp + 0x8df], %l6
    0x1000042f8:            e8 5b a8 e7  ldx       [%sp + 0x8e7], %l4
    0x1000042fc:            aa 05 a0 01  add       %l6, 0x1, %l5
    0x100004300:            a4 05 20 08  add       %l4, 0x8, %l2
    0x100004304:            ea 73 a8 df  stx       %l5, [%sp + 0x8df]
    0x100004308:            80 a5 40 1d  cmp       %l5, %i5
    0x10000430c:            e4 73 a8 e7  stx       %l2, [%sp + 0x8e7]
    0x100004310:            04 6f ff 76  ble,pt    %xcc, -0x228  <0x1000040e8>
    0x100004314:            a2 10 20 00  clr       %l1
    0x100004318:            d5 3b a9 37  std       %d10, [%sp + 0x937]
    0x10000431c:            dd 3b a9 3f  std       %d14, [%sp + 0x93f]
    0x100004320:            d9 3b a9 47  std       %d12, [%sp + 0x947]
    0x100004324:            f1 3b a9 4f  std       %d24, [%sp + 0x94f]
    0x100004328:            ed 3b a9 57  std       %d22, [%sp + 0x957]
    0x10000432c:            ef 3b a9 5f  std       %d54, [%sp + 0x95f]
    0x100004330:            23 00 04 00  sethi     %hi(0x100000), %l1
    0x100004334:            07 00 04 00  sethi     %hi(0x100000), %g3
    0x100004338:            8a 14 61 2f  or        %l1, 0x12f, %g5
    0x10000433c:            84 10 e1 2f  or        %g3, 0x12f, %g2
    0x100004340:            89 29 70 0c  sllx      %g5, 0xc, %g4
    0x100004344:            e5 19 21 d0  ldd       [%g4 + 0x1d0], %d18
    0x100004348:            9f 28 b0 0c  sllx      %g2, 0xc, %o7
    0x10000434c:            e9 1b e1 e8  ldd       [%o7 + 0x1e8], %d20
    0x100004350:            1b 00 04 00  sethi     %hi(0x100000), %o5
    0x100004354:            98 13 61 2f  or        %o5, 0x12f, %o4
    0x100004358:            97 2b 30 0c  sllx      %o4, 0xc, %o3
    0x10000435c:            e1 1a e1 d8  ldd       [%o3 + 0x1d8], %d16
    0x100004360:            15 00 04 00  sethi     %hi(0x100000), %o2
    0x100004364:            92 12 a0 03  or        %o2, 0x3, %o1
    0x100004368:            a1 2a 70 0c  sllx      %o1, 0xc, %l0
    0x10000436c:            27 00 04 00  sethi     %hi(0x100000), %l3
    0x100004370:            29 00 04 00  sethi     %hi(0x100000), %l4
    0x100004374:            2b 00 04 00  sethi     %hi(0x100000), %l5
    0x100004378:            ac 14 e1 2f  or        %l3, 0x12f, %l6
    0x10000437c:            91 a5 09 52  fmuld     %d20, %d18, %d8
    0x100004380:            81 a2 09 d0  fdivd     %d8, %d16, %d0
    0x100004384:            40 00 18 97  call      +0x625c       <0x10000a5e0>
    0x100004388:            c5 1c 2a c0  ldd       [%l0 + 0xac0], %d2
    0x10000438c:            e2 5e a3 20  ldx       [%i2 + 0x320], %l1
    0x100004390:            cd 1e 6a b8  ldd       [%i1 + 0xab8], %d6
    0x100004394:            ee 5b a8 af  ldx       [%sp + 0x8af], %l7
    0x100004398:            ef 1b a9 5f  ldd       [%sp + 0x95f], %d54
    0x10000439c:            d9 1b a9 47  ldd       [%sp + 0x947], %d12
    0x1000043a0:            dd 1d e7 20  ldd       [%l7 + 0x720], %d14
    0x1000043a4:            dd 3f a7 e7  std       %d14, [%fp + 0x7e7]
    0x1000043a8:            d5 1b a9 37  ldd       [%sp + 0x937], %d10
    0x1000043ac:            dd 1b a9 3f  ldd       [%sp + 0x93f], %d14
    0x1000043b0:            f1 1b a9 4f  ldd       [%sp + 0x94f], %d24
    0x1000043b4:            35 00 04 00  sethi     %hi(0x100000), %i2
    0x1000043b8:            b0 16 a1 2f  or        %i2, 0x12f, %i0
    0x1000043bc:            a5 2e 30 0c  sllx      %i0, 0xc, %l2
    0x1000043c0:            c9 1c a1 e0  ldd       [%l2 + 0x1e0], %d4
    0x1000043c4:            ed 1b a9 57  ldd       [%sp + 0x957], %d22
    0x1000043c8:            ae 15 21 2e  or        %l4, 0x12e, %l7
    0x1000043cc:            b3 a1 89 c4  fdivd     %d6, %d4, %d56
    0x1000043d0:            90 15 61 2f  or        %l5, 0x12f, %o0
    0x1000043d4:            8b 2d b0 0c  sllx      %l6, 0xc, %g5
    0x1000043d8:            89 2d f0 0c  sllx      %l7, 0xc, %g4
    0x1000043dc:            87 2a 30 0c  sllx      %o0, 0xc, %g3
    0x1000043e0:            ff 19 61 98  ldd       [%g5 + 0x198], %d62
    0x1000043e4:            fb 19 27 48  ldd       [%g4 + 0x748], %d60
    0x1000043e8:            f7 18 e1 60  ldd       [%g3 + 0x160], %d58
    0x1000043ec:            a5 a0 11 1f  fxtod     %d62, %d18
    0x1000043f0:            a9 a6 c9 5d  fmuld     %d58, %d60, %d20
    0x1000043f4:            a1 a5 09 52  fmuld     %d20, %d18, %d16
    0x1000043f8:            91 a4 09 59  fmuld     %d16, %d56, %d8
    0x1000043fc:            89 a2 09 40  fmuld     %d8, %d0, %d4
    0x100004400:            af a1 09 d7  fdivd     %d4, %d54, %d54
    0x100004404:            8d a0 05 57  fsqrtd    %d54, %d6
    0x100004408:            04 c4 40 ef  brlez,pn  %l1, +0x3bc   <0x1000047c4>
    0x10000440c:            cd 3f a7 b7  std       %d6, [%fp + 0x7b7]
    0x100004410:            bf a1 09 d6  fdivd     %d4, %d22, %d62
    0x100004414:            bb a1 09 d8  fdivd     %d4, %d24, %d60
    0x100004418:            91 a0 05 5f  fsqrtd    %d62, %d8
    0x10000441c:            a1 a0 05 5d  fsqrtd    %d60, %d16
    0x100004420:            05 00 04 00  sethi     %hi(0x100000), %g2
    0x100004424:            b0 10 a1 2e  or        %g2, 0x12e, %i0
    0x100004428:            9f 2e 30 0c  sllx      %i0, 0xc, %o7
    0x10000442c:            84 10 20 00  clr       %g2
    0x100004430:            8a 10 20 00  clr       %g5
    0x100004434:            ee 5b e2 b0  ldx       [%o7 + 0x2b0], %l7
    0x100004438:            9e 07 3f ff  add       %i4, -0x1, %o7
    0x10000443c:            88 10 20 00  clr       %g4
    0x100004440:            d0 5d e0 00  ldx       [%l7], %o0
    0x100004444:            ac 10 20 00  clr       %l6
    0x100004448:            e8 59 00 08  ldx       [%g4 + %o0], %l4
    0x10000444c:            aa 10 20 00  clr       %l5
    0x100004450:            e6 5d 20 00  ldx       [%l4], %l3
    0x100004454:            22 c4 c0 ce  brz,a,pn  %l3, +0x338   <0x10000478c>
    0x100004458:            ac 05 a0 01  add       %l6, 0x1, %l6
    0x10000445c:            04 c7 00 c8  brlez,pn  %i4, +0x320   <0x10000477c>
    0x100004460:            b4 10 20 00  clr       %i2
    0x100004464:            80 a7 20 07  cmp       %i4, 0x7
    0x100004468:            a4 04 e0 60  add       %l3, 0x60, %l2
    0x10000446c:            9a 07 a7 df  add       %fp, 0x7df, %o5
    0x100004470:            06 60 00 a4  bl,pn     %xcc, +0x290  <0x100004700>
    0x100004474:            01 00 00 00  nop
    0x100004478:            c9 1f a7 df  ldd       [%fp + 0x7df], %d4
    0x10000447c:            fb 1e 6a b8  ldd       [%i1 + 0xab8], %d60
    0x100004480:            f3 1c e0 60  ldd       [%l3 + 0x60], %d56
    0x100004484:            ef 1f a7 b7  ldd       [%fp + 0x7b7], %d54
    0x100004488:            a9 a7 49 c4  fdivd     %d60, %d4, %d20
    0x10000448c:            b3 a6 48 ca  fsubd     %d56, %d10, %d56
    0x100004490:            f1 1c e0 78  ldd       [%l3 + 0x78], %d24
    0x100004494:            ed 1c e0 90  ldd       [%l3 + 0x90], %d22
    0x100004498:            f7 1e 6a b8  ldd       [%i1 + 0xab8], %d58
    0x10000449c:            ff 1e 6a b8  ldd       [%i1 + 0xab8], %d62
    0x1000044a0:            cd 1c e0 80  ldd       [%l3 + 0x80], %d6
    0x1000044a4:            b3 a5 c9 59  fmuld     %d54, %d56, %d56
    0x1000044a8:            e5 1c e0 68  ldd       [%l3 + 0x68], %d18
    0x1000044ac:            c9 1c e0 88  ldd       [%l3 + 0x88], %d4
    0x1000044b0:            f9 1c e0 98  ldd       [%l3 + 0x98], %d28
    0x1000044b4:            af a6 08 ce  fsubd     %d24, %d14, %d54
    0x1000044b8:            b1 a5 88 cc  fsubd     %d22, %d12, %d24
    0x1000044bc:            ad a6 49 54  fmuld     %d56, %d20, %d22
    0x1000044c0:            ed 3c e0 60  std       %d22, [%l3 + 0x60]
    0x1000044c4:            e9 1f a7 df  ldd       [%fp + 0x7df], %d20
    0x1000044c8:            f5 1c e0 a0  ldd       [%l3 + 0xa0], %d26
    0x1000044cc:            fd 1c e0 70  ldd       [%l3 + 0x70], %d30
    0x1000044d0:            b3 a6 c9 d4  fdivd     %d58, %d20, %d56
    0x1000044d4:            ad a4 09 57  fmuld     %d16, %d54, %d22
    0x1000044d8:            9a 07 a7 f7  add       %fp, 0x7f7, %o5
    0x1000044dc:            b4 10 20 03  mov       0x3, %i2
    0x1000044e0:            a4 04 e0 78  add       %l3, 0x78, %l2
    0x1000044e4:            b0 07 3f fc  add       %i4, -0x4, %i0
    0x1000044e8:            af a2 09 58  fmuld     %d8, %d24, %d54
    0x1000044ec:            ad a5 89 59  fmuld     %d22, %d56, %d22
    0x1000044f0:            ed 3c e0 78  std       %d22, [%l3 + 0x78]
    0x1000044f4:            e9 1f a7 df  ldd       [%fp + 0x7df], %d20
    0x1000044f8:            b1 a1 88 ce  fsubd     %d6, %d14, %d24
    0x1000044fc:            a5 a4 88 ca  fsubd     %d18, %d10, %d18
    0x100004500:            b3 a7 c9 d4  fdivd     %d62, %d20, %d56
    0x100004504:            b3 a5 c9 59  fmuld     %d54, %d56, %d56
    0x100004508:            f3 3c e0 90  std       %d56, [%l3 + 0x90]
    0x10000450c:            ef 1f a7 e7  ldd       [%fp + 0x7e7], %d54
    0x100004510:            e9 1f a7 b7  ldd       [%fp + 0x7b7], %d20
    0x100004514:            8d a4 09 58  fmuld     %d16, %d24, %d6
    0x100004518:            af a7 49 d7  fdivd     %d60, %d54, %d54
    0x10000451c:            b1 a5 09 52  fmuld     %d20, %d18, %d24
    0x100004520:            a5 a1 08 ce  fsubd     %d4, %d14, %d18
    0x100004524:            a9 a7 08 cc  fsubd     %d28, %d12, %d20
    0x100004528:            89 a6 88 cc  fsubd     %d26, %d12, %d4
    0x10000452c:            bd a7 88 ca  fsubd     %d30, %d10, %d30
    0x100004530:            af a6 09 57  fmuld     %d24, %d54, %d54
    0x100004534:            ef 3c e0 68  std       %d54, [%l3 + 0x68]
    0x100004538:            f1 1f a7 e7  ldd       [%fp + 0x7e7], %d24
    0x10000453c:            b9 a4 09 52  fmuld     %d16, %d18, %d28
    0x100004540:            a9 a2 09 54  fmuld     %d8, %d20, %d20
    0x100004544:            af a6 c9 d8  fdivd     %d58, %d24, %d54
    0x100004548:            b1 a1 89 57  fmuld     %d6, %d54, %d24
    0x10000454c:            f1 3c e0 80  std       %d24, [%l3 + 0x80]
    0x100004550:            e5 1f a7 e7  ldd       [%fp + 0x7e7], %d18
    0x100004554:            8d a2 09 44  fmuld     %d8, %d4, %d6
    0x100004558:            af a7 c9 d2  fdivd     %d62, %d18, %d54
    0x10000455c:            a5 a5 09 57  fmuld     %d20, %d54, %d18
    0x100004560:            e5 3c e0 98  std       %d18, [%l3 + 0x98]
    0x100004564:            c9 1f a7 ef  ldd       [%fp + 0x7ef], %d4
    0x100004568:            e9 1f a7 b7  ldd       [%fp + 0x7b7], %d20
    0x10000456c:            af a7 49 c4  fdivd     %d60, %d4, %d54
    0x100004570:            89 a5 09 5e  fmuld     %d20, %d30, %d4
    0x100004574:            a9 a1 09 57  fmuld     %d4, %d54, %d20
    0x100004578:            e9 3c e0 70  std       %d20, [%l3 + 0x70]
    0x10000457c:            ef 1f a7 ef  ldd       [%fp + 0x7ef], %d54
    0x100004580:            89 a6 c9 d7  fdivd     %d58, %d54, %d4
    0x100004584:            af a7 09 44  fmuld     %d28, %d4, %d54
    0x100004588:            ef 3c e0 88  std       %d54, [%l3 + 0x88]
    0x10000458c:            e9 1f a7 ef  ldd       [%fp + 0x7ef], %d20
    0x100004590:            89 a7 c9 d4  fdivd     %d62, %d20, %d4
    0x100004594:            a9 a1 89 44  fmuld     %d6, %d4, %d20
    0x100004598:            e9 3c e0 a0  std       %d20, [%l3 + 0xa0]
    0x10000459c:            c1 6c a1 40  prefetch  [%l2 + 0x140], #n_reads
    0x1000045a0:            b4 06 a0 04  add       %i2, 0x4, %i2
    0x1000045a4:            c9 1b 60 00  ldd       [%o5], %d4
    0x1000045a8:            9a 03 60 20  add       %o5, 0x20, %o5
    0x1000045ac:            80 a6 80 18  cmp       %i2, %i0
    0x1000045b0:            a4 04 a0 20  add       %l2, 0x20, %l2
    0x1000045b4:            89 a7 49 c4  fdivd     %d60, %d4, %d4
    0x1000045b8:            8d a5 88 ca  fsubd     %d22, %d10, %d6
    0x1000045bc:            ed 1f a7 b7  ldd       [%fp + 0x7b7], %d22
    0x1000045c0:            ad a5 89 46  fmuld     %d22, %d6, %d22
    0x1000045c4:            8d a5 89 44  fmuld     %d22, %d4, %d6
    0x1000045c8:            cd 3c bf e0  std       %d6, [%l2 - 0x20]
    0x1000045cc:            c9 1b 7f e0  ldd       [%o5 - 0x20], %d4
    0x1000045d0:            ad a6 c9 c4  fdivd     %d58, %d4, %d22
    0x1000045d4:            b3 a6 48 ce  fsubd     %d56, %d14, %d56
    0x1000045d8:            8d a4 09 59  fmuld     %d16, %d56, %d6
    0x1000045dc:            8d a1 89 56  fmuld     %d6, %d22, %d6
    0x1000045e0:            cd 3c bf f8  std       %d6, [%l2 - 0x8]
    0x1000045e4:            c9 1b 7f e0  ldd       [%o5 - 0x20], %d4
    0x1000045e8:            ad a7 c9 c4  fdivd     %d62, %d4, %d22
    0x1000045ec:            f3 1c a0 10  ldd       [%l2 + 0x10], %d56
    0x1000045f0:            89 a6 48 cc  fsubd     %d56, %d12, %d4
    0x1000045f4:            b3 a2 09 44  fmuld     %d8, %d4, %d56
    0x1000045f8:            89 a6 49 56  fmuld     %d56, %d22, %d4
    0x1000045fc:            c9 3c a0 10  std       %d4, [%l2 + 0x10]
    0x100004600:            ed 1b 7f e8  ldd       [%o5 - 0x18], %d22
    0x100004604:            ad a7 49 d6  fdivd     %d60, %d22, %d22
    0x100004608:            b1 a6 08 ca  fsubd     %d24, %d10, %d24
    0x10000460c:            f3 1f a7 b7  ldd       [%fp + 0x7b7], %d56
    0x100004610:            b3 a6 49 58  fmuld     %d56, %d24, %d56
    0x100004614:            b1 a6 49 56  fmuld     %d56, %d22, %d24
    0x100004618:            f1 3c bf e8  std       %d24, [%l2 - 0x18]
    0x10000461c:            ed 1b 7f e8  ldd       [%o5 - 0x18], %d22
    0x100004620:            b1 a6 c9 d6  fdivd     %d58, %d22, %d24
    0x100004624:            a5 a4 88 ce  fsubd     %d18, %d14, %d18
    0x100004628:            b3 a4 09 52  fmuld     %d16, %d18, %d56
    0x10000462c:            ad a6 49 58  fmuld     %d56, %d24, %d22
    0x100004630:            ed 3c a0 00  std       %d22, [%l2]
    0x100004634:            e5 1b 7f e8  ldd       [%o5 - 0x18], %d18
    0x100004638:            b1 a7 c9 d2  fdivd     %d62, %d18, %d24
    0x10000463c:            f3 1c a0 18  ldd       [%l2 + 0x18], %d56
    0x100004640:            a5 a6 48 cc  fsubd     %d56, %d12, %d18
    0x100004644:            b3 a2 09 52  fmuld     %d8, %d18, %d56
    0x100004648:            b3 a6 49 58  fmuld     %d56, %d24, %d56
    0x10000464c:            f3 3c a0 18  std       %d56, [%l2 + 0x18]
    0x100004650:            e5 1b 7f f0  ldd       [%o5 - 0x10], %d18
    0x100004654:            a5 a7 49 d2  fdivd     %d60, %d18, %d18
    0x100004658:            b1 a5 c8 ca  fsubd     %d54, %d10, %d24
    0x10000465c:            ef 1f a7 b7  ldd       [%fp + 0x7b7], %d54
    0x100004660:            af a5 c9 58  fmuld     %d54, %d24, %d54
    0x100004664:            b1 a5 c9 52  fmuld     %d54, %d18, %d24
    0x100004668:            f1 3c bf f0  std       %d24, [%l2 - 0x10]
    0x10000466c:            e5 1b 7f f0  ldd       [%o5 - 0x10], %d18
    0x100004670:            b1 a6 c9 d2  fdivd     %d58, %d18, %d24
    0x100004674:            a9 a5 08 ce  fsubd     %d20, %d14, %d20
    0x100004678:            af a4 09 54  fmuld     %d16, %d20, %d54
    0x10000467c:            b1 a5 c9 58  fmuld     %d54, %d24, %d24
    0x100004680:            f1 3c a0 08  std       %d24, [%l2 + 0x8]
    0x100004684:            e5 1b 7f f0  ldd       [%o5 - 0x10], %d18
    0x100004688:            a9 a7 c9 d2  fdivd     %d62, %d18, %d20
    0x10000468c:            ef 1c a0 20  ldd       [%l2 + 0x20], %d54
    0x100004690:            a5 a5 c8 cc  fsubd     %d54, %d12, %d18
    0x100004694:            af a2 09 52  fmuld     %d8, %d18, %d54
    0x100004698:            a5 a5 c9 54  fmuld     %d54, %d20, %d18
    0x10000469c:            e5 3c a0 20  std       %d18, [%l2 + 0x20]
    0x1000046a0:            e9 1b 7f f8  ldd       [%o5 - 0x8], %d20
    0x1000046a4:            a9 a7 49 d4  fdivd     %d60, %d20, %d20
    0x1000046a8:            af a1 88 ca  fsubd     %d6, %d10, %d54
    0x1000046ac:            cd 1f a7 b7  ldd       [%fp + 0x7b7], %d6
    0x1000046b0:            8d a1 89 57  fmuld     %d6, %d54, %d6
    0x1000046b4:            af a1 89 54  fmuld     %d6, %d20, %d54
    0x1000046b8:            ef 3c bf f8  std       %d54, [%l2 - 0x8]
    0x1000046bc:            e9 1b 7f f8  ldd       [%o5 - 0x8], %d20
    0x1000046c0:            8d a6 c9 d4  fdivd     %d58, %d20, %d6
    0x1000046c4:            89 a1 08 ce  fsubd     %d4, %d14, %d4
    0x1000046c8:            af a4 09 44  fmuld     %d16, %d4, %d54
    0x1000046cc:            af a5 c9 46  fmuld     %d54, %d6, %d54
    0x1000046d0:            ef 3c a0 10  std       %d54, [%l2 + 0x10]
    0x1000046d4:            e9 1b 7f f8  ldd       [%o5 - 0x8], %d20
    0x1000046d8:            8d a7 c9 d4  fdivd     %d62, %d20, %d6
    0x1000046dc:            c9 1c a0 28  ldd       [%l2 + 0x28], %d4
    0x1000046e0:            a9 a1 08 cc  fsubd     %d4, %d12, %d20
    0x1000046e4:            89 a2 09 54  fmuld     %d8, %d20, %d4
    0x1000046e8:            a9 a1 09 46  fmuld     %d4, %d6, %d20
    0x1000046ec:            04 6f ff ac  ble,pt    %xcc, -0x150  <0x10000459c>
    0x1000046f0:            e9 3c a0 28  std       %d20, [%l2 + 0x28]
    0x1000046f4:            80 a6 80 0f  cmp       %i2, %o7
    0x1000046f8:            14 60 00 21  bg,pn     %xcc, +0x84   <0x10000477c>
    0x1000046fc:            01 00 00 00  nop
    0x100004700:            ed 1b 60 00  ldd       [%o5], %d22
    0x100004704:            fb 1e 6a b8  ldd       [%i1 + 0xab8], %d60
    0x100004708:            f1 1c a0 00  ldd       [%l2], %d24
    0x10000470c:            e5 1f a7 b7  ldd       [%fp + 0x7b7], %d18
    0x100004710:            8d a7 49 d6  fdivd     %d60, %d22, %d6
    0x100004714:            bb a6 08 ca  fsubd     %d24, %d10, %d60
    0x100004718:            f7 1e 6a b8  ldd       [%i1 + 0xab8], %d58
    0x10000471c:            e9 1c a0 18  ldd       [%l2 + 0x18], %d20
    0x100004720:            ff 1e 6a b8  ldd       [%i1 + 0xab8], %d62
    0x100004724:            ef 1c a0 30  ldd       [%l2 + 0x30], %d54
    0x100004728:            b4 06 a0 01  add       %i2, 0x1, %i2
    0x10000472c:            89 a4 89 5d  fmuld     %d18, %d60, %d4
    0x100004730:            80 a6 80 0f  cmp       %i2, %o7
    0x100004734:            b3 a5 08 ce  fsubd     %d20, %d14, %d56
    0x100004738:            b1 a5 c8 cc  fsubd     %d54, %d12, %d24
    0x10000473c:            ad a1 09 46  fmuld     %d4, %d6, %d22
    0x100004740:            ed 3c a0 00  std       %d22, [%l2]
    0x100004744:            fb 1b 60 00  ldd       [%o5], %d60
    0x100004748:            a5 a4 09 59  fmuld     %d16, %d56, %d18
    0x10000474c:            af a2 09 58  fmuld     %d8, %d24, %d54
    0x100004750:            b7 a6 c9 dd  fdivd     %d58, %d60, %d58
    0x100004754:            a9 a4 89 5b  fmuld     %d18, %d58, %d20
    0x100004758:            e9 3c a0 18  std       %d20, [%l2 + 0x18]
    0x10000475c:            cd 1b 60 00  ldd       [%o5], %d6
    0x100004760:            9a 03 60 08  add       %o5, 0x8, %o5
    0x100004764:            bf a7 c9 c6  fdivd     %d62, %d6, %d62
    0x100004768:            89 a5 c9 5f  fmuld     %d54, %d62, %d4
    0x10000476c:            c9 3c a0 30  std       %d4, [%l2 + 0x30]
    0x100004770:            a4 04 a0 08  add       %l2, 0x8, %l2
    0x100004774:            24 6f ff e4  ble,a,pt  %xcc, -0x70   <0x100004704>
    0x100004778:            ed 1b 60 00  ldd       [%o5], %d22
    0x10000477c:            e6 5c e2 a0  ldx       [%l3 + 0x2a0], %l3
    0x100004780:            0a fc ff 37  brnz,pt   %l3, -0x324   <0x10000445c>
    0x100004784:            01 00 00 00  nop
    0x100004788:            ac 05 a0 01  add       %l6, 0x1, %l6
    0x10000478c:            80 a5 80 1d  cmp       %l6, %i5
    0x100004790:            aa 05 60 20  add       %l5, 0x20, %l5
    0x100004794:            24 6f ff 30  ble,a,pt  %xcc, -0x340  <0x100004454>
    0x100004798:            e6 5d 00 15  ldx       [%l4 + %l5], %l3
    0x10000479c:            8a 01 60 01  add       %g5, 0x1, %g5
    0x1000047a0:            80 a1 40 1d  cmp       %g5, %i5
    0x1000047a4:            88 01 20 08  add       %g4, 0x8, %g4
    0x1000047a8:            04 6f ff 28  ble,pt    %xcc, -0x360  <0x100004448>
    0x1000047ac:            ac 10 20 00  clr       %l6
    0x1000047b0:            84 00 a0 01  add       %g2, 0x1, %g2
    0x1000047b4:            80 a0 80 1d  cmp       %g2, %i5
    0x1000047b8:            ae 05 e0 08  add       %l7, 0x8, %l7
    0x1000047bc:            04 6f ff 20  ble,pt    %xcc, -0x380  <0x10000443c>
    0x1000047c0:            8a 10 20 00  clr       %g5
    0x1000047c4:            40 04 a4 07  call      +0x12901c     <0x10012d7e0>
    0x1000047c8:            90 10 00 1b  mov       %i3, %o0
    0x1000047cc:            81 c7 e0 08  ret
    0x1000047d0:            81 e8 20 00  restore   %g0, 0x0, %g0
    0x1000047d4:            1b 00 04 00  sethi     %hi(0x100000), %o5
    0x1000047d8:            19 00 04 00  sethi     %hi(0x100000), %o4
    0x1000047dc:            96 13 20 2c  or        %o4, 0x2c, %o3
    0x1000047e0:            b0 13 61 2e  or        %o5, 0x12e, %i0
    0x1000047e4:            85 2e 30 0c  sllx      %i0, 0xc, %g2
    0x1000047e8:            ad 2a f0 0c  sllx      %o3, 0xc, %l6
    0x1000047ec:            a6 00 a8 50  add       %g2, 0x850, %l3
    0x1000047f0:            90 05 ab 48  add       %l6, 0xb48, %o0
    0x1000047f4:            40 04 a3 cb  call      +0x128f2c     <0x10012d720>
    0x1000047f8:            92 10 00 13  mov       %l3, %o1
    0x1000047fc:            40 04 a3 e1  call      +0x128f84     <0x10012d780>
    0x100004800:            90 10 00 13  mov       %l3, %o0
    0x100004804:            40 04 a3 a7  call      +0x128e9c     <0x10012d6a0>
    0x100004808:            90 10 3f ff  mov       -0x1, %o0
    0x10000480c:            15 00 04 00  sethi     %hi(0x100000), %o2
    0x100004810:            92 12 a1 2e  or        %o2, 0x12e, %o1
    0x100004814:            87 2a 70 0c  sllx      %o1, 0xc, %g3
    0x100004818:            f7 18 e6 e8  ldd       [%g3 + 0x6e8], %d58
    0x10000481c:            10 bf fc be  ba        -0xd08        <0x100003b14>
    0x100004820:            3b 00 04 00  sethi     %hi(0x100000), %i5
    0x100004824:            e5 3b a9 0f  std       %d18, [%sp + 0x90f]
    0x100004828:            39 00 04 00  sethi     %hi(0x100000), %i4
    0x10000482c:            e9 3b a9 1f  std       %d20, [%sp + 0x91f]
    0x100004830:            98 17 20 2c  or        %i4, 0x2c, %o4
    0x100004834:            97 2b 30 0c  sllx      %o4, 0xc, %o3
    0x100004838:            90 02 ec 68  add       %o3, 0xc68, %o0
    0x10000483c:            92 10 00 11  mov       %l1, %o1
    0x100004840:            40 04 a3 c8  call      +0x128f20     <0x10012d760>
    0x100004844:            e1 3b a9 17  std       %d16, [%sp + 0x917]
    0x100004848:            40 04 a3 96  call      +0x128e58     <0x10012d6a0>
    0x10000484c:            90 10 3f ff  mov       -0x1, %o0
    0x100004850:            f8 5f 62 d8  ldx       [%i5 + 0x2d8], %i4
    0x100004854:            e1 1b a9 17  ldd       [%sp + 0x917], %d16
    0x100004858:            e5 1b a9 0f  ldd       [%sp + 0x90f], %d18
    0x10000485c:            e9 1b a9 1f  ldd       [%sp + 0x91f], %d20
    0x100004860:            10 bf fe 08  ba        -0x7e0        <0x100004080>
    0x100004864:            fa 5c e7 00  ldx       [%l3 + 0x700], %i5
    0x100004868:            3e 00 00 00  illtrap   0x0
    0x10000486c:            00 20 00 00  illtrap   0x200000
xrand()
    0x100004870:            9d e3 bf 30  save      %sp, -0xd0, %sp
    0x100004874:            c5 3b a8 af  std       %d2, [%sp + 0x8af]
    0x100004878:            40 04 a3 e2  call      +0x128f88     <0x10012d800>
    0x10000487c:            c1 3b a8 b7  std       %d0, [%sp + 0x8b7]
    0x100004880:            c1 1b a8 b7  ldd       [%sp + 0x8b7], %d0
    0x100004884:            c5 1b a8 af  ldd       [%sp + 0x8af], %d2
    0x100004888:            d0 23 a8 bf  st        %o0, [%sp + 0x8bf]
    0x10000488c:            3b 00 04 00  sethi     %hi(0x100000), %i5
    0x100004890:            8d a0 88 c0  fsubd     %d2, %d0, %d6
    0x100004894:            b8 17 60 04  or        %i5, 0x4, %i4
    0x100004898:            b7 2f 30 0c  sllx      %i4, 0xc, %i3
    0x10000489c:            c9 1e e8 68  ldd       [%i3 + 0x868], %d4
    0x1000048a0:            c5 03 a8 bf  ld        [%sp + 0x8bf], %f2
    0x1000048a4:            95 a1 89 44  fmuld     %d6, %d4, %d10
    0x1000048a8:            91 a0 19 02  fitod     %f2, %d8
    0x1000048ac:            99 a2 89 48  fmuld     %d10, %d8, %d12
    0x1000048b0:            81 a0 08 4c  faddd     %d0, %d12, %d0
    0x1000048b4:            81 c7 e0 08  ret
    0x1000048b8:            81 e8 20 00  restore   %g0, 0x0, %g0
    0x1000048bc:            00 00 00 00  illtrap   0x0
    0x1000048c0:            00 00 00 00  illtrap   0x0
    0x1000048c4:            00 00 00 00  illtrap   0x0
    0x1000048c8:            3f e0 00 00  0x3fe00000
    0x1000048cc:            00 00 00 00  illtrap   0x0
    0x1000048d0:            3f f0 00 00  0x3ff00000
    0x1000048d4:            00 00 00 00  illtrap   0x0
INTERF()
    0x1000048d8:            9d e3 b7 b0  save      %sp, -0x850, %sp
    0x1000048dc:            3b 00 04 00  sethi     %hi(0x100000), %i5
    0x1000048e0:            f0 73 a8 b7  stx       %i0, [%sp + 0x8b7]
    0x1000048e4:            a0 17 61 2f  or        %i5, 0x12f, %l0
    0x1000048e8:            f2 73 a8 cf  stx       %i1, [%sp + 0x8cf]
    0x1000048ec:            bb 2c 30 0c  sllx      %l0, 0xc, %i5
    0x1000048f0:            d4 5f 63 28  ldx       [%i5 + 0x328], %o2
    0x1000048f4:            b5 2e b0 03  sllx      %i2, 0x3, %i2
    0x1000048f8:            fa 73 a8 c7  stx       %i5, [%sp + 0x8c7]
    0x1000048fc:            37 00 04 00  sethi     %hi(0x100000), %i3
    0x100004900:            e2 5a 80 1a  ldx       [%o2 + %i2], %l1
    0x100004904:            b8 16 e0 04  or        %i3, 0x4, %i4
    0x100004908:            f4 73 a8 bf  stx       %i2, [%sp + 0x8bf]
    0x10000490c:            97 2f 30 0c  sllx      %i4, 0xc, %o3
    0x100004910:            d3 1a e8 c0  ldd       [%o3 + 0x8c0], %d40
    0x100004914:            b6 02 e8 c0  add       %o3, 0x8c0, %i3
    0x100004918:            02 c4 43 70  brz,pn    %l1, +0xdc0   <0x1000056d8>
    0x10000491c:            e2 77 a3 7f  stx       %l1, [%fp + 0x37f]
    0x100004920:            2f 00 04 00  sethi     %hi(0x100000), %l7
    0x100004924:            ac 15 e1 2e  or        %l7, 0x12e, %l6
    0x100004928:            a5 2e 30 03  sllx      %i0, 0x3, %l2
    0x10000492c:            1f 00 04 00  sethi     %hi(0x100000), %o7
    0x100004930:            af 2d b0 0c  sllx      %l6, 0xc, %l7
    0x100004934:            a8 13 e1 2f  or        %o7, 0x12f, %l4
    0x100004938:            b2 04 80 18  add       %l2, %i0, %i1
    0x10000493c:            19 00 04 00  sethi     %hi(0x100000), %o4
    0x100004940:            a3 2e 70 03  sllx      %i1, 0x3, %l1
    0x100004944:            ad 2d 30 0c  sllx      %l4, 0xc, %l6
    0x100004948:            ba 13 21 2d  or        %o4, 0x12d, %i5
    0x10000494c:            21 00 04 00  sethi     %hi(0x100000), %l0
    0x100004950:            17 00 04 00  sethi     %hi(0x100000), %o3
    0x100004954:            b8 14 21 2e  or        %l0, 0x12e, %i4
    0x100004958:            b5 2f 70 0c  sllx      %i5, 0xc, %i2
    0x10000495c:            94 12 e1 2e  or        %o3, 0x12e, %o2
    0x100004960:            ec 73 a8 e7  stx       %l6, [%sp + 0x8e7]
    0x100004964:            aa 04 60 48  add       %l1, 0x48, %l5
    0x100004968:            ea 73 a8 df  stx       %l5, [%sp + 0x8df]
    0x10000496c:            a8 04 60 30  add       %l1, 0x30, %l4
    0x100004970:            c8 5f a3 7f  ldx       [%fp + 0x37f], %g4
    0x100004974:            b9 2f 30 0c  sllx      %i4, 0xc, %i4
    0x100004978:            ee 73 a8 ef  stx       %l7, [%sp + 0x8ef]
    0x10000497c:            bb 2a b0 0c  sllx      %o2, 0xc, %i5
    0x100004980:            e8 73 a8 d7  stx       %l4, [%sp + 0x8d7]
    0x100004984:            a0 04 60 18  add       %l1, 0x18, %l0
    0x100004988:            c6 59 20 00  ldx       [%g4], %g3
    0x10000498c:            c6 73 a8 ff  stx       %g3, [%sp + 0x8ff]
    0x100004990:            84 00 ff ff  add       %g3, -0x1, %g2
    0x100004994:            b2 00 e0 01  add       %g3, 0x1, %i1
    0x100004998:            f2 73 a9 07  stx       %i1, [%sp + 0x907]
    0x10000499c:            80 a0 80 19  cmp       %g2, %i1
    0x1000049a0:            14 60 03 49  bg,pn     %xcc, +0xd24  <0x1000056c4>
    0x1000049a4:            c4 73 a8 f7  stx       %g2, [%sp + 0x8f7]
    0x1000049a8:            e4 5b a8 ef  ldx       [%sp + 0x8ef], %l2
    0x1000049ac:            ca 59 20 08  ldx       [%g4 + 0x8], %g5
    0x1000049b0:            ca 73 a9 27  stx       %g5, [%sp + 0x927]
    0x1000049b4:            d0 5c a2 b0  ldx       [%l2 + 0x2b0], %o0
    0x1000049b8:            d2 59 20 10  ldx       [%g4 + 0x10], %o1
    0x1000049bc:            d2 73 a9 2f  stx       %o1, [%sp + 0x92f]
    0x1000049c0:            9f 28 f0 03  sllx      %g3, 0x3, %o7
    0x1000049c4:            de 73 a9 3f  stx       %o7, [%sp + 0x93f]
    0x1000049c8:            a6 02 00 0f  add       %o0, %o7, %l3
    0x1000049cc:            9a 01 60 01  add       %g5, 0x1, %o5
    0x1000049d0:            da 73 a9 1f  stx       %o5, [%sp + 0x91f]
    0x1000049d4:            99 2a 70 05  sllx      %o1, 0x5, %o4
    0x1000049d8:            d8 73 a9 17  stx       %o4, [%sp + 0x917]
    0x1000049dc:            97 29 70 03  sllx      %g5, 0x3, %o3
    0x1000049e0:            d6 73 a9 37  stx       %o3, [%sp + 0x937]
    0x1000049e4:            94 02 60 01  add       %o1, 0x1, %o2
    0x1000049e8:            d4 73 a9 4f  stx       %o2, [%sp + 0x94f]
    0x1000049ec:            90 02 7f ff  add       %o1, -0x1, %o0
    0x1000049f0:            d0 73 a9 47  stx       %o0, [%sp + 0x947]
    0x1000049f4:            88 01 7f ff  add       %g5, -0x1, %g4
    0x1000049f8:            c8 73 a9 0f  stx       %g4, [%sp + 0x90f]
    0x1000049fc:            86 10 00 0d  mov       %o5, %g3
    0x100004a00:            c8 5b a9 0f  ldx       [%sp + 0x90f], %g4
    0x100004a04:            80 a1 00 03  cmp       %g4, %g3
    0x100004a08:            14 60 03 28  bg,pn     %xcc, +0xca0  <0x1000056a8>
    0x100004a0c:            f2 5b a8 f7  ldx       [%sp + 0x8f7], %i1
    0x100004a10:            c4 5b a8 ff  ldx       [%sp + 0x8ff], %g2
    0x100004a14:            88 10 20 00  clr       %g4
    0x100004a18:            92 1e 60 02  xor       %i1, 0x2, %o1
    0x100004a1c:            89 7a 64 01  movre     %o1, 0x1, %g4
    0x100004a20:            87 36 70 3f  srlx      %i1, 0x3f, %g3
    0x100004a24:            ee 5b a9 0f  ldx       [%sp + 0x90f], %l7
    0x100004a28:            ee 73 a9 57  stx       %l7, [%sp + 0x957]
    0x100004a2c:            9a 1e 40 02  xor       %i1, %g2, %o5
    0x100004a30:            b0 10 20 00  clr       %i0
    0x100004a34:            ca 5b a9 4f  ldx       [%sp + 0x94f], %g5
    0x100004a38:            86 10 c0 04  or        %g3, %g4, %g3
    0x100004a3c:            c6 23 a9 5f  st        %g3, [%sp + 0x95f]
    0x100004a40:            b1 7b 74 01  movrne    %o5, 0x1, %i0
    0x100004a44:            f0 23 a9 63  st        %i0, [%sp + 0x963]
    0x100004a48:            d0 5b a9 47  ldx       [%sp + 0x947], %o0
    0x100004a4c:            80 a2 00 05  cmp       %o0, %g5
    0x100004a50:            14 60 03 0f  bg,pn     %xcc, +0xc3c  <0x10000568c>
    0x100004a54:            de 5b a9 57  ldx       [%sp + 0x957], %o7
    0x100004a58:            ac 10 20 00  clr       %l6
    0x100004a5c:            ea 5b a9 27  ldx       [%sp + 0x927], %l5
    0x100004a60:            84 1b e0 02  xor       %o7, 0x2, %g2
    0x100004a64:            ae 10 20 00  clr       %l7
    0x100004a68:            e2 03 a9 63  ld        [%sp + 0x963], %l1
    0x100004a6c:            a4 1b c0 15  xor       %o7, %l5, %l2
    0x100004a70:            af 7c b4 01  movrne    %l2, 0x1, %l7
    0x100004a74:            d0 73 a9 67  stx       %o0, [%sp + 0x967]
    0x100004a78:            ad 78 a4 01  movre     %g2, 0x1, %l6
    0x100004a7c:            9f 33 f0 3f  srlx      %o7, 0x3f, %o7
    0x100004a80:            d2 5b a8 e7  ldx       [%sp + 0x8e7], %o1
    0x100004a84:            a4 14 40 17  or        %l1, %l7, %l2
    0x100004a88:            e4 23 a9 73  st        %l2, [%sp + 0x973]
    0x100004a8c:            a8 13 c0 16  or        %o7, %l6, %l4
    0x100004a90:            e8 23 a9 6f  st        %l4, [%sp + 0x96f]
    0x100004a94:            c4 5a 63 20  ldx       [%o1 + 0x320], %g2
    0x100004a98:            80 a0 a0 02  cmp       %g2, 0x2
    0x100004a9c:            12 60 00 15  bne,pn    %xcc, +0x54   <0x100004af0>
    0x100004aa0:            e2 03 a9 5f  ld        [%sp + 0x95f], %l1
    0x100004aa4:            80 90 00 11  tst       %l1
    0x100004aa8:            12 40 02 f2  bne,pn    %icc, +0xbc8  <0x100005670>
    0x100004aac:            d4 03 a9 6f  ld        [%sp + 0x96f], %o2
    0x100004ab0:            80 90 00 0a  tst       %o2
    0x100004ab4:            12 40 02 ef  bne,pn    %icc, +0xbbc  <0x100005670>
    0x100004ab8:            d6 5b a9 67  ldx       [%sp + 0x967], %o3
    0x100004abc:            06 c2 c2 ed  brlz,pn   %o3, +0xbb4   <0x100005670>
    0x100004ac0:            80 a2 e0 02  cmp       %o3, 0x2
    0x100004ac4:            02 60 02 eb  be,pn     %xcc, +0xbac  <0x100005670>
    0x100004ac8:            d0 5b a8 f7  ldx       [%sp + 0x8f7], %o0
    0x100004acc:            ca 5b a9 57  ldx       [%sp + 0x957], %g5
    0x100004ad0:            9a 22 00 02  sub       %o0, %g2, %o5
    0x100004ad4:            80 a2 00 02  cmp       %o0, %g2
    0x100004ad8:            9b 64 d0 08  movl      %xcc, %o0, %o5
    0x100004adc:            a4 21 40 02  sub       %g5, %g2, %l2
    0x100004ae0:            80 a1 40 02  cmp       %g5, %g2
    0x100004ae4:            a5 64 d0 05  movl      %xcc, %g5, %l2
    0x100004ae8:            10 80 00 1d  ba        +0x74         <0x100004b5c>
    0x100004aec:            ec 5b a9 67  ldx       [%sp + 0x967], %l6
    0x100004af0:            da 5b a8 f7  ldx       [%sp + 0x8f7], %o5
    0x100004af4:            80 a3 7f ff  cmp       %o5, -0x1
    0x100004af8:            12 60 00 05  bne,pn    %xcc, +0x14   <0x100004b0c>
    0x100004afc:            a8 10 00 0d  mov       %o5, %l4
    0x100004b00:            9a 00 bf ff  add       %g2, -0x1, %o5
    0x100004b04:            10 80 00 06  ba        +0x18         <0x100004b1c>
    0x100004b08:            e4 5b a9 57  ldx       [%sp + 0x957], %l2
    0x100004b0c:            80 a3 40 02  cmp       %o5, %g2
    0x100004b10:            9a 23 40 02  sub       %o5, %g2, %o5
    0x100004b14:            e4 5b a9 57  ldx       [%sp + 0x957], %l2
    0x100004b18:            9b 64 d0 14  movl      %xcc, %l4, %o5
    0x100004b1c:            80 a4 bf ff  cmp       %l2, -0x1
    0x100004b20:            12 60 00 05  bne,pn    %xcc, +0x14   <0x100004b34>
    0x100004b24:            9e 10 00 12  mov       %l2, %o7
    0x100004b28:            a4 00 bf ff  add       %g2, -0x1, %l2
    0x100004b2c:            10 80 00 06  ba        +0x18         <0x100004b44>
    0x100004b30:            ea 5b a9 67  ldx       [%sp + 0x967], %l5
    0x100004b34:            80 a4 80 02  cmp       %l2, %g2
    0x100004b38:            a4 24 80 02  sub       %l2, %g2, %l2
    0x100004b3c:            ea 5b a9 67  ldx       [%sp + 0x967], %l5
    0x100004b40:            a5 64 d0 0f  movl      %xcc, %o7, %l2
    0x100004b44:            80 a5 7f ff  cmp       %l5, -0x1
    0x100004b48:            12 60 00 04  bne,pn    %xcc, +0x10   <0x100004b58>
    0x100004b4c:            aa 00 bf ff  add       %g2, -0x1, %l5
    0x100004b50:            10 80 00 07  ba        +0x1c         <0x100004b6c>
    0x100004b54:            ee 5b a8 ff  ldx       [%sp + 0x8ff], %l7
    0x100004b58:            ec 5b a9 67  ldx       [%sp + 0x967], %l6
    0x100004b5c:            aa 25 80 02  sub       %l6, %g2, %l5
    0x100004b60:            80 a5 80 02  cmp       %l6, %g2
    0x100004b64:            ee 5b a8 ff  ldx       [%sp + 0x8ff], %l7
    0x100004b68:            ab 64 d0 16  movl      %xcc, %l6, %l5
    0x100004b6c:            80 a3 40 17  cmp       %o5, %l7
    0x100004b70:            12 60 00 0e  bne,pn    %xcc, +0x38   <0x100004ba8>
    0x100004b74:            f0 5b a9 27  ldx       [%sp + 0x927], %i0
    0x100004b78:            80 a4 80 18  cmp       %l2, %i0
    0x100004b7c:            12 60 00 0b  bne,pn    %xcc, +0x2c   <0x100004ba8>
    0x100004b80:            f2 5b a9 2f  ldx       [%sp + 0x92f], %i1
    0x100004b84:            80 a5 40 19  cmp       %l5, %i1
    0x100004b88:            12 60 00 08  bne,pn    %xcc, +0x20   <0x100004ba8>
    0x100004b8c:            c4 03 a9 73  ld        [%sp + 0x973], %g2
    0x100004b90:            80 90 00 02  tst       %g2
    0x100004b94:            12 40 02 b7  bne,pn    %icc, +0xadc  <0x100005670>
    0x100004b98:            c6 5b a9 67  ldx       [%sp + 0x967], %g3
    0x100004b9c:            80 a0 c0 19  cmp       %g3, %i1
    0x100004ba0:            32 60 02 b5  bne,a,pn  %xcc, +0xad4  <0x100005674>
    0x100004ba4:            d8 5b a9 67  ldx       [%sp + 0x967], %o4
    0x100004ba8:            ca 5b a8 ef  ldx       [%sp + 0x8ef], %g5
    0x100004bac:            93 2b 70 03  sllx      %o5, 0x3, %o1
    0x100004bb0:            a3 2c b0 03  sllx      %l2, 0x3, %l1
    0x100004bb4:            ca 59 62 b0  ldx       [%g5 + 0x2b0], %g5
    0x100004bb8:            87 2d 70 05  sllx      %l5, 0x5, %g3
    0x100004bbc:            c8 59 40 09  ldx       [%g5 + %o1], %g4
    0x100004bc0:            da 59 00 11  ldx       [%g4 + %l1], %o5
    0x100004bc4:            e2 5b 40 03  ldx       [%o5 + %g3], %l1
    0x100004bc8:            02 c4 42 aa  brz,pn    %l1, +0xaa8   <0x100005670>
    0x100004bcc:            01 00 00 00  nop
    0x100004bd0:            e4 5c e0 00  ldx       [%l3], %l2
    0x100004bd4:            d2 5b a9 37  ldx       [%sp + 0x937], %o1
    0x100004bd8:            d0 5b a9 17  ldx       [%sp + 0x917], %o0
    0x100004bdc:            d8 5c 80 09  ldx       [%l2 + %o1], %o4
    0x100004be0:            e4 5a 00 0c  ldx       [%o0 + %o4], %l2
    0x100004be4:            02 c4 82 a0  brz,pn    %l2, +0xa80   <0x100005664>
    0x100004be8:            96 04 60 48  add       %l1, 0x48, %o3
    0x100004bec:            d6 73 a9 87  stx       %o3, [%sp + 0x987]
    0x100004bf0:            94 04 60 30  add       %l1, 0x30, %o2
    0x100004bf4:            d4 73 a9 7f  stx       %o2, [%sp + 0x97f]
    0x100004bf8:            92 04 60 18  add       %l1, 0x18, %o1
    0x100004bfc:            d2 73 a9 77  stx       %o1, [%sp + 0x977]
    0x100004c00:            80 a4 80 11  cmp       %l2, %l1
    0x100004c04:            32 60 00 05  bne,a,pn  %xcc, +0x14   <0x100004c18>
    0x100004c08:            cd 1c 60 00  ldd       [%l1], %d6
    0x100004c0c:            e4 5c a2 a0  ldx       [%l2 + 0x2a0], %l2
    0x100004c10:            10 80 02 8f  ba        +0xa3c        <0x10000564c>
    0x100004c14:            01 00 00 00  nop
    0x100004c18:            c9 1c a0 00  ldd       [%l2], %d4
    0x100004c1c:            d9 1f 66 a8  ldd       [%i5 + 0x6a8], %d12
    0x100004c20:            d5 1f 26 a0  ldd       [%i4 + 0x6a0], %d10
    0x100004c24:            d2 5b a9 77  ldx       [%sp + 0x977], %o1
    0x100004c28:            98 07 a7 5f  add       %fp, 0x75f, %o4
    0x100004c2c:            d3 3b a9 8f  std       %d40, [%sp + 0x98f]
    0x100004c30:            7f ff fb 4e  call      -0x12c8       <0x100003968>
    0x100004c34:            90 04 a0 18  add       %l2, 0x18, %o0
    0x100004c38:            cd 1c 60 08  ldd       [%l1 + 0x8], %d6
    0x100004c3c:            c9 1c a0 08  ldd       [%l2 + 0x8], %d4
    0x100004c40:            d9 1f 66 a8  ldd       [%i5 + 0x6a8], %d12
    0x100004c44:            d5 1f 26 a0  ldd       [%i4 + 0x6a0], %d10
    0x100004c48:            d2 5b a9 7f  ldx       [%sp + 0x97f], %o1
    0x100004c4c:            90 04 a0 30  add       %l2, 0x30, %o0
    0x100004c50:            7f ff fb 46  call      -0x12e8       <0x100003968>
    0x100004c54:            98 07 a6 e7  add       %fp, 0x6e7, %o4
    0x100004c58:            cd 1c 60 10  ldd       [%l1 + 0x10], %d6
    0x100004c5c:            c9 1c a0 10  ldd       [%l2 + 0x10], %d4
    0x100004c60:            d9 1f 66 a8  ldd       [%i5 + 0x6a8], %d12
    0x100004c64:            d5 1f 26 a0  ldd       [%i4 + 0x6a0], %d10
    0x100004c68:            d2 5b a9 87  ldx       [%sp + 0x987], %o1
    0x100004c6c:            90 04 a0 48  add       %l2, 0x48, %o0
    0x100004c70:            7f ff fb 3e  call      -0x1308       <0x100003968>
    0x100004c74:            98 07 a6 6f  add       %fp, 0x66f, %o4
    0x100004c78:            cb 1f a6 f7  ldd       [%fp + 0x6f7], %d36
    0x100004c7c:            ff 1f a7 5f  ldd       [%fp + 0x75f], %d62
    0x100004c80:            fb 1f a7 67  ldd       [%fp + 0x767], %d60
    0x100004c84:            c7 1f a6 ef  ldd       [%fp + 0x6ef], %d34
    0x100004c88:            ab a1 49 45  fmuld     %d36, %d36, %d52
    0x100004c8c:            8b a7 c9 5f  fmuld     %d62, %d62, %d36
    0x100004c90:            af a0 c9 43  fmuld     %d34, %d34, %d54
    0x100004c94:            bf a7 49 5d  fmuld     %d60, %d60, %d62
    0x100004c98:            c3 1f a6 e7  ldd       [%fp + 0x6e7], %d32
    0x100004c9c:            e7 1f a7 1f  ldd       [%fp + 0x71f], %d50
    0x100004ca0:            f7 1f a7 27  ldd       [%fp + 0x727], %d58
    0x100004ca4:            c7 1f a7 6f  ldd       [%fp + 0x76f], %d34
    0x100004ca8:            b3 a0 49 41  fmuld     %d32, %d32, %d56
    0x100004cac:            bd a4 c9 53  fmuld     %d50, %d50, %d30
    0x100004cb0:            b9 a6 c9 5b  fmuld     %d58, %d58, %d28
    0x100004cb4:            e7 1f a7 77  ldd       [%fp + 0x777], %d50
    0x100004cb8:            c3 1f a6 ff  ldd       [%fp + 0x6ff], %d32
    0x100004cbc:            b7 a0 c9 43  fmuld     %d34, %d34, %d58
    0x100004cc0:            87 a7 c8 57  faddd     %d62, %d54, %d34
    0x100004cc4:            9b a0 49 41  fmuld     %d32, %d32, %d44
    0x100004cc8:            bf a4 c9 53  fmuld     %d50, %d50, %d62
    0x100004ccc:            e3 1f a7 17  ldd       [%fp + 0x717], %d48
    0x100004cd0:            fb 1f a6 6f  ldd       [%fp + 0x66f], %d60
    0x100004cd4:            cf 1f a7 07  ldd       [%fp + 0x707], %d38
    0x100004cd8:            83 a4 49 51  fmuld     %d48, %d48, %d32
    0x100004cdc:            df 1f a7 0f  ldd       [%fp + 0x70f], %d46
    0x100004ce0:            a7 a7 c8 4d  faddd     %d62, %d44, %d50
    0x100004ce4:            e3 1f a7 7f  ldd       [%fp + 0x77f], %d48
    0x100004ce8:            8b a1 48 59  faddd     %d36, %d56, %d36
    0x100004cec:            9b a7 49 5d  fmuld     %d60, %d60, %d44
    0x100004cf0:            97 a1 c9 47  fmuld     %d38, %d38, %d42
    0x100004cf4:            ab a6 c8 55  faddd     %d58, %d52, %d52
    0x100004cf8:            8f a3 c9 4f  fmuld     %d46, %d46, %d38
    0x100004cfc:            b7 a4 49 51  fmuld     %d48, %d48, %d58
    0x100004d00:            df 1f a7 87  ldd       [%fp + 0x787], %d46
    0x100004d04:            ef 1f a6 77  ldd       [%fp + 0x677], %d54
    0x100004d08:            9b a1 48 4d  faddd     %d36, %d44, %d44
    0x100004d0c:            b3 a3 c9 4f  fmuld     %d46, %d46, %d56
    0x100004d10:            19 00 04 00  sethi     %hi(0x100000), %o4
    0x100004d14:            bf a5 c9 57  fmuld     %d54, %d54, %d62
    0x100004d18:            96 13 21 2e  or        %o4, 0x12e, %o3
    0x100004d1c:            a3 a6 c8 4b  faddd     %d58, %d42, %d48
    0x100004d20:            95 2a f0 0c  sllx      %o3, 0xc, %o2
    0x100004d24:            d7 1a a6 b0  ldd       [%o2 + 0x6b0], %d42
    0x100004d28:            fb 1f a6 7f  ldd       [%fp + 0x67f], %d60
    0x100004d2c:            9f a6 48 47  faddd     %d56, %d38, %d46
    0x100004d30:            81 ab 4a cb  fcmped    %fcc0, %d44, %d42
    0x100004d34:            8f a0 c8 5f  faddd     %d34, %d62, %d38
    0x100004d38:            b3 a7 49 5d  fmuld     %d60, %d60, %d56
    0x100004d3c:            90 10 20 01  mov       0x1, %o0
    0x100004d40:            84 10 20 00  clr       %g2
    0x100004d44:            f7 1f a6 87  ldd       [%fp + 0x687], %d58
    0x100004d48:            85 61 80 08  movg      %fcc0, %o0, %g2
    0x100004d4c:            85 a9 ca cb  fcmped    %fcc2, %d38, %d42
    0x100004d50:            ab a5 48 59  faddd     %d52, %d56, %d52
    0x100004d54:            8b a6 c9 5b  fmuld     %d58, %d58, %d36
    0x100004d58:            ef 1f a6 8f  ldd       [%fp + 0x68f], %d54
    0x100004d5c:            c7 1f a6 97  ldd       [%fp + 0x697], %d34
    0x100004d60:            a6 00 a0 01  add       %g2, 0x1, %l3
    0x100004d64:            a7 63 90 02  movule    %fcc2, %g2, %l3
    0x100004d68:            87 ad 4a cb  fcmped    %fcc3, %d52, %d42
    0x100004d6c:            a7 a4 c8 45  faddd     %d50, %d36, %d50
    0x100004d70:            bf a5 c9 57  fmuld     %d54, %d54, %d62
    0x100004d74:            fb 1f a7 8f  ldd       [%fp + 0x78f], %d60
    0x100004d78:            8b a0 c9 43  fmuld     %d34, %d34, %d36
    0x100004d7c:            b0 04 e0 01  add       %l3, 0x1, %i0
    0x100004d80:            b1 63 98 13  movule    %fcc3, %l3, %i0
    0x100004d84:            83 ac ca cb  fcmped    %fcc1, %d50, %d42
    0x100004d88:            a3 a4 48 5f  faddd     %d48, %d62, %d48
    0x100004d8c:            bf a7 49 5d  fmuld     %d60, %d60, %d62
    0x100004d90:            f7 1f a6 9f  ldd       [%fp + 0x69f], %d58
    0x100004d94:            f3 1f a7 97  ldd       [%fp + 0x797], %d56
    0x100004d98:            b2 06 20 01  add       %i0, 0x1, %i1
    0x100004d9c:            b3 63 88 18  movule    %fcc1, %i0, %i1
    0x100004da0:            81 ac 4a cb  fcmped    %fcc0, %d48, %d42
    0x100004da4:            87 a7 c8 41  faddd     %d62, %d32, %d34
    0x100004da8:            9f a3 c8 45  faddd     %d46, %d36, %d46
    0x100004dac:            83 a6 c9 5b  fmuld     %d58, %d58, %d32
    0x100004db0:            8b a6 49 59  fmuld     %d56, %d56, %d36
    0x100004db4:            ef 1f a7 9f  ldd       [%fp + 0x79f], %d54
    0x100004db8:            ae 06 60 01  add       %i1, 0x1, %l7
    0x100004dbc:            af 63 80 19  movule    %fcc0, %i1, %l7
    0x100004dc0:            ff 1f a6 a7  ldd       [%fp + 0x6a7], %d62
    0x100004dc4:            85 ab ca cb  fcmped    %fcc2, %d46, %d42
    0x100004dc8:            bb a0 c8 41  faddd     %d34, %d32, %d60
    0x100004dcc:            b3 a5 c9 57  fmuld     %d54, %d54, %d56
    0x100004dd0:            b7 a1 48 5e  faddd     %d36, %d30, %d58
    0x100004dd4:            83 a7 c9 5f  fmuld     %d62, %d62, %d32
    0x100004dd8:            ac 05 e0 01  add       %l7, 0x1, %l6
    0x100004ddc:            ad 63 90 17  movule    %fcc2, %l7, %l6
    0x100004de0:            c7 1f a6 af  ldd       [%fp + 0x6af], %d34
    0x100004de4:            af a6 48 5c  faddd     %d56, %d28, %d54
    0x100004de8:            87 af 4a cb  fcmped    %fcc3, %d60, %d42
    0x100004dec:            b3 a6 c8 41  faddd     %d58, %d32, %d56
    0x100004df0:            8b a0 c9 43  fmuld     %d34, %d34, %d36
    0x100004df4:            9e 05 a0 01  add       %l6, 0x1, %o7
    0x100004df8:            fb 3f a6 27  std       %d60, [%fp + 0x627]
    0x100004dfc:            eb 3f a6 07  std       %d52, [%fp + 0x607]
    0x100004e00:            9f 63 98 16  movule    %fcc3, %l6, %o7
    0x100004e04:            83 ae 4a cb  fcmped    %fcc1, %d56, %d42
    0x100004e08:            bf a5 c8 45  faddd     %d54, %d36, %d62
    0x100004e0c:            db 3f a5 f7  std       %d44, [%fp + 0x5f7]
    0x100004e10:            cf 3f a5 ff  std       %d38, [%fp + 0x5ff]
    0x100004e14:            e7 3f a6 0f  std       %d50, [%fp + 0x60f]
    0x100004e18:            a8 03 e0 01  add       %o7, 0x1, %l4
    0x100004e1c:            a9 63 88 0f  movule    %fcc1, %o7, %l4
    0x100004e20:            81 af ca cb  fcmped    %fcc0, %d62, %d42
    0x100004e24:            e3 3f a6 17  std       %d48, [%fp + 0x617]
    0x100004e28:            df 3f a6 1f  std       %d46, [%fp + 0x61f]
    0x100004e2c:            f3 3f a6 2f  std       %d56, [%fp + 0x62f]
    0x100004e30:            d3 1b a9 8f  ldd       [%sp + 0x98f], %d40
    0x100004e34:            98 05 20 01  add       %l4, 0x1, %o4
    0x100004e38:            99 63 80 14  movule    %fcc0, %l4, %o4
    0x100004e3c:            80 a3 20 09  cmp       %o4, 0x9
    0x100004e40:            02 60 02 02  be,pn     %xcc, +0x808  <0x100005648>
    0x100004e44:            ff 3f a6 37  std       %d62, [%fp + 0x637]
    0x100004e48:            c0 77 a5 e7  clrx      [%fp + 0x5e7]
    0x100004e4c:            c0 77 a5 c7  clrx      [%fp + 0x5c7]
    0x100004e50:            c0 77 a5 a7  clrx      [%fp + 0x5a7]
    0x100004e54:            c0 77 a5 df  clrx      [%fp + 0x5df]
    0x100004e58:            c0 77 a5 bf  clrx      [%fp + 0x5bf]
    0x100004e5c:            c0 77 a5 9f  clrx      [%fp + 0x59f]
    0x100004e60:            c0 77 a5 d7  clrx      [%fp + 0x5d7]
    0x100004e64:            c0 77 a5 b7  clrx      [%fp + 0x5b7]
    0x100004e68:            c0 77 a5 97  clrx      [%fp + 0x597]
    0x100004e6c:            c0 77 a5 7f  clrx      [%fp + 0x57f]
    0x100004e70:            c0 77 a5 87  clrx      [%fp + 0x587]
    0x100004e74:            c0 77 a5 8f  clrx      [%fp + 0x58f]
    0x100004e78:            2d 00 04 00  sethi     %hi(0x100000), %l6
    0x100004e7c:            c0 77 a5 cf  clrx      [%fp + 0x5cf]
    0x100004e80:            a6 15 a1 2d  or        %l6, 0x12d, %l3
    0x100004e84:            83 ab 4a cb  fcmped    %fcc1, %d44, %d42
    0x100004e88:            d9 1e ad 78  ldd       [%i2 + 0xd78], %d12
    0x100004e8c:            af 2c f0 0c  sllx      %l3, 0xc, %l7
    0x100004e90:            d5 1d ed 80  ldd       [%l7 + 0xd80], %d10
    0x100004e94:            c0 77 a5 af  clrx      [%fp + 0x5af]
    0x100004e98:            19 50 00 12  fbuge,pn  %fcc1, +0x48   <0x100004ee0>
    0x100004e9c:            2f 00 04 00  sethi     %hi(0x100000), %l7
    0x100004ea0:            a3 a0 05 4d  fsqrtd    %d44, %d48
    0x100004ea4:            8b a3 49 51  fmuld     %d44, %d48, %d36
    0x100004ea8:            17 00 04 00  sethi     %hi(0x100000), %o3
    0x100004eac:            94 12 e1 2e  or        %o3, 0x12e, %o2
    0x100004eb0:            b1 2a b0 0c  sllx      %o2, 0xc, %i0
    0x100004eb4:            c3 1e 23 58  ldd       [%i0 + 0x358], %d32
    0x100004eb8:            87 a0 00 4d  fmovd     %d44, %d34
    0x100004ebc:            33 00 04 00  sethi     %hi(0x100000), %i1
    0x100004ec0:            9b a0 49 c5  fdivd     %d32, %d36, %d44
    0x100004ec4:            a8 16 61 2e  or        %i1, 0x12e, %l4
    0x100004ec8:            ab 2d 30 0c  sllx      %l4, 0xc, %l5
    0x100004ecc:            df 1d 67 38  ldd       [%l5 + 0x738], %d46
    0x100004ed0:            bf a3 48 4f  faddd     %d44, %d46, %d62
    0x100004ed4:            ff 3f a5 7f  std       %d62, [%fp + 0x57f]
    0x100004ed8:            b7 a0 c9 5f  fmuld     %d34, %d62, %d58
    0x100004edc:            93 a2 48 5b  faddd     %d40, %d58, %d40
    0x100004ee0:            15 00 04 00  sethi     %hi(0x100000), %o2
    0x100004ee4:            33 00 04 00  sethi     %hi(0x100000), %i1
    0x100004ee8:            2b 00 04 00  sethi     %hi(0x100000), %l5
    0x100004eec:            b0 12 a1 2e  or        %o2, 0x12e, %i0
    0x100004ef0:            a8 16 61 2e  or        %i1, 0x12e, %l4
    0x100004ef4:            ac 15 61 2e  or        %l5, 0x12e, %l6
    0x100004ef8:            92 15 e1 2e  or        %l7, 0x12e, %o1
    0x100004efc:            a7 2e 30 0c  sllx      %i0, 0xc, %l3
    0x100004f00:            91 2d 30 0c  sllx      %l4, 0xc, %o0
    0x100004f04:            8b 2d b0 0c  sllx      %l6, 0xc, %g5
    0x100004f08:            e7 1c e3 50  ldd       [%l3 + 0x350], %d50
    0x100004f0c:            89 2a 70 0c  sllx      %o1, 0xc, %g4
    0x100004f10:            eb 1a 27 30  ldd       [%o0 + 0x730], %d52
    0x100004f14:            ef 19 62 80  ldd       [%g5 + 0x280], %d54
    0x100004f18:            9e 10 20 01  mov       0x1, %o7
    0x100004f1c:            f3 19 27 28  ldd       [%g4 + 0x728], %d56
    0x100004f20:            86 07 a5 2f  add       %fp, 0x52f, %g3
    0x100004f24:            84 07 a5 ff  add       %fp, 0x5ff, %g2
    0x100004f28:            cf 1f a5 ff  ldd       [%fp + 0x5ff], %d38
    0x100004f2c:            9a 07 a5 87  add       %fp, 0x587, %o5
    0x100004f30:            85 a9 ca cb  fcmped    %fcc2, %d38, %d42
    0x100004f34:            39 60 00 0b  fbuge,a,pn %fcc2, +0x2c   <0x100004f60>
    0x100004f38:            cb 18 a0 20  ldd       [%g2 + 0x20], %d36
    0x100004f3c:            83 a0 05 47  fsqrtd    %d38, %d32
    0x100004f40:            9f a1 c9 41  fmuld     %d38, %d32, %d46
    0x100004f44:            cb 18 a0 20  ldd       [%g2 + 0x20], %d36
    0x100004f48:            9b a4 c9 cf  fdivd     %d50, %d46, %d44
    0x100004f4c:            bf a3 48 55  faddd     %d44, %d52, %d62
    0x100004f50:            87 a0 00 df  fnegd     %d62, %d34
    0x100004f54:            c7 3b 60 00  std       %d34, [%o5]
    0x100004f58:            bb a0 c9 47  fmuld     %d34, %d38, %d60
    0x100004f5c:            93 a2 48 5d  faddd     %d40, %d60, %d40
    0x100004f60:            87 a9 4a cb  fcmped    %fcc3, %d36, %d42
    0x100004f64:            0b 70 00 0a  fbug,pn   %fcc3, +0x28   <0x100004f8c>
    0x100004f68:            9e 03 e0 01  add       %o7, 0x1, %o7
    0x100004f6c:            bf a0 05 45  fsqrtd    %d36, %d62
    0x100004f70:            87 a1 49 5f  fmuld     %d36, %d62, %d34
    0x100004f74:            ff 38 e0 00  std       %d62, [%g3]
    0x100004f78:            8f a5 c9 c3  fdivd     %d54, %d34, %d38
    0x100004f7c:            a3 a1 c8 59  faddd     %d38, %d56, %d48
    0x100004f80:            e3 3b 60 20  std       %d48, [%o5 + 0x20]
    0x100004f84:            b7 a4 49 45  fmuld     %d48, %d36, %d58
    0x100004f88:            93 a2 48 5b  faddd     %d40, %d58, %d40
    0x100004f8c:            80 a3 e0 04  cmp       %o7, 0x4
    0x100004f90:            84 00 a0 08  add       %g2, 0x8, %g2
    0x100004f94:            9a 03 60 08  add       %o5, 0x8, %o5
    0x100004f98:            86 00 e0 08  add       %g3, 0x8, %g3
    0x100004f9c:            24 6f ff e5  ble,a,pt  %xcc, -0x6c   <0x100004f30>
    0x100004fa0:            cf 18 a0 00  ldd       [%g2], %d38
    0x100004fa4:            0a c3 00 a6  brnz,pn   %o4, +0x298   <0x10000523c>
    0x100004fa8:            31 00 04 00  sethi     %hi(0x100000), %i0
    0x100004fac:            df 1f a7 2f  ldd       [%fp + 0x72f], %d46
    0x100004fb0:            c3 1f a7 a7  ldd       [%fp + 0x7a7], %d32
    0x100004fb4:            f7 1f a6 b7  ldd       [%fp + 0x6b7], %d58
    0x100004fb8:            d3 3b a9 8f  std       %d40, [%sp + 0x98f]
    0x100004fbc:            d5 3b a9 97  std       %d10, [%sp + 0x997]
    0x100004fc0:            d9 3b a9 c7  std       %d12, [%sp + 0x9c7]
    0x100004fc4:            19 00 04 00  sethi     %hi(0x100000), %o4
    0x100004fc8:            11 00 04 00  sethi     %hi(0x100000), %o0
    0x100004fcc:            96 13 21 2d  or        %o4, 0x12d, %o3
    0x100004fd0:            92 12 21 2e  or        %o0, 0x12e, %o1
    0x100004fd4:            95 2a f0 0c  sllx      %o3, 0xc, %o2
    0x100004fd8:            eb 1a ad 70  ldd       [%o2 + 0xd70], %d52
    0x100004fdc:            eb 3b a9 9f  std       %d52, [%sp + 0x99f]
    0x100004fe0:            a9 2a 70 0c  sllx      %o1, 0xc, %l4
    0x100004fe4:            e7 1d 22 a8  ldd       [%l4 + 0x2a8], %d50
    0x100004fe8:            e7 3b a9 a7  std       %d50, [%sp + 0x9a7]
    0x100004fec:            1b 00 04 00  sethi     %hi(0x100000), %o5
    0x100004ff0:            33 00 04 00  sethi     %hi(0x100000), %i1
    0x100004ff4:            aa 13 61 2e  or        %o5, 0x12e, %l5
    0x100004ff8:            ac 16 61 2d  or        %i1, 0x12d, %l6
    0x100004ffc:            85 2d 70 0c  sllx      %l5, 0xc, %g2
    0x100005000:            db 18 a2 a0  ldd       [%g2 + 0x2a0], %d44
    0x100005004:            db 3b a9 af  std       %d44, [%sp + 0x9af]
    0x100005008:            9f 2d b0 0c  sllx      %l6, 0xc, %o7
    0x10000500c:            d7 1b ed 60  ldd       [%o7 + 0xd60], %d42
    0x100005010:            d7 3b a9 cf  std       %d42, [%sp + 0x9cf]
    0x100005014:            ae 16 21 2d  or        %i0, 0x12d, %l7
    0x100005018:            0b 00 04 00  sethi     %hi(0x100000), %g5
    0x10000501c:            a7 2d f0 0c  sllx      %l7, 0xc, %l3
    0x100005020:            d3 1c ed 58  ldd       [%l3 + 0xd58], %d40
    0x100005024:            88 11 61 2d  or        %g5, 0x12d, %g4
    0x100005028:            31 00 04 00  sethi     %hi(0x100000), %i0
    0x10000502c:            87 29 30 0c  sllx      %g4, 0xc, %g3
    0x100005030:            e3 18 ed 68  ldd       [%g3 + 0xd68], %d48
    0x100005034:            e3 3b a9 b7  std       %d48, [%sp + 0x9b7]
    0x100005038:            ae 16 21 2e  or        %i0, 0x12e, %l7
    0x10000503c:            a7 2d f0 0c  sllx      %l7, 0xc, %l3
    0x100005040:            ae 10 20 0a  mov       0xa, %l7
    0x100005044:            ab a3 c9 4f  fmuld     %d46, %d46, %d52
    0x100005048:            a7 a0 49 41  fmuld     %d32, %d32, %d50
    0x10000504c:            df 1c e2 98  ldd       [%l3 + 0x298], %d46
    0x100005050:            df 3b a9 bf  std       %d46, [%sp + 0x9bf]
    0x100005054:            97 a6 c9 5b  fmuld     %d58, %d58, %d42
    0x100005058:            9b a4 c8 55  faddd     %d50, %d52, %d44
    0x10000505c:            af a3 48 4b  faddd     %d44, %d42, %d54
    0x100005060:            ef 3b a9 e7  std       %d54, [%sp + 0x9e7]
    0x100005064:            ef 3f a6 3f  std       %d54, [%fp + 0x63f]
    0x100005068:            87 a0 05 57  fsqrtd    %d54, %d34
    0x10000506c:            c7 3b a9 df  std       %d34, [%sp + 0x9df]
    0x100005070:            c7 3f a5 4f  std       %d34, [%fp + 0x54f]
    0x100005074:            a3 a0 c9 49  fmuld     %d34, %d40, %d48
    0x100005078:            40 00 14 2a  call      +0x50a8       <0x10000a120>
    0x10000507c:            81 a0 00 d1  fnegd     %d48, %d0
    0x100005080:            ff 1e e0 10  ldd       [%i3 + 0x10], %d62
    0x100005084:            c7 1b a9 df  ldd       [%sp + 0x9df], %d34
    0x100005088:            ef 1b a9 e7  ldd       [%sp + 0x9e7], %d54
    0x10000508c:            d3 1b a9 8f  ldd       [%sp + 0x98f], %d40
    0x100005090:            8f a7 c9 c3  fdivd     %d62, %d34, %d38
    0x100005094:            19 00 04 00  sethi     %hi(0x100000), %o4
    0x100005098:            96 13 21 2e  or        %o4, 0x12e, %o3
    0x10000509c:            95 2a f0 0c  sllx      %o3, 0xc, %o2
    0x1000050a0:            fb 1a a2 90  ldd       [%o2 + 0x290], %d60
    0x1000050a4:            df 1b a9 bf  ldd       [%sp + 0x9bf], %d46
    0x1000050a8:            eb 1b a9 9f  ldd       [%sp + 0x99f], %d52
    0x1000050ac:            b3 a7 49 47  fmuld     %d60, %d38, %d56
    0x1000050b0:            d5 1b a9 97  ldd       [%sp + 0x997], %d10
    0x1000050b4:            e7 1b a9 a7  ldd       [%sp + 0x9a7], %d50
    0x1000050b8:            db 1b a9 af  ldd       [%sp + 0x9af], %d44
    0x1000050bc:            e3 1b a9 b7  ldd       [%sp + 0x9b7], %d48
    0x1000050c0:            d9 1b a9 c7  ldd       [%sp + 0x9c7], %d12
    0x1000050c4:            8b a6 49 40  fmuld     %d56, %d0, %d36
    0x1000050c8:            aa 07 a6 1f  add       %fp, 0x61f, %l5
    0x1000050cc:            ac 07 a5 a7  add       %fp, 0x5a7, %l6
    0x1000050d0:            cb 3f a5 c7  std       %d36, [%fp + 0x5c7]
    0x1000050d4:            a8 07 a5 2f  add       %fp, 0x52f, %l4
    0x1000050d8:            d7 1b a9 cf  ldd       [%sp + 0x9cf], %d42
    0x1000050dc:            83 a5 c9 45  fmuld     %d54, %d36, %d32
    0x1000050e0:            a6 07 a7 af  add       %fp, 0x7af, %l3
    0x1000050e4:            b2 07 a7 37  add       %fp, 0x737, %i1
    0x1000050e8:            cb 1f a5 2f  ldd       [%fp + 0x52f], %d36
    0x1000050ec:            b0 07 a6 bf  add       %fp, 0x6bf, %i0
    0x1000050f0:            93 a2 48 41  faddd     %d40, %d32, %d40
    0x1000050f4:            d3 3b a9 8f  std       %d40, [%sp + 0x98f]
    0x1000050f8:            d5 3b a9 97  std       %d10, [%sp + 0x997]
    0x1000050fc:            eb 3b a9 9f  std       %d52, [%sp + 0x99f]
    0x100005100:            db 3b a9 af  std       %d44, [%sp + 0x9af]
    0x100005104:            e3 3b a9 b7  std       %d48, [%sp + 0x9b7]
    0x100005108:            df 3b a9 bf  std       %d46, [%sp + 0x9bf]
    0x10000510c:            d9 3b a9 c7  std       %d12, [%sp + 0x9c7]
    0x100005110:            e7 3b a9 a7  std       %d50, [%sp + 0x9a7]
    0x100005114:            d7 3b a9 cf  std       %d42, [%sp + 0x9cf]
    0x100005118:            cb 3b a9 ff  std       %d36, [%sp + 0x9ff]
    0x10000511c:            ae 05 e0 01  add       %l7, 0x1, %l7
    0x100005120:            93 a1 49 4b  fmuld     %d36, %d42, %d40
    0x100005124:            40 00 13 ff  call      +0x4ffc       <0x10000a120>
    0x100005128:            81 a0 00 c9  fnegd     %d40, %d0
    0x10000512c:            db 1e e0 10  ldd       [%i3 + 0x10], %d44
    0x100005130:            cb 1b a9 ff  ldd       [%sp + 0x9ff], %d36
    0x100005134:            f7 1e 60 00  ldd       [%i1], %d58
    0x100005138:            f3 1c e0 00  ldd       [%l3], %d56
    0x10000513c:            bf a3 49 c5  fdivd     %d44, %d36, %d62
    0x100005140:            c3 1e 20 00  ldd       [%i0], %d32
    0x100005144:            df 1b a9 bf  ldd       [%sp + 0x9bf], %d46
    0x100005148:            eb 1d 60 00  ldd       [%l5], %d52
    0x10000514c:            e7 1d a0 00  ldd       [%l6], %d50
    0x100005150:            d3 1b a9 8f  ldd       [%sp + 0x98f], %d40
    0x100005154:            e3 1b a9 b7  ldd       [%sp + 0x9b7], %d48
    0x100005158:            b0 06 20 08  add       %i0, 0x8, %i0
    0x10000515c:            b2 06 60 08  add       %i1, 0x8, %i1
    0x100005160:            a6 04 e0 08  add       %l3, 0x8, %l3
    0x100005164:            87 a6 c9 5b  fmuld     %d58, %d58, %d34
    0x100005168:            bb a6 49 59  fmuld     %d56, %d56, %d60
    0x10000516c:            af a0 49 41  fmuld     %d32, %d32, %d54
    0x100005170:            9f a3 c9 5f  fmuld     %d46, %d62, %d46
    0x100005174:            97 a7 48 43  faddd     %d60, %d34, %d42
    0x100005178:            8f a3 c9 40  fmuld     %d46, %d0, %d38
    0x10000517c:            b3 a2 c8 57  faddd     %d42, %d54, %d56
    0x100005180:            f3 3b a9 f7  std       %d56, [%sp + 0x9f7]
    0x100005184:            f3 3d 60 28  std       %d56, [%l5 + 0x28]
    0x100005188:            aa 05 60 08  add       %l5, 0x8, %l5
    0x10000518c:            8b a1 c9 55  fmuld     %d38, %d52, %d36
    0x100005190:            9b a4 c8 47  faddd     %d50, %d38, %d44
    0x100005194:            b7 a0 05 59  fsqrtd    %d56, %d58
    0x100005198:            f7 3b a9 ef  std       %d58, [%sp + 0x9ef]
    0x10000519c:            db 3d a0 00  std       %d44, [%l6]
    0x1000051a0:            f7 3d 20 28  std       %d58, [%l4 + 0x28]
    0x1000051a4:            a8 05 20 08  add       %l4, 0x8, %l4
    0x1000051a8:            af a2 48 45  faddd     %d40, %d36, %d54
    0x1000051ac:            ef 3b a9 e7  std       %d54, [%sp + 0x9e7]
    0x1000051b0:            a3 a6 c9 51  fmuld     %d58, %d48, %d48
    0x1000051b4:            40 00 13 db  call      +0x4f6c       <0x10000a120>
    0x1000051b8:            81 a0 00 d1  fnegd     %d48, %d0
    0x1000051bc:            db 1b a9 af  ldd       [%sp + 0x9af], %d44
    0x1000051c0:            eb 1b a9 9f  ldd       [%sp + 0x99f], %d52
    0x1000051c4:            f7 1b a9 ef  ldd       [%sp + 0x9ef], %d58
    0x1000051c8:            bf a0 09 4d  fmuld     %d0, %d44, %d62
    0x1000051cc:            ff 3b a9 df  std       %d62, [%sp + 0x9df]
    0x1000051d0:            93 a6 c9 55  fmuld     %d58, %d52, %d40
    0x1000051d4:            40 00 13 d3  call      +0x4f4c       <0x10000a120>
    0x1000051d8:            81 a0 00 c9  fnegd     %d40, %d0
    0x1000051dc:            f3 1e e0 10  ldd       [%i3 + 0x10], %d56
    0x1000051e0:            f7 1b a9 ef  ldd       [%sp + 0x9ef], %d58
    0x1000051e4:            e7 1b a9 a7  ldd       [%sp + 0x9a7], %d50
    0x1000051e8:            ff 1b a9 df  ldd       [%sp + 0x9df], %d62
    0x1000051ec:            bb a6 49 db  fdivd     %d56, %d58, %d60
    0x1000051f0:            83 a0 09 53  fmuld     %d0, %d50, %d32
    0x1000051f4:            f3 1b a9 f7  ldd       [%sp + 0x9f7], %d56
    0x1000051f8:            ef 1b a9 e7  ldd       [%sp + 0x9e7], %d54
    0x1000051fc:            d9 1b a9 c7  ldd       [%sp + 0x9c7], %d12
    0x100005200:            db 1b a9 af  ldd       [%sp + 0x9af], %d44
    0x100005204:            d5 1b a9 97  ldd       [%sp + 0x997], %d10
    0x100005208:            87 a7 c8 c1  fsubd     %d62, %d32, %d34
    0x10000520c:            eb 1b a9 9f  ldd       [%sp + 0x99f], %d52
    0x100005210:            e3 1b a9 b7  ldd       [%sp + 0x9b7], %d48
    0x100005214:            df 1b a9 bf  ldd       [%sp + 0x9bf], %d46
    0x100005218:            80 a5 e0 0d  cmp       %l7, 0xd
    0x10000521c:            d7 1b a9 cf  ldd       [%sp + 0x9cf], %d42
    0x100005220:            8f a7 49 43  fmuld     %d60, %d34, %d38
    0x100005224:            cf 3d a0 28  std       %d38, [%l6 + 0x28]
    0x100005228:            ac 05 a0 08  add       %l6, 0x8, %l6
    0x10000522c:            8b a1 c9 59  fmuld     %d38, %d56, %d36
    0x100005230:            93 a5 c8 45  faddd     %d54, %d36, %d40
    0x100005234:            24 6f ff b0  ble,a,pt  %xcc, -0x140  <0x1000050f4>
    0x100005238:            cb 1d 20 00  ldd       [%l4], %d36
    0x10000523c:            f1 1f a5 97  ldd       [%fp + 0x597], %d24
    0x100005240:            fb 1f a7 77  ldd       [%fp + 0x777], %d60
    0x100005244:            ed 1f a5 8f  ldd       [%fp + 0x58f], %d22
    0x100005248:            fd 1f a5 9f  ldd       [%fp + 0x59f], %d30
    0x10000524c:            f3 1f a7 6f  ldd       [%fp + 0x76f], %d56
    0x100005250:            ff 1f a6 8f  ldd       [%fp + 0x68f], %d62
    0x100005254:            89 a6 09 5d  fmuld     %d24, %d60, %d4
    0x100005258:            c3 1f a5 a7  ldd       [%fp + 0x5a7], %d32
    0x10000525c:            f7 1f a6 97  ldd       [%fp + 0x697], %d58
    0x100005260:            fb 1f a7 7f  ldd       [%fp + 0x77f], %d60
    0x100005264:            85 a5 89 59  fmuld     %d22, %d56, %d2
    0x100005268:            bf a7 89 5f  fmuld     %d30, %d62, %d62
    0x10000526c:            d7 1f a5 af  ldd       [%fp + 0x5af], %d42
    0x100005270:            ef 1f a7 8f  ldd       [%fp + 0x78f], %d54
    0x100005274:            b7 a0 49 5b  fmuld     %d32, %d58, %d58
    0x100005278:            f3 1f a6 9f  ldd       [%fp + 0x69f], %d56
    0x10000527c:            ff 3f a4 17  std       %d62, [%fp + 0x417]
    0x100005280:            bf a7 89 5d  fmuld     %d30, %d60, %d62
    0x100005284:            f7 3f a4 2f  std       %d58, [%fp + 0x42f]
    0x100005288:            af a2 c9 57  fmuld     %d42, %d54, %d54
    0x10000528c:            ff 3f a4 07  std       %d62, [%fp + 0x407]
    0x100005290:            bf a2 c9 59  fmuld     %d42, %d56, %d62
    0x100005294:            db 1f a5 b7  ldd       [%fp + 0x5b7], %d44
    0x100005298:            fb 1f a6 a7  ldd       [%fp + 0x6a7], %d60
    0x10000529c:            ff 3f a4 47  std       %d62, [%fp + 0x447]
    0x1000052a0:            f7 1f a7 1f  ldd       [%fp + 0x71f], %d58
    0x1000052a4:            ef 3f a4 37  std       %d54, [%fp + 0x437]
    0x1000052a8:            df 1f a5 bf  ldd       [%fp + 0x5bf], %d46
    0x1000052ac:            ef 1f a7 27  ldd       [%fp + 0x727], %d54
    0x1000052b0:            f3 1f a7 9f  ldd       [%fp + 0x79f], %d56
    0x1000052b4:            bf a3 49 5d  fmuld     %d44, %d60, %d62
    0x1000052b8:            e3 1f a6 af  ldd       [%fp + 0x6af], %d48
    0x1000052bc:            bb a3 49 5b  fmuld     %d44, %d58, %d60
    0x1000052c0:            ff 3f a4 5f  std       %d62, [%fp + 0x45f]
    0x1000052c4:            bf a3 c9 57  fmuld     %d46, %d54, %d62
    0x1000052c8:            b3 a3 c9 59  fmuld     %d46, %d56, %d56
    0x1000052cc:            fb 3f a4 57  std       %d60, [%fp + 0x457]
    0x1000052d0:            bb a3 c9 51  fmuld     %d46, %d48, %d60
    0x1000052d4:            ff 3f a4 6f  std       %d62, [%fp + 0x46f]
    0x1000052d8:            cb 1f a5 c7  ldd       [%fp + 0x5c7], %d36
    0x1000052dc:            c1 1f a7 2f  ldd       [%fp + 0x72f], %d0
    0x1000052e0:            f7 1f a7 a7  ldd       [%fp + 0x7a7], %d58
    0x1000052e4:            fb 3f a4 77  std       %d60, [%fp + 0x477]
    0x1000052e8:            f3 3f a4 67  std       %d56, [%fp + 0x467]
    0x1000052ec:            c7 1f a5 cf  ldd       [%fp + 0x5cf], %d34
    0x1000052f0:            f3 1f a7 37  ldd       [%fp + 0x737], %d56
    0x1000052f4:            cf 1f a6 b7  ldd       [%fp + 0x6b7], %d38
    0x1000052f8:            bb a1 49 40  fmuld     %d36, %d0, %d60
    0x1000052fc:            bf a1 49 5b  fmuld     %d36, %d58, %d62
    0x100005300:            c1 1f a6 bf  ldd       [%fp + 0x6bf], %d0
    0x100005304:            ef 1f a7 af  ldd       [%fp + 0x7af], %d54
    0x100005308:            ff 3f a4 7f  std       %d62, [%fp + 0x47f]
    0x10000530c:            bf a0 c9 59  fmuld     %d34, %d56, %d62
    0x100005310:            8f a1 49 47  fmuld     %d36, %d38, %d38
    0x100005314:            df 1f a7 17  ldd       [%fp + 0x717], %d46
    0x100005318:            cf 3f a4 8f  std       %d38, [%fp + 0x48f]
    0x10000531c:            b3 a0 c9 40  fmuld     %d34, %d0, %d56
    0x100005320:            af a0 c9 57  fmuld     %d34, %d54, %d54
    0x100005324:            fb 3f a4 87  std       %d60, [%fp + 0x487]
    0x100005328:            cb 1f a7 0f  ldd       [%fp + 0x70f], %d36
    0x10000532c:            c7 1f a7 87  ldd       [%fp + 0x787], %d34
    0x100005330:            ff 3f a4 9f  std       %d62, [%fp + 0x49f]
    0x100005334:            9f a2 c9 4f  fmuld     %d42, %d46, %d46
    0x100005338:            ff 1f a7 07  ldd       [%fp + 0x707], %d62
    0x10000533c:            e9 1f a5 7f  ldd       [%fp + 0x57f], %d20
    0x100005340:            d7 1f a6 e7  ldd       [%fp + 0x6e7], %d42
    0x100005344:            87 a0 49 43  fmuld     %d32, %d34, %d34
    0x100005348:            8b a0 49 45  fmuld     %d32, %d36, %d36
    0x10000534c:            83 a7 89 5f  fmuld     %d30, %d62, %d32
    0x100005350:            b7 a5 09 4b  fmuld     %d20, %d42, %d58
    0x100005354:            ff 1f a6 f7  ldd       [%fp + 0x6f7], %d62
    0x100005358:            f5 1f a5 d7  ldd       [%fp + 0x5d7], %d26
    0x10000535c:            d7 1f a7 3f  ldd       [%fp + 0x73f], %d42
    0x100005360:            e5 1f a5 87  ldd       [%fp + 0x587], %d18
    0x100005364:            fb 1f a6 ef  ldd       [%fp + 0x6ef], %d60
    0x100005368:            81 a5 89 5f  fmuld     %d22, %d62, %d0
    0x10000536c:            bf a6 89 4b  fmuld     %d26, %d42, %d62
    0x100005370:            bd a4 89 5d  fmuld     %d18, %d60, %d30
    0x100005374:            f9 1f a6 c7  ldd       [%fp + 0x6c7], %d28
    0x100005378:            e3 1f a7 97  ldd       [%fp + 0x797], %d48
    0x10000537c:            f3 3f a4 a7  std       %d56, [%fp + 0x4a7]
    0x100005380:            fb 1f a6 87  ldd       [%fp + 0x687], %d60
    0x100005384:            ef 3f a4 97  std       %d54, [%fp + 0x497]
    0x100005388:            cf 1f a7 b7  ldd       [%fp + 0x7b7], %d38
    0x10000538c:            ff 3f a4 b7  std       %d62, [%fp + 0x4b7]
    0x100005390:            97 a6 89 5c  fmuld     %d26, %d28, %d42
    0x100005394:            a3 a3 49 51  fmuld     %d44, %d48, %d48
    0x100005398:            ff 1f a6 7f  ldd       [%fp + 0x67f], %d62
    0x10000539c:            b9 a6 09 5d  fmuld     %d24, %d60, %d28
    0x1000053a0:            db 1f a6 ff  ldd       [%fp + 0x6ff], %d44
    0x1000053a4:            8f a6 89 47  fmuld     %d26, %d38, %d38
    0x1000053a8:            fb 1f a6 6f  ldd       [%fp + 0x66f], %d60
    0x1000053ac:            b5 a5 89 5f  fmuld     %d22, %d62, %d26
    0x1000053b0:            dd 1f a5 df  ldd       [%fp + 0x5df], %d14
    0x1000053b4:            f3 1f a7 bf  ldd       [%fp + 0x7bf], %d56
    0x1000053b8:            9b a6 09 4d  fmuld     %d24, %d44, %d44
    0x1000053bc:            ff 1f a6 77  ldd       [%fp + 0x677], %d62
    0x1000053c0:            b1 a5 09 5d  fmuld     %d20, %d60, %d24
    0x1000053c4:            e1 1f a6 cf  ldd       [%fp + 0x6cf], %d16
    0x1000053c8:            bb a3 89 59  fmuld     %d14, %d56, %d60
    0x1000053cc:            ef 1f a7 47  ldd       [%fp + 0x747], %d54
    0x1000053d0:            d7 3f a4 bf  std       %d42, [%fp + 0x4bf]
    0x1000053d4:            ad a4 89 5f  fmuld     %d18, %d62, %d22
    0x1000053d8:            cd 1f a5 e7  ldd       [%fp + 0x5e7], %d6
    0x1000053dc:            d7 1f a7 c7  ldd       [%fp + 0x7c7], %d42
    0x1000053e0:            fb 3f a4 c7  std       %d60, [%fp + 0x4c7]
    0x1000053e4:            bf a3 89 50  fmuld     %d14, %d16, %d62
    0x1000053e8:            f3 1f a7 4f  ldd       [%fp + 0x74f], %d56
    0x1000053ec:            cf 3f a4 af  std       %d38, [%fp + 0x4af]
    0x1000053f0:            af a3 89 57  fmuld     %d14, %d54, %d54
    0x1000053f4:            d1 1f a6 d7  ldd       [%fp + 0x6d7], %d8
    0x1000053f8:            ff 3f a4 d7  std       %d62, [%fp + 0x4d7]
    0x1000053fc:            8f a1 89 4b  fmuld     %d6, %d42, %d38
    0x100005400:            ef 3f a4 cf  std       %d54, [%fp + 0x4cf]
    0x100005404:            bb a1 89 59  fmuld     %d6, %d56, %d60
    0x100005408:            cf 3f a4 df  std       %d38, [%fp + 0x4df]
    0x10000540c:            bf a1 89 48  fmuld     %d6, %d8, %d62
    0x100005410:            fb 3f a4 e7  std       %d60, [%fp + 0x4e7]
    0x100005414:            ff 3f a4 ef  std       %d62, [%fp + 0x4ef]
    0x100005418:            e3 3f a4 4f  std       %d48, [%fp + 0x44f]
    0x10000541c:            df 3f a4 3f  std       %d46, [%fp + 0x43f]
    0x100005420:            c7 3f a4 1f  std       %d34, [%fp + 0x41f]
    0x100005424:            f9 3f a3 ff  std       %d28, [%fp + 0x3ff]
    0x100005428:            cb 3f a4 27  std       %d36, [%fp + 0x427]
    0x10000542c:            c3 3f a4 0f  std       %d32, [%fp + 0x40f]
    0x100005430:            c9 3f a3 ef  std       %d4, [%fp + 0x3ef]
    0x100005434:            e7 1f a7 5f  ldd       [%fp + 0x75f], %d50
    0x100005438:            ed 3f a3 cf  std       %d22, [%fp + 0x3cf]
    0x10000543c:            db 3f a3 f7  std       %d44, [%fp + 0x3f7]
    0x100005440:            eb 1f a7 67  ldd       [%fp + 0x767], %d52
    0x100005444:            c5 3f a3 d7  std       %d2, [%fp + 0x3d7]
    0x100005448:            a7 a5 09 53  fmuld     %d20, %d50, %d50
    0x10000544c:            f1 3f a3 b7  std       %d24, [%fp + 0x3b7]
    0x100005450:            e7 3f a3 a7  std       %d50, [%fp + 0x3a7]
    0x100005454:            ab a4 89 55  fmuld     %d18, %d52, %d52
    0x100005458:            f7 3f a3 af  std       %d58, [%fp + 0x3af]
    0x10000545c:            eb 3f a3 bf  std       %d52, [%fp + 0x3bf]
    0x100005460:            fd 3f a3 c7  std       %d30, [%fp + 0x3c7]
    0x100005464:            c1 3f a3 df  std       %d0, [%fp + 0x3df]
    0x100005468:            f5 3f a3 e7  std       %d26, [%fp + 0x3e7]
    0x10000546c:            df 1f a4 37  ldd       [%fp + 0x437], %d46
    0x100005470:            a3 a5 48 42  faddd     %d52, %d2, %d48
    0x100005474:            cb 1f a3 a7  ldd       [%fp + 0x3a7], %d36
    0x100005478:            b7 a0 c8 4f  faddd     %d34, %d46, %d58
    0x10000547c:            c7 1f a4 c7  ldd       [%fp + 0x4c7], %d34
    0x100005480:            ab a1 49 4c  fmuld     %d36, %d12, %d52
    0x100005484:            fb 1f a4 7f  ldd       [%fp + 0x47f], %d60
    0x100005488:            83 a4 48 45  faddd     %d48, %d36, %d32
    0x10000548c:            e7 1c 00 12  ldd       [%l0 + %l2], %d50
    0x100005490:            b3 a6 c8 43  faddd     %d58, %d34, %d56
    0x100005494:            ef 1f a3 af  ldd       [%fp + 0x3af], %d54
    0x100005498:            ab a7 48 55  faddd     %d60, %d52, %d52
    0x10000549c:            cb 1f a4 8f  ldd       [%fp + 0x48f], %d36
    0x1000054a0:            87 a2 89 41  fmuld     %d10, %d32, %d34
    0x1000054a4:            df 1f a4 87  ldd       [%fp + 0x487], %d46
    0x1000054a8:            bf a6 48 44  faddd     %d56, %d4, %d62
    0x1000054ac:            83 a7 88 40  faddd     %d30, %d0, %d32
    0x1000054b0:            b3 a5 c9 4c  fmuld     %d54, %d12, %d56
    0x1000054b4:            b2 04 80 10  add       %l2, %l0, %i1
    0x1000054b8:            f0 5b a8 d7  ldx       [%sp + 0x8d7], %i0
    0x1000054bc:            ee 5b a8 df  ldx       [%sp + 0x8df], %l7
    0x1000054c0:            bf a7 c8 43  faddd     %d62, %d34, %d62
    0x1000054c4:            ac 04 80 18  add       %l2, %i0, %l6
    0x1000054c8:            9e 04 80 17  add       %l2, %l7, %o7
    0x1000054cc:            bb a7 c8 53  faddd     %d62, %d50, %d60
    0x1000054d0:            fb 3c 00 12  std       %d60, [%l0 + %l2]
    0x1000054d4:            ff 1f a4 af  ldd       [%fp + 0x4af], %d62
    0x1000054d8:            f7 1e ad 78  ldd       [%i2 + 0xd78], %d58
    0x1000054dc:            fb 1f a4 97  ldd       [%fp + 0x497], %d60
    0x1000054e0:            e7 1e 60 08  ldd       [%i1 + 0x8], %d50
    0x1000054e4:            b7 a6 c9 51  fmuld     %d58, %d48, %d58
    0x1000054e8:            bf a7 48 5f  faddd     %d60, %d62, %d62
    0x1000054ec:            bb a0 48 57  faddd     %d32, %d54, %d60
    0x1000054f0:            af a3 c8 59  faddd     %d46, %d56, %d54
    0x1000054f4:            b3 a6 09 4c  fmuld     %d24, %d12, %d56
    0x1000054f8:            e3 1e 60 10  ldd       [%i1 + 0x10], %d48
    0x1000054fc:            9f a5 88 5a  faddd     %d22, %d26, %d46
    0x100005500:            9b a7 c8 55  faddd     %d62, %d52, %d44
    0x100005504:            ab a2 89 5d  fmuld     %d10, %d60, %d52
    0x100005508:            97 a3 c8 58  faddd     %d46, %d24, %d42
    0x10000550c:            bf a3 48 5b  faddd     %d44, %d58, %d62
    0x100005510:            9b a1 48 59  faddd     %d36, %d56, %d44
    0x100005514:            97 a2 89 4b  fmuld     %d10, %d42, %d42
    0x100005518:            bb a7 c8 53  faddd     %d62, %d50, %d60
    0x10000551c:            fb 3e 60 08  std       %d60, [%i1 + 0x8]
    0x100005520:            cf 1f a4 67  ldd       [%fp + 0x467], %d38
    0x100005524:            cb 1f a4 4f  ldd       [%fp + 0x44f], %d36
    0x100005528:            f7 1f a4 df  ldd       [%fp + 0x4df], %d58
    0x10000552c:            f3 1f a4 07  ldd       [%fp + 0x407], %d56
    0x100005530:            a7 a1 48 47  faddd     %d36, %d38, %d50
    0x100005534:            bf a4 c8 5b  faddd     %d50, %d58, %d62
    0x100005538:            bb a7 c8 59  faddd     %d62, %d56, %d60
    0x10000553c:            87 a7 48 43  faddd     %d60, %d34, %d34
    0x100005540:            8f a0 c8 51  faddd     %d34, %d48, %d38
    0x100005544:            cf 3e 60 10  std       %d38, [%i1 + 0x10]
    0x100005548:            cb 1f a4 3f  ldd       [%fp + 0x43f], %d36
    0x10000554c:            e7 1f a4 27  ldd       [%fp + 0x427], %d50
    0x100005550:            f7 1f a4 cf  ldd       [%fp + 0x4cf], %d58
    0x100005554:            f3 1f a3 f7  ldd       [%fp + 0x3f7], %d56
    0x100005558:            bf a4 c8 45  faddd     %d50, %d36, %d62
    0x10000555c:            fb 1e 00 12  ldd       [%i0 + %l2], %d60
    0x100005560:            a3 a7 c8 5b  faddd     %d62, %d58, %d48
    0x100005564:            87 a4 48 59  faddd     %d48, %d56, %d34
    0x100005568:            8f a0 c8 55  faddd     %d34, %d52, %d38
    0x10000556c:            8b a1 c8 5d  faddd     %d38, %d60, %d36
    0x100005570:            cb 3e 00 12  std       %d36, [%i0 + %l2]
    0x100005574:            e7 1f a4 b7  ldd       [%fp + 0x4b7], %d50
    0x100005578:            ff 1f a4 9f  ldd       [%fp + 0x49f], %d62
    0x10000557c:            f7 1e ad 78  ldd       [%i2 + 0xd78], %d58
    0x100005580:            f3 1d a0 08  ldd       [%l6 + 0x8], %d56
    0x100005584:            a3 a7 c8 53  faddd     %d62, %d50, %d48
    0x100005588:            83 a6 c9 41  fmuld     %d58, %d32, %d32
    0x10000558c:            af a4 48 57  faddd     %d48, %d54, %d54
    0x100005590:            87 a5 c8 41  faddd     %d54, %d32, %d34
    0x100005594:            ef 1d a0 10  ldd       [%l6 + 0x10], %d54
    0x100005598:            bb a0 c8 59  faddd     %d34, %d56, %d60
    0x10000559c:            fb 3d a0 08  std       %d60, [%l6 + 0x8]
    0x1000055a0:            cf 1f a4 6f  ldd       [%fp + 0x46f], %d38
    0x1000055a4:            cb 1f a4 57  ldd       [%fp + 0x457], %d36
    0x1000055a8:            e7 1f a4 e7  ldd       [%fp + 0x4e7], %d50
    0x1000055ac:            f7 1f a4 0f  ldd       [%fp + 0x40f], %d58
    0x1000055b0:            bf a1 48 47  faddd     %d36, %d38, %d62
    0x1000055b4:            a3 a7 c8 53  faddd     %d62, %d50, %d48
    0x1000055b8:            83 a4 48 5b  faddd     %d48, %d58, %d32
    0x1000055bc:            ab a0 48 55  faddd     %d32, %d52, %d52
    0x1000055c0:            b3 a5 48 57  faddd     %d52, %d54, %d56
    0x1000055c4:            f3 3d a0 10  std       %d56, [%l6 + 0x10]
    0x1000055c8:            c7 1f a4 47  ldd       [%fp + 0x447], %d34
    0x1000055cc:            fb 1f a4 2f  ldd       [%fp + 0x42f], %d60
    0x1000055d0:            cf 1f a4 d7  ldd       [%fp + 0x4d7], %d38
    0x1000055d4:            e7 1f a3 ff  ldd       [%fp + 0x3ff], %d50
    0x1000055d8:            8b a7 48 43  faddd     %d60, %d34, %d36
    0x1000055dc:            e3 1d c0 12  ldd       [%l7 + %l2], %d48
    0x1000055e0:            bf a1 48 47  faddd     %d36, %d38, %d62
    0x1000055e4:            b7 a7 c8 53  faddd     %d62, %d50, %d58
    0x1000055e8:            83 a6 c8 4b  faddd     %d58, %d42, %d32
    0x1000055ec:            af a0 48 51  faddd     %d32, %d48, %d54
    0x1000055f0:            ef 3d c0 12  std       %d54, [%l7 + %l2]
    0x1000055f4:            eb 1f a4 bf  ldd       [%fp + 0x4bf], %d52
    0x1000055f8:            c7 1f a4 a7  ldd       [%fp + 0x4a7], %d34
    0x1000055fc:            fb 1e ad 78  ldd       [%i2 + 0xd78], %d60
    0x100005600:            f3 1b e0 08  ldd       [%o7 + 0x8], %d56
    0x100005604:            8f a0 c8 55  faddd     %d34, %d52, %d38
    0x100005608:            9f a7 49 4f  fmuld     %d60, %d46, %d46
    0x10000560c:            ef 1b e0 10  ldd       [%o7 + 0x10], %d54
    0x100005610:            97 a5 c8 4b  faddd     %d54, %d42, %d42
    0x100005614:            9b a1 c8 4d  faddd     %d38, %d44, %d44
    0x100005618:            8b a6 48 4f  faddd     %d56, %d46, %d36
    0x10000561c:            a7 a1 48 4d  faddd     %d36, %d44, %d50
    0x100005620:            e7 3b e0 08  std       %d50, [%o7 + 0x8]
    0x100005624:            ff 1f a4 77  ldd       [%fp + 0x477], %d62
    0x100005628:            e3 1f a4 5f  ldd       [%fp + 0x45f], %d48
    0x10000562c:            f7 1f a4 ef  ldd       [%fp + 0x4ef], %d58
    0x100005630:            eb 1f a4 17  ldd       [%fp + 0x417], %d52
    0x100005634:            83 a4 48 5f  faddd     %d48, %d62, %d32
    0x100005638:            87 a5 48 5b  faddd     %d52, %d58, %d34
    0x10000563c:            bb a0 c8 41  faddd     %d34, %d32, %d60
    0x100005640:            8f a2 c8 5d  faddd     %d42, %d60, %d38
    0x100005644:            cf 3b e0 10  std       %d38, [%o7 + 0x10]
    0x100005648:            e4 5c a2 a0  ldx       [%l2 + 0x2a0], %l2
    0x10000564c:            0a fc bd 6e  brnz,pt   %l2, -0xa48   <0x100004c04>
    0x100005650:            80 a4 80 11  cmp       %l2, %l1
    0x100005654:            f2 5b a8 ef  ldx       [%sp + 0x8ef], %i1
    0x100005658:            f0 5b a9 3f  ldx       [%sp + 0x93f], %i0
    0x10000565c:            d2 5e 62 b0  ldx       [%i1 + 0x2b0], %o1
    0x100005660:            a6 02 40 18  add       %o1, %i0, %l3
    0x100005664:            e2 5c 62 a0  ldx       [%l1 + 0x2a0], %l1
    0x100005668:            2a fc 7d 5b  brnz,a,pt %l1, -0xa94   <0x100004bd4>
    0x10000566c:            e4 5c e0 00  ldx       [%l3], %l2
    0x100005670:            d8 5b a9 67  ldx       [%sp + 0x967], %o4
    0x100005674:            d6 5b a9 4f  ldx       [%sp + 0x94f], %o3
    0x100005678:            94 03 20 01  add       %o4, 0x1, %o2
    0x10000567c:            d4 73 a9 67  stx       %o2, [%sp + 0x967]
    0x100005680:            80 a2 80 0b  cmp       %o2, %o3
    0x100005684:            24 6f fd 04  ble,a,pt  %xcc, -0xbf0  <0x100004a94>
    0x100005688:            d2 5b a8 e7  ldx       [%sp + 0x8e7], %o1
    0x10000568c:            de 5b a9 57  ldx       [%sp + 0x957], %o7
    0x100005690:            e8 5b a9 1f  ldx       [%sp + 0x91f], %l4
    0x100005694:            9a 03 e0 01  add       %o7, 0x1, %o5
    0x100005698:            da 73 a9 57  stx       %o5, [%sp + 0x957]
    0x10000569c:            80 a3 40 14  cmp       %o5, %l4
    0x1000056a0:            24 6f fc ea  ble,a,pt  %xcc, -0xc58  <0x100004a48>
    0x1000056a4:            ca 5b a9 4f  ldx       [%sp + 0x94f], %g5
    0x1000056a8:            ea 5b a8 f7  ldx       [%sp + 0x8f7], %l5
    0x1000056ac:            e2 5b a9 07  ldx       [%sp + 0x907], %l1
    0x1000056b0:            a4 05 60 01  add       %l5, 0x1, %l2
    0x1000056b4:            e4 73 a8 f7  stx       %l2, [%sp + 0x8f7]
    0x1000056b8:            80 a4 80 11  cmp       %l2, %l1
    0x1000056bc:            24 6f fc d1  ble,a,pt  %xcc, -0xcbc  <0x100004a00>
    0x1000056c0:            c6 5b a9 1f  ldx       [%sp + 0x91f], %g3
    0x1000056c4:            ec 5f a3 7f  ldx       [%fp + 0x37f], %l6
    0x1000056c8:            d6 5d a0 18  ldx       [%l6 + 0x18], %o3
    0x1000056cc:            d6 77 a3 7f  stx       %o3, [%fp + 0x37f]
    0x1000056d0:            2a fa fc ae  brnz,a,pt %o3, -0xd48   <0x100004988>
    0x1000056d4:            c8 5f a3 7f  ldx       [%fp + 0x37f], %g4
    0x1000056d8:            d3 3b a9 8f  std       %d40, [%sp + 0x98f]
    0x1000056dc:            39 00 04 00  sethi     %hi(0x100000), %i4
    0x1000056e0:            a0 17 21 2e  or        %i4, 0x12e, %l0
    0x1000056e4:            b5 2c 30 0c  sllx      %l0, 0xc, %i2
    0x1000056e8:            e2 5e a2 88  ldx       [%i2 + 0x288], %l1
    0x1000056ec:            40 04 9f fd  call      +0x127ff4     <0x10012d6e0>
    0x1000056f0:            90 04 60 48  add       %l1, 0x48, %o0
    0x1000056f4:            d3 1b a9 8f  ldd       [%sp + 0x98f], %d40
    0x1000056f8:            db 1e e0 08  ldd       [%i3 + 0x8], %d44
    0x1000056fc:            f8 5b a8 cf  ldx       [%sp + 0x8cf], %i4
    0x100005700:            e4 5e a2 88  ldx       [%i2 + 0x288], %l2
    0x100005704:            97 a2 49 4d  fmuld     %d40, %d44, %d42
    0x100005708:            ef 1f 20 00  ldd       [%i4], %d54
    0x10000570c:            90 04 a0 48  add       %l2, 0x48, %o0
    0x100005710:            93 a5 c8 4b  faddd     %d54, %d42, %d40
    0x100005714:            40 04 9f fb  call      +0x127fec     <0x10012d700>
    0x100005718:            d3 3f 20 00  std       %d40, [%i4]
    0x10000571c:            d8 5e a2 88  ldx       [%i2 + 0x288], %o4
    0x100005720:            40 04 9f f0  call      +0x127fc0     <0x10012d6e0>
    0x100005724:            90 03 20 c8  add       %o4, 0xc8, %o0
    0x100005728:            0a c2 00 76  brnz,pn   %o0, +0x1d8   <0x100005900>
    0x10000572c:            de 5e a2 88  ldx       [%i2 + 0x288], %o7
    0x100005730:            f6 5b e0 f0  ldx       [%o7 + 0xf0], %i3
    0x100005734:            2f 00 04 00  sethi     %hi(0x100000), %l7
    0x100005738:            90 15 e1 2f  or        %l7, 0x12f, %o0
    0x10000573c:            8a 06 e0 01  add       %i3, 0x1, %g5
    0x100005740:            93 2a 30 0c  sllx      %o0, 0xc, %o1
    0x100005744:            ca 73 e0 f0  stx       %g5, [%o7 + 0xf0]
    0x100005748:            c8 5a 63 18  ldx       [%o1 + 0x318], %g4
    0x10000574c:            fa 5b e0 f8  ldx       [%o7 + 0xf8], %i5
    0x100005750:            80 a1 40 04  cmp       %g5, %g4
    0x100005754:            02 60 00 17  be,pn     %xcc, +0x5c   <0x1000057b0>
    0x100005758:            90 10 20 01  mov       0x1, %o0
    0x10000575c:            40 04 a0 31  call      +0x1280c4     <0x10012d820>
    0x100005760:            92 07 a4 ff  add       %fp, 0x4ff, %o1
    0x100005764:            ec 5e a2 88  ldx       [%i2 + 0x288], %l6
    0x100005768:            ea 5d a0 f8  ldx       [%l6 + 0xf8], %l5
    0x10000576c:            80 a7 40 15  cmp       %i5, %l5
    0x100005770:            12 60 00 0a  bne,pn    %xcc, +0x28   <0x100005798>
    0x100005774:            92 05 a0 c8  add       %l6, 0xc8, %o1
    0x100005778:            40 04 a0 32  call      +0x1280c8     <0x10012d840>
    0x10000577c:            90 05 a0 e0  add       %l6, 0xe0, %o0
    0x100005780:            0a c2 00 06  brnz,pn   %o0, +0x18    <0x100005798>
    0x100005784:            ec 5e a2 88  ldx       [%i2 + 0x288], %l6
    0x100005788:            e8 5d a0 f8  ldx       [%l6 + 0xf8], %l4
    0x10000578c:            80 a7 40 14  cmp       %i5, %l4
    0x100005790:            02 6f ff fa  be,pt     %xcc, -0x18   <0x100005778>
    0x100005794:            92 05 a0 c8  add       %l6, 0xc8, %o1
    0x100005798:            e6 07 a5 03  ld        [%fp + 0x503], %l3
    0x10000579c:            92 07 a4 f7  add       %fp, 0x4f7, %o1
    0x1000057a0:            40 04 a0 20  call      +0x128080     <0x10012d820>
    0x1000057a4:            91 3c e0 00  sra       %l3, 0x0, %o0
    0x1000057a8:            10 80 00 0a  ba        +0x28         <0x1000057d0>
    0x1000057ac:            d6 5e a2 88  ldx       [%i2 + 0x288], %o3
    0x1000057b0:            b2 10 20 00  clr       %i1
    0x1000057b4:            b3 7f 64 01  movre     %i5, 0x1, %i1
    0x1000057b8:            c0 73 e0 f0  clrx      [%o7 + 0xf0]
    0x1000057bc:            90 03 e0 e0  add       %o7, 0xe0, %o0
    0x1000057c0:            f2 73 e0 f8  stx       %i1, [%o7 + 0xf8]
    0x1000057c4:            40 04 a0 27  call      +0x12809c     <0x10012d860>
    0x1000057c8:            01 00 00 00  nop
    0x1000057cc:            d6 5e a2 88  ldx       [%i2 + 0x288], %o3
    0x1000057d0:            40 04 9f cc  call      +0x127f30     <0x10012d700>
    0x1000057d4:            90 02 e0 c8  add       %o3, 0xc8, %o0
    0x1000057d8:            f6 5b a8 c7  ldx       [%sp + 0x8c7], %i3
    0x1000057dc:            f4 5b a8 bf  ldx       [%sp + 0x8bf], %i2
    0x1000057e0:            d4 5e e3 28  ldx       [%i3 + 0x328], %o2
    0x1000057e4:            e4 5a 80 1a  ldx       [%o2 + %i2], %l2
    0x1000057e8:            02 c4 80 44  brz,pn    %l2, +0x110   <0x1000058f8>
    0x1000057ec:            11 00 04 00  sethi     %hi(0x100000), %o0
    0x1000057f0:            8a 12 21 2e  or        %o0, 0x12e, %g5
    0x1000057f4:            07 00 04 00  sethi     %hi(0x100000), %g3
    0x1000057f8:            1b 00 04 00  sethi     %hi(0x100000), %o5
    0x1000057fc:            a7 29 70 0c  sllx      %g5, 0xc, %l3
    0x100005800:            84 10 e1 2e  or        %g3, 0x12e, %g2
    0x100005804:            b0 13 61 2e  or        %o5, 0x12e, %i0
    0x100005808:            fa 5b a8 b7  ldx       [%sp + 0x8b7], %i5
    0x10000580c:            b9 2e 30 0c  sllx      %i0, 0xc, %i4
    0x100005810:            e0 5c e2 b0  ldx       [%l3 + 0x2b0], %l0
    0x100005814:            89 2f 70 03  sllx      %i5, 0x3, %g4
    0x100005818:            aa 01 00 1d  add       %g4, %i5, %l5
    0x10000581c:            a3 2d 70 03  sllx      %l5, 0x3, %l1
    0x100005820:            d0 5c a0 00  ldx       [%l2], %o0
    0x100005824:            bb 28 b0 0c  sllx      %g2, 0xc, %i5
    0x100005828:            ca 5c a0 08  ldx       [%l2 + 0x8], %g5
    0x10000582c:            93 2a 30 03  sllx      %o0, 0x3, %o1
    0x100005830:            da 5a 40 10  ldx       [%o1 + %l0], %o5
    0x100005834:            c8 5c a0 10  ldx       [%l2 + 0x10], %g4
    0x100005838:            87 29 70 03  sllx      %g5, 0x3, %g3
    0x10000583c:            de 5b 40 03  ldx       [%o5 + %g3], %o7
    0x100005840:            85 29 30 05  sllx      %g4, 0x5, %g2
    0x100005844:            d8 5b c0 02  ldx       [%o7 + %g2], %o4
    0x100005848:            02 c3 00 29  brz,pn    %o4, +0xa4    <0x1000058ec>
    0x10000584c:            b4 04 40 0c  add       %l1, %o4, %i2
    0x100005850:            d3 1f 62 b8  ldd       [%i5 + 0x2b8], %d40
    0x100005854:            ff 1e a0 18  ldd       [%i2 + 0x18], %d62
    0x100005858:            f7 1e a0 20  ldd       [%i2 + 0x20], %d58
    0x10000585c:            f3 1e a0 28  ldd       [%i2 + 0x28], %d56
    0x100005860:            87 a7 c9 49  fmuld     %d62, %d40, %d34
    0x100005864:            c7 3e a0 18  std       %d34, [%i2 + 0x18]
    0x100005868:            cf 1f 22 c0  ldd       [%i4 + 0x2c0], %d38
    0x10000586c:            fb 1e a0 30  ldd       [%i2 + 0x30], %d60
    0x100005870:            ef 1e a0 38  ldd       [%i2 + 0x38], %d54
    0x100005874:            a3 a6 c9 47  fmuld     %d58, %d38, %d48
    0x100005878:            e3 3e a0 20  std       %d48, [%i2 + 0x20]
    0x10000587c:            cb 1f 62 b8  ldd       [%i5 + 0x2b8], %d36
    0x100005880:            c7 1e a0 40  ldd       [%i2 + 0x40], %d34
    0x100005884:            eb 1e a0 48  ldd       [%i2 + 0x48], %d52
    0x100005888:            83 a6 49 45  fmuld     %d56, %d36, %d32
    0x10000588c:            c3 3e a0 28  std       %d32, [%i2 + 0x28]
    0x100005890:            df 1f 62 b8  ldd       [%i5 + 0x2b8], %d46
    0x100005894:            f3 1e a0 50  ldd       [%i2 + 0x50], %d56
    0x100005898:            e7 1e a0 58  ldd       [%i2 + 0x58], %d50
    0x10000589c:            9b a7 49 4f  fmuld     %d60, %d46, %d44
    0x1000058a0:            db 3e a0 30  std       %d44, [%i2 + 0x30]
    0x1000058a4:            d7 1f 22 c0  ldd       [%i4 + 0x2c0], %d42
    0x1000058a8:            93 a5 c9 4b  fmuld     %d54, %d42, %d40
    0x1000058ac:            d3 3e a0 38  std       %d40, [%i2 + 0x38]
    0x1000058b0:            ff 1f 62 b8  ldd       [%i5 + 0x2b8], %d62
    0x1000058b4:            8f a0 c9 5f  fmuld     %d34, %d62, %d38
    0x1000058b8:            cf 3e a0 40  std       %d38, [%i2 + 0x40]
    0x1000058bc:            f7 1f 62 b8  ldd       [%i5 + 0x2b8], %d58
    0x1000058c0:            a3 a5 49 5b  fmuld     %d52, %d58, %d48
    0x1000058c4:            e3 3e a0 48  std       %d48, [%i2 + 0x48]
    0x1000058c8:            cb 1f 22 c0  ldd       [%i4 + 0x2c0], %d36
    0x1000058cc:            83 a6 49 45  fmuld     %d56, %d36, %d32
    0x1000058d0:            c3 3e a0 50  std       %d32, [%i2 + 0x50]
    0x1000058d4:            df 1f 62 b8  ldd       [%i5 + 0x2b8], %d46
    0x1000058d8:            bb a4 c9 4f  fmuld     %d50, %d46, %d60
    0x1000058dc:            fb 3e a0 58  std       %d60, [%i2 + 0x58]
    0x1000058e0:            d8 5b 22 a0  ldx       [%o4 + 0x2a0], %o4
    0x1000058e4:            0a fb 3f db  brnz,pt   %o4, -0x94    <0x100005850>
    0x1000058e8:            b4 04 40 0c  add       %l1, %o4, %i2
    0x1000058ec:            e4 5c a0 18  ldx       [%l2 + 0x18], %l2
    0x1000058f0:            2a fc bf ce  brnz,a,pt %l2, -0xc8    <0x100005828>
    0x1000058f4:            d0 5c a0 00  ldx       [%l2], %o0
    0x1000058f8:            81 c7 e0 08  ret
    0x1000058fc:            81 e8 20 00  restore   %g0, 0x0, %g0
    0x100005900:            07 00 04 00  sethi     %hi(0x100000), %g3
    0x100005904:            9a 10 e0 2c  or        %g3, 0x2c, %o5
    0x100005908:            85 2b 70 0c  sllx      %o5, 0xc, %g2
    0x10000590c:            40 04 9f 95  call      +0x127e54     <0x10012d760>
    0x100005910:            90 00 ac 98  add       %g2, 0xc98, %o0
    0x100005914:            40 04 9f 63  call      +0x127d8c     <0x10012d6a0>
    0x100005918:            90 10 3f ff  mov       -0x1, %o0
    0x10000591c:            de 5e a2 88  ldx       [%i2 + 0x288], %o7
    0x100005920:            10 bf ff 85  ba        -0x1ec        <0x100005734>
    0x100005924:            f6 5b e0 f0  ldx       [%o7 + 0xf0], %i3
UPDATE_FORCES()
    0x100005928:            9d e3 bd e0  save      %sp, -0x220, %sp
    0x10000592c:            c5 1f 60 00  ldd       [%i5], %d2
    0x100005930:            c1 1e a0 00  ldd       [%i2], %d0
    0x100005934:            ac 07 60 10  add       %i5, 0x10, %l6
    0x100005938:            ba 06 e0 10  add       %i3, 0x10, %i5
    0x10000593c:            81 a0 89 40  fmuld     %d2, %d0, %d0
    0x100005940:            c1 3f a6 af  std       %d0, [%fp + 0x6af]
    0x100005944:            c9 1d bf f0  ldd       [%l6 - 0x10], %d4
    0x100005948:            cd 1e e0 00  ldd       [%i3], %d6
    0x10000594c:            b6 07 20 10  add       %i4, 0x10, %i3
    0x100005950:            b8 06 a0 10  add       %i2, 0x10, %i4
    0x100005954:            91 a1 09 46  fmuld     %d4, %d6, %d8
    0x100005958:            d1 3f a6 b7  std       %d8, [%fp + 0x6b7]
    0x10000595c:            d5 1d bf f0  ldd       [%l6 - 0x10], %d10
    0x100005960:            d9 1e ff f0  ldd       [%i3 - 0x10], %d12
    0x100005964:            2b 00 04 00  sethi     %hi(0x100000), %l5
    0x100005968:            25 00 04 00  sethi     %hi(0x100000), %l2
    0x10000596c:            9d a2 89 4c  fmuld     %d10, %d12, %d14
    0x100005970:            dd 3f a6 bf  std       %d14, [%fp + 0x6bf]
    0x100005974:            e1 1f 3f f8  ldd       [%i4 - 0x8], %d16
    0x100005978:            e5 1d bf f8  ldd       [%l6 - 0x8], %d18
    0x10000597c:            a8 15 61 2d  or        %l5, 0x12d, %l4
    0x100005980:            a2 14 a1 2d  or        %l2, 0x12d, %l1
    0x100005984:            ab a4 89 50  fmuld     %d18, %d16, %d52
    0x100005988:            eb 3f a6 c7  std       %d52, [%fp + 0x6c7]
    0x10000598c:            ef 1d bf f8  ldd       [%l6 - 0x8], %d54
    0x100005990:            fb 1f 7f f8  ldd       [%i5 - 0x8], %d60
    0x100005994:            a7 2d 30 0c  sllx      %l4, 0xc, %l3
    0x100005998:            f3 1c ed 78  ldd       [%l3 + 0xd78], %d56
    0x10000599c:            bf a5 c9 5d  fmuld     %d54, %d60, %d62
    0x1000059a0:            ff 3f a6 cf  std       %d62, [%fp + 0x6cf]
    0x1000059a4:            c5 1d bf f8  ldd       [%l6 - 0x8], %d2
    0x1000059a8:            c1 1e ff f8  ldd       [%i3 - 0x8], %d0
    0x1000059ac:            a1 2c 70 0c  sllx      %l1, 0xc, %l0
    0x1000059b0:            f7 1c 2d 80  ldd       [%l0 + 0xd80], %d58
    0x1000059b4:            ae 07 a6 df  add       %fp, 0x6df, %l7
    0x1000059b8:            89 a0 89 40  fmuld     %d2, %d0, %d4
    0x1000059bc:            c9 3f a6 d7  std       %d4, [%fp + 0x6d7]
    0x1000059c0:            b4 10 20 02  mov       0x2, %i2
    0x1000059c4:            c1 6d a0 50  prefetch  [%l6 + 0x50], #n_reads
    0x1000059c8:            c1 6f 20 50  prefetch  [%i4 + 0x50], #n_reads
    0x1000059cc:            b4 06 a0 04  add       %i2, 0x4, %i2
    0x1000059d0:            ae 05 e0 60  add       %l7, 0x60, %l7
    0x1000059d4:            d1 1d a0 00  ldd       [%l6], %d8
    0x1000059d8:            80 a6 a0 0a  cmp       %i2, 0xa
    0x1000059dc:            ac 05 a0 20  add       %l6, 0x20, %l6
    0x1000059e0:            cd 1f 20 00  ldd       [%i4], %d6
    0x1000059e4:            b6 06 e0 20  add       %i3, 0x20, %i3
    0x1000059e8:            ba 07 60 20  add       %i5, 0x20, %i5
    0x1000059ec:            95 a2 09 46  fmuld     %d8, %d6, %d10
    0x1000059f0:            b8 07 20 20  add       %i4, 0x20, %i4
    0x1000059f4:            d5 3d ff a0  std       %d10, [%l7 - 0x60]
    0x1000059f8:            dd 1f 7f e0  ldd       [%i5 - 0x20], %d14
    0x1000059fc:            d9 1d bf e0  ldd       [%l6 - 0x20], %d12
    0x100005a00:            a1 a3 09 4e  fmuld     %d12, %d14, %d16
    0x100005a04:            e1 3d ff a8  std       %d16, [%l7 - 0x58]
    0x100005a08:            eb 1e ff e0  ldd       [%i3 - 0x20], %d52
    0x100005a0c:            e5 1d bf e0  ldd       [%l6 - 0x20], %d18
    0x100005a10:            af a4 89 55  fmuld     %d18, %d52, %d54
    0x100005a14:            ef 3d ff b0  std       %d54, [%l7 - 0x50]
    0x100005a18:            fb 1d bf e8  ldd       [%l6 - 0x18], %d60
    0x100005a1c:            ff 1f 3f e8  ldd       [%i4 - 0x18], %d62
    0x100005a20:            85 a7 49 5f  fmuld     %d60, %d62, %d2
    0x100005a24:            c5 3d ff b8  std       %d2, [%l7 - 0x48]
    0x100005a28:            c9 1f 7f e8  ldd       [%i5 - 0x18], %d4
    0x100005a2c:            c1 1d bf e8  ldd       [%l6 - 0x18], %d0
    0x100005a30:            8d a0 09 44  fmuld     %d0, %d4, %d6
    0x100005a34:            cd 3d ff c0  std       %d6, [%l7 - 0x40]
    0x100005a38:            d5 1e ff e8  ldd       [%i3 - 0x18], %d10
    0x100005a3c:            d1 1d bf e8  ldd       [%l6 - 0x18], %d8
    0x100005a40:            99 a2 09 4a  fmuld     %d8, %d10, %d12
    0x100005a44:            d9 3d ff c8  std       %d12, [%l7 - 0x38]
    0x100005a48:            c1 6f 60 40  prefetch  [%i5 + 0x40], #n_reads
    0x100005a4c:            c1 6e e0 40  prefetch  [%i3 + 0x40], #n_reads
    0x100005a50:            e1 1d bf f0  ldd       [%l6 - 0x10], %d16
    0x100005a54:            dd 1f 3f f0  ldd       [%i4 - 0x10], %d14
    0x100005a58:            a5 a4 09 4e  fmuld     %d16, %d14, %d18
    0x100005a5c:            e5 3d ff d0  std       %d18, [%l7 - 0x30]
    0x100005a60:            ef 1f 7f f0  ldd       [%i5 - 0x10], %d54
    0x100005a64:            eb 1d bf f0  ldd       [%l6 - 0x10], %d52
    0x100005a68:            bf a5 49 57  fmuld     %d52, %d54, %d62
    0x100005a6c:            ff 3d ff d8  std       %d62, [%l7 - 0x28]
    0x100005a70:            fb 1e ff f0  ldd       [%i3 - 0x10], %d60
    0x100005a74:            c5 1d bf f0  ldd       [%l6 - 0x10], %d2
    0x100005a78:            81 a0 89 5d  fmuld     %d2, %d60, %d0
    0x100005a7c:            c1 3d ff e0  std       %d0, [%l7 - 0x20]
    0x100005a80:            cd 1d bf f8  ldd       [%l6 - 0x8], %d6
    0x100005a84:            c9 1f 3f f8  ldd       [%i4 - 0x8], %d4
    0x100005a88:            91 a1 89 44  fmuld     %d6, %d4, %d8
    0x100005a8c:            d1 3d ff e8  std       %d8, [%l7 - 0x18]
    0x100005a90:            d9 1f 7f f8  ldd       [%i5 - 0x8], %d12
    0x100005a94:            d5 1d bf f8  ldd       [%l6 - 0x8], %d10
    0x100005a98:            9d a2 89 4c  fmuld     %d10, %d12, %d14
    0x100005a9c:            dd 3d ff f0  std       %d14, [%l7 - 0x10]
    0x100005aa0:            e5 1e ff f8  ldd       [%i3 - 0x8], %d18
    0x100005aa4:            e1 1d bf f8  ldd       [%l6 - 0x8], %d16
    0x100005aa8:            ab a4 09 52  fmuld     %d16, %d18, %d52
    0x100005aac:            04 6f ff c6  ble,pt    %xcc, -0xe8   <0x1000059c4>
    0x100005ab0:            eb 3d ff f8  std       %d52, [%l7 - 0x8]
    0x100005ab4:            c5 1f a6 c7  ldd       [%fp + 0x6c7], %d2
    0x100005ab8:            ff 1f a6 df  ldd       [%fp + 0x6df], %d62
    0x100005abc:            ef 1f a7 3f  ldd       [%fp + 0x73f], %d54
    0x100005ac0:            fb 1f a7 27  ldd       [%fp + 0x727], %d60
    0x100005ac4:            a1 a0 88 5f  faddd     %d2, %d62, %d16
    0x100005ac8:            d1 1f a6 af  ldd       [%fp + 0x6af], %d8
    0x100005acc:            89 a7 48 57  faddd     %d60, %d54, %d4
    0x100005ad0:            c1 1f a7 cf  ldd       [%fp + 0x7cf], %d0
    0x100005ad4:            d5 1f a6 f7  ldd       [%fp + 0x6f7], %d10
    0x100005ad8:            99 2e 70 03  sllx      %i1, 0x3, %o4
    0x100005adc:            8d a4 08 48  faddd     %d16, %d8, %d6
    0x100005ae0:            96 03 00 19  add       %o4, %i1, %o3
    0x100005ae4:            99 a1 08 40  faddd     %d4, %d0, %d12
    0x100005ae8:            95 2a f0 03  sllx      %o3, 0x3, %o2
    0x100005aec:            92 06 00 0a  add       %i0, %o2, %o1
    0x100005af0:            fb 1a 60 18  ldd       [%o1 + 0x18], %d60
    0x100005af4:            85 a6 c9 46  fmuld     %d58, %d6, %d2
    0x100005af8:            af a2 09 59  fmuld     %d8, %d56, %d54
    0x100005afc:            ab a3 08 4a  faddd     %d12, %d10, %d52
    0x100005b00:            c1 1f a6 bf  ldd       [%fp + 0x6bf], %d0
    0x100005b04:            d9 1f a6 b7  ldd       [%fp + 0x6b7], %d12
    0x100005b08:            d1 1f a6 d7  ldd       [%fp + 0x6d7], %d8
    0x100005b0c:            e5 1f a6 e7  ldd       [%fp + 0x6e7], %d18
    0x100005b10:            d5 1f a6 ef  ldd       [%fp + 0x6ef], %d10
    0x100005b14:            bf a5 48 42  faddd     %d52, %d2, %d62
    0x100005b18:            cd 1f a7 8f  ldd       [%fp + 0x78f], %d6
    0x100005b1c:            fd 1f a7 97  ldd       [%fp + 0x797], %d30
    0x100005b20:            dd 1f a6 cf  ldd       [%fp + 0x6cf], %d14
    0x100005b24:            eb 1f a7 87  ldd       [%fp + 0x787], %d52
    0x100005b28:            c9 1a 60 20  ldd       [%o1 + 0x20], %d4
    0x100005b2c:            bb a7 c8 5d  faddd     %d62, %d60, %d60
    0x100005b30:            fb 3a 60 18  std       %d60, [%o1 + 0x18]
    0x100005b34:            ff 1f a7 b7  ldd       [%fp + 0x7b7], %d62
    0x100005b38:            ab a5 48 57  faddd     %d52, %d54, %d52
    0x100005b3c:            fb 1f a7 9f  ldd       [%fp + 0x79f], %d60
    0x100005b40:            ef 1c ed 78  ldd       [%l3 + 0xd78], %d54
    0x100005b44:            9d a3 88 52  faddd     %d14, %d18, %d14
    0x100005b48:            bf a7 48 5f  faddd     %d60, %d62, %d62
    0x100005b4c:            af a5 c9 50  fmuld     %d54, %d16, %d54
    0x100005b50:            bb a3 09 59  fmuld     %d12, %d56, %d60
    0x100005b54:            f9 1a 60 28  ldd       [%o1 + 0x28], %d28
    0x100005b58:            e1 1a 60 30  ldd       [%o1 + 0x30], %d16
    0x100005b5c:            f5 1a 60 38  ldd       [%o1 + 0x38], %d26
    0x100005b60:            a5 a7 c8 55  faddd     %d62, %d52, %d18
    0x100005b64:            ab a3 88 4c  faddd     %d14, %d12, %d52
    0x100005b68:            99 a2 08 4a  faddd     %d8, %d10, %d12
    0x100005b6c:            95 a1 88 5d  faddd     %d6, %d60, %d10
    0x100005b70:            f1 1a 60 40  ldd       [%o1 + 0x40], %d24
    0x100005b74:            cd 1a 60 48  ldd       [%o1 + 0x48], %d6
    0x100005b78:            bf a4 88 57  faddd     %d18, %d54, %d62
    0x100005b7c:            91 a6 c9 55  fmuld     %d58, %d52, %d8
    0x100005b80:            af a3 08 40  faddd     %d12, %d0, %d54
    0x100005b84:            ed 1a 60 50  ldd       [%o1 + 0x50], %d22
    0x100005b88:            e9 1a 60 58  ldd       [%o1 + 0x58], %d20
    0x100005b8c:            bb a7 c8 44  faddd     %d62, %d4, %d60
    0x100005b90:            fb 3a 60 20  std       %d60, [%o1 + 0x20]
    0x100005b94:            c9 1f a7 6f  ldd       [%fp + 0x76f], %d4
    0x100005b98:            ff 1f a7 57  ldd       [%fp + 0x757], %d62
    0x100005b9c:            eb 1f a7 e7  ldd       [%fp + 0x7e7], %d52
    0x100005ba0:            af a6 c9 57  fmuld     %d58, %d54, %d54
    0x100005ba4:            89 a7 c8 44  faddd     %d62, %d4, %d4
    0x100005ba8:            b7 a0 09 59  fmuld     %d0, %d56, %d58
    0x100005bac:            e5 1f a7 0f  ldd       [%fp + 0x70f], %d18
    0x100005bb0:            b3 a1 08 55  faddd     %d4, %d52, %d56
    0x100005bb4:            ab a7 88 5b  faddd     %d30, %d58, %d52
    0x100005bb8:            bb a6 48 52  faddd     %d56, %d18, %d60
    0x100005bbc:            85 a7 48 42  faddd     %d60, %d2, %d2
    0x100005bc0:            bf a0 88 5c  faddd     %d2, %d28, %d62
    0x100005bc4:            ff 3a 60 28  std       %d62, [%o1 + 0x28]
    0x100005bc8:            c1 1f a7 47  ldd       [%fp + 0x747], %d0
    0x100005bcc:            c9 1f a7 2f  ldd       [%fp + 0x72f], %d4
    0x100005bd0:            f7 1f a7 d7  ldd       [%fp + 0x7d7], %d58
    0x100005bd4:            f3 1f a6 ff  ldd       [%fp + 0x6ff], %d56
    0x100005bd8:            a5 a1 08 40  faddd     %d4, %d0, %d18
    0x100005bdc:            bb a4 88 5b  faddd     %d18, %d58, %d60
    0x100005be0:            85 a7 48 59  faddd     %d60, %d56, %d2
    0x100005be4:            bf a0 88 48  faddd     %d2, %d8, %d62
    0x100005be8:            a1 a7 c8 50  faddd     %d62, %d16, %d16
    0x100005bec:            e1 3a 60 30  std       %d16, [%o1 + 0x30]
    0x100005bf0:            c1 1f a7 bf  ldd       [%fp + 0x7bf], %d0
    0x100005bf4:            c9 1f a7 a7  ldd       [%fp + 0x7a7], %d4
    0x100005bf8:            f7 1c ed 78  ldd       [%l3 + 0xd78], %d58
    0x100005bfc:            a5 a1 08 40  faddd     %d4, %d0, %d18
    0x100005c00:            9d a6 c9 4e  fmuld     %d58, %d14, %d14
    0x100005c04:            95 a4 88 4a  faddd     %d18, %d10, %d10
    0x100005c08:            b3 a2 88 4e  faddd     %d10, %d14, %d56
    0x100005c0c:            bb a6 48 5a  faddd     %d56, %d26, %d60
    0x100005c10:            fb 3a 60 38  std       %d60, [%o1 + 0x38]
    0x100005c14:            c5 1f a7 77  ldd       [%fp + 0x777], %d2
    0x100005c18:            ff 1f a7 5f  ldd       [%fp + 0x75f], %d62
    0x100005c1c:            e1 1f a7 ef  ldd       [%fp + 0x7ef], %d16
    0x100005c20:            c9 1f a7 17  ldd       [%fp + 0x717], %d4
    0x100005c24:            81 a7 c8 42  faddd     %d62, %d2, %d0
    0x100005c28:            b7 a0 08 50  faddd     %d0, %d16, %d58
    0x100005c2c:            a5 a6 c8 44  faddd     %d58, %d4, %d18
    0x100005c30:            91 a4 88 48  faddd     %d18, %d8, %d8
    0x100005c34:            9d a2 08 58  faddd     %d8, %d24, %d14
    0x100005c38:            dd 3a 60 40  std       %d14, [%o1 + 0x40]
    0x100005c3c:            d5 1f a7 4f  ldd       [%fp + 0x74f], %d10
    0x100005c40:            fb 1f a7 37  ldd       [%fp + 0x737], %d60
    0x100005c44:            c5 1f a7 df  ldd       [%fp + 0x7df], %d2
    0x100005c48:            f3 1f a7 07  ldd       [%fp + 0x707], %d56
    0x100005c4c:            bf a7 48 4a  faddd     %d60, %d10, %d62
    0x100005c50:            a1 a7 c8 42  faddd     %d62, %d2, %d16
    0x100005c54:            81 a4 08 59  faddd     %d16, %d56, %d0
    0x100005c58:            89 a0 08 57  faddd     %d0, %d54, %d4
    0x100005c5c:            8d a1 08 46  faddd     %d4, %d6, %d6
    0x100005c60:            cd 3a 60 48  std       %d6, [%o1 + 0x48]
    0x100005c64:            e5 1f a7 c7  ldd       [%fp + 0x7c7], %d18
    0x100005c68:            d1 1f a7 af  ldd       [%fp + 0x7af], %d8
    0x100005c6c:            f7 1c ed 78  ldd       [%l3 + 0xd78], %d58
    0x100005c70:            9d a2 08 52  faddd     %d8, %d18, %d14
    0x100005c74:            99 a6 c9 4c  fmuld     %d58, %d12, %d12
    0x100005c78:            ab a3 88 55  faddd     %d14, %d52, %d52
    0x100005c7c:            95 a5 48 4c  faddd     %d52, %d12, %d10
    0x100005c80:            bb a2 88 56  faddd     %d10, %d22, %d60
    0x100005c84:            fb 3a 60 50  std       %d60, [%o1 + 0x50]
    0x100005c88:            c5 1f a7 7f  ldd       [%fp + 0x77f], %d2
    0x100005c8c:            ff 1f a7 67  ldd       [%fp + 0x767], %d62
    0x100005c90:            e1 1f a7 f7  ldd       [%fp + 0x7f7], %d16
    0x100005c94:            f3 1f a7 1f  ldd       [%fp + 0x71f], %d56
    0x100005c98:            81 a7 c8 42  faddd     %d62, %d2, %d0
    0x100005c9c:            89 a0 08 50  faddd     %d0, %d16, %d4
    0x100005ca0:            8d a1 08 59  faddd     %d4, %d56, %d6
    0x100005ca4:            af a1 88 57  faddd     %d6, %d54, %d54
    0x100005ca8:            a5 a5 c8 54  faddd     %d54, %d20, %d18
    0x100005cac:            e5 3a 60 58  std       %d18, [%o1 + 0x58]
    0x100005cb0:            81 c7 e0 08  ret
    0x100005cb4:            81 e8 20 00  restore   %g0, 0x0, %g0
    0x100005cb8:            00 00 00 00  illtrap   0x0
    0x100005cbc:            00 00 00 00  illtrap   0x0
    0x100005cc0:            3f f0 00 00  0x3ff00000
    0x100005cc4:            00 00 00 00  illtrap   0x0
    0x100005cc8:            40 08 00 00  call      +0x200000     <0x100205cc8>
    0x100005ccc:            00 00 00 00  illtrap   0x0
    0x100005cd0:            40 10 00 00  call      +0x400000     <0x100405cd0>
    0x100005cd4:            00 00 00 00  illtrap   0x0
INTRAF()
    0x100005cd8:            9d e3 bd 70  save      %sp, -0x290, %sp
    0x100005cdc:            3b 00 04 00  sethi     %hi(0x100000), %i5
    0x100005ce0:            b8 17 61 2f  or        %i5, 0x12f, %i4
    0x100005ce4:            af 2f 30 0c  sllx      %i4, 0xc, %l7
    0x100005ce8:            b7 2e 70 03  sllx      %i1, 0x3, %i3
    0x100005cec:            e8 5d e3 28  ldx       [%l7 + 0x328], %l4
    0x100005cf0:            2d 00 04 00  sethi     %hi(0x100000), %l6
    0x100005cf4:            aa 15 a0 05  or        %l6, 0x5, %l5
    0x100005cf8:            f2 5d 00 1b  ldx       [%l4 + %i3], %i1
    0x100005cfc:            b9 2d 70 0c  sllx      %l5, 0xc, %i4
    0x100005d00:            02 c6 42 20  brz,pn    %i1, +0x880   <0x100006580>
    0x100005d04:            a0 10 00 18  mov       %i0, %l0
    0x100005d08:            31 00 04 00  sethi     %hi(0x100000), %i0
    0x100005d0c:            a6 16 21 2e  or        %i0, 0x12e, %l3
    0x100005d10:            25 00 04 00  sethi     %hi(0x100000), %l2
    0x100005d14:            1f 00 04 00  sethi     %hi(0x100000), %o7
    0x100005d18:            19 00 04 00  sethi     %hi(0x100000), %o4
    0x100005d1c:            95 2c f0 0c  sllx      %l3, 0xc, %o2
    0x100005d20:            a2 14 a1 2e  or        %l2, 0x12e, %l1
    0x100005d24:            9a 13 e1 2f  or        %o7, 0x12f, %o5
    0x100005d28:            96 13 21 2f  or        %o4, 0x12f, %o3
    0x100005d2c:            b1 2c 70 0c  sllx      %l1, 0xc, %i0
    0x100005d30:            a5 2b 70 0c  sllx      %o5, 0xc, %l2
    0x100005d34:            fa 5a a2 b0  ldx       [%o2 + 0x2b0], %i5
    0x100005d38:            a7 2a f0 0c  sllx      %o3, 0xc, %l3
    0x100005d3c:            a8 07 2c b8  add       %i4, 0xcb8, %l4
    0x100005d40:            d0 5e 60 00  ldx       [%i1], %o0
    0x100005d44:            aa 10 00 19  mov       %i1, %l5
    0x100005d48:            f6 5d 60 08  ldx       [%l5 + 0x8], %i3
    0x100005d4c:            93 2a 30 03  sllx      %o0, 0x3, %o1
    0x100005d50:            d4 5a 40 1d  ldx       [%o1 + %i5], %o2
    0x100005d54:            ec 5d 60 10  ldx       [%l5 + 0x10], %l6
    0x100005d58:            a3 2e f0 03  sllx      %i3, 0x3, %l1
    0x100005d5c:            c2 5a 80 11  ldx       [%o2 + %l1], %g1
    0x100005d60:            af 2d b0 05  sllx      %l6, 0x5, %l7
    0x100005d64:            f4 58 40 17  ldx       [%g1 + %l7], %i2
    0x100005d68:            02 c6 81 cb  brz,pn    %i2, +0x72c   <0x100006494>
    0x100005d6c:            e3 1f 2c b8  ldd       [%i4 + 0xcb8], %d48
    0x100005d70:            df 1e a0 18  ldd       [%i2 + 0x18], %d46
    0x100005d74:            eb 1e a0 28  ldd       [%i2 + 0x28], %d52
    0x100005d78:            f3 1e a0 20  ldd       [%i2 + 0x20], %d56
    0x100005d7c:            ef 1e a0 18  ldd       [%i2 + 0x18], %d54
    0x100005d80:            c7 1e a0 20  ldd       [%i2 + 0x20], %d34
    0x100005d84:            db 1f 2c b8  ldd       [%i4 + 0xcb8], %d44
    0x100005d88:            d7 1f 2c b8  ldd       [%i4 + 0xcb8], %d42
    0x100005d8c:            d3 1d 20 08  ldd       [%l4 + 0x8], %d40
    0x100005d90:            13 00 04 00  sethi     %hi(0x100000), %o1
    0x100005d94:            0b 00 04 00  sethi     %hi(0x100000), %g5
    0x100005d98:            90 12 61 2d  or        %o1, 0x12d, %o0
    0x100005d9c:            88 11 61 2d  or        %g5, 0x12d, %g4
    0x100005da0:            87 2a 30 0c  sllx      %o0, 0xc, %g3
    0x100005da4:            fb 18 ed 78  ldd       [%g3 + 0xd78], %d60
    0x100005da8:            ad 29 30 0c  sllx      %g4, 0xc, %l6
    0x100005dac:            e7 1d ad 80  ldd       [%l6 + 0xd80], %d50
    0x100005db0:            37 00 04 00  sethi     %hi(0x100000), %i3
    0x100005db4:            a2 16 e1 2f  or        %i3, 0x12f, %l1
    0x100005db8:            b7 a3 c8 55  faddd     %d46, %d52, %d58
    0x100005dbc:            8b a6 49 5d  fmuld     %d56, %d60, %d36
    0x100005dc0:            ab a0 c8 d7  fsubd     %d34, %d54, %d52
    0x100005dc4:            8f a6 c9 53  fmuld     %d58, %d50, %d38
    0x100005dc8:            a7 a5 49 55  fmuld     %d52, %d52, %d50
    0x100005dcc:            83 a1 48 47  faddd     %d36, %d38, %d32
    0x100005dd0:            c3 3e a0 00  std       %d32, [%i2]
    0x100005dd4:            eb 3f a7 df  std       %d52, [%fp + 0x7df]
    0x100005dd8:            ff 1e a0 28  ldd       [%i2 + 0x28], %d62
    0x100005ddc:            fb 1e a0 20  ldd       [%i2 + 0x20], %d60
    0x100005de0:            f7 18 ed 78  ldd       [%g3 + 0xd78], %d58
    0x100005de4:            df 1d ad 80  ldd       [%l6 + 0xd80], %d46
    0x100005de8:            83 a7 48 df  fsubd     %d60, %d62, %d32
    0x100005dec:            c3 3f a7 bf  std       %d32, [%fp + 0x7bf]
    0x100005df0:            cb 1e a0 40  ldd       [%i2 + 0x40], %d36
    0x100005df4:            cf 1e a0 30  ldd       [%i2 + 0x30], %d38
    0x100005df8:            f3 1e a0 38  ldd       [%i2 + 0x38], %d56
    0x100005dfc:            a7 a4 48 53  faddd     %d48, %d50, %d50
    0x100005e00:            af a1 c8 45  faddd     %d38, %d36, %d54
    0x100005e04:            8f a6 49 5b  fmuld     %d56, %d58, %d38
    0x100005e08:            f3 1e a0 30  ldd       [%i2 + 0x30], %d56
    0x100005e0c:            bb a5 49 41  fmuld     %d52, %d32, %d60
    0x100005e10:            87 a0 49 41  fmuld     %d32, %d32, %d34
    0x100005e14:            c3 1e a0 38  ldd       [%i2 + 0x38], %d32
    0x100005e18:            bf a5 c9 4f  fmuld     %d54, %d46, %d62
    0x100005e1c:            ab a0 48 d9  fsubd     %d32, %d56, %d52
    0x100005e20:            97 a2 c8 5d  faddd     %d42, %d60, %d42
    0x100005e24:            9b a3 48 43  faddd     %d44, %d34, %d44
    0x100005e28:            8b a1 c8 5f  faddd     %d38, %d62, %d36
    0x100005e2c:            cb 3e a0 08  std       %d36, [%i2 + 0x8]
    0x100005e30:            eb 3f a7 e7  std       %d52, [%fp + 0x7e7]
    0x100005e34:            e3 1e a0 40  ldd       [%i2 + 0x40], %d48
    0x100005e38:            ef 1e a0 38  ldd       [%i2 + 0x38], %d54
    0x100005e3c:            f7 18 ed 78  ldd       [%g3 + 0xd78], %d58
    0x100005e40:            df 1d ad 80  ldd       [%l6 + 0xd80], %d46
    0x100005e44:            2d 00 04 00  sethi     %hi(0x100000), %l6
    0x100005e48:            ae 15 a1 2f  or        %l6, 0x12f, %l7
    0x100005e4c:            8b a5 c8 d1  fsubd     %d54, %d48, %d36
    0x100005e50:            cb 3f a7 c7  std       %d36, [%fp + 0x7c7]
    0x100005e54:            fb 1e a0 58  ldd       [%i2 + 0x58], %d60
    0x100005e58:            c7 1e a0 48  ldd       [%i2 + 0x48], %d34
    0x100005e5c:            cf 1e a0 50  ldd       [%i2 + 0x50], %d38
    0x100005e60:            83 a5 49 55  fmuld     %d52, %d52, %d32
    0x100005e64:            bf a0 c8 5d  faddd     %d34, %d60, %d62
    0x100005e68:            b3 a1 c9 5b  fmuld     %d38, %d58, %d56
    0x100005e6c:            cf 1e a0 48  ldd       [%i2 + 0x48], %d38
    0x100005e70:            a3 a1 49 45  fmuld     %d36, %d36, %d48
    0x100005e74:            87 a5 49 45  fmuld     %d52, %d36, %d34
    0x100005e78:            cb 1e a0 50  ldd       [%i2 + 0x50], %d36
    0x100005e7c:            bb a7 c9 4f  fmuld     %d62, %d46, %d60
    0x100005e80:            af a4 c8 41  faddd     %d50, %d32, %d54
    0x100005e84:            ab a3 48 51  faddd     %d44, %d48, %d52
    0x100005e88:            9b a1 48 c7  fsubd     %d36, %d38, %d44
    0x100005e8c:            a7 a2 c8 43  faddd     %d42, %d34, %d50
    0x100005e90:            b7 a6 48 5d  faddd     %d56, %d60, %d58
    0x100005e94:            f7 3e a0 10  std       %d58, [%i2 + 0x10]
    0x100005e98:            db 3f a7 ef  std       %d44, [%fp + 0x7ef]
    0x100005e9c:            c3 1e a0 58  ldd       [%i2 + 0x58], %d32
    0x100005ea0:            df 1e a0 50  ldd       [%i2 + 0x50], %d46
    0x100005ea4:            a3 a3 49 4d  fmuld     %d44, %d44, %d48
    0x100005ea8:            bf a3 c8 c1  fsubd     %d46, %d32, %d62
    0x100005eac:            ff 3f a7 cf  std       %d62, [%fp + 0x7cf]
    0x100005eb0:            bb a5 c8 51  faddd     %d54, %d48, %d60
    0x100005eb4:            97 a7 c9 5f  fmuld     %d62, %d62, %d42
    0x100005eb8:            87 a3 49 5f  fmuld     %d44, %d62, %d34
    0x100005ebc:            af a0 05 5d  fsqrtd    %d60, %d54
    0x100005ec0:            ef 3b a9 4f  std       %d54, [%sp + 0x94f]
    0x100005ec4:            b3 a5 48 4b  faddd     %d52, %d42, %d56
    0x100005ec8:            8f a4 c8 43  faddd     %d50, %d34, %d38
    0x100005ecc:            bf a0 05 59  fsqrtd    %d56, %d62
    0x100005ed0:            ff 3b a9 47  std       %d62, [%sp + 0x947]
    0x100005ed4:            b7 a5 c9 5f  fmuld     %d54, %d62, %d58
    0x100005ed8:            87 a1 c9 db  fdivd     %d38, %d58, %d34
    0x100005edc:            c7 3b a9 3f  std       %d34, [%sp + 0x93f]
    0x100005ee0:            8b a0 c9 43  fmuld     %d34, %d34, %d36
    0x100005ee4:            81 a0 00 43  fmovd     %d34, %d0
    0x100005ee8:            93 a2 48 c5  fsubd     %d40, %d36, %d40
    0x100005eec:            a7 a0 05 49  fsqrtd    %d40, %d50
    0x100005ef0:            40 04 9e 64  call      +0x127990     <0x10012d880>
    0x100005ef4:            e7 3b a9 37  std       %d50, [%sp + 0x937]
    0x100005ef8:            df 1d 20 08  ldd       [%l4 + 0x8], %d46
    0x100005efc:            ef 1b a9 4f  ldd       [%sp + 0x94f], %d54
    0x100005f00:            ff 1b a9 47  ldd       [%sp + 0x947], %d62
    0x100005f04:            e7 1b a9 37  ldd       [%sp + 0x937], %d50
    0x100005f08:            83 a3 c9 d7  fdivd     %d46, %d54, %d32
    0x100005f0c:            c3 3b a9 07  std       %d32, [%sp + 0x907]
    0x100005f10:            83 a3 c9 df  fdivd     %d46, %d62, %d32
    0x100005f14:            c3 3b a9 1f  std       %d32, [%sp + 0x91f]
    0x100005f18:            eb 1e 23 68  ldd       [%i0 + 0x368], %d52
    0x100005f1c:            db 1c a1 78  ldd       [%l2 + 0x178], %d44
    0x100005f20:            d7 1d 20 10  ldd       [%l4 + 0x10], %d42
    0x100005f24:            e3 1d 20 18  ldd       [%l4 + 0x18], %d48
    0x100005f28:            d3 1c e2 b0  ldd       [%l3 + 0x2b0], %d40
    0x100005f2c:            c7 1b a9 3f  ldd       [%sp + 0x93f], %d34
    0x100005f30:            83 a7 c9 53  fmuld     %d62, %d50, %d32
    0x100005f34:            bb a5 c9 53  fmuld     %d54, %d50, %d60
    0x100005f38:            8f a5 c8 d5  fsubd     %d54, %d52, %d38
    0x100005f3c:            9f 2c 70 0c  sllx      %l1, 0xc, %o7
    0x100005f40:            f3 1b e1 50  ldd       [%o7 + 0x150], %d56
    0x100005f44:            8b a7 c8 d5  fsubd     %d62, %d52, %d36
    0x100005f48:            9f a5 49 c1  fdivd     %d52, %d32, %d46
    0x100005f4c:            a7 a5 49 dd  fdivd     %d52, %d60, %d50
    0x100005f50:            bf a0 08 d9  fsubd     %d0, %d56, %d62
    0x100005f54:            bd a1 c9 47  fmuld     %d38, %d38, %d30
    0x100005f58:            b7 a3 49 47  fmuld     %d44, %d38, %d58
    0x100005f5c:            1b 00 04 00  sethi     %hi(0x100000), %o5
    0x100005f60:            83 a1 49 45  fmuld     %d36, %d36, %d32
    0x100005f64:            98 13 61 2f  or        %o5, 0x12f, %o4
    0x100005f68:            b1 a7 c9 55  fmuld     %d62, %d52, %d24
    0x100005f6c:            b3 a7 89 4b  fmuld     %d30, %d42, %d56
    0x100005f70:            97 2b 30 0c  sllx      %o4, 0xc, %o3
    0x100005f74:            eb 1a e2 88  ldd       [%o3 + 0x288], %d52
    0x100005f78:            e7 3b a9 27  std       %d50, [%sp + 0x927]
    0x100005f7c:            a7 a1 c8 47  faddd     %d38, %d38, %d50
    0x100005f80:            df 3b a9 2f  std       %d46, [%sp + 0x92f]
    0x100005f84:            9f a7 89 47  fmuld     %d30, %d38, %d46
    0x100005f88:            af a6 c9 58  fmuld     %d58, %d24, %d54
    0x100005f8c:            ab a5 49 51  fmuld     %d52, %d48, %d52
    0x100005f90:            b7 a6 48 41  faddd     %d56, %d32, %d58
    0x100005f94:            b5 a6 09 58  fmuld     %d24, %d24, %d26
    0x100005f98:            15 00 04 00  sethi     %hi(0x100000), %o2
    0x100005f9c:            92 12 a1 2f  or        %o2, 0x12f, %o1
    0x100005fa0:            91 2a 70 0c  sllx      %o1, 0xc, %o0
    0x100005fa4:            0b 00 04 00  sethi     %hi(0x100000), %g5
    0x100005fa8:            f7 3b a8 af  std       %d58, [%sp + 0x8af]
    0x100005fac:            bb a4 c8 45  faddd     %d50, %d36, %d60
    0x100005fb0:            f7 1a 21 88  ldd       [%o0 + 0x188], %d58
    0x100005fb4:            88 11 61 2f  or        %g5, 0x12f, %g4
    0x100005fb8:            a7 a3 c9 55  fmuld     %d46, %d52, %d50
    0x100005fbc:            87 29 30 0c  sllx      %g4, 0xc, %g3
    0x100005fc0:            eb 3b a8 cf  std       %d52, [%sp + 0x8cf]
    0x100005fc4:            eb 18 e1 70  ldd       [%g3 + 0x170], %d52
    0x100005fc8:            bf a6 c9 5a  fmuld     %d58, %d26, %d62
    0x100005fcc:            ff 3b a9 0f  std       %d62, [%sp + 0x90f]
    0x100005fd0:            bf a5 49 45  fmuld     %d52, %d36, %d62
    0x100005fd4:            23 00 04 00  sethi     %hi(0x100000), %l1
    0x100005fd8:            83 2d f0 0c  sllx      %l7, 0xc, %g1
    0x100005fdc:            9e 14 61 2f  or        %l1, 0x12f, %o7
    0x100005fe0:            05 00 04 00  sethi     %hi(0x100000), %g2
    0x100005fe4:            17 00 04 00  sethi     %hi(0x100000), %o3
    0x100005fe8:            eb 3b a8 f7  std       %d52, [%sp + 0x8f7]
    0x100005fec:            ab a7 c9 5d  fmuld     %d62, %d60, %d52
    0x100005ff0:            b6 10 a1 2f  or        %g2, 0x12f, %i3
    0x100005ff4:            af 2b f0 0c  sllx      %o7, 0xc, %l7
    0x100005ff8:            94 12 e1 2f  or        %o3, 0x12f, %o2
    0x100005ffc:            1b 00 04 00  sethi     %hi(0x100000), %o5
    0x100006000:            0b 00 04 00  sethi     %hi(0x100000), %g5
    0x100006004:            dd 18 62 a0  ldd       [%g1 + 0x2a0], %d14
    0x100006008:            ff 1d e1 68  ldd       [%l7 + 0x168], %d62
    0x10000600c:            98 13 61 2f  or        %o5, 0x12f, %o4
    0x100006010:            96 11 61 2f  or        %g5, 0x12f, %o3
    0x100006014:            85 2a b0 0c  sllx      %o2, 0xc, %g2
    0x100006018:            13 00 04 00  sethi     %hi(0x100000), %o1
    0x10000601c:            83 2b 30 0c  sllx      %o4, 0xc, %g1
    0x100006020:            9a 12 61 2f  or        %o1, 0x12f, %o5
    0x100006024:            8b 2a f0 0c  sllx      %o3, 0xc, %g5
    0x100006028:            11 00 04 00  sethi     %hi(0x100000), %o0
    0x10000602c:            15 00 04 00  sethi     %hi(0x100000), %o2
    0x100006030:            ff 3b a8 df  std       %d62, [%sp + 0x8df]
    0x100006034:            ff 19 61 80  ldd       [%g5 + 0x180], %d62
    0x100006038:            ad 2e f0 0c  sllx      %i3, 0xc, %l6
    0x10000603c:            98 12 21 2f  or        %o0, 0x12f, %o4
    0x100006040:            92 12 a1 2e  or        %o2, 0x12e, %o1
    0x100006044:            89 2b 30 0c  sllx      %o4, 0xc, %g4
    0x100006048:            91 2a 70 0c  sllx      %o1, 0xc, %o0
    0x10000604c:            37 00 04 00  sethi     %hi(0x100000), %i3
    0x100006050:            ff 3b a8 c7  std       %d62, [%sp + 0x8c7]
    0x100006054:            e1 1d a2 98  ldd       [%l6 + 0x298], %d16
    0x100006058:            d5 19 22 a8  ldd       [%g4 + 0x2a8], %d10
    0x10000605c:            ff 1a 26 c0  ldd       [%o0 + 0x6c0], %d62
    0x100006060:            a2 16 e1 2e  or        %i3, 0x12e, %l1
    0x100006064:            ad 2c 70 0c  sllx      %l1, 0xc, %l6
    0x100006068:            ff 3b a8 e7  std       %d62, [%sp + 0x8e7]
    0x10000606c:            ff 1d a6 c8  ldd       [%l6 + 0x6c8], %d62
    0x100006070:            ad a1 49 58  fmuld     %d36, %d24, %d22
    0x100006074:            89 a2 89 5d  fmuld     %d10, %d60, %d4
    0x100006078:            87 2b 70 0c  sllx      %o5, 0xc, %g3
    0x10000607c:            91 a4 09 58  fmuld     %d16, %d24, %d8
    0x100006080:            1b 00 04 00  sethi     %hi(0x100000), %o5
    0x100006084:            ff 3b a8 ff  std       %d62, [%sp + 0x8ff]
    0x100006088:            ff 1b a8 df  ldd       [%sp + 0x8df], %d62
    0x10000608c:            85 a3 89 47  fmuld     %d14, %d38, %d2
    0x100006090:            b9 a2 49 47  fmuld     %d40, %d38, %d28
    0x100006094:            98 13 61 2e  or        %o5, 0x12e, %o4
    0x100006098:            bf a7 c9 59  fmuld     %d62, %d56, %d62
    0x10000609c:            93 2b 30 0c  sllx      %o4, 0xc, %o1
    0x1000060a0:            fb 1a 66 b8  ldd       [%o1 + 0x6b8], %d60
    0x1000060a4:            fb 3b a8 ef  std       %d60, [%sp + 0x8ef]
    0x1000060a8:            bb a6 c9 58  fmuld     %d58, %d24, %d60
    0x1000060ac:            b7 a1 09 56  fmuld     %d4, %d22, %d58
    0x1000060b0:            f7 3b a8 bf  std       %d58, [%sp + 0x8bf]
    0x1000060b4:            b7 a0 89 41  fmuld     %d2, %d32, %d58
    0x1000060b8:            b3 a6 49 48  fmuld     %d56, %d8, %d56
    0x1000060bc:            85 a7 88 41  faddd     %d30, %d32, %d2
    0x1000060c0:            89 a2 49 58  fmuld     %d40, %d24, %d4
    0x1000060c4:            a9 a5 c8 57  faddd     %d54, %d54, %d20
    0x1000060c8:            bf a7 c8 55  faddd     %d62, %d52, %d62
    0x1000060cc:            b7 a6 c8 5b  faddd     %d58, %d58, %d58
    0x1000060d0:            b3 a4 c8 59  faddd     %d50, %d56, %d56
    0x1000060d4:            8d a1 c8 45  faddd     %d38, %d36, %d6
    0x1000060d8:            a7 a1 09 42  fmuld     %d4, %d2, %d50
    0x1000060dc:            e7 3b a8 b7  std       %d50, [%sp + 0x8b7]
    0x1000060e0:            ab a5 08 5f  faddd     %d20, %d62, %d52
    0x1000060e4:            a7 a6 89 4b  fmuld     %d26, %d42, %d50
    0x1000060e8:            37 00 04 00  sethi     %hi(0x100000), %i3
    0x1000060ec:            a2 16 e1 2f  or        %i3, 0x12f, %l1
    0x1000060f0:            89 2c 70 0c  sllx      %l1, 0xc, %g4
    0x1000060f4:            eb 3b a8 d7  std       %d52, [%sp + 0x8d7]
    0x1000060f8:            eb 19 21 90  ldd       [%g4 + 0x190], %d52
    0x1000060fc:            89 a6 c8 59  faddd     %d58, %d56, %d4
    0x100006100:            81 a7 49 46  fmuld     %d60, %d6, %d0
    0x100006104:            b3 a3 49 42  fmuld     %d44, %d2, %d56
    0x100006108:            ab a5 49 53  fmuld     %d52, %d50, %d52
    0x10000610c:            ef 18 62 b8  ldd       [%g1 + 0x2b8], %d54
    0x100006110:            e5 18 a2 c0  ldd       [%g2 + 0x2c0], %d18
    0x100006114:            85 a0 49 45  fmuld     %d32, %d36, %d2
    0x100006118:            b7 a0 08 40  faddd     %d0, %d0, %d58
    0x10000611c:            bb a5 c9 45  fmuld     %d54, %d36, %d60
    0x100006120:            b3 a5 48 59  faddd     %d52, %d56, %d56
    0x100006124:            11 00 04 00  sethi     %hi(0x100000), %o0
    0x100006128:            d9 18 e2 90  ldd       [%g3 + 0x290], %d12
    0x10000612c:            92 12 21 2f  or        %o0, 0x12f, %o1
    0x100006130:            81 a4 89 58  fmuld     %d18, %d24, %d0
    0x100006134:            bb a7 48 5c  faddd     %d60, %d28, %d60
    0x100006138:            b7 a6 48 5b  faddd     %d56, %d58, %d58
    0x10000613c:            07 00 04 00  sethi     %hi(0x100000), %g3
    0x100006140:            b7 2a 70 0c  sllx      %o1, 0xc, %i3
    0x100006144:            e9 1e e2 c8  ldd       [%i3 + 0x2c8], %d20
    0x100006148:            8a 10 e1 2e  or        %g3, 0x12e, %g5
    0x10000614c:            ad 29 70 0c  sllx      %g5, 0xc, %l6
    0x100006150:            ff 1d a6 d0  ldd       [%l6 + 0x6d0], %d62
    0x100006154:            a9 a5 09 5a  fmuld     %d20, %d26, %d20
    0x100006158:            ab a6 09 51  fmuld     %d24, %d48, %d52
    0x10000615c:            a3 a3 09 45  fmuld     %d12, %d36, %d48
    0x100006160:            b3 a3 c8 42  faddd     %d46, %d2, %d56
    0x100006164:            bf a7 c9 58  fmuld     %d62, %d24, %d62
    0x100006168:            b9 a0 08 5c  faddd     %d0, %d28, %d28
    0x10000616c:            df 1b a8 af  ldd       [%sp + 0x8af], %d46
    0x100006170:            ff 3b a9 17  std       %d62, [%sp + 0x917]
    0x100006174:            ab a5 09 55  fmuld     %d20, %d52, %d52
    0x100006178:            ff 1b a8 b7  ldd       [%sp + 0x8b7], %d62
    0x10000617c:            a9 a4 09 59  fmuld     %d16, %d56, %d20
    0x100006180:            a3 a4 49 4f  fmuld     %d48, %d46, %d48
    0x100006184:            b9 a7 48 5c  faddd     %d60, %d28, %d28
    0x100006188:            9f a7 c8 5f  faddd     %d62, %d62, %d46
    0x10000618c:            fb 1b a8 c7  ldd       [%sp + 0x8c7], %d60
    0x100006190:            ff 1b a8 bf  ldd       [%sp + 0x8bf], %d62
    0x100006194:            b3 a3 49 56  fmuld     %d44, %d22, %d56
    0x100006198:            bb a7 49 56  fmuld     %d60, %d22, %d60
    0x10000619c:            ad a5 48 54  faddd     %d52, %d20, %d22
    0x1000061a0:            a3 a7 c8 51  faddd     %d62, %d48, %d48
    0x1000061a4:            97 a0 49 4b  fmuld     %d32, %d42, %d42
    0x1000061a8:            83 a2 49 45  fmuld     %d40, %d36, %d32
    0x1000061ac:            ff 1b a8 c7  ldd       [%sp + 0x8c7], %d62
    0x1000061b0:            d3 1b a9 0f  ldd       [%sp + 0x90f], %d40
    0x1000061b4:            9b a3 89 5e  fmuld     %d14, %d30, %d44
    0x1000061b8:            a9 a1 08 51  faddd     %d4, %d48, %d20
    0x1000061bc:            a3 a3 c8 56  faddd     %d46, %d22, %d48
    0x1000061c0:            ab a7 c9 47  fmuld     %d62, %d38, %d52
    0x1000061c4:            9f a2 48 5d  faddd     %d40, %d60, %d46
    0x1000061c8:            ff 1b a8 cf  ldd       [%sp + 0x8cf], %d62
    0x1000061cc:            93 a7 09 5a  fmuld     %d28, %d26, %d40
    0x1000061d0:            a7 a4 89 53  fmuld     %d18, %d50, %d50
    0x1000061d4:            ad a3 09 47  fmuld     %d12, %d38, %d22
    0x1000061d8:            bd a2 c8 5e  faddd     %d42, %d30, %d30
    0x1000061dc:            a5 a7 c9 42  fmuld     %d62, %d2, %d18
    0x1000061e0:            b9 a2 09 4b  fmuld     %d8, %d42, %d28
    0x1000061e4:            ff 1b a8 d7  ldd       [%sp + 0x8d7], %d62
    0x1000061e8:            9b a3 49 45  fmuld     %d44, %d36, %d44
    0x1000061ec:            a9 a5 08 49  faddd     %d20, %d40, %d20
    0x1000061f0:            a1 a7 c8 4f  faddd     %d62, %d46, %d16
    0x1000061f4:            af a5 c9 47  fmuld     %d54, %d38, %d54
    0x1000061f8:            ff 1b a8 df  ldd       [%sp + 0x8df], %d62
    0x1000061fc:            9f a5 89 5e  fmuld     %d22, %d30, %d46
    0x100006200:            ad a4 88 5c  faddd     %d18, %d28, %d22
    0x100006204:            b9 a7 c9 4b  fmuld     %d62, %d42, %d28
    0x100006208:            bf a3 48 4d  faddd     %d44, %d44, %d62
    0x10000620c:            83 a0 48 41  faddd     %d32, %d32, %d32
    0x100006210:            93 a0 08 57  faddd     %d0, %d54, %d40
    0x100006214:            17 00 04 00  sethi     %hi(0x100000), %o3
    0x100006218:            9e 12 e1 2e  or        %o3, 0x12e, %o7
    0x10000621c:            af 2b f0 0c  sllx      %o7, 0xc, %l7
    0x100006220:            fb 1d e7 40  ldd       [%l7 + 0x740], %d60
    0x100006224:            a5 a1 48 45  faddd     %d36, %d36, %d18
    0x100006228:            9b a7 c8 56  faddd     %d62, %d22, %d44
    0x10000622c:            97 a4 09 5d  fmuld     %d16, %d60, %d42
    0x100006230:            93 a0 48 49  faddd     %d32, %d40, %d40
    0x100006234:            a1 a2 89 47  fmuld     %d10, %d38, %d16
    0x100006238:            1b 00 04 00  sethi     %hi(0x100000), %o5
    0x10000623c:            98 13 61 2f  or        %o5, 0x12f, %o4
    0x100006240:            bd a6 48 59  faddd     %d56, %d56, %d30
    0x100006244:            83 2b 30 0c  sllx      %o4, 0xc, %g1
    0x100006248:            f3 18 61 c8  ldd       [%g1 + 0x1c8], %d56
    0x10000624c:            ad a4 88 47  faddd     %d18, %d38, %d22
    0x100006250:            ff 1b a8 e7  ldd       [%sp + 0x8e7], %d62
    0x100006254:            93 a2 49 5a  fmuld     %d40, %d26, %d40
    0x100006258:            83 a5 09 59  fmuld     %d20, %d56, %d32
    0x10000625c:            b5 a4 09 45  fmuld     %d16, %d36, %d26
    0x100006260:            a9 a1 49 58  fmuld     %d36, %d24, %d20
    0x100006264:            a5 a7 c9 45  fmuld     %d62, %d36, %d18
    0x100006268:            a1 a7 c9 47  fmuld     %d62, %d38, %d16
    0x10000626c:            ff 1b a8 ef  ldd       [%sp + 0x8ef], %d62
    0x100006270:            ad a5 89 47  fmuld     %d22, %d38, %d22
    0x100006274:            b5 a6 88 53  faddd     %d26, %d50, %d26
    0x100006278:            8f a7 c9 47  fmuld     %d62, %d38, %d38
    0x10000627c:            af a5 09 57  fmuld     %d20, %d54, %d54
    0x100006280:            a7 a7 c9 45  fmuld     %d62, %d36, %d50
    0x100006284:            ff 1b a8 f7  ldd       [%sp + 0x8f7], %d62
    0x100006288:            9d a2 89 58  fmuld     %d10, %d24, %d14
    0x10000628c:            b5 a1 89 5a  fmuld     %d6, %d26, %d26
    0x100006290:            a9 a1 c8 52  faddd     %d38, %d18, %d20
    0x100006294:            bf a7 c9 56  fmuld     %d62, %d22, %d62
    0x100006298:            af a5 c8 57  faddd     %d54, %d54, %d54
    0x10000629c:            8f a5 49 45  fmuld     %d52, %d36, %d38
    0x1000062a0:            ad a3 89 56  fmuld     %d14, %d22, %d22
    0x1000062a4:            a7 a4 c8 50  faddd     %d50, %d16, %d50
    0x1000062a8:            8b a5 49 58  fmuld     %d52, %d24, %d36
    0x1000062ac:            a5 a7 08 5f  faddd     %d28, %d62, %d18
    0x1000062b0:            ff 1b a8 ff  ldd       [%sp + 0x8ff], %d62
    0x1000062b4:            af a4 48 57  faddd     %d48, %d54, %d54
    0x1000062b8:            e3 1b a9 07  ldd       [%sp + 0x907], %d48
    0x1000062bc:            b9 a7 c9 58  fmuld     %d62, %d24, %d28
    0x1000062c0:            9f a5 88 4f  faddd     %d22, %d46, %d46
    0x1000062c4:            b1 a7 c9 46  fmuld     %d62, %d6, %d24
    0x1000062c8:            bf a0 00 51  fmovd     %d48, %d62
    0x1000062cc:            a1 a6 c8 47  faddd     %d58, %d38, %d16
    0x1000062d0:            cf 1f a7 df  ldd       [%fp + 0x7df], %d38
    0x1000062d4:            ad a5 08 5c  faddd     %d20, %d28, %d22
    0x1000062d8:            eb 1f a7 ef  ldd       [%fp + 0x7ef], %d52
    0x1000062dc:            f7 1f a7 e7  ldd       [%fp + 0x7e7], %d58
    0x1000062e0:            9d a1 c9 5f  fmuld     %d38, %d62, %d14
    0x1000062e4:            cf 1b a9 0f  ldd       [%sp + 0x90f], %d38
    0x1000062e8:            ff 1b a9 17  ldd       [%sp + 0x917], %d62
    0x1000062ec:            ab a5 49 51  fmuld     %d52, %d48, %d52
    0x1000062f0:            9f a3 48 4f  faddd     %d44, %d46, %d46
    0x1000062f4:            a3 a6 c9 51  fmuld     %d58, %d48, %d48
    0x1000062f8:            a9 a7 c8 58  faddd     %d62, %d24, %d20
    0x1000062fc:            8b a1 c8 45  faddd     %d38, %d36, %d36
    0x100006300:            bd a7 88 52  faddd     %d30, %d18, %d30
    0x100006304:            cf 1f a7 c7  ldd       [%fp + 0x7c7], %d38
    0x100006308:            ff 1b a9 1f  ldd       [%sp + 0x91f], %d62
    0x10000630c:            f7 1f a7 cf  ldd       [%fp + 0x7cf], %d58
    0x100006310:            d9 1f a7 bf  ldd       [%fp + 0x7bf], %d12
    0x100006314:            a5 a1 c9 5f  fmuld     %d38, %d62, %d18
    0x100006318:            b1 a4 09 5d  fmuld     %d16, %d60, %d24
    0x10000631c:            af a5 c8 5a  faddd     %d54, %d26, %d54
    0x100006320:            b5 a6 c9 5f  fmuld     %d58, %d62, %d26
    0x100006324:            a1 a3 09 5f  fmuld     %d12, %d62, %d16
    0x100006328:            9b a5 88 4b  faddd     %d22, %d42, %d44
    0x10000632c:            8f a3 89 43  fmuld     %d14, %d34, %d38
    0x100006330:            b7 a4 49 43  fmuld     %d48, %d34, %d58
    0x100006334:            8b a7 88 45  faddd     %d30, %d36, %d36
    0x100006338:            bf a5 49 43  fmuld     %d52, %d34, %d62
    0x10000633c:            97 a5 08 58  faddd     %d20, %d24, %d42
    0x100006340:            af a5 c9 59  fmuld     %d54, %d56, %d54
    0x100006344:            8f a1 c8 d0  fsubd     %d38, %d16, %d38
    0x100006348:            b9 a4 c8 5c  faddd     %d50, %d28, %d28
    0x10000634c:            b7 a6 c8 d2  fsubd     %d58, %d18, %d58
    0x100006350:            a7 a1 49 5d  fmuld     %d36, %d60, %d50
    0x100006354:            b1 a6 89 43  fmuld     %d26, %d34, %d24
    0x100006358:            ad a4 89 43  fmuld     %d18, %d34, %d22
    0x10000635c:            87 a4 09 43  fmuld     %d16, %d34, %d34
    0x100006360:            cb 1b a9 27  ldd       [%sp + 0x927], %d36
    0x100006364:            9b a3 48 41  faddd     %d44, %d32, %d44
    0x100006368:            9f a3 c8 49  faddd     %d46, %d40, %d46
    0x10000636c:            97 a2 c8 57  faddd     %d42, %d54, %d42
    0x100006370:            83 a1 c9 45  fmuld     %d38, %d36, %d32
    0x100006374:            bf a7 c8 da  fsubd     %d62, %d26, %d62
    0x100006378:            93 a6 c9 45  fmuld     %d58, %d36, %d40
    0x10000637c:            b7 a6 08 d5  fsubd     %d24, %d52, %d58
    0x100006380:            eb 3f a7 af  std       %d52, [%fp + 0x7af]
    0x100006384:            ab a0 c8 ce  fsubd     %d34, %d14, %d52
    0x100006388:            dd 3f a7 9f  std       %d14, [%fp + 0x79f]
    0x10000638c:            af a5 88 d1  fsubd     %d22, %d48, %d54
    0x100006390:            8f a7 08 53  faddd     %d28, %d50, %d38
    0x100006394:            b3 a3 c9 59  fmuld     %d46, %d56, %d56
    0x100006398:            c7 1b a9 2f  ldd       [%sp + 0x92f], %d34
    0x10000639c:            e3 3f a7 a7  std       %d48, [%fp + 0x7a7]
    0x1000063a0:            bb a7 c9 45  fmuld     %d62, %d36, %d60
    0x1000063a4:            a3 a0 49 4b  fmuld     %d32, %d42, %d48
    0x1000063a8:            a7 a3 89 4d  fmuld     %d14, %d44, %d50
    0x1000063ac:            fb 3f a7 6f  std       %d60, [%fp + 0x76f]
    0x1000063b0:            bb a6 c9 43  fmuld     %d58, %d34, %d60
    0x1000063b4:            c3 3f a7 5f  std       %d32, [%fp + 0x75f]
    0x1000063b8:            83 a5 49 43  fmuld     %d52, %d34, %d32
    0x1000063bc:            fb 3f a7 4f  std       %d60, [%fp + 0x74f]
    0x1000063c0:            f5 3f a7 8f  std       %d26, [%fp + 0x78f]
    0x1000063c4:            d3 3f a7 67  std       %d40, [%fp + 0x767]
    0x1000063c8:            c3 3f a7 3f  std       %d32, [%fp + 0x73f]
    0x1000063cc:            e1 3f a7 7f  std       %d16, [%fp + 0x77f]
    0x1000063d0:            93 a5 c9 43  fmuld     %d54, %d34, %d40
    0x1000063d4:            b3 a1 c8 59  faddd     %d38, %d56, %d56
    0x1000063d8:            b7 a4 c8 51  faddd     %d50, %d48, %d58
    0x1000063dc:            d3 3f a7 47  std       %d40, [%fp + 0x747]
    0x1000063e0:            e5 3f a7 87  std       %d18, [%fp + 0x787]
    0x1000063e4:            f7 3e a2 10  std       %d58, [%i2 + 0x210]
    0x1000063e8:            c7 1f a7 3f  ldd       [%fp + 0x73f], %d34
    0x1000063ec:            df 1f a7 7f  ldd       [%fp + 0x77f], %d46
    0x1000063f0:            96 06 a2 10  add       %i2, 0x210, %o3
    0x1000063f4:            8b a0 c9 4b  fmuld     %d34, %d42, %d36
    0x1000063f8:            bf a3 c9 59  fmuld     %d46, %d56, %d62
    0x1000063fc:            f4 5e a2 a0  ldx       [%i2 + 0x2a0], %i2
    0x100006400:            af a7 c8 45  faddd     %d62, %d36, %d54
    0x100006404:            ef 3a e0 10  std       %d54, [%o3 + 0x10]
    0x100006408:            ab a6 c8 57  faddd     %d58, %d54, %d52
    0x10000640c:            8f a0 00 d5  fnegd     %d52, %d38
    0x100006410:            cf 3a e0 08  std       %d38, [%o3 + 0x8]
    0x100006414:            c3 1f a7 67  ldd       [%fp + 0x767], %d32
    0x100006418:            fb 1f a7 a7  ldd       [%fp + 0x7a7], %d60
    0x10000641c:            93 a0 49 4b  fmuld     %d32, %d42, %d40
    0x100006420:            a3 a7 49 4d  fmuld     %d60, %d44, %d48
    0x100006424:            af a4 48 49  faddd     %d48, %d40, %d54
    0x100006428:            ef 3a e0 18  std       %d54, [%o3 + 0x18]
    0x10000642c:            e7 1f a7 47  ldd       [%fp + 0x747], %d50
    0x100006430:            c7 1f a7 87  ldd       [%fp + 0x787], %d34
    0x100006434:            9f a4 c9 4b  fmuld     %d50, %d42, %d46
    0x100006438:            8b a0 c9 59  fmuld     %d34, %d56, %d36
    0x10000643c:            bf a1 48 4f  faddd     %d36, %d46, %d62
    0x100006440:            ff 3a e0 28  std       %d62, [%o3 + 0x28]
    0x100006444:            b7 a5 c8 5f  faddd     %d54, %d62, %d58
    0x100006448:            ab a0 00 db  fnegd     %d58, %d52
    0x10000644c:            eb 3a e0 20  std       %d52, [%o3 + 0x20]
    0x100006450:            cf 1f a7 6f  ldd       [%fp + 0x76f], %d38
    0x100006454:            c3 1f a7 af  ldd       [%fp + 0x7af], %d32
    0x100006458:            93 a1 c9 4b  fmuld     %d38, %d42, %d40
    0x10000645c:            9b a0 49 4d  fmuld     %d32, %d44, %d44
    0x100006460:            9f a3 48 49  faddd     %d44, %d40, %d46
    0x100006464:            df 3a e0 30  std       %d46, [%o3 + 0x30]
    0x100006468:            e3 1f a7 4f  ldd       [%fp + 0x74f], %d48
    0x10000646c:            fb 1f a7 8f  ldd       [%fp + 0x78f], %d60
    0x100006470:            97 a4 49 4b  fmuld     %d48, %d42, %d42
    0x100006474:            a7 a7 49 59  fmuld     %d60, %d56, %d50
    0x100006478:            87 a4 c8 4b  faddd     %d50, %d42, %d34
    0x10000647c:            c7 3a e0 40  std       %d34, [%o3 + 0x40]
    0x100006480:            8b a3 c8 43  faddd     %d46, %d34, %d36
    0x100006484:            bf a0 00 c5  fnegd     %d36, %d62
    0x100006488:            ff 3a e0 38  std       %d62, [%o3 + 0x38]
    0x10000648c:            2a fe be 39  brnz,a,pt %i2, -0x71c   <0x100005d70>
    0x100006490:            e3 1f 2c b8  ldd       [%i4 + 0xcb8], %d48
    0x100006494:            ea 5d 60 18  ldx       [%l5 + 0x18], %l5
    0x100006498:            2a fd 7e 2c  brnz,a,pt %l5, -0x750   <0x100005d48>
    0x10000649c:            d0 5d 60 00  ldx       [%l5], %o0
    0x1000064a0:            d3 1f 2c b8  ldd       [%i4 + 0xcb8], %d40
    0x1000064a4:            e8 5e 60 00  ldx       [%i1], %l4
    0x1000064a8:            d8 5e 60 08  ldx       [%i1 + 0x8], %o4
    0x1000064ac:            ab 2d 30 03  sllx      %l4, 0x3, %l5
    0x1000064b0:            de 5d 40 1d  ldx       [%l5 + %i5], %o7
    0x1000064b4:            da 5e 60 10  ldx       [%i1 + 0x10], %o5
    0x1000064b8:            85 2b 30 03  sllx      %o4, 0x3, %g2
    0x1000064bc:            c8 5b c0 02  ldx       [%o7 + %g2], %g4
    0x1000064c0:            87 2b 70 05  sllx      %o5, 0x5, %g3
    0x1000064c4:            ca 59 00 03  ldx       [%g4 + %g3], %g5
    0x1000064c8:            22 c1 40 2a  brz,a,pn  %g5, +0xa8    <0x100006570>
    0x1000064cc:            f2 5e 60 18  ldx       [%i1 + 0x18], %i1
    0x1000064d0:            c3 19 60 20  ldd       [%g5 + 0x20], %d32
    0x1000064d4:            f3 19 60 28  ldd       [%g5 + 0x28], %d56
    0x1000064d8:            cf 19 62 18  ldd       [%g5 + 0x218], %d38
    0x1000064dc:            db 19 62 20  ldd       [%g5 + 0x220], %d44
    0x1000064e0:            d7 19 62 10  ldd       [%g5 + 0x210], %d42
    0x1000064e4:            c7 19 60 18  ldd       [%g5 + 0x18], %d34
    0x1000064e8:            9f a0 49 47  fmuld     %d32, %d38, %d46
    0x1000064ec:            8b a6 49 4d  fmuld     %d56, %d44, %d36
    0x1000064f0:            eb 19 62 30  ldd       [%g5 + 0x230], %d52
    0x1000064f4:            e7 19 60 38  ldd       [%g5 + 0x38], %d50
    0x1000064f8:            fb 19 60 40  ldd       [%g5 + 0x40], %d60
    0x1000064fc:            e3 19 62 38  ldd       [%g5 + 0x238], %d48
    0x100006500:            9b a0 c9 4b  fmuld     %d34, %d42, %d44
    0x100006504:            87 a4 c9 55  fmuld     %d50, %d52, %d34
    0x100006508:            ab a7 49 51  fmuld     %d60, %d48, %d52
    0x10000650c:            a7 a1 48 4f  faddd     %d36, %d46, %d50
    0x100006510:            f7 19 62 28  ldd       [%g5 + 0x228], %d58
    0x100006514:            c3 19 60 30  ldd       [%g5 + 0x30], %d32
    0x100006518:            ff 19 62 48  ldd       [%g5 + 0x248], %d62
    0x10000651c:            cf 19 60 50  ldd       [%g5 + 0x50], %d38
    0x100006520:            f3 19 60 58  ldd       [%g5 + 0x58], %d56
    0x100006524:            ef 19 62 50  ldd       [%g5 + 0x250], %d54
    0x100006528:            a3 a1 c9 5f  fmuld     %d38, %d62, %d48
    0x10000652c:            97 a0 49 5b  fmuld     %d32, %d58, %d42
    0x100006530:            bb a6 49 57  fmuld     %d56, %d54, %d60
    0x100006534:            8f a5 48 43  faddd     %d52, %d34, %d38
    0x100006538:            b7 a3 48 53  faddd     %d44, %d50, %d58
    0x10000653c:            df 19 62 40  ldd       [%g5 + 0x240], %d46
    0x100006540:            cb 19 60 48  ldd       [%g5 + 0x48], %d36
    0x100006544:            ca 59 62 a0  ldx       [%g5 + 0x2a0], %g5
    0x100006548:            83 a7 48 51  faddd     %d60, %d48, %d32
    0x10000654c:            bf a1 49 4f  fmuld     %d36, %d46, %d62
    0x100006550:            af a6 c8 49  faddd     %d58, %d40, %d54
    0x100006554:            b3 a2 c8 47  faddd     %d42, %d38, %d56
    0x100006558:            ab a7 c8 41  faddd     %d62, %d32, %d52
    0x10000655c:            87 a6 48 57  faddd     %d56, %d54, %d34
    0x100006560:            93 a5 48 43  faddd     %d52, %d34, %d40
    0x100006564:            2a f9 7f dc  brnz,a,pt %g5, -0x90    <0x1000064d4>
    0x100006568:            c3 19 60 20  ldd       [%g5 + 0x20], %d32
    0x10000656c:            f2 5e 60 18  ldx       [%i1 + 0x18], %i1
    0x100006570:            2a fe 7f ce  brnz,a,pt %i1, -0xc8    <0x1000064a8>
    0x100006574:            e8 5e 60 00  ldx       [%i1], %l4
    0x100006578:            10 80 00 04  ba        +0x10         <0x100006588>
    0x10000657c:            35 00 04 00  sethi     %hi(0x100000), %i2
    0x100006580:            d3 1f 2c b8  ldd       [%i4 + 0xcb8], %d40
    0x100006584:            35 00 04 00  sethi     %hi(0x100000), %i2
    0x100006588:            d3 3b a8 af  std       %d40, [%sp + 0x8af]
    0x10000658c:            b2 16 a1 2e  or        %i2, 0x12e, %i1
    0x100006590:            b1 2e 70 0c  sllx      %i1, 0xc, %i0
    0x100006594:            f8 5e 22 88  ldx       [%i0 + 0x288], %i4
    0x100006598:            40 04 9c 52  call      +0x127148     <0x10012d6e0>
    0x10000659c:            90 07 20 30  add       %i4, 0x30, %o0
    0x1000065a0:            ef 1c 20 00  ldd       [%l0], %d54
    0x1000065a4:            d3 1b a8 af  ldd       [%sp + 0x8af], %d40
    0x1000065a8:            e4 5e 22 88  ldx       [%i0 + 0x288], %l2
    0x1000065ac:            b7 a5 c8 49  faddd     %d54, %d40, %d58
    0x1000065b0:            f7 3c 20 00  std       %d58, [%l0]
    0x1000065b4:            b0 04 a0 30  add       %l2, 0x30, %i0
    0x1000065b8:            40 04 9c 52  call      +0x127148     <0x10012d700>
    0x1000065bc:            81 e8 20 00  restore   %g0, 0x0, %g0
    0x1000065c0:            00 00 00 00  illtrap   0x0
    0x1000065c4:            00 00 00 00  illtrap   0x0
KINETI()
    0x1000065c8:            9d e3 bf 30  save      %sp, -0xd0, %sp
    0x1000065cc:            3b 00 04 00  sethi     %hi(0x100000), %i5
    0x1000065d0:            b2 17 61 2f  or        %i5, 0x12f, %i1
    0x1000065d4:            39 00 04 00  sethi     %hi(0x100000), %i4
    0x1000065d8:            35 00 04 00  sethi     %hi(0x100000), %i2
    0x1000065dc:            bb 2e f0 03  sllx      %i3, 0x3, %i5
    0x1000065e0:            2b 00 04 00  sethi     %hi(0x100000), %l5
    0x1000065e4:            ac 17 21 2e  or        %i4, 0x12e, %l6
    0x1000065e8:            b7 2e 70 0c  sllx      %i1, 0xc, %i3
    0x1000065ec:            ae 16 a1 2e  or        %i2, 0x12e, %l7
    0x1000065f0:            a8 15 60 06  or        %l5, 0x6, %l4
    0x1000065f4:            a1 2d f0 0c  sllx      %l7, 0xc, %l0
    0x1000065f8:            b9 2d b0 0c  sllx      %l6, 0xc, %i4
    0x1000065fc:            a3 2d 30 0c  sllx      %l4, 0xc, %l1
    0x100006600:            a4 10 20 00  clr       %l2
    0x100006604:            f2 5e e3 28  ldx       [%i3 + 0x328], %i1
    0x100006608:            a6 10 20 60  mov       0x60, %l3
    0x10000660c:            ee 5e 40 1d  ldx       [%i1 + %i5], %l7
    0x100006610:            f5 1c 65 c0  ldd       [%l1 + 0x5c0], %d26
    0x100006614:            02 c5 c0 1e  brz,pn    %l7, +0x78    <0x10000668c>
    0x100006618:            c2 5c 22 b0  ldx       [%l0 + 0x2b0], %g1
    0x10000661c:            d6 5d e0 00  ldx       [%l7], %o3
    0x100006620:            d2 5d e0 08  ldx       [%l7 + 0x8], %o1
    0x100006624:            95 2a f0 03  sllx      %o3, 0x3, %o2
    0x100006628:            c8 5a 80 01  ldx       [%o2 + %g1], %g4
    0x10000662c:            d0 5d e0 10  ldx       [%l7 + 0x10], %o0
    0x100006630:            8b 2a 70 03  sllx      %o1, 0x3, %g5
    0x100006634:            c4 59 00 05  ldx       [%g4 + %g5], %g2
    0x100006638:            87 2a 30 05  sllx      %o0, 0x5, %g3
    0x10000663c:            f4 58 80 03  ldx       [%g2 + %g3], %i2
    0x100006640:            02 c6 80 10  brz,pn    %i2, +0x40    <0x100006680>
    0x100006644:            98 06 80 13  add       %i2, %l3, %o4
    0x100006648:            d9 1b 20 08  ldd       [%o4 + 0x8], %d12
    0x10000664c:            d1 1b 20 10  ldd       [%o4 + 0x10], %d8
    0x100006650:            cd 1e 80 13  ldd       [%i2 + %l3], %d6
    0x100006654:            95 a1 09 4c  fmuld     %d4, %d12, %d10
    0x100006658:            9d a2 09 48  fmuld     %d8, %d8, %d14
    0x10000665c:            a1 a1 89 46  fmuld     %d6, %d6, %d16
    0x100006660:            f4 5e a2 a0  ldx       [%i2 + 0x2a0], %i2
    0x100006664:            a5 a2 89 4c  fmuld     %d10, %d12, %d18
    0x100006668:            a9 a4 08 4e  faddd     %d16, %d14, %d20
    0x10000666c:            b1 a6 88 52  faddd     %d26, %d18, %d24
    0x100006670:            ad a5 09 42  fmuld     %d20, %d2, %d22
    0x100006674:            b5 a6 08 56  faddd     %d24, %d22, %d26
    0x100006678:            0a fe bf f4  brnz,pt   %i2, -0x30    <0x100006648>
    0x10000667c:            98 06 80 13  add       %i2, %l3, %o4
    0x100006680:            ee 5d e0 18  ldx       [%l7 + 0x18], %l7
    0x100006684:            2a fd ff e7  brnz,a,pt %l7, -0x64    <0x100006620>
    0x100006688:            d6 5d e0 00  ldx       [%l7], %o3
    0x10000668c:            de 5f 22 88  ldx       [%i4 + 0x288], %o7
    0x100006690:            c9 3b a8 af  std       %d4, [%sp + 0x8af]
    0x100006694:            c5 3b a8 b7  std       %d2, [%sp + 0x8b7]
    0x100006698:            90 03 e0 60  add       %o7, 0x60, %o0
    0x10000669c:            f5 3b a8 bf  std       %d26, [%sp + 0x8bf]
    0x1000066a0:            40 04 9c 10  call      +0x127040     <0x10012d6e0>
    0x1000066a4:            01 00 00 00  nop
    0x1000066a8:            f5 1b a8 bf  ldd       [%sp + 0x8bf], %d26
    0x1000066ac:            c1 1e 20 00  ldd       [%i0], %d0
    0x1000066b0:            da 5f 22 88  ldx       [%i4 + 0x288], %o5
    0x1000066b4:            a4 04 a0 01  add       %l2, 0x1, %l2
    0x1000066b8:            a6 04 e0 18  add       %l3, 0x18, %l3
    0x1000066bc:            81 a0 08 5a  faddd     %d0, %d26, %d0
    0x1000066c0:            90 03 60 60  add       %o5, 0x60, %o0
    0x1000066c4:            40 04 9c 0f  call      +0x12703c     <0x10012d700>
    0x1000066c8:            c1 3e 20 00  std       %d0, [%i0]
    0x1000066cc:            c9 1b a8 af  ldd       [%sp + 0x8af], %d4
    0x1000066d0:            c5 1b a8 b7  ldd       [%sp + 0x8b7], %d2
    0x1000066d4:            80 a4 a0 02  cmp       %l2, 0x2
    0x1000066d8:            b0 06 20 08  add       %i0, 0x8, %i0
    0x1000066dc:            24 6f ff cc  ble,a,pt  %xcc, -0xd0   <0x10000660c>
    0x1000066e0:            f2 5e e3 28  ldx       [%i3 + 0x328], %i1
    0x1000066e4:            81 c7 e0 08  ret
    0x1000066e8:            81 e8 20 00  restore   %g0, 0x0, %g0
    0x1000066ec:            00 00 00 00  illtrap   0x0
    0x1000066f0:            00 00 00 00  illtrap   0x0
    0x1000066f4:            00 00 00 00  illtrap   0x0
    0x1000066f8:            3f f0 00 00  0x3ff00000
    0x1000066fc:            00 00 00 00  illtrap   0x0
    0x100006700:            40 08 00 00  call      +0x200000     <0x100206700>
    0x100006704:            00 00 00 00  illtrap   0x0
    0x100006708:            3f e0 00 00  0x3fe00000
    0x10000670c:            00 00 00 00  illtrap   0x0
MDMAIN()
    0x100006710:            9d e3 bc e0  save      %sp, -0x320, %sp
    0x100006714:            3b 00 04 00  sethi     %hi(0x100000), %i5
    0x100006718:            a2 17 61 2f  or        %i5, 0x12f, %l1
    0x10000671c:            af 2c 70 0c  sllx      %l1, 0xc, %l7
    0x100006720:            e4 5d e3 08  ldx       [%l7 + 0x308], %l2
    0x100006724:            bb 2f 30 03  sllx      %i4, 0x3, %i5
    0x100006728:            f6 73 a8 bf  stx       %i3, [%sp + 0x8bf]
    0x10000672c:            d2 5c 80 1d  ldx       [%l2 + %i5], %o1
    0x100006730:            29 00 04 00  sethi     %hi(0x100000), %l4
    0x100006734:            f0 73 a8 b7  stx       %i0, [%sp + 0x8b7]
    0x100006738:            ca 5a 60 08  ldx       [%o1 + 0x8], %g5
    0x10000673c:            e4 5a 60 00  ldx       [%o1], %l2
    0x100006740:            aa 15 21 2e  or        %l4, 0x12e, %l5
    0x100006744:            80 a4 80 05  cmp       %l2, %g5
    0x100006748:            14 60 00 3a  bg,pn     %xcc, +0xe8   <0x100006830>
    0x10000674c:            ad 2d 70 0c  sllx      %l5, 0xc, %l6
    0x100006750:            05 00 04 00  sethi     %hi(0x100000), %g2
    0x100006754:            ea 5a 60 10  ldx       [%o1 + 0x10], %l5
    0x100006758:            9a 10 a1 2f  or        %g2, 0x12f, %o5
    0x10000675c:            c8 5a 60 18  ldx       [%o1 + 0x18], %g4
    0x100006760:            a7 2b 70 0c  sllx      %o5, 0xc, %l3
    0x100006764:            80 a5 40 04  cmp       %l5, %g4
    0x100006768:            34 60 00 2f  bg,a,pn   %xcc, +0xbc   <0x100006824>
    0x10000676c:            a4 04 a0 01  add       %l2, 0x1, %l2
    0x100006770:            e2 5a 60 20  ldx       [%o1 + 0x20], %l1
    0x100006774:            f6 5a 60 28  ldx       [%o1 + 0x28], %i3
    0x100006778:            80 a4 40 1b  cmp       %l1, %i3
    0x10000677c:            34 60 00 25  bg,a,pn   %xcc, +0x94   <0x100006810>
    0x100006780:            aa 05 60 01  add       %l5, 0x1, %l5
    0x100006784:            c1 3b a8 d7  std       %d0, [%sp + 0x8d7]
    0x100006788:            40 04 9c 0e  call      +0x127038     <0x10012d7c0>
    0x10000678c:            90 10 20 20  mov       0x20, %o0
    0x100006790:            d6 5c e3 28  ldx       [%l3 + 0x328], %o3
    0x100006794:            c0 72 20 18  clrx      [%o0 + 0x18]
    0x100006798:            e4 72 20 00  stx       %l2, [%o0]
    0x10000679c:            ea 72 20 08  stx       %l5, [%o0 + 0x8]
    0x1000067a0:            e2 72 20 10  stx       %l1, [%o0 + 0x10]
    0x1000067a4:            d8 5f 40 0b  ldx       [%i5 + %o3], %o4
    0x1000067a8:            c1 1b a8 d7  ldd       [%sp + 0x8d7], %d0
    0x1000067ac:            2a c3 00 05  brnz,a,pn %o4, +0x14    <0x1000067c0>
    0x1000067b0:            da 5b 20 18  ldx       [%o4 + 0x18], %o5
    0x1000067b4:            d0 77 40 0b  stx       %o0, [%i5 + %o3]
    0x1000067b8:            10 80 00 0e  ba        +0x38         <0x1000067f0>
    0x1000067bc:            de 5d e3 08  ldx       [%l7 + 0x308], %o7
    0x1000067c0:            22 c3 40 0b  brz,a,pn  %o5, +0x2c    <0x1000067ec>
    0x1000067c4:            d0 73 20 18  stx       %o0, [%o4 + 0x18]
    0x1000067c8:            98 10 00 0d  mov       %o5, %o4
    0x1000067cc:            da 5b 60 18  ldx       [%o5 + 0x18], %o5
    0x1000067d0:            22 c3 40 07  brz,a,pn  %o5, +0x1c    <0x1000067ec>
    0x1000067d4:            d0 73 20 18  stx       %o0, [%o4 + 0x18]
    0x1000067d8:            98 10 00 0d  mov       %o5, %o4
    0x1000067dc:            da 5b 60 18  ldx       [%o5 + 0x18], %o5
    0x1000067e0:            2a fb 7f fb  brnz,a,pt %o5, -0x14    <0x1000067cc>
    0x1000067e4:            98 10 00 0d  mov       %o5, %o4
    0x1000067e8:            d0 73 20 18  stx       %o0, [%o4 + 0x18]
    0x1000067ec:            de 5d e3 08  ldx       [%l7 + 0x308], %o7
    0x1000067f0:            d2 5b c0 1d  ldx       [%o7 + %i5], %o1
    0x1000067f4:            a2 04 60 01  add       %l1, 0x1, %l1
    0x1000067f8:            f6 5a 60 28  ldx       [%o1 + 0x28], %i3
    0x1000067fc:            80 a4 40 1b  cmp       %l1, %i3
    0x100006800:            24 6f ff e2  ble,a,pt  %xcc, -0x78   <0x100006788>
    0x100006804:            c1 3b a8 d7  std       %d0, [%sp + 0x8d7]
    0x100006808:            c8 5a 60 18  ldx       [%o1 + 0x18], %g4
    0x10000680c:            aa 05 60 01  add       %l5, 0x1, %l5
    0x100006810:            80 a5 40 04  cmp       %l5, %g4
    0x100006814:            24 6f ff d9  ble,a,pt  %xcc, -0x9c   <0x100006778>
    0x100006818:            e2 5a 60 20  ldx       [%o1 + 0x20], %l1
    0x10000681c:            ca 5a 60 08  ldx       [%o1 + 0x8], %g5
    0x100006820:            a4 04 a0 01  add       %l2, 0x1, %l2
    0x100006824:            80 a4 80 05  cmp       %l2, %g5
    0x100006828:            24 6f ff cf  ble,a,pt  %xcc, -0xc4   <0x100006764>
    0x10000682c:            ea 5a 60 10  ldx       [%o1 + 0x10], %l5
    0x100006830:            d0 5d a2 88  ldx       [%l6 + 0x288], %o0
    0x100006834:            92 10 00 1c  mov       %i4, %o1
    0x100006838:            c1 3b a8 d7  std       %d0, [%sp + 0x8d7]
    0x10000683c:            7f ff fd 27  call      -0xb64        <0x100005cd8>
    0x100006840:            90 02 21 40  add       %o0, 0x140, %o0
    0x100006844:            c6 5d a2 88  ldx       [%l6 + 0x288], %g3
    0x100006848:            40 04 9b a6  call      +0x126e98     <0x10012d6e0>
    0x10000684c:            90 00 e0 90  add       %g3, 0x90, %o0
    0x100006850:            0a c2 03 c1  brnz,pn   %o0, +0xf04   <0x100007754>
    0x100006854:            d4 5d a2 88  ldx       [%l6 + 0x288], %o2
    0x100006858:            e4 5a a0 b8  ldx       [%o2 + 0xb8], %l2
    0x10000685c:            2b 00 04 00  sethi     %hi(0x100000), %l5
    0x100006860:            a8 15 61 2f  or        %l5, 0x12f, %l4
    0x100006864:            a6 04 a0 01  add       %l2, 0x1, %l3
    0x100006868:            ab 2d 30 0c  sllx      %l4, 0xc, %l5
    0x10000686c:            e6 72 a0 b8  stx       %l3, [%o2 + 0xb8]
    0x100006870:            f0 5d 63 18  ldx       [%l5 + 0x318], %i0
    0x100006874:            fa 5a a0 c0  ldx       [%o2 + 0xc0], %i5
    0x100006878:            80 a4 c0 18  cmp       %l3, %i0
    0x10000687c:            02 60 00 1b  be,pn     %xcc, +0x6c   <0x1000068e8>
    0x100006880:            90 10 20 01  mov       0x1, %o0
    0x100006884:            40 04 9b e7  call      +0x126f9c     <0x10012d820>
    0x100006888:            92 07 a7 f7  add       %fp, 0x7f7, %o1
    0x10000688c:            ee 5d a2 88  ldx       [%l6 + 0x288], %l7
    0x100006890:            c1 1b a8 d7  ldd       [%sp + 0x8d7], %d0
    0x100006894:            e2 5d e0 c0  ldx       [%l7 + 0xc0], %l1
    0x100006898:            80 a7 40 11  cmp       %i5, %l1
    0x10000689c:            12 60 00 0c  bne,pn    %xcc, +0x30   <0x1000068cc>
    0x1000068a0:            92 05 e0 90  add       %l7, 0x90, %o1
    0x1000068a4:            90 05 e0 a8  add       %l7, 0xa8, %o0
    0x1000068a8:            40 04 9b e6  call      +0x126f98     <0x10012d840>
    0x1000068ac:            c1 3b a8 d7  std       %d0, [%sp + 0x8d7]
    0x1000068b0:            c1 1b a8 d7  ldd       [%sp + 0x8d7], %d0
    0x1000068b4:            0a c2 00 06  brnz,pn   %o0, +0x18    <0x1000068cc>
    0x1000068b8:            ee 5d a2 88  ldx       [%l6 + 0x288], %l7
    0x1000068bc:            ca 5d e0 c0  ldx       [%l7 + 0xc0], %g5
    0x1000068c0:            80 a7 40 05  cmp       %i5, %g5
    0x1000068c4:            02 6f ff f8  be,pt     %xcc, -0x20   <0x1000068a4>
    0x1000068c8:            92 05 e0 90  add       %l7, 0x90, %o1
    0x1000068cc:            c8 07 a7 fb  ld        [%fp + 0x7fb], %g4
    0x1000068d0:            92 07 a7 ef  add       %fp, 0x7ef, %o1
    0x1000068d4:            c1 3b a8 d7  std       %d0, [%sp + 0x8d7]
    0x1000068d8:            40 04 9b d2  call      +0x126f48     <0x10012d820>
    0x1000068dc:            91 39 20 00  sra       %g4, 0x0, %o0
    0x1000068e0:            10 80 00 08  ba        +0x20         <0x100006900>
    0x1000068e4:            01 00 00 00  nop
    0x1000068e8:            b6 10 20 00  clr       %i3
    0x1000068ec:            c0 72 a0 b8  clrx      [%o2 + 0xb8]
    0x1000068f0:            b7 7f 64 01  movre     %i5, 0x1, %i3
    0x1000068f4:            f6 72 a0 c0  stx       %i3, [%o2 + 0xc0]
    0x1000068f8:            40 04 9b da  call      +0x126f68     <0x10012d860>
    0x1000068fc:            90 02 a0 a8  add       %o2, 0xa8, %o0
    0x100006900:            de 5d a2 88  ldx       [%l6 + 0x288], %o7
    0x100006904:            90 03 e0 90  add       %o7, 0x90, %o0
    0x100006908:            40 04 9b 7e  call      +0x126df8     <0x10012d700>
    0x10000690c:            01 00 00 00  nop
    0x100006910:            da 5d a2 88  ldx       [%l6 + 0x288], %o5
    0x100006914:            94 10 00 1c  mov       %i4, %o2
    0x100006918:            90 10 20 02  mov       0x2, %o0
    0x10000691c:            7f ff f7 ef  call      -0x2044       <0x1000048d8>
    0x100006920:            92 03 61 40  add       %o5, 0x140, %o1
    0x100006924:            d6 5d a2 88  ldx       [%l6 + 0x288], %o3
    0x100006928:            40 04 9b 6e  call      +0x126db8     <0x10012d6e0>
    0x10000692c:            90 02 e0 90  add       %o3, 0x90, %o0
    0x100006930:            0a c2 03 93  brnz,pn   %o0, +0xe4c   <0x10000777c>
    0x100006934:            c6 5d a2 88  ldx       [%l6 + 0x288], %g3
    0x100006938:            f0 58 e0 b8  ldx       [%g3 + 0xb8], %i0
    0x10000693c:            84 06 20 01  add       %i0, 0x1, %g2
    0x100006940:            c4 70 e0 b8  stx       %g2, [%g3 + 0xb8]
    0x100006944:            d2 5d 63 18  ldx       [%l5 + 0x318], %o1
    0x100006948:            fa 58 e0 c0  ldx       [%g3 + 0xc0], %i5
    0x10000694c:            80 a0 80 09  cmp       %g2, %o1
    0x100006950:            02 60 00 1b  be,pn     %xcc, +0x6c   <0x1000069bc>
    0x100006954:            90 10 20 01  mov       0x1, %o0
    0x100006958:            40 04 9b b2  call      +0x126ec8     <0x10012d820>
    0x10000695c:            92 07 a7 e7  add       %fp, 0x7e7, %o1
    0x100006960:            e6 5d a2 88  ldx       [%l6 + 0x288], %l3
    0x100006964:            c1 1b a8 d7  ldd       [%sp + 0x8d7], %d0
    0x100006968:            e8 5c e0 c0  ldx       [%l3 + 0xc0], %l4
    0x10000696c:            80 a7 40 14  cmp       %i5, %l4
    0x100006970:            12 60 00 0c  bne,pn    %xcc, +0x30   <0x1000069a0>
    0x100006974:            92 04 e0 90  add       %l3, 0x90, %o1
    0x100006978:            90 04 e0 a8  add       %l3, 0xa8, %o0
    0x10000697c:            40 04 9b b1  call      +0x126ec4     <0x10012d840>
    0x100006980:            c1 3b a8 d7  std       %d0, [%sp + 0x8d7]
    0x100006984:            c1 1b a8 d7  ldd       [%sp + 0x8d7], %d0
    0x100006988:            0a c2 00 06  brnz,pn   %o0, +0x18    <0x1000069a0>
    0x10000698c:            e6 5d a2 88  ldx       [%l6 + 0x288], %l3
    0x100006990:            e4 5c e0 c0  ldx       [%l3 + 0xc0], %l2
    0x100006994:            80 a7 40 12  cmp       %i5, %l2
    0x100006998:            02 6f ff f8  be,pt     %xcc, -0x20   <0x100006978>
    0x10000699c:            92 04 e0 90  add       %l3, 0x90, %o1
    0x1000069a0:            ee 07 a7 eb  ld        [%fp + 0x7eb], %l7
    0x1000069a4:            92 07 a7 df  add       %fp, 0x7df, %o1
    0x1000069a8:            c1 3b a8 d7  std       %d0, [%sp + 0x8d7]
    0x1000069ac:            40 04 9b 9d  call      +0x126e74     <0x10012d820>
    0x1000069b0:            91 3d e0 00  sra       %l7, 0x0, %o0
    0x1000069b4:            10 80 00 08  ba        +0x20         <0x1000069d4>
    0x1000069b8:            01 00 00 00  nop
    0x1000069bc:            a2 10 20 00  clr       %l1
    0x1000069c0:            c0 70 e0 b8  clrx      [%g3 + 0xb8]
    0x1000069c4:            a3 7f 64 01  movre     %i5, 0x1, %l1
    0x1000069c8:            e2 70 e0 c0  stx       %l1, [%g3 + 0xc0]
    0x1000069cc:            40 04 9b a5  call      +0x126e94     <0x10012d860>
    0x1000069d0:            90 00 e0 a8  add       %g3, 0xa8, %o0
    0x1000069d4:            f0 5d a2 88  ldx       [%l6 + 0x288], %i0
    0x1000069d8:            ae 10 20 01  mov       0x1, %l7
    0x1000069dc:            40 04 9b 49  call      +0x126d24     <0x10012d700>
    0x1000069e0:            90 06 20 90  add       %i0, 0x90, %o0
    0x1000069e4:            f0 5b a8 b7  ldx       [%sp + 0x8b7], %i0
    0x1000069e8:            c1 1b a8 d7  ldd       [%sp + 0x8d7], %d0
    0x1000069ec:            80 a5 c0 18  cmp       %l7, %i0
    0x1000069f0:            14 60 03 57  bg,pn     %xcc, +0xd5c  <0x10000774c>
    0x1000069f4:            8a 10 20 00  clr       %g5
    0x1000069f8:            8b 7e 64 01  movre     %i1, 0x1, %g5
    0x1000069fc:            09 00 04 00  sethi     %hi(0x100000), %g4
    0x100006a00:            a0 06 40 05  add       %i1, %g5, %l0
    0x100006a04:            86 11 20 06  or        %g4, 0x6, %g3
    0x100006a08:            b7 3e 70 3f  srax      %i1, 0x3f, %i3
    0x100006a0c:            bb 28 f0 0c  sllx      %g3, 0xc, %i5
    0x100006a10:            a6 24 20 01  sub       %l0, 0x1, %l3
    0x100006a14:            9e 1e 40 1b  xor       %i1, %i3, %o7
    0x100006a18:            e5 1f 66 f0  ldd       [%i5 + 0x6f0], %d18
    0x100006a1c:            e9 1f 66 f0  ldd       [%i5 + 0x6f0], %d20
    0x100006a20:            80 8c 00 13  btst      %l3, %l0
    0x100006a24:            ed 1f 66 f0  ldd       [%i5 + 0x6f0], %d22
    0x100006a28:            a4 23 c0 1b  sub       %o7, %i3, %l2
    0x100006a2c:            a8 10 20 01  mov       0x1, %l4
    0x100006a30:            c4 5d a2 88  ldx       [%l6 + 0x288], %g2
    0x100006a34:            12 60 00 06  bne,pn    %xcc, +0x18   <0x100006a4c>
    0x100006a38:            a2 07 66 f0  add       %i5, 0x6f0, %l1
    0x100006a3c:            02 c4 00 04  brz,pn    %l0, +0x10    <0x100006a4c>
    0x100006a40:            b2 0c e0 01  and       %l3, 0x1, %i1
    0x100006a44:            10 80 00 06  ba        +0x18         <0x100006a5c>
    0x100006a48:            9a 10 20 00  clr       %o5
    0x100006a4c:            b3 6d c0 10  sdivx     %l7, %l0, %i1
    0x100006a50:            90 4e 40 10  mulx      %i1, %l0, %o0
    0x100006a54:            b2 25 c0 08  sub       %l7, %o0, %i1
    0x100006a58:            9a 10 20 00  clr       %o5
    0x100006a5c:            9b 7e a4 01  movre     %i2, 0x1, %o5
    0x100006a60:            94 06 80 0d  add       %i2, %o5, %o2
    0x100006a64:            96 22 a0 01  sub       %o2, 0x1, %o3
    0x100006a68:            99 3e b0 3f  srax      %i2, 0x3f, %o4
    0x100006a6c:            80 8a 80 0b  btst      %o3, %o2
    0x100006a70:            b0 1e 80 0c  xor       %i2, %o4, %i0
    0x100006a74:            12 60 00 06  bne,pn    %xcc, +0x18   <0x100006a8c>
    0x100006a78:            a6 26 00 0c  sub       %i0, %o4, %l3
    0x100006a7c:            02 c2 80 04  brz,pn    %o2, +0x10    <0x100006a8c>
    0x100006a80:            b0 0a e0 01  and       %o3, 0x1, %i0
    0x100006a84:            10 80 00 06  ba        +0x18         <0x100006a9c>
    0x100006a88:            0b 00 04 00  sethi     %hi(0x100000), %g5
    0x100006a8c:            9f 6d c0 0a  sdivx     %l7, %o2, %o7
    0x100006a90:            a0 4b c0 0a  mulx      %o7, %o2, %l0
    0x100006a94:            b0 25 c0 10  sub       %l7, %l0, %i0
    0x100006a98:            0b 00 04 00  sethi     %hi(0x100000), %g5
    0x100006a9c:            07 00 04 00  sethi     %hi(0x100000), %g3
    0x100006aa0:            88 11 61 2e  or        %g5, 0x12e, %g4
    0x100006aa4:            b6 10 e1 2e  or        %g3, 0x12e, %i3
    0x100006aa8:            9e 04 bf ff  add       %l2, -0x1, %o7
    0x100006aac:            9a 04 ff ff  add       %l3, -0x1, %o5
    0x100006ab0:            da 73 a8 c7  stx       %o5, [%sp + 0x8c7]
    0x100006ab4:            d5 1c 60 08  ldd       [%l1 + 0x8], %d10
    0x100006ab8:            a1 29 30 0c  sllx      %g4, 0xc, %l0
    0x100006abc:            de 73 a8 cf  stx       %o7, [%sp + 0x8cf]
    0x100006ac0:            af 2e f0 0c  sllx      %i3, 0xc, %l7
    0x100006ac4:            0a c7 00 3f  brnz,pn   %i4, +0xfc    <0x100006bc0>
    0x100006ac8:            ad a5 88 4a  faddd     %d22, %d10, %d22
    0x100006acc:            80 a5 20 02  cmp       %l4, 0x2
    0x100006ad0:            06 60 00 18  bl,pn     %xcc, +0x60   <0x100006b30>
    0x100006ad4:            92 10 20 00  clr       %o1
    0x100006ad8:            c1 3b a8 d7  std       %d0, [%sp + 0x8d7]
    0x100006adc:            ed 3b a8 df  std       %d22, [%sp + 0x8df]
    0x100006ae0:            e9 3b a8 e7  std       %d20, [%sp + 0x8e7]
    0x100006ae4:            e5 3b a8 ef  std       %d18, [%sp + 0x8ef]
    0x100006ae8:            40 04 9b 6e  call      +0x126db8     <0x10012d8a0>
    0x100006aec:            90 07 a7 cf  add       %fp, 0x7cf, %o0
    0x100006af0:            d8 5f a7 cf  ldx       [%fp + 0x7cf], %o4
    0x100006af4:            c8 5f a7 d7  ldx       [%fp + 0x7d7], %g4
    0x100006af8:            c4 5d a2 88  ldx       [%l6 + 0x288], %g2
    0x100006afc:            95 2b 30 05  sllx      %o4, 0x5, %o2
    0x100006b00:            90 23 00 0a  sub       %o4, %o2, %o0
    0x100006b04:            87 2a 30 09  sllx      %o0, 0x9, %g3
    0x100006b08:            ed 1b a8 df  ldd       [%sp + 0x8df], %d22
    0x100006b0c:            9a 20 c0 0c  sub       %g3, %o4, %o5
    0x100006b10:            c1 1b a8 d7  ldd       [%sp + 0x8d7], %d0
    0x100006b14:            9f 2b 70 06  sllx      %o5, 0x6, %o7
    0x100006b18:            96 23 c0 0d  sub       %o7, %o5, %o3
    0x100006b1c:            e9 1b a8 e7  ldd       [%sp + 0x8e7], %d20
    0x100006b20:            b6 23 00 0b  sub       %o4, %o3, %i3
    0x100006b24:            e5 1b a8 ef  ldd       [%sp + 0x8ef], %d18
    0x100006b28:            8a 01 00 1b  add       %g4, %i3, %g5
    0x100006b2c:            ca 70 a1 88  stx       %g5, [%g2 + 0x188]
    0x100006b30:            c0 70 a1 40  clrx      [%g2 + 0x140]
    0x100006b34:            d5 1f 66 f0  ldd       [%i5 + 0x6f0], %d10
    0x100006b38:            d5 38 a1 58  std       %d10, [%g2 + 0x158]
    0x100006b3c:            d5 38 a1 48  std       %d10, [%g2 + 0x148]
    0x100006b40:            d1 1f 66 f0  ldd       [%i5 + 0x6f0], %d8
    0x100006b44:            d1 38 a1 60  std       %d8, [%g2 + 0x160]
    0x100006b48:            ff 1f 66 f0  ldd       [%i5 + 0x6f0], %d62
    0x100006b4c:            ff 38 a1 70  std       %d62, [%g2 + 0x170]
    0x100006b50:            fb 1f 66 f0  ldd       [%i5 + 0x6f0], %d60
    0x100006b54:            fb 38 a1 68  std       %d60, [%g2 + 0x168]
    0x100006b58:            80 a5 20 02  cmp       %l4, 0x2
    0x100006b5c:            06 60 00 19  bl,pn     %xcc, +0x64   <0x100006bc0>
    0x100006b60:            d5 38 a1 50  std       %d10, [%g2 + 0x150]
    0x100006b64:            c1 3b a8 d7  std       %d0, [%sp + 0x8d7]
    0x100006b68:            92 10 20 00  clr       %o1
    0x100006b6c:            ed 3b a8 df  std       %d22, [%sp + 0x8df]
    0x100006b70:            e9 3b a8 e7  std       %d20, [%sp + 0x8e7]
    0x100006b74:            e5 3b a8 ef  std       %d18, [%sp + 0x8ef]
    0x100006b78:            40 04 9b 4a  call      +0x126d28     <0x10012d8a0>
    0x100006b7c:            90 07 a7 bf  add       %fp, 0x7bf, %o0
    0x100006b80:            f6 5f a7 bf  ldx       [%fp + 0x7bf], %i3
    0x100006b84:            ca 5f a7 c7  ldx       [%fp + 0x7c7], %g5
    0x100006b88:            c4 5d a2 88  ldx       [%l6 + 0x288], %g2
    0x100006b8c:            91 2e f0 05  sllx      %i3, 0x5, %o0
    0x100006b90:            86 26 c0 08  sub       %i3, %o0, %g3
    0x100006b94:            9f 28 f0 09  sllx      %g3, 0x9, %o7
    0x100006b98:            ed 1b a8 df  ldd       [%sp + 0x8df], %d22
    0x100006b9c:            96 23 c0 1b  sub       %o7, %i3, %o3
    0x100006ba0:            c1 1b a8 d7  ldd       [%sp + 0x8d7], %d0
    0x100006ba4:            9b 2a f0 06  sllx      %o3, 0x6, %o5
    0x100006ba8:            98 23 40 0b  sub       %o5, %o3, %o4
    0x100006bac:            e9 1b a8 e7  ldd       [%sp + 0x8e7], %d20
    0x100006bb0:            88 26 c0 0c  sub       %i3, %o4, %g4
    0x100006bb4:            e5 1b a8 ef  ldd       [%sp + 0x8ef], %d18
    0x100006bb8:            92 01 40 04  add       %g5, %g4, %o1
    0x100006bbc:            d2 70 a1 a0  stx       %o1, [%g2 + 0x1a0]
    0x100006bc0:            c1 3b a8 d7  std       %d0, [%sp + 0x8d7]
    0x100006bc4:            ed 3b a8 df  std       %d22, [%sp + 0x8df]
    0x100006bc8:            e9 3b a8 e7  std       %d20, [%sp + 0x8e7]
    0x100006bcc:            e5 3b a8 ef  std       %d18, [%sp + 0x8ef]
    0x100006bd0:            40 04 9a c4  call      +0x126b10     <0x10012d6e0>
    0x100006bd4:            90 00 a0 90  add       %g2, 0x90, %o0
    0x100006bd8:            0a c2 02 f3  brnz,pn   %o0, +0xbcc   <0x1000077a4>
    0x100006bdc:            d4 5d a2 88  ldx       [%l6 + 0x288], %o2
    0x100006be0:            d6 5a a0 b8  ldx       [%o2 + 0xb8], %o3
    0x100006be4:            98 02 e0 01  add       %o3, 0x1, %o4
    0x100006be8:            d8 72 a0 b8  stx       %o4, [%o2 + 0xb8]
    0x100006bec:            ca 5d 63 18  ldx       [%l5 + 0x318], %g5
    0x100006bf0:            f6 5a a0 c0  ldx       [%o2 + 0xc0], %i3
    0x100006bf4:            80 a3 00 05  cmp       %o4, %g5
    0x100006bf8:            02 60 00 29  be,pn     %xcc, +0xa4   <0x100006c9c>
    0x100006bfc:            90 10 20 01  mov       0x1, %o0
    0x100006c00:            40 04 9b 08  call      +0x126c20     <0x10012d820>
    0x100006c04:            92 07 a7 b7  add       %fp, 0x7b7, %o1
    0x100006c08:            da 5d a2 88  ldx       [%l6 + 0x288], %o5
    0x100006c0c:            c1 1b a8 d7  ldd       [%sp + 0x8d7], %d0
    0x100006c10:            e9 1b a8 e7  ldd       [%sp + 0x8e7], %d20
    0x100006c14:            c4 5b 60 c0  ldx       [%o5 + 0xc0], %g2
    0x100006c18:            e5 1b a8 ef  ldd       [%sp + 0x8ef], %d18
    0x100006c1c:            80 a6 c0 02  cmp       %i3, %g2
    0x100006c20:            12 60 00 13  bne,pn    %xcc, +0x4c   <0x100006c6c>
    0x100006c24:            01 00 00 00  nop
    0x100006c28:            c1 3b a8 d7  std       %d0, [%sp + 0x8d7]
    0x100006c2c:            e9 3b a8 e7  std       %d20, [%sp + 0x8e7]
    0x100006c30:            e5 3b a8 ef  std       %d18, [%sp + 0x8ef]
    0x100006c34:            92 03 60 90  add       %o5, 0x90, %o1
    0x100006c38:            40 04 9b 02  call      +0x126c08     <0x10012d840>
    0x100006c3c:            90 03 60 a8  add       %o5, 0xa8, %o0
    0x100006c40:            c1 1b a8 d7  ldd       [%sp + 0x8d7], %d0
    0x100006c44:            ed 1b a8 df  ldd       [%sp + 0x8df], %d22
    0x100006c48:            e9 1b a8 e7  ldd       [%sp + 0x8e7], %d20
    0x100006c4c:            e5 1b a8 ef  ldd       [%sp + 0x8ef], %d18
    0x100006c50:            0a c2 00 06  brnz,pn   %o0, +0x18    <0x100006c68>
    0x100006c54:            da 5d a2 88  ldx       [%l6 + 0x288], %o5
    0x100006c58:            de 5b 60 c0  ldx       [%o5 + 0xc0], %o7
    0x100006c5c:            80 a6 c0 0f  cmp       %i3, %o7
    0x100006c60:            22 6f ff f2  be,a,pt   %xcc, -0x38   <0x100006c28>
    0x100006c64:            ed 3b a8 df  std       %d22, [%sp + 0x8df]
    0x100006c68:            ed 3b a8 df  std       %d22, [%sp + 0x8df]
    0x100006c6c:            d4 07 a7 bb  ld        [%fp + 0x7bb], %o2
    0x100006c70:            e5 3b a8 ef  std       %d18, [%sp + 0x8ef]
    0x100006c74:            c1 3b a8 d7  std       %d0, [%sp + 0x8d7]
    0x100006c78:            91 3a a0 00  sra       %o2, 0x0, %o0
    0x100006c7c:            e9 3b a8 e7  std       %d20, [%sp + 0x8e7]
    0x100006c80:            40 04 9a e8  call      +0x126ba0     <0x10012d820>
    0x100006c84:            92 07 a7 af  add       %fp, 0x7af, %o1
    0x100006c88:            c1 1b a8 d7  ldd       [%sp + 0x8d7], %d0
    0x100006c8c:            e9 1b a8 e7  ldd       [%sp + 0x8e7], %d20
    0x100006c90:            e5 1b a8 ef  ldd       [%sp + 0x8ef], %d18
    0x100006c94:            10 80 00 0b  ba        +0x2c         <0x100006cc0>
    0x100006c98:            01 00 00 00  nop
    0x100006c9c:            c0 72 a0 b8  clrx      [%o2 + 0xb8]
    0x100006ca0:            86 10 20 00  clr       %g3
    0x100006ca4:            87 7e e4 01  movre     %i3, 0x1, %g3
    0x100006ca8:            c6 72 a0 c0  stx       %g3, [%o2 + 0xc0]
    0x100006cac:            40 04 9a ed  call      +0x126bb4     <0x10012d860>
    0x100006cb0:            90 02 a0 a8  add       %o2, 0xa8, %o0
    0x100006cb4:            c1 1b a8 d7  ldd       [%sp + 0x8d7], %d0
    0x100006cb8:            e9 1b a8 e7  ldd       [%sp + 0x8e7], %d20
    0x100006cbc:            e5 1b a8 ef  ldd       [%sp + 0x8ef], %d18
    0x100006cc0:            da 5d a2 88  ldx       [%l6 + 0x288], %o5
    0x100006cc4:            e5 3b a8 ef  std       %d18, [%sp + 0x8ef]
    0x100006cc8:            c1 3b a8 d7  std       %d0, [%sp + 0x8d7]
    0x100006ccc:            e9 3b a8 e7  std       %d20, [%sp + 0x8e7]
    0x100006cd0:            40 04 9a 8c  call      +0x126a30     <0x10012d700>
    0x100006cd4:            90 03 60 90  add       %o5, 0x90, %o0
    0x100006cd8:            17 00 04 00  sethi     %hi(0x100000), %o3
    0x100006cdc:            98 12 e1 2e  or        %o3, 0x12e, %o4
    0x100006ce0:            89 2b 30 0c  sllx      %o4, 0xc, %g4
    0x100006ce4:            90 01 23 70  add       %g4, 0x370, %o0
    0x100006ce8:            94 10 00 1c  mov       %i4, %o2
    0x100006cec:            40 00 06 e3  call      +0x1b8c       <0x100008878>
    0x100006cf0:            d2 5b a8 bf  ldx       [%sp + 0x8bf], %o1
    0x100006cf4:            ca 5d a2 88  ldx       [%l6 + 0x288], %g5
    0x100006cf8:            92 10 00 1c  mov       %i4, %o1
    0x100006cfc:            7f ff fb f7  call      -0x1024       <0x100005cd8>
    0x100006d00:            90 01 61 40  add       %g5, 0x140, %o0
    0x100006d04:            d2 5d a2 88  ldx       [%l6 + 0x288], %o1
    0x100006d08:            40 04 9a 76  call      +0x1269d8     <0x10012d6e0>
    0x100006d0c:            90 02 60 90  add       %o1, 0x90, %o0
    0x100006d10:            0a c2 02 af  brnz,pn   %o0, +0xabc   <0x1000077cc>
    0x100006d14:            c4 5d a2 88  ldx       [%l6 + 0x288], %g2
    0x100006d18:            d2 58 a0 b8  ldx       [%g2 + 0xb8], %o1
    0x100006d1c:            90 02 60 01  add       %o1, 0x1, %o0
    0x100006d20:            d0 70 a0 b8  stx       %o0, [%g2 + 0xb8]
    0x100006d24:            c6 5d 63 18  ldx       [%l5 + 0x318], %g3
    0x100006d28:            f6 58 a0 c0  ldx       [%g2 + 0xc0], %i3
    0x100006d2c:            80 a2 00 03  cmp       %o0, %g3
    0x100006d30:            02 60 00 29  be,pn     %xcc, +0xa4   <0x100006dd4>
    0x100006d34:            90 10 20 01  mov       0x1, %o0
    0x100006d38:            40 04 9a ba  call      +0x126ae8     <0x10012d820>
    0x100006d3c:            92 07 a7 a7  add       %fp, 0x7a7, %o1
    0x100006d40:            ca 5d a2 88  ldx       [%l6 + 0x288], %g5
    0x100006d44:            c1 1b a8 d7  ldd       [%sp + 0x8d7], %d0
    0x100006d48:            e9 1b a8 e7  ldd       [%sp + 0x8e7], %d20
    0x100006d4c:            c8 59 60 c0  ldx       [%g5 + 0xc0], %g4
    0x100006d50:            e5 1b a8 ef  ldd       [%sp + 0x8ef], %d18
    0x100006d54:            80 a6 c0 04  cmp       %i3, %g4
    0x100006d58:            12 60 00 13  bne,pn    %xcc, +0x4c   <0x100006da4>
    0x100006d5c:            01 00 00 00  nop
    0x100006d60:            c1 3b a8 d7  std       %d0, [%sp + 0x8d7]
    0x100006d64:            e9 3b a8 e7  std       %d20, [%sp + 0x8e7]
    0x100006d68:            e5 3b a8 ef  std       %d18, [%sp + 0x8ef]
    0x100006d6c:            92 01 60 90  add       %g5, 0x90, %o1
    0x100006d70:            40 04 9a b4  call      +0x126ad0     <0x10012d840>
    0x100006d74:            90 01 60 a8  add       %g5, 0xa8, %o0
    0x100006d78:            c1 1b a8 d7  ldd       [%sp + 0x8d7], %d0
    0x100006d7c:            ed 1b a8 df  ldd       [%sp + 0x8df], %d22
    0x100006d80:            e9 1b a8 e7  ldd       [%sp + 0x8e7], %d20
    0x100006d84:            e5 1b a8 ef  ldd       [%sp + 0x8ef], %d18
    0x100006d88:            0a c2 00 06  brnz,pn   %o0, +0x18    <0x100006da0>
    0x100006d8c:            ca 5d a2 88  ldx       [%l6 + 0x288], %g5
    0x100006d90:            d8 59 60 c0  ldx       [%g5 + 0xc0], %o4
    0x100006d94:            80 a6 c0 0c  cmp       %i3, %o4
    0x100006d98:            22 6f ff f2  be,a,pt   %xcc, -0x38   <0x100006d60>
    0x100006d9c:            ed 3b a8 df  std       %d22, [%sp + 0x8df]
    0x100006da0:            ed 3b a8 df  std       %d22, [%sp + 0x8df]
    0x100006da4:            c4 07 a7 ab  ld        [%fp + 0x7ab], %g2
    0x100006da8:            e5 3b a8 ef  std       %d18, [%sp + 0x8ef]
    0x100006dac:            c1 3b a8 d7  std       %d0, [%sp + 0x8d7]
    0x100006db0:            91 38 a0 00  sra       %g2, 0x0, %o0
    0x100006db4:            e9 3b a8 e7  std       %d20, [%sp + 0x8e7]
    0x100006db8:            40 04 9a 9a  call      +0x126a68     <0x10012d820>
    0x100006dbc:            92 07 a7 9f  add       %fp, 0x79f, %o1
    0x100006dc0:            c1 1b a8 d7  ldd       [%sp + 0x8d7], %d0
    0x100006dc4:            e9 1b a8 e7  ldd       [%sp + 0x8e7], %d20
    0x100006dc8:            e5 1b a8 ef  ldd       [%sp + 0x8ef], %d18
    0x100006dcc:            10 80 00 0b  ba        +0x2c         <0x100006df8>
    0x100006dd0:            01 00 00 00  nop
    0x100006dd4:            c0 70 a0 b8  clrx      [%g2 + 0xb8]
    0x100006dd8:            96 10 20 00  clr       %o3
    0x100006ddc:            97 7e e4 01  movre     %i3, 0x1, %o3
    0x100006de0:            d6 70 a0 c0  stx       %o3, [%g2 + 0xc0]
    0x100006de4:            40 04 9a 9f  call      +0x126a7c     <0x10012d860>
    0x100006de8:            90 00 a0 a8  add       %g2, 0xa8, %o0
    0x100006dec:            c1 1b a8 d7  ldd       [%sp + 0x8d7], %d0
    0x100006df0:            e9 1b a8 e7  ldd       [%sp + 0x8e7], %d20
    0x100006df4:            e5 1b a8 ef  ldd       [%sp + 0x8ef], %d18
    0x100006df8:            de 5d a2 88  ldx       [%l6 + 0x288], %o7
    0x100006dfc:            e5 3b a8 ef  std       %d18, [%sp + 0x8ef]
    0x100006e00:            e9 3b a8 e7  std       %d20, [%sp + 0x8e7]
    0x100006e04:            90 03 e0 90  add       %o7, 0x90, %o0
    0x100006e08:            40 04 9a 3e  call      +0x1268f8     <0x10012d700>
    0x100006e0c:            c1 3b a8 d7  std       %d0, [%sp + 0x8d7]
    0x100006e10:            02 c7 00 08  brz,pn    %i4, +0x20    <0x100006e30>
    0x100006e14:            d6 5d a2 88  ldx       [%l6 + 0x288], %o3
    0x100006e18:            94 10 00 1c  mov       %i4, %o2
    0x100006e1c:            92 02 e1 40  add       %o3, 0x140, %o1
    0x100006e20:            7f ff f6 ae  call      -0x2548       <0x1000048d8>
    0x100006e24:            90 10 20 07  mov       0x7, %o0
    0x100006e28:            10 80 00 47  ba        +0x11c        <0x100006f44>
    0x100006e2c:            1b 00 04 00  sethi     %hi(0x100000), %o5
    0x100006e30:            80 a5 20 02  cmp       %l4, 0x2
    0x100006e34:            16 60 00 08  bge,pn    %xcc, +0x20   <0x100006e54>
    0x100006e38:            d8 5d a2 88  ldx       [%l6 + 0x288], %o4
    0x100006e3c:            94 10 00 1c  mov       %i4, %o2
    0x100006e40:            92 03 21 40  add       %o4, 0x140, %o1
    0x100006e44:            7f ff f6 a5  call      -0x256c       <0x1000048d8>
    0x100006e48:            90 10 20 07  mov       0x7, %o0
    0x100006e4c:            10 80 00 3e  ba        +0xf8         <0x100006f44>
    0x100006e50:            1b 00 04 00  sethi     %hi(0x100000), %o5
    0x100006e54:            92 10 20 00  clr       %o1
    0x100006e58:            40 04 9a 92  call      +0x126a48     <0x10012d8a0>
    0x100006e5c:            90 07 a7 8f  add       %fp, 0x78f, %o0
    0x100006e60:            90 07 a7 7f  add       %fp, 0x77f, %o0
    0x100006e64:            92 10 20 00  clr       %o1
    0x100006e68:            c8 5f a7 8f  ldx       [%fp + 0x78f], %g4
    0x100006e6c:            d8 5d a2 88  ldx       [%l6 + 0x288], %o4
    0x100006e70:            ca 5f a7 97  ldx       [%fp + 0x797], %g5
    0x100006e74:            9b 29 30 05  sllx      %g4, 0x5, %o5
    0x100006e78:            96 21 00 0d  sub       %g4, %o5, %o3
    0x100006e7c:            95 2a f0 09  sllx      %o3, 0x9, %o2
    0x100006e80:            86 22 80 04  sub       %o2, %g4, %g3
    0x100006e84:            85 28 f0 06  sllx      %g3, 0x6, %g2
    0x100006e88:            b6 20 80 03  sub       %g2, %g3, %i3
    0x100006e8c:            9e 21 00 1b  sub       %g4, %i3, %o7
    0x100006e90:            96 01 40 0f  add       %g5, %o7, %o3
    0x100006e94:            da 5b 21 a0  ldx       [%o4 + 0x1a0], %o5
    0x100006e98:            d4 5b 21 b0  ldx       [%o4 + 0x1b0], %o2
    0x100006e9c:            d6 73 21 a8  stx       %o3, [%o4 + 0x1a8]
    0x100006ea0:            84 22 c0 0d  sub       %o3, %o5, %g2
    0x100006ea4:            86 00 80 0a  add       %g2, %o2, %g3
    0x100006ea8:            40 04 9a 7e  call      +0x1269f8     <0x10012d8a0>
    0x100006eac:            c6 73 21 b0  stx       %g3, [%o4 + 0x1b0]
    0x100006eb0:            94 10 00 1c  mov       %i4, %o2
    0x100006eb4:            90 10 20 07  mov       0x7, %o0
    0x100006eb8:            c8 5f a7 7f  ldx       [%fp + 0x77f], %g4
    0x100006ebc:            ca 5f a7 87  ldx       [%fp + 0x787], %g5
    0x100006ec0:            d8 5d a2 88  ldx       [%l6 + 0x288], %o4
    0x100006ec4:            93 29 30 05  sllx      %g4, 0x5, %o1
    0x100006ec8:            b6 21 00 09  sub       %g4, %o1, %i3
    0x100006ecc:            9f 2e f0 09  sllx      %i3, 0x9, %o7
    0x100006ed0:            96 23 c0 04  sub       %o7, %g4, %o3
    0x100006ed4:            9b 2a f0 06  sllx      %o3, 0x6, %o5
    0x100006ed8:            84 23 40 0b  sub       %o5, %o3, %g2
    0x100006edc:            86 21 00 02  sub       %g4, %g2, %g3
    0x100006ee0:            92 01 40 03  add       %g5, %g3, %o1
    0x100006ee4:            d2 73 21 b8  stx       %o1, [%o4 + 0x1b8]
    0x100006ee8:            7f ff f6 7c  call      -0x2610       <0x1000048d8>
    0x100006eec:            92 03 21 40  add       %o4, 0x140, %o1
    0x100006ef0:            92 10 20 00  clr       %o1
    0x100006ef4:            40 04 9a 6b  call      +0x1269ac     <0x10012d8a0>
    0x100006ef8:            90 07 a7 6f  add       %fp, 0x76f, %o0
    0x100006efc:            c4 5f a7 6f  ldx       [%fp + 0x76f], %g2
    0x100006f00:            ca 5d a2 88  ldx       [%l6 + 0x288], %g5
    0x100006f04:            c8 5f a7 77  ldx       [%fp + 0x777], %g4
    0x100006f08:            91 28 b0 05  sllx      %g2, 0x5, %o0
    0x100006f0c:            94 20 80 08  sub       %g2, %o0, %o2
    0x100006f10:            b7 2a b0 09  sllx      %o2, 0x9, %i3
    0x100006f14:            9a 26 c0 02  sub       %i3, %g2, %o5
    0x100006f18:            9f 2b 70 06  sllx      %o5, 0x6, %o7
    0x100006f1c:            96 23 c0 0d  sub       %o7, %o5, %o3
    0x100006f20:            d2 59 61 b8  ldx       [%g5 + 0x1b8], %o1
    0x100006f24:            98 20 80 0b  sub       %g2, %o3, %o4
    0x100006f28:            90 01 00 0c  add       %g4, %o4, %o0
    0x100006f2c:            c6 59 61 c8  ldx       [%g5 + 0x1c8], %g3
    0x100006f30:            94 22 00 09  sub       %o0, %o1, %o2
    0x100006f34:            d0 71 61 c0  stx       %o0, [%g5 + 0x1c0]
    0x100006f38:            b6 02 80 03  add       %o2, %g3, %i3
    0x100006f3c:            f6 71 61 c8  stx       %i3, [%g5 + 0x1c8]
    0x100006f40:            1b 00 04 00  sethi     %hi(0x100000), %o5
    0x100006f44:            92 13 61 2e  or        %o5, 0x12e, %o1
    0x100006f48:            97 2a 70 0c  sllx      %o1, 0xc, %o3
    0x100006f4c:            90 02 e2 f8  add       %o3, 0x2f8, %o0
    0x100006f50:            94 10 00 1c  mov       %i4, %o2
    0x100006f54:            40 00 06 f5  call      +0x1bd4       <0x100008b28>
    0x100006f58:            d2 5b a8 bf  ldx       [%sp + 0x8bf], %o1
    0x100006f5c:            7f ff ef 53  call      -0x42b4       <0x100002ca8>
    0x100006f60:            90 10 00 1c  mov       %i4, %o0
    0x100006f64:            c4 5d a2 88  ldx       [%l6 + 0x288], %g2
    0x100006f68:            09 00 04 00  sethi     %hi(0x100000), %g4
    0x100006f6c:            07 00 04 00  sethi     %hi(0x100000), %g3
    0x100006f70:            8a 11 21 2e  or        %g4, 0x12e, %g5
    0x100006f74:            b6 10 e1 2e  or        %g3, 0x12e, %i3
    0x100006f78:            95 29 70 0c  sllx      %g5, 0xc, %o2
    0x100006f7c:            c9 1a a7 20  ldd       [%o2 + 0x720], %d4
    0x100006f80:            9f 2e f0 0c  sllx      %i3, 0xc, %o7
    0x100006f84:            c5 1b e6 e8  ldd       [%o7 + 0x6e8], %d2
    0x100006f88:            90 00 a1 48  add       %g2, 0x148, %o0
    0x100006f8c:            7f ff fd 8f  call      -0x9c4        <0x1000065c8>
    0x100006f90:            96 10 00 1c  mov       %i4, %o3
    0x100006f94:            d0 5d a2 88  ldx       [%l6 + 0x288], %o0
    0x100006f98:            40 04 99 d2  call      +0x126748     <0x10012d6e0>
    0x100006f9c:            90 02 20 90  add       %o0, 0x90, %o0
    0x100006fa0:            0a c2 02 16  brnz,pn   %o0, +0x858   <0x1000077f8>
    0x100006fa4:            d8 5d a2 88  ldx       [%l6 + 0x288], %o4
    0x100006fa8:            c4 5b 20 b8  ldx       [%o4 + 0xb8], %g2
    0x100006fac:            94 00 a0 01  add       %g2, 0x1, %o2
    0x100006fb0:            d4 73 20 b8  stx       %o2, [%o4 + 0xb8]
    0x100006fb4:            c6 5d 63 18  ldx       [%l5 + 0x318], %g3
    0x100006fb8:            f6 5b 20 c0  ldx       [%o4 + 0xc0], %i3
    0x100006fbc:            80 a2 80 03  cmp       %o2, %g3
    0x100006fc0:            02 60 00 29  be,pn     %xcc, +0xa4   <0x100007064>
    0x100006fc4:            90 10 20 01  mov       0x1, %o0
    0x100006fc8:            40 04 9a 16  call      +0x126858     <0x10012d820>
    0x100006fcc:            92 07 a7 67  add       %fp, 0x767, %o1
    0x100006fd0:            ca 5d a2 88  ldx       [%l6 + 0x288], %g5
    0x100006fd4:            c1 1b a8 d7  ldd       [%sp + 0x8d7], %d0
    0x100006fd8:            e9 1b a8 e7  ldd       [%sp + 0x8e7], %d20
    0x100006fdc:            c8 59 60 c0  ldx       [%g5 + 0xc0], %g4
    0x100006fe0:            e5 1b a8 ef  ldd       [%sp + 0x8ef], %d18
    0x100006fe4:            80 a6 c0 04  cmp       %i3, %g4
    0x100006fe8:            12 60 00 13  bne,pn    %xcc, +0x4c   <0x100007034>
    0x100006fec:            01 00 00 00  nop
    0x100006ff0:            c1 3b a8 d7  std       %d0, [%sp + 0x8d7]
    0x100006ff4:            e9 3b a8 e7  std       %d20, [%sp + 0x8e7]
    0x100006ff8:            e5 3b a8 ef  std       %d18, [%sp + 0x8ef]
    0x100006ffc:            92 01 60 90  add       %g5, 0x90, %o1
    0x100007000:            40 04 9a 10  call      +0x126840     <0x10012d840>
    0x100007004:            90 01 60 a8  add       %g5, 0xa8, %o0
    0x100007008:            c1 1b a8 d7  ldd       [%sp + 0x8d7], %d0
    0x10000700c:            ed 1b a8 df  ldd       [%sp + 0x8df], %d22
    0x100007010:            e9 1b a8 e7  ldd       [%sp + 0x8e7], %d20
    0x100007014:            e5 1b a8 ef  ldd       [%sp + 0x8ef], %d18
    0x100007018:            0a c2 00 06  brnz,pn   %o0, +0x18    <0x100007030>
    0x10000701c:            ca 5d a2 88  ldx       [%l6 + 0x288], %g5
    0x100007020:            d6 59 60 c0  ldx       [%g5 + 0xc0], %o3
    0x100007024:            80 a6 c0 0b  cmp       %i3, %o3
    0x100007028:            22 6f ff f2  be,a,pt   %xcc, -0x38   <0x100006ff0>
    0x10000702c:            ed 3b a8 df  std       %d22, [%sp + 0x8df]
    0x100007030:            ed 3b a8 df  std       %d22, [%sp + 0x8df]
    0x100007034:            d8 07 a7 6b  ld        [%fp + 0x76b], %o4
    0x100007038:            e5 3b a8 ef  std       %d18, [%sp + 0x8ef]
    0x10000703c:            c1 3b a8 d7  std       %d0, [%sp + 0x8d7]
    0x100007040:            91 3b 20 00  sra       %o4, 0x0, %o0
    0x100007044:            e9 3b a8 e7  std       %d20, [%sp + 0x8e7]
    0x100007048:            40 04 99 f6  call      +0x1267d8     <0x10012d820>
    0x10000704c:            92 07 a7 5f  add       %fp, 0x75f, %o1
    0x100007050:            c1 1b a8 d7  ldd       [%sp + 0x8d7], %d0
    0x100007054:            e9 1b a8 e7  ldd       [%sp + 0x8e7], %d20
    0x100007058:            e5 1b a8 ef  ldd       [%sp + 0x8ef], %d18
    0x10000705c:            10 80 00 0b  ba        +0x2c         <0x100007088>
    0x100007060:            01 00 00 00  nop
    0x100007064:            c0 73 20 b8  clrx      [%o4 + 0xb8]
    0x100007068:            92 10 20 00  clr       %o1
    0x10000706c:            93 7e e4 01  movre     %i3, 0x1, %o1
    0x100007070:            d2 73 20 c0  stx       %o1, [%o4 + 0xc0]
    0x100007074:            40 04 99 fb  call      +0x1267ec     <0x10012d860>
    0x100007078:            90 03 20 a8  add       %o4, 0xa8, %o0
    0x10000707c:            c1 1b a8 d7  ldd       [%sp + 0x8d7], %d0
    0x100007080:            e9 1b a8 e7  ldd       [%sp + 0x8e7], %d20
    0x100007084:            e5 1b a8 ef  ldd       [%sp + 0x8ef], %d18
    0x100007088:            d0 5d a2 88  ldx       [%l6 + 0x288], %o0
    0x10000708c:            e5 3b a8 ef  std       %d18, [%sp + 0x8ef]
    0x100007090:            c1 3b a8 d7  std       %d0, [%sp + 0x8d7]
    0x100007094:            e9 3b a8 e7  std       %d20, [%sp + 0x8e7]
    0x100007098:            40 04 99 9a  call      +0x126668     <0x10012d700>
    0x10000709c:            90 02 20 90  add       %o0, 0x90, %o0
    0x1000070a0:            c1 1b a8 d7  ldd       [%sp + 0x8d7], %d0
    0x1000070a4:            ed 1b a8 df  ldd       [%sp + 0x8df], %d22
    0x1000070a8:            e9 1b a8 e7  ldd       [%sp + 0x8e7], %d20
    0x1000070ac:            e5 1b a8 ef  ldd       [%sp + 0x8ef], %d18
    0x1000070b0:            02 c7 00 11  brz,pn    %i4, +0x44    <0x1000070f4>
    0x1000070b4:            d0 5d a2 88  ldx       [%l6 + 0x288], %o0
    0x1000070b8:            e1 1a 21 48  ldd       [%o0 + 0x148], %d16
    0x1000070bc:            f9 1a 21 50  ldd       [%o0 + 0x150], %d28
    0x1000070c0:            f5 1a 21 58  ldd       [%o0 + 0x158], %d26
    0x1000070c4:            bd a4 88 50  faddd     %d18, %d16, %d30
    0x1000070c8:            f1 1a 21 40  ldd       [%o0 + 0x140], %d24
    0x1000070cc:            b7 a6 88 5c  faddd     %d26, %d28, %d58
    0x1000070d0:            a9 a5 08 d8  fsubd     %d20, %d24, %d20
    0x1000070d4:            02 c6 40 52  brz,pn    %i1, +0x148   <0x10000721c>
    0x1000070d8:            a5 a7 88 5b  faddd     %d30, %d58, %d18
    0x1000070dc:            24 c6 81 13  brlez,a,pn %i2, +0x44c   <0x100007528>
    0x1000070e0:            ed 3b a8 df  std       %d22, [%sp + 0x8df]
    0x1000070e4:            22 c6 00 4f  brz,a,pn  %i0, +0x13c   <0x100007220>
    0x1000070e8:            e5 3b a8 ef  std       %d18, [%sp + 0x8ef]
    0x1000070ec:            10 80 01 0f  ba        +0x43c        <0x100007528>
    0x1000070f0:            ed 3b a8 df  std       %d22, [%sp + 0x8df]
    0x1000070f4:            80 a5 20 02  cmp       %l4, 0x2
    0x1000070f8:            16 60 00 11  bge,pn    %xcc, +0x44   <0x10000713c>
    0x1000070fc:            d0 5d a2 88  ldx       [%l6 + 0x288], %o0
    0x100007100:            d1 1a 21 48  ldd       [%o0 + 0x148], %d8
    0x100007104:            d5 1a 21 50  ldd       [%o0 + 0x150], %d10
    0x100007108:            d9 1a 21 58  ldd       [%o0 + 0x158], %d12
    0x10000710c:            8d a4 88 48  faddd     %d18, %d8, %d6
    0x100007110:            e5 1a 21 40  ldd       [%o0 + 0x140], %d18
    0x100007114:            9d a3 08 4a  faddd     %d12, %d10, %d14
    0x100007118:            a9 a5 08 d2  fsubd     %d20, %d18, %d20
    0x10000711c:            02 c6 40 40  brz,pn    %i1, +0x100   <0x10000721c>
    0x100007120:            a5 a1 88 4e  faddd     %d6, %d14, %d18
    0x100007124:            24 c6 81 01  brlez,a,pn %i2, +0x404   <0x100007528>
    0x100007128:            ed 3b a8 df  std       %d22, [%sp + 0x8df]
    0x10000712c:            22 c6 00 3d  brz,a,pn  %i0, +0xf4    <0x100007220>
    0x100007130:            e5 3b a8 ef  std       %d18, [%sp + 0x8ef]
    0x100007134:            10 80 00 fd  ba        +0x3f4        <0x100007528>
    0x100007138:            ed 3b a8 df  std       %d22, [%sp + 0x8df]
    0x10000713c:            92 10 20 00  clr       %o1
    0x100007140:            40 04 99 d8  call      +0x126760     <0x10012d8a0>
    0x100007144:            90 07 a7 4f  add       %fp, 0x74f, %o0
    0x100007148:            d0 5d a2 88  ldx       [%l6 + 0x288], %o0
    0x10000714c:            d6 5f a7 4f  ldx       [%fp + 0x74f], %o3
    0x100007150:            e5 1b a8 ef  ldd       [%sp + 0x8ef], %d18
    0x100007154:            d9 1a 21 50  ldd       [%o0 + 0x150], %d12
    0x100007158:            fd 1a 21 48  ldd       [%o0 + 0x148], %d30
    0x10000715c:            ff 1a 21 58  ldd       [%o0 + 0x158], %d62
    0x100007160:            95 2a f0 05  sllx      %o3, 0x5, %o2
    0x100007164:            86 22 c0 0a  sub       %o3, %o2, %g3
    0x100007168:            f6 5f a7 57  ldx       [%fp + 0x757], %i3
    0x10000716c:            9f 28 f0 09  sllx      %g3, 0x9, %o7
    0x100007170:            e9 1b a8 e7  ldd       [%sp + 0x8e7], %d20
    0x100007174:            ca 5a 21 c0  ldx       [%o0 + 0x1c0], %g5
    0x100007178:            91 a4 88 5e  faddd     %d18, %d30, %d8
    0x10000717c:            92 23 c0 0b  sub       %o7, %o3, %o1
    0x100007180:            e5 1a 21 40  ldd       [%o0 + 0x140], %d18
    0x100007184:            9b 2a 70 06  sllx      %o1, 0x6, %o5
    0x100007188:            d4 5a 21 b0  ldx       [%o0 + 0x1b0], %o2
    0x10000718c:            b9 a7 c8 4c  faddd     %d62, %d12, %d28
    0x100007190:            98 23 40 09  sub       %o5, %o1, %o4
    0x100007194:            88 22 c0 0c  sub       %o3, %o4, %g4
    0x100007198:            84 06 c0 04  add       %i3, %g4, %g2
    0x10000719c:            c4 72 21 a8  stx       %g2, [%o0 + 0x1a8]
    0x1000071a0:            ed 1b a8 df  ldd       [%sp + 0x8df], %d22
    0x1000071a4:            a9 a5 08 d2  fsubd     %d20, %d18, %d20
    0x1000071a8:            86 20 80 05  sub       %g2, %g5, %g3
    0x1000071ac:            c1 1b a8 d7  ldd       [%sp + 0x8d7], %d0
    0x1000071b0:            a5 a2 08 5c  faddd     %d8, %d28, %d18
    0x1000071b4:            9e 00 c0 0a  add       %g3, %o2, %o7
    0x1000071b8:            02 c6 40 06  brz,pn    %i1, +0x18    <0x1000071d0>
    0x1000071bc:            de 72 21 b0  stx       %o7, [%o0 + 0x1b0]
    0x1000071c0:            24 c6 80 da  brlez,a,pn %i2, +0x368   <0x100007528>
    0x1000071c4:            ed 3b a8 df  std       %d22, [%sp + 0x8df]
    0x1000071c8:            2a c6 00 d8  brnz,a,pn %i0, +0x360   <0x100007528>
    0x1000071cc:            ed 3b a8 df  std       %d22, [%sp + 0x8df]
    0x1000071d0:            92 10 20 00  clr       %o1
    0x1000071d4:            e9 3b a8 e7  std       %d20, [%sp + 0x8e7]
    0x1000071d8:            e5 3b a8 ef  std       %d18, [%sp + 0x8ef]
    0x1000071dc:            40 04 99 b1  call      +0x1266c4     <0x10012d8a0>
    0x1000071e0:            90 07 a7 3f  add       %fp, 0x73f, %o0
    0x1000071e4:            c8 5f a7 3f  ldx       [%fp + 0x73f], %g4
    0x1000071e8:            ca 5f a7 47  ldx       [%fp + 0x747], %g5
    0x1000071ec:            d0 5d a2 88  ldx       [%l6 + 0x288], %o0
    0x1000071f0:            87 29 30 05  sllx      %g4, 0x5, %g3
    0x1000071f4:            9e 21 00 03  sub       %g4, %g3, %o7
    0x1000071f8:            9b 2b f0 09  sllx      %o7, 0x9, %o5
    0x1000071fc:            98 23 40 04  sub       %o5, %g4, %o4
    0x100007200:            93 2b 30 06  sllx      %o4, 0x6, %o1
    0x100007204:            96 22 40 0c  sub       %o1, %o4, %o3
    0x100007208:            e5 1b a8 ef  ldd       [%sp + 0x8ef], %d18
    0x10000720c:            b6 21 00 0b  sub       %g4, %o3, %i3
    0x100007210:            e9 1b a8 e7  ldd       [%sp + 0x8e7], %d20
    0x100007214:            84 01 40 1b  add       %g5, %i3, %g2
    0x100007218:            c4 72 21 b8  stx       %g2, [%o0 + 0x1b8]
    0x10000721c:            e5 3b a8 ef  std       %d18, [%sp + 0x8ef]
    0x100007220:            94 02 21 70  add       %o0, 0x170, %o2
    0x100007224:            92 02 21 68  add       %o0, 0x168, %o1
    0x100007228:            96 10 00 1c  mov       %i4, %o3
    0x10000722c:            e9 3b a8 e7  std       %d20, [%sp + 0x8e7]
    0x100007230:            40 00 01 96  call      +0x658        <0x100007888>
    0x100007234:            90 02 21 60  add       %o0, 0x160, %o0
    0x100007238:            d4 5d a2 88  ldx       [%l6 + 0x288], %o2
    0x10000723c:            40 04 99 29  call      +0x1264a4     <0x10012d6e0>
    0x100007240:            90 02 a0 90  add       %o2, 0x90, %o0
    0x100007244:            0a c2 01 77  brnz,pn   %o0, +0x5dc   <0x100007820>
    0x100007248:            c4 5d a2 88  ldx       [%l6 + 0x288], %g2
    0x10000724c:            d2 58 a0 b8  ldx       [%g2 + 0xb8], %o1
    0x100007250:            98 02 60 01  add       %o1, 0x1, %o4
    0x100007254:            d8 70 a0 b8  stx       %o4, [%g2 + 0xb8]
    0x100007258:            d6 5d 63 18  ldx       [%l5 + 0x318], %o3
    0x10000725c:            f6 58 a0 c0  ldx       [%g2 + 0xc0], %i3
    0x100007260:            80 a3 00 0b  cmp       %o4, %o3
    0x100007264:            02 60 00 24  be,pn     %xcc, +0x90   <0x1000072f4>
    0x100007268:            90 10 20 01  mov       0x1, %o0
    0x10000726c:            40 04 99 6d  call      +0x1265b4     <0x10012d820>
    0x100007270:            92 07 a7 37  add       %fp, 0x737, %o1
    0x100007274:            ca 5d a2 88  ldx       [%l6 + 0x288], %g5
    0x100007278:            e9 1b a8 e7  ldd       [%sp + 0x8e7], %d20
    0x10000727c:            e5 1b a8 ef  ldd       [%sp + 0x8ef], %d18
    0x100007280:            da 59 60 c0  ldx       [%g5 + 0xc0], %o5
    0x100007284:            80 a6 c0 0d  cmp       %i3, %o5
    0x100007288:            12 60 00 11  bne,pn    %xcc, +0x44   <0x1000072cc>
    0x10000728c:            01 00 00 00  nop
    0x100007290:            e9 3b a8 e7  std       %d20, [%sp + 0x8e7]
    0x100007294:            e5 3b a8 ef  std       %d18, [%sp + 0x8ef]
    0x100007298:            92 01 60 90  add       %g5, 0x90, %o1
    0x10000729c:            40 04 99 69  call      +0x1265a4     <0x10012d840>
    0x1000072a0:            90 01 60 a8  add       %g5, 0xa8, %o0
    0x1000072a4:            ed 1b a8 df  ldd       [%sp + 0x8df], %d22
    0x1000072a8:            e9 1b a8 e7  ldd       [%sp + 0x8e7], %d20
    0x1000072ac:            e5 1b a8 ef  ldd       [%sp + 0x8ef], %d18
    0x1000072b0:            0a c2 00 06  brnz,pn   %o0, +0x18    <0x1000072c8>
    0x1000072b4:            ca 5d a2 88  ldx       [%l6 + 0x288], %g5
    0x1000072b8:            de 59 60 c0  ldx       [%g5 + 0xc0], %o7
    0x1000072bc:            80 a6 c0 0f  cmp       %i3, %o7
    0x1000072c0:            22 6f ff f4  be,a,pt   %xcc, -0x30   <0x100007290>
    0x1000072c4:            ed 3b a8 df  std       %d22, [%sp + 0x8df]
    0x1000072c8:            ed 3b a8 df  std       %d22, [%sp + 0x8df]
    0x1000072cc:            c4 07 a7 3b  ld        [%fp + 0x73b], %g2
    0x1000072d0:            e5 3b a8 ef  std       %d18, [%sp + 0x8ef]
    0x1000072d4:            92 07 a7 2f  add       %fp, 0x72f, %o1
    0x1000072d8:            e9 3b a8 e7  std       %d20, [%sp + 0x8e7]
    0x1000072dc:            40 04 99 51  call      +0x126544     <0x10012d820>
    0x1000072e0:            91 38 a0 00  sra       %g2, 0x0, %o0
    0x1000072e4:            e9 1b a8 e7  ldd       [%sp + 0x8e7], %d20
    0x1000072e8:            e5 1b a8 ef  ldd       [%sp + 0x8ef], %d18
    0x1000072ec:            10 80 00 0a  ba        +0x28         <0x100007314>
    0x1000072f0:            01 00 00 00  nop
    0x1000072f4:            c0 70 a0 b8  clrx      [%g2 + 0xb8]
    0x1000072f8:            86 10 20 00  clr       %g3
    0x1000072fc:            87 7e e4 01  movre     %i3, 0x1, %g3
    0x100007300:            c6 70 a0 c0  stx       %g3, [%g2 + 0xc0]
    0x100007304:            40 04 99 57  call      +0x12655c     <0x10012d860>
    0x100007308:            90 00 a0 a8  add       %g2, 0xa8, %o0
    0x10000730c:            e9 1b a8 e7  ldd       [%sp + 0x8e7], %d20
    0x100007310:            e5 1b a8 ef  ldd       [%sp + 0x8ef], %d18
    0x100007314:            d0 5d a2 88  ldx       [%l6 + 0x288], %o0
    0x100007318:            e5 3b a8 ef  std       %d18, [%sp + 0x8ef]
    0x10000731c:            e9 3b a8 e7  std       %d20, [%sp + 0x8e7]
    0x100007320:            40 04 98 f8  call      +0x1263e0     <0x10012d700>
    0x100007324:            90 02 20 90  add       %o0, 0x90, %o0
    0x100007328:            ed 1b a8 df  ldd       [%sp + 0x8df], %d22
    0x10000732c:            e9 1b a8 e7  ldd       [%sp + 0x8e7], %d20
    0x100007330:            e5 1b a8 ef  ldd       [%sp + 0x8ef], %d18
    0x100007334:            02 c7 00 13  brz,pn    %i4, +0x4c    <0x100007380>
    0x100007338:            d0 5d a2 88  ldx       [%l6 + 0x288], %o0
    0x10000733c:            f1 1c 26 e0  ldd       [%l0 + 0x6e0], %d24
    0x100007340:            f5 1d e6 d8  ldd       [%l7 + 0x6d8], %d26
    0x100007344:            d5 1a 21 68  ldd       [%o0 + 0x168], %d10
    0x100007348:            d1 1a 21 48  ldd       [%o0 + 0x148], %d8
    0x10000734c:            cd 1a 21 50  ldd       [%o0 + 0x150], %d6
    0x100007350:            d9 1a 21 60  ldd       [%o0 + 0x160], %d12
    0x100007354:            dd 1a 21 58  ldd       [%o0 + 0x158], %d14
    0x100007358:            8d a2 08 46  faddd     %d8, %d6, %d6
    0x10000735c:            b9 a3 08 4a  faddd     %d12, %d10, %d28
    0x100007360:            e1 1a 21 70  ldd       [%o0 + 0x170], %d16
    0x100007364:            bd a1 88 4e  faddd     %d6, %d14, %d30
    0x100007368:            b7 a7 08 50  faddd     %d28, %d16, %d58
    0x10000736c:            bf a7 89 5a  fmuld     %d30, %d26, %d62
    0x100007370:            bb a6 09 5b  fmuld     %d24, %d58, %d60
    0x100007374:            81 a7 48 5f  faddd     %d60, %d62, %d0
    0x100007378:            10 80 00 6c  ba        +0x1b0        <0x100007528>
    0x10000737c:            ed 3b a8 df  std       %d22, [%sp + 0x8df]
    0x100007380:            80 a5 20 02  cmp       %l4, 0x2
    0x100007384:            16 60 00 05  bge,pn    %xcc, +0x14   <0x100007398>
    0x100007388:            dd 1c 26 e0  ldd       [%l0 + 0x6e0], %d14
    0x10000738c:            d0 5d a2 88  ldx       [%l6 + 0x288], %o0
    0x100007390:            10 80 00 1b  ba        +0x6c         <0x1000073fc>
    0x100007394:            cd 1a 21 48  ldd       [%o0 + 0x148], %d6
    0x100007398:            92 10 20 00  clr       %o1
    0x10000739c:            40 04 99 41  call      +0x126504     <0x10012d8a0>
    0x1000073a0:            90 07 a7 1f  add       %fp, 0x71f, %o0
    0x1000073a4:            de 5f a7 1f  ldx       [%fp + 0x71f], %o7
    0x1000073a8:            d0 5d a2 88  ldx       [%l6 + 0x288], %o0
    0x1000073ac:            ca 5f a7 27  ldx       [%fp + 0x727], %g5
    0x1000073b0:            99 2b f0 05  sllx      %o7, 0x5, %o4
    0x1000073b4:            d2 5a 21 b8  ldx       [%o0 + 0x1b8], %o1
    0x1000073b8:            96 23 c0 0c  sub       %o7, %o4, %o3
    0x1000073bc:            c8 5a 21 c8  ldx       [%o0 + 0x1c8], %g4
    0x1000073c0:            b7 2a f0 09  sllx      %o3, 0x9, %i3
    0x1000073c4:            ed 1b a8 df  ldd       [%sp + 0x8df], %d22
    0x1000073c8:            86 26 c0 0f  sub       %i3, %o7, %g3
    0x1000073cc:            95 28 f0 06  sllx      %g3, 0x6, %o2
    0x1000073d0:            e9 1b a8 e7  ldd       [%sp + 0x8e7], %d20
    0x1000073d4:            84 22 80 03  sub       %o2, %g3, %g2
    0x1000073d8:            e5 1b a8 ef  ldd       [%sp + 0x8ef], %d18
    0x1000073dc:            9a 23 c0 02  sub       %o7, %g2, %o5
    0x1000073e0:            dd 1c 26 e0  ldd       [%l0 + 0x6e0], %d14
    0x1000073e4:            98 01 40 0d  add       %g5, %o5, %o4
    0x1000073e8:            d8 72 21 c0  stx       %o4, [%o0 + 0x1c0]
    0x1000073ec:            96 23 00 09  sub       %o4, %o1, %o3
    0x1000073f0:            cd 1a 21 48  ldd       [%o0 + 0x148], %d6
    0x1000073f4:            b6 02 c0 04  add       %o3, %g4, %i3
    0x1000073f8:            f6 72 21 c8  stx       %i3, [%o0 + 0x1c8]
    0x1000073fc:            d9 1a 21 50  ldd       [%o0 + 0x150], %d12
    0x100007400:            f7 1a 21 58  ldd       [%o0 + 0x158], %d58
    0x100007404:            e1 1a 21 70  ldd       [%o0 + 0x170], %d16
    0x100007408:            bd a1 88 4c  faddd     %d6, %d12, %d30
    0x10000740c:            f9 1a 21 60  ldd       [%o0 + 0x160], %d28
    0x100007410:            f5 1d e6 d8  ldd       [%l7 + 0x6d8], %d26
    0x100007414:            ff 1a 21 68  ldd       [%o0 + 0x168], %d62
    0x100007418:            8d a4 09 4e  fmuld     %d16, %d14, %d6
    0x10000741c:            91 a7 88 5b  faddd     %d30, %d58, %d8
    0x100007420:            b1 a7 c9 4e  fmuld     %d62, %d14, %d24
    0x100007424:            b7 a7 09 4e  fmuld     %d28, %d14, %d58
    0x100007428:            a1 a2 09 5a  fmuld     %d8, %d26, %d16
    0x10000742c:            bb a6 c8 58  faddd     %d58, %d24, %d60
    0x100007430:            95 a4 08 46  faddd     %d16, %d6, %d10
    0x100007434:            0a c6 40 3c  brnz,pn   %i1, +0xf0    <0x100007524>
    0x100007438:            81 a7 48 4a  faddd     %d60, %d10, %d0
    0x10000743c:            d9 1c 60 10  ldd       [%l1 + 0x10], %d12
    0x100007440:            cd 3b a9 07  std       %d6, [%sp + 0x907]
    0x100007444:            ff 1c 60 08  ldd       [%l1 + 0x8], %d62
    0x100007448:            f1 3b a9 0f  std       %d24, [%sp + 0x90f]
    0x10000744c:            f9 1c 60 18  ldd       [%l1 + 0x18], %d28
    0x100007450:            b1 a7 c9 d6  fdivd     %d62, %d22, %d24
    0x100007454:            e1 3b a9 17  std       %d16, [%sp + 0x917]
    0x100007458:            f7 3b a9 1f  std       %d58, [%sp + 0x91f]
    0x10000745c:            c1 3b a8 d7  std       %d0, [%sp + 0x8d7]
    0x100007460:            13 00 04 00  sethi     %hi(0x100000), %o1
    0x100007464:            88 12 61 2e  or        %o1, 0x12e, %g4
    0x100007468:            8b 29 30 0c  sllx      %g4, 0xc, %g5
    0x10000746c:            e1 19 67 48  ldd       [%g5 + 0x748], %d16
    0x100007470:            8d a5 89 4c  fmuld     %d22, %d12, %d6
    0x100007474:            a5 a4 89 5a  fmuld     %d18, %d26, %d18
    0x100007478:            9d a5 09 4e  fmuld     %d20, %d14, %d14
    0x10000747c:            91 a7 c9 c6  fdivd     %d62, %d6, %d8
    0x100007480:            b5 a4 89 50  fmuld     %d18, %d16, %d26
    0x100007484:            b7 a3 89 5c  fmuld     %d14, %d28, %d58
    0x100007488:            bd a6 88 5a  faddd     %d26, %d26, %d30
    0x10000748c:            bb a6 c9 58  fmuld     %d58, %d24, %d60
    0x100007490:            fb 3b a8 ff  std       %d60, [%sp + 0x8ff]
    0x100007494:            95 a7 89 48  fmuld     %d30, %d8, %d10
    0x100007498:            40 04 98 92  call      +0x126248     <0x10012d6e0>
    0x10000749c:            d5 3b a8 f7  std       %d10, [%sp + 0x8f7]
    0x1000074a0:            cd 1b a9 07  ldd       [%sp + 0x907], %d6
    0x1000074a4:            da 5b a9 0f  ldx       [%sp + 0x90f], %o5
    0x1000074a8:            d6 5b a9 17  ldx       [%sp + 0x917], %o3
    0x1000074ac:            d8 5b a9 1f  ldx       [%sp + 0x91f], %o4
    0x1000074b0:            11 00 04 00  sethi     %hi(0x100000), %o0
    0x1000074b4:            15 00 04 00  sethi     %hi(0x100000), %o2
    0x1000074b8:            86 12 21 2e  or        %o0, 0x12e, %g3
    0x1000074bc:            cd 3b a8 af  std       %d6, [%sp + 0x8af]
    0x1000074c0:            84 12 a0 2c  or        %o2, 0x2c, %g2
    0x1000074c4:            b7 28 f0 0c  sllx      %g3, 0xc, %i3
    0x1000074c8:            d0 5e e6 98  ldx       [%i3 + 0x698], %o0
    0x1000074cc:            9f 28 b0 0c  sllx      %g2, 0xc, %o7
    0x1000074d0:            92 03 ed e8  add       %o7, 0xde8, %o1
    0x1000074d4:            40 04 98 fb  call      +0x1263ec     <0x10012d8c0>
    0x1000074d8:            94 10 00 14  mov       %l4, %o2
    0x1000074dc:            d4 5b a8 d7  ldx       [%sp + 0x8d7], %o2
    0x1000074e0:            d8 5b a8 ff  ldx       [%sp + 0x8ff], %o4
    0x1000074e4:            d6 5b a8 f7  ldx       [%sp + 0x8f7], %o3
    0x1000074e8:            d0 5e e6 98  ldx       [%i3 + 0x698], %o0
    0x1000074ec:            1b 00 04 00  sethi     %hi(0x100000), %o5
    0x1000074f0:            92 13 60 2c  or        %o5, 0x2c, %o1
    0x1000074f4:            89 2a 70 0c  sllx      %o1, 0xc, %g4
    0x1000074f8:            40 04 98 f2  call      +0x1263c8     <0x10012d8c0>
    0x1000074fc:            92 01 2e 18  add       %g4, 0xe18, %o1
    0x100007500:            40 04 98 a0  call      +0x126280     <0x10012d780>
    0x100007504:            d0 5e e6 98  ldx       [%i3 + 0x698], %o0
    0x100007508:            40 04 98 7e  call      +0x1261f8     <0x10012d700>
    0x10000750c:            d0 5d a2 88  ldx       [%l6 + 0x288], %o0
    0x100007510:            d0 5d a2 88  ldx       [%l6 + 0x288], %o0
    0x100007514:            ed 1b a8 df  ldd       [%sp + 0x8df], %d22
    0x100007518:            c1 1b a8 d7  ldd       [%sp + 0x8d7], %d0
    0x10000751c:            e9 1b a8 e7  ldd       [%sp + 0x8e7], %d20
    0x100007520:            e5 1b a8 ef  ldd       [%sp + 0x8ef], %d18
    0x100007524:            ed 3b a8 df  std       %d22, [%sp + 0x8df]
    0x100007528:            c1 3b a8 d7  std       %d0, [%sp + 0x8d7]
    0x10000752c:            e9 3b a8 e7  std       %d20, [%sp + 0x8e7]
    0x100007530:            e5 3b a8 ef  std       %d18, [%sp + 0x8ef]
    0x100007534:            40 04 98 6b  call      +0x1261ac     <0x10012d6e0>
    0x100007538:            90 02 20 90  add       %o0, 0x90, %o0
    0x10000753c:            0a c2 00 c3  brnz,pn   %o0, +0x30c   <0x100007848>
    0x100007540:            de 5d a2 88  ldx       [%l6 + 0x288], %o7
    0x100007544:            c6 5b e0 b8  ldx       [%o7 + 0xb8], %g3
    0x100007548:            98 00 e0 01  add       %g3, 0x1, %o4
    0x10000754c:            d8 73 e0 b8  stx       %o4, [%o7 + 0xb8]
    0x100007550:            d6 5d 63 18  ldx       [%l5 + 0x318], %o3
    0x100007554:            f6 5b e0 c0  ldx       [%o7 + 0xc0], %i3
    0x100007558:            80 a3 00 0b  cmp       %o4, %o3
    0x10000755c:            02 60 00 29  be,pn     %xcc, +0xa4   <0x100007600>
    0x100007560:            90 10 20 01  mov       0x1, %o0
    0x100007564:            40 04 98 af  call      +0x1262bc     <0x10012d820>
    0x100007568:            92 07 a7 17  add       %fp, 0x717, %o1
    0x10000756c:            da 5d a2 88  ldx       [%l6 + 0x288], %o5
    0x100007570:            c1 1b a8 d7  ldd       [%sp + 0x8d7], %d0
    0x100007574:            e9 1b a8 e7  ldd       [%sp + 0x8e7], %d20
    0x100007578:            ca 5b 60 c0  ldx       [%o5 + 0xc0], %g5
    0x10000757c:            e5 1b a8 ef  ldd       [%sp + 0x8ef], %d18
    0x100007580:            80 a6 c0 05  cmp       %i3, %g5
    0x100007584:            12 60 00 13  bne,pn    %xcc, +0x4c   <0x1000075d0>
    0x100007588:            01 00 00 00  nop
    0x10000758c:            c1 3b a8 d7  std       %d0, [%sp + 0x8d7]
    0x100007590:            e9 3b a8 e7  std       %d20, [%sp + 0x8e7]
    0x100007594:            e5 3b a8 ef  std       %d18, [%sp + 0x8ef]
    0x100007598:            92 03 60 90  add       %o5, 0x90, %o1
    0x10000759c:            40 04 98 a9  call      +0x1262a4     <0x10012d840>
    0x1000075a0:            90 03 60 a8  add       %o5, 0xa8, %o0
    0x1000075a4:            c1 1b a8 d7  ldd       [%sp + 0x8d7], %d0
    0x1000075a8:            ed 1b a8 df  ldd       [%sp + 0x8df], %d22
    0x1000075ac:            e9 1b a8 e7  ldd       [%sp + 0x8e7], %d20
    0x1000075b0:            e5 1b a8 ef  ldd       [%sp + 0x8ef], %d18
    0x1000075b4:            0a c2 00 06  brnz,pn   %o0, +0x18    <0x1000075cc>
    0x1000075b8:            da 5d a2 88  ldx       [%l6 + 0x288], %o5
    0x1000075bc:            c8 5b 60 c0  ldx       [%o5 + 0xc0], %g4
    0x1000075c0:            80 a6 c0 04  cmp       %i3, %g4
    0x1000075c4:            22 6f ff f2  be,a,pt   %xcc, -0x38   <0x10000758c>
    0x1000075c8:            ed 3b a8 df  std       %d22, [%sp + 0x8df]
    0x1000075cc:            ed 3b a8 df  std       %d22, [%sp + 0x8df]
    0x1000075d0:            de 07 a7 1b  ld        [%fp + 0x71b], %o7
    0x1000075d4:            e5 3b a8 ef  std       %d18, [%sp + 0x8ef]
    0x1000075d8:            c1 3b a8 d7  std       %d0, [%sp + 0x8d7]
    0x1000075dc:            91 3b e0 00  sra       %o7, 0x0, %o0
    0x1000075e0:            e9 3b a8 e7  std       %d20, [%sp + 0x8e7]
    0x1000075e4:            40 04 98 8f  call      +0x12623c     <0x10012d820>
    0x1000075e8:            92 07 a7 0f  add       %fp, 0x70f, %o1
    0x1000075ec:            c1 1b a8 d7  ldd       [%sp + 0x8d7], %d0
    0x1000075f0:            e9 1b a8 e7  ldd       [%sp + 0x8e7], %d20
    0x1000075f4:            e5 1b a8 ef  ldd       [%sp + 0x8ef], %d18
    0x1000075f8:            10 80 00 0c  ba        +0x30         <0x100007628>
    0x1000075fc:            01 00 00 00  nop
    0x100007600:            c0 73 e0 b8  clrx      [%o7 + 0xb8]
    0x100007604:            92 10 20 00  clr       %o1
    0x100007608:            93 7e e4 01  movre     %i3, 0x1, %o1
    0x10000760c:            d2 73 e0 c0  stx       %o1, [%o7 + 0xc0]
    0x100007610:            90 03 e0 a8  add       %o7, 0xa8, %o0
    0x100007614:            40 04 98 93  call      +0x12624c     <0x10012d860>
    0x100007618:            01 00 00 00  nop
    0x10000761c:            c1 1b a8 d7  ldd       [%sp + 0x8d7], %d0
    0x100007620:            e9 1b a8 e7  ldd       [%sp + 0x8e7], %d20
    0x100007624:            e5 1b a8 ef  ldd       [%sp + 0x8ef], %d18
    0x100007628:            c4 5d a2 88  ldx       [%l6 + 0x288], %g2
    0x10000762c:            e5 3b a8 ef  std       %d18, [%sp + 0x8ef]
    0x100007630:            c1 3b a8 d7  std       %d0, [%sp + 0x8d7]
    0x100007634:            e9 3b a8 e7  std       %d20, [%sp + 0x8e7]
    0x100007638:            40 04 98 32  call      +0x1260c8     <0x10012d700>
    0x10000763c:            90 00 a0 90  add       %g2, 0x90, %o0
    0x100007640:            c1 1b a8 d7  ldd       [%sp + 0x8d7], %d0
    0x100007644:            ed 1b a8 df  ldd       [%sp + 0x8df], %d22
    0x100007648:            e9 1b a8 e7  ldd       [%sp + 0x8e7], %d20
    0x10000764c:            e5 1b a8 ef  ldd       [%sp + 0x8ef], %d18
    0x100007650:            02 c7 00 04  brz,pn    %i4, +0x10    <0x100007660>
    0x100007654:            c4 5d a2 88  ldx       [%l6 + 0x288], %g2
    0x100007658:            10 80 00 20  ba        +0x80         <0x1000076d8>
    0x10000765c:            a8 05 20 01  add       %l4, 0x1, %l4
    0x100007660:            80 a5 20 02  cmp       %l4, 0x2
    0x100007664:            16 60 00 04  bge,pn    %xcc, +0x10   <0x100007674>
    0x100007668:            c4 5d a2 88  ldx       [%l6 + 0x288], %g2
    0x10000766c:            10 80 00 1b  ba        +0x6c         <0x1000076d8>
    0x100007670:            a8 05 20 01  add       %l4, 0x1, %l4
    0x100007674:            92 10 20 00  clr       %o1
    0x100007678:            a8 05 20 01  add       %l4, 0x1, %l4
    0x10000767c:            40 04 98 89  call      +0x126224     <0x10012d8a0>
    0x100007680:            90 07 a6 ff  add       %fp, 0x6ff, %o0
    0x100007684:            c8 5f a6 ff  ldx       [%fp + 0x6ff], %g4
    0x100007688:            c4 5d a2 88  ldx       [%l6 + 0x288], %g2
    0x10000768c:            ca 5f a7 07  ldx       [%fp + 0x707], %g5
    0x100007690:            99 29 30 05  sllx      %g4, 0x5, %o4
    0x100007694:            96 21 00 0c  sub       %g4, %o4, %o3
    0x100007698:            da 58 a1 88  ldx       [%g2 + 0x188], %o5
    0x10000769c:            95 2a f0 09  sllx      %o3, 0x9, %o2
    0x1000076a0:            d8 58 a1 98  ldx       [%g2 + 0x198], %o4
    0x1000076a4:            92 22 80 04  sub       %o2, %g4, %o1
    0x1000076a8:            91 2a 70 06  sllx      %o1, 0x6, %o0
    0x1000076ac:            ed 1b a8 df  ldd       [%sp + 0x8df], %d22
    0x1000076b0:            9e 22 00 09  sub       %o0, %o1, %o7
    0x1000076b4:            c1 1b a8 d7  ldd       [%sp + 0x8d7], %d0
    0x1000076b8:            b6 21 00 0f  sub       %g4, %o7, %i3
    0x1000076bc:            e9 1b a8 e7  ldd       [%sp + 0x8e7], %d20
    0x1000076c0:            86 01 40 1b  add       %g5, %i3, %g3
    0x1000076c4:            c6 70 a1 90  stx       %g3, [%g2 + 0x190]
    0x1000076c8:            96 20 c0 0d  sub       %g3, %o5, %o3
    0x1000076cc:            e5 1b a8 ef  ldd       [%sp + 0x8ef], %d18
    0x1000076d0:            94 02 c0 0c  add       %o3, %o4, %o2
    0x1000076d4:            d4 70 a1 98  stx       %o2, [%g2 + 0x198]
    0x1000076d8:            91 35 30 3f  srlx      %l4, 0x3f, %o0
    0x1000076dc:            92 1a 20 01  xor       %o0, 0x1, %o1
    0x1000076e0:            8a 20 00 09  neg       %o1, %g5
    0x1000076e4:            9a 10 20 00  clr       %o5
    0x1000076e8:            d4 5b a8 c7  ldx       [%sp + 0x8c7], %o2
    0x1000076ec:            d6 5b a8 cf  ldx       [%sp + 0x8cf], %o3
    0x1000076f0:            d8 5b a8 b7  ldx       [%sp + 0x8b7], %o4
    0x1000076f4:            9e 09 40 0a  and       %g5, %o2, %o7
    0x1000076f8:            88 09 40 0b  and       %g5, %o3, %g4
    0x1000076fc:            86 01 20 01  add       %g4, 0x1, %g3
    0x100007700:            94 06 60 01  add       %i1, 0x1, %o2
    0x100007704:            b2 1a 80 03  xor       %o2, %g3, %i1
    0x100007708:            86 06 20 01  add       %i0, 0x1, %g3
    0x10000770c:            92 03 e0 01  add       %o7, 0x1, %o1
    0x100007710:            b0 18 c0 09  xor       %g3, %o1, %i0
    0x100007714:            88 10 20 00  clr       %g4
    0x100007718:            9b 7e 64 01  movre     %i1, 0x1, %o5
    0x10000771c:            89 7e 24 01  movre     %i0, 0x1, %g4
    0x100007720:            80 a5 00 0c  cmp       %l4, %o4
    0x100007724:            98 20 00 0d  neg       %o5, %o4
    0x100007728:            9e 20 00 04  neg       %g4, %o7
    0x10000772c:            97 3b 20 00  sra       %o4, 0x0, %o3
    0x100007730:            b7 3b e0 00  sra       %o7, 0x0, %i3
    0x100007734:            90 0a c0 12  and       %o3, %l2, %o0
    0x100007738:            9a 0e c0 13  and       %i3, %l3, %o5
    0x10000773c:            b2 22 80 08  sub       %o2, %o0, %i1
    0x100007740:            b0 20 c0 0d  sub       %g3, %o5, %i0
    0x100007744:            24 6f fc e0  ble,a,pt  %xcc, -0xc80  <0x100006ac4>
    0x100007748:            d5 1c 60 08  ldd       [%l1 + 0x8], %d10
    0x10000774c:            81 c7 e0 08  ret
    0x100007750:            81 e8 20 00  restore   %g0, 0x0, %g0
    0x100007754:            05 00 04 00  sethi     %hi(0x100000), %g2
    0x100007758:            92 10 a0 2c  or        %g2, 0x2c, %o1
    0x10000775c:            a1 2a 70 0c  sllx      %o1, 0xc, %l0
    0x100007760:            40 04 98 00  call      +0x126000     <0x10012d760>
    0x100007764:            90 04 2c c8  add       %l0, 0xcc8, %o0
    0x100007768:            40 04 97 ce  call      +0x125f38     <0x10012d6a0>
    0x10000776c:            90 10 3f ff  mov       -0x1, %o0
    0x100007770:            d4 5d a2 88  ldx       [%l6 + 0x288], %o2
    0x100007774:            10 bf fc 3a  ba        -0xf18        <0x10000685c>
    0x100007778:            e4 5a a0 b8  ldx       [%o2 + 0xb8], %l2
    0x10000777c:            21 00 04 00  sethi     %hi(0x100000), %l0
    0x100007780:            94 14 20 2c  or        %l0, 0x2c, %o2
    0x100007784:            91 2a b0 0c  sllx      %o2, 0xc, %o0
    0x100007788:            40 04 97 f6  call      +0x125fd8     <0x10012d760>
    0x10000778c:            90 02 2c f8  add       %o0, 0xcf8, %o0
    0x100007790:            40 04 97 c4  call      +0x125f10     <0x10012d6a0>
    0x100007794:            90 10 3f ff  mov       -0x1, %o0
    0x100007798:            c6 5d a2 88  ldx       [%l6 + 0x288], %g3
    0x10000779c:            10 bf fc 68  ba        -0xe60        <0x10000693c>
    0x1000077a0:            f0 58 e0 b8  ldx       [%g3 + 0xb8], %i0
    0x1000077a4:            37 00 04 00  sethi     %hi(0x100000), %i3
    0x1000077a8:            88 16 e0 2c  or        %i3, 0x2c, %g4
    0x1000077ac:            93 29 30 0c  sllx      %g4, 0xc, %o1
    0x1000077b0:            40 04 97 ec  call      +0x125fb0     <0x10012d760>
    0x1000077b4:            90 02 6d 28  add       %o1, 0xd28, %o0
    0x1000077b8:            40 04 97 ba  call      +0x125ee8     <0x10012d6a0>
    0x1000077bc:            90 10 3f ff  mov       -0x1, %o0
    0x1000077c0:            d4 5d a2 88  ldx       [%l6 + 0x288], %o2
    0x1000077c4:            10 bf fd 08  ba        -0xbe0        <0x100006be4>
    0x1000077c8:            d6 5a a0 b8  ldx       [%o2 + 0xb8], %o3
    0x1000077cc:            15 00 04 00  sethi     %hi(0x100000), %o2
    0x1000077d0:            b6 12 a0 2c  or        %o2, 0x2c, %i3
    0x1000077d4:            9f 2e f0 0c  sllx      %i3, 0xc, %o7
    0x1000077d8:            90 03 ed 58  add       %o7, 0xd58, %o0
    0x1000077dc:            40 04 97 e1  call      +0x125f84     <0x10012d760>
    0x1000077e0:            01 00 00 00  nop
    0x1000077e4:            40 04 97 af  call      +0x125ebc     <0x10012d6a0>
    0x1000077e8:            90 10 3f ff  mov       -0x1, %o0
    0x1000077ec:            c4 5d a2 88  ldx       [%l6 + 0x288], %g2
    0x1000077f0:            10 bf fd 4b  ba        -0xad4        <0x100006d1c>
    0x1000077f4:            d2 58 a0 b8  ldx       [%g2 + 0xb8], %o1
    0x1000077f8:            37 00 04 00  sethi     %hi(0x100000), %i3
    0x1000077fc:            9e 16 e0 2c  or        %i3, 0x2c, %o7
    0x100007800:            91 2b f0 0c  sllx      %o7, 0xc, %o0
    0x100007804:            40 04 97 d7  call      +0x125f5c     <0x10012d760>
    0x100007808:            90 02 2d 88  add       %o0, 0xd88, %o0
    0x10000780c:            40 04 97 a5  call      +0x125e94     <0x10012d6a0>
    0x100007810:            90 10 3f ff  mov       -0x1, %o0
    0x100007814:            d8 5d a2 88  ldx       [%l6 + 0x288], %o4
    0x100007818:            10 bf fd e5  ba        -0x86c        <0x100006fac>
    0x10000781c:            c4 5b 20 b8  ldx       [%o4 + 0xb8], %g2
    0x100007820:            09 00 04 00  sethi     %hi(0x100000), %g4
    0x100007824:            b6 11 20 2c  or        %g4, 0x2c, %i3
    0x100007828:            91 2e f0 0c  sllx      %i3, 0xc, %o0
    0x10000782c:            40 04 97 cd  call      +0x125f34     <0x10012d760>
    0x100007830:            90 02 2d b8  add       %o0, 0xdb8, %o0
    0x100007834:            40 04 97 9b  call      +0x125e6c     <0x10012d6a0>
    0x100007838:            90 10 3f ff  mov       -0x1, %o0
    0x10000783c:            c4 5d a2 88  ldx       [%l6 + 0x288], %g2
    0x100007840:            10 bf fe 84  ba        -0x5f0        <0x100007250>
    0x100007844:            d2 58 a0 b8  ldx       [%g2 + 0xb8], %o1
    0x100007848:            37 00 04 00  sethi     %hi(0x100000), %i3
    0x10000784c:            94 16 e0 2c  or        %i3, 0x2c, %o2
    0x100007850:            85 2a b0 0c  sllx      %o2, 0xc, %g2
    0x100007854:            40 04 97 c3  call      +0x125f0c     <0x10012d760>
    0x100007858:            90 00 ae 38  add       %g2, 0xe38, %o0
    0x10000785c:            40 04 97 91  call      +0x125e44     <0x10012d6a0>
    0x100007860:            90 10 3f ff  mov       -0x1, %o0
    0x100007864:            de 5d a2 88  ldx       [%l6 + 0x288], %o7
    0x100007868:            10 bf ff 38  ba        -0x320        <0x100007548>
    0x10000786c:            c6 5b e0 b8  ldx       [%o7 + 0xb8], %g3
    0x100007870:            00 00 00 00  illtrap   0x0
    0x100007874:            00 00 00 00  illtrap   0x0
    0x100007878:            3f f0 00 00  0x3ff00000
    0x10000787c:            00 00 00 00  illtrap   0x0
    0x100007880:            3f e0 00 00  0x3fe00000
    0x100007884:            00 00 00 00  illtrap   0x0
POTENG()
    0x100007888:            9d e3 b7 20  save      %sp, -0x8e0, %sp
    0x10000788c:            39 00 04 00  sethi     %hi(0x100000), %i4
    0x100007890:            ba 17 21 2f  or        %i4, 0x12f, %i5
    0x100007894:            b9 2f 70 0c  sllx      %i5, 0xc, %i4
    0x100007898:            f2 73 a8 c7  stx       %i1, [%sp + 0x8c7]
    0x10000789c:            f2 5f 23 28  ldx       [%i4 + 0x328], %i1
    0x1000078a0:            b7 2e f0 03  sllx      %i3, 0x3, %i3
    0x1000078a4:            25 00 04 00  sethi     %hi(0x100000), %l2
    0x1000078a8:            e0 5e 40 1b  ldx       [%i1 + %i3], %l0
    0x1000078ac:            88 14 a0 07  or        %l2, 0x7, %g4
    0x1000078b0:            f4 73 a8 bf  stx       %i2, [%sp + 0x8bf]
    0x1000078b4:            b3 29 30 0c  sllx      %g4, 0xc, %i1
    0x1000078b8:            cf 1e 68 70  ldd       [%i1 + 0x870], %d38
    0x1000078bc:            f0 73 a8 b7  stx       %i0, [%sp + 0x8b7]
    0x1000078c0:            02 c4 00 fe  brz,pn    %l0, +0x3f8   <0x100007cb8>
    0x1000078c4:            ba 06 68 70  add       %i1, 0x870, %i5
    0x1000078c8:            23 00 04 00  sethi     %hi(0x100000), %l1
    0x1000078cc:            a6 14 61 2e  or        %l1, 0x12e, %l3
    0x1000078d0:            29 00 04 00  sethi     %hi(0x100000), %l4
    0x1000078d4:            2d 00 04 00  sethi     %hi(0x100000), %l6
    0x1000078d8:            2b 00 04 00  sethi     %hi(0x100000), %l5
    0x1000078dc:            b5 2c f0 0c  sllx      %l3, 0xc, %i2
    0x1000078e0:            b0 15 21 2d  or        %l4, 0x12d, %i0
    0x1000078e4:            ae 15 a1 2d  or        %l6, 0x12d, %l7
    0x1000078e8:            9e 15 61 2e  or        %l5, 0x12e, %o7
    0x1000078ec:            e8 5e a2 b0  ldx       [%i2 + 0x2b0], %l4
    0x1000078f0:            a3 2e 30 0c  sllx      %i0, 0xc, %l1
    0x1000078f4:            a5 2d f0 0c  sllx      %l7, 0xc, %l2
    0x1000078f8:            ec 5c 20 00  ldx       [%l0], %l6
    0x1000078fc:            a7 2b f0 0c  sllx      %o7, 0xc, %l3
    0x100007900:            f0 5c 20 08  ldx       [%l0 + 0x8], %i0
    0x100007904:            8b 2d b0 03  sllx      %l6, 0x3, %g5
    0x100007908:            de 59 40 14  ldx       [%g5 + %l4], %o7
    0x10000790c:            c6 5c 20 10  ldx       [%l0 + 0x10], %g3
    0x100007910:            85 2e 30 03  sllx      %i0, 0x3, %g2
    0x100007914:            f4 5b c0 02  ldx       [%o7 + %g2], %i2
    0x100007918:            9b 28 f0 05  sllx      %g3, 0x5, %o5
    0x10000791c:            ec 5e 80 0d  ldx       [%i2 + %o5], %l6
    0x100007920:            22 c5 80 e4  brz,a,pn  %l6, +0x390   <0x100007cb0>
    0x100007924:            e0 5c 20 18  ldx       [%l0 + 0x18], %l0
    0x100007928:            c7 1d a0 18  ldd       [%l6 + 0x18], %d34
    0x10000792c:            cb 1d a0 28  ldd       [%l6 + 0x28], %d36
    0x100007930:            c5 1d a0 20  ldd       [%l6 + 0x20], %d2
    0x100007934:            f7 1c 6d 78  ldd       [%l1 + 0xd78], %d58
    0x100007938:            d7 1d a0 38  ldd       [%l6 + 0x38], %d42
    0x10000793c:            db 1d a0 30  ldd       [%l6 + 0x30], %d44
    0x100007940:            df 1d a0 40  ldd       [%l6 + 0x40], %d46
    0x100007944:            d3 1c ad 80  ldd       [%l2 + 0xd80], %d40
    0x100007948:            cf 3b a9 3f  std       %d38, [%sp + 0x93f]
    0x10000794c:            f5 1d a0 50  ldd       [%l6 + 0x50], %d26
    0x100007950:            f9 1d a0 48  ldd       [%l6 + 0x48], %d28
    0x100007954:            fd 1d a0 58  ldd       [%l6 + 0x58], %d30
    0x100007958:            f1 1f 60 08  ldd       [%i5 + 0x8], %d24
    0x10000795c:            2b 00 04 00  sethi     %hi(0x100000), %l5
    0x100007960:            2f 00 04 00  sethi     %hi(0x100000), %l7
    0x100007964:            35 00 04 00  sethi     %hi(0x100000), %i2
    0x100007968:            bf a0 c8 45  faddd     %d34, %d36, %d62
    0x10000796c:            bb a0 89 5b  fmuld     %d2, %d58, %d60
    0x100007970:            b7 a2 c8 cf  fsubd     %d42, %d46, %d58
    0x100007974:            af a2 c8 cd  fsubd     %d42, %d44, %d54
    0x100007978:            8f a0 00 4b  fmovd     %d42, %d38
    0x10000797c:            b3 a3 48 4f  faddd     %d44, %d46, %d56
    0x100007980:            97 a7 c9 49  fmuld     %d62, %d40, %d42
    0x100007984:            ab a0 88 c5  fsubd     %d2, %d36, %d52
    0x100007988:            a7 a0 88 c3  fsubd     %d2, %d34, %d50
    0x10000798c:            a3 a6 c9 5b  fmuld     %d58, %d58, %d48
    0x100007990:            9f a6 88 de  fsubd     %d26, %d30, %d46
    0x100007994:            9b a6 88 dc  fsubd     %d26, %d28, %d44
    0x100007998:            93 a7 48 4b  faddd     %d60, %d42, %d40
    0x10000799c:            d3 3d a0 00  std       %d40, [%l6]
    0x1000079a0:            ff 1c ad 80  ldd       [%l2 + 0xd80], %d62
    0x1000079a4:            cb 1c 6d 78  ldd       [%l1 + 0xd78], %d36
    0x1000079a8:            97 a5 c9 5b  fmuld     %d54, %d58, %d42
    0x1000079ac:            87 a6 49 5f  fmuld     %d56, %d62, %d34
    0x1000079b0:            85 a1 c9 45  fmuld     %d38, %d36, %d2
    0x1000079b4:            b3 a5 c9 57  fmuld     %d54, %d54, %d56
    0x1000079b8:            b7 a5 49 55  fmuld     %d52, %d52, %d58
    0x1000079bc:            8b a4 c9 53  fmuld     %d50, %d50, %d36
    0x1000079c0:            8f a4 c9 55  fmuld     %d50, %d52, %d38
    0x1000079c4:            a7 a3 c9 4f  fmuld     %d46, %d46, %d50
    0x1000079c8:            bb a0 88 43  faddd     %d2, %d34, %d60
    0x1000079cc:            fb 3d a0 08  std       %d60, [%l6 + 0x8]
    0x1000079d0:            ff 1c ad 80  ldd       [%l2 + 0xd80], %d62
    0x1000079d4:            d3 1c 6d 78  ldd       [%l1 + 0xd78], %d40
    0x1000079d8:            85 a3 49 4d  fmuld     %d44, %d44, %d2
    0x1000079dc:            87 a6 c8 51  faddd     %d58, %d48, %d34
    0x1000079e0:            bb a1 48 59  faddd     %d36, %d56, %d60
    0x1000079e4:            a9 a7 08 5e  faddd     %d28, %d30, %d20
    0x1000079e8:            af a3 49 4f  fmuld     %d44, %d46, %d54
    0x1000079ec:            9f a6 89 49  fmuld     %d26, %d40, %d46
    0x1000079f0:            ab a1 c8 4b  faddd     %d38, %d42, %d52
    0x1000079f4:            b3 a0 c8 53  faddd     %d34, %d50, %d56
    0x1000079f8:            8b a7 48 42  faddd     %d60, %d2, %d36
    0x1000079fc:            a3 a5 09 5f  fmuld     %d20, %d62, %d48
    0x100007a00:            b7 a5 48 57  faddd     %d52, %d54, %d58
    0x100007a04:            bf a0 05 59  fsqrtd    %d56, %d62
    0x100007a08:            93 a0 05 45  fsqrtd    %d36, %d40
    0x100007a0c:            ff 3b a9 67  std       %d62, [%sp + 0x967]
    0x100007a10:            d3 3b a9 6f  std       %d40, [%sp + 0x96f]
    0x100007a14:            97 a2 49 5f  fmuld     %d40, %d62, %d42
    0x100007a18:            9b a3 c8 51  faddd     %d46, %d48, %d44
    0x100007a1c:            db 3d a0 10  std       %d44, [%l6 + 0x10]
    0x100007a20:            ef 1c e3 68  ldd       [%l3 + 0x368], %d54
    0x100007a24:            8f a6 09 cb  fdivd     %d24, %d42, %d38
    0x100007a28:            81 a1 c9 5b  fmuld     %d38, %d58, %d0
    0x100007a2c:            40 04 97 95  call      +0x125e54     <0x10012d880>
    0x100007a30:            ef 3b a9 5f  std       %d54, [%sp + 0x95f]
    0x100007a34:            88 15 61 2f  or        %l5, 0x12f, %g4
    0x100007a38:            95 29 30 0c  sllx      %g4, 0xc, %o2
    0x100007a3c:            c7 1a a1 50  ldd       [%o2 + 0x150], %d34
    0x100007a40:            ef 1b a9 5f  ldd       [%sp + 0x95f], %d54
    0x100007a44:            ff 1b a9 67  ldd       [%sp + 0x967], %d62
    0x100007a48:            11 00 04 00  sethi     %hi(0x100000), %o0
    0x100007a4c:            2b 00 04 00  sethi     %hi(0x100000), %l5
    0x100007a50:            96 12 21 2f  or        %o0, 0x12f, %o3
    0x100007a54:            85 a0 08 c3  fsubd     %d0, %d34, %d2
    0x100007a58:            d3 1b a9 6f  ldd       [%sp + 0x96f], %d40
    0x100007a5c:            88 15 61 2f  or        %l5, 0x12f, %g4
    0x100007a60:            93 2a f0 0c  sllx      %o3, 0xc, %o1
    0x100007a64:            9f a7 c8 d7  fsubd     %d62, %d54, %d46
    0x100007a68:            95 29 30 0c  sllx      %g4, 0xc, %o2
    0x100007a6c:            bd a0 89 57  fmuld     %d2, %d54, %d30
    0x100007a70:            97 a2 48 d7  fsubd     %d40, %d54, %d42
    0x100007a74:            f3 1a 62 b0  ldd       [%o1 + 0x2b0], %d56
    0x100007a78:            ff 1a a2 90  ldd       [%o2 + 0x290], %d62
    0x100007a7c:            0b 00 04 00  sethi     %hi(0x100000), %g5
    0x100007a80:            b0 11 61 2f  or        %g5, 0x12f, %i0
    0x100007a84:            85 a7 89 5e  fmuld     %d30, %d30, %d2
    0x100007a88:            b9 a2 c9 4f  fmuld     %d42, %d46, %d28
    0x100007a8c:            9a 15 e1 2f  or        %l7, 0x12f, %o5
    0x100007a90:            a3 a3 c9 4f  fmuld     %d46, %d46, %d48
    0x100007a94:            9b a2 c9 4b  fmuld     %d42, %d42, %d44
    0x100007a98:            87 2e 30 0c  sllx      %i0, 0xc, %g3
    0x100007a9c:            b3 a0 89 59  fmuld     %d2, %d56, %d56
    0x100007aa0:            bf a7 c9 5c  fmuld     %d62, %d28, %d62
    0x100007aa4:            99 2b 70 0c  sllx      %o5, 0xc, %o4
    0x100007aa8:            eb 18 e2 c8  ldd       [%g3 + 0x2c8], %d52
    0x100007aac:            fb 1b 22 b8  ldd       [%o4 + 0x2b8], %d60
    0x100007ab0:            0b 00 04 00  sethi     %hi(0x100000), %g5
    0x100007ab4:            b7 a0 89 55  fmuld     %d2, %d52, %d58
    0x100007ab8:            87 a7 09 5d  fmuld     %d28, %d60, %d34
    0x100007abc:            b0 11 61 2f  or        %g5, 0x12f, %i0
    0x100007ac0:            b3 a7 c8 59  faddd     %d62, %d56, %d56
    0x100007ac4:            ad a3 49 51  fmuld     %d44, %d48, %d22
    0x100007ac8:            bf a4 49 4f  fmuld     %d48, %d46, %d62
    0x100007acc:            af a4 49 51  fmuld     %d48, %d48, %d54
    0x100007ad0:            87 2e 30 0c  sllx      %i0, 0xc, %g3
    0x100007ad4:            fb 18 e1 80  ldd       [%g3 + 0x180], %d60
    0x100007ad8:            ab a3 49 4d  fmuld     %d44, %d44, %d52
    0x100007adc:            11 00 04 00  sethi     %hi(0x100000), %o0
    0x100007ae0:            84 16 a1 2f  or        %i2, 0x12f, %g2
    0x100007ae4:            b7 a6 c8 43  faddd     %d58, %d34, %d58
    0x100007ae8:            96 12 21 2f  or        %o0, 0x12f, %o3
    0x100007aec:            a5 a3 48 51  faddd     %d44, %d48, %d18
    0x100007af0:            b1 a7 09 5d  fmuld     %d28, %d60, %d24
    0x100007af4:            9f 28 b0 0c  sllx      %g2, 0xc, %o7
    0x100007af8:            93 2a f0 0c  sllx      %o3, 0xc, %o1
    0x100007afc:            a3 a2 c8 4f  faddd     %d42, %d46, %d48
    0x100007b00:            bb a3 49 4b  fmuld     %d44, %d42, %d60
    0x100007b04:            d3 1a 61 78  ldd       [%o1 + 0x178], %d40
    0x100007b08:            e7 1b e1 90  ldd       [%o7 + 0x190], %d50
    0x100007b0c:            35 00 04 00  sethi     %hi(0x100000), %i2
    0x100007b10:            2b 00 04 00  sethi     %hi(0x100000), %l5
    0x100007b14:            a9 a5 48 57  faddd     %d52, %d54, %d20
    0x100007b18:            ab a0 89 5b  fmuld     %d2, %d58, %d52
    0x100007b1c:            a7 a0 89 53  fmuld     %d2, %d50, %d50
    0x100007b20:            b7 a4 89 49  fmuld     %d18, %d40, %d58
    0x100007b24:            84 16 a1 2f  or        %i2, 0x12f, %g2
    0x100007b28:            9b a4 89 59  fmuld     %d18, %d56, %d44
    0x100007b2c:            88 15 61 2f  or        %l5, 0x12f, %g4
    0x100007b30:            9f 28 b0 0c  sllx      %g2, 0xc, %o7
    0x100007b34:            9f a7 48 5f  faddd     %d60, %d62, %d46
    0x100007b38:            93 a4 49 5c  fmuld     %d48, %d28, %d40
    0x100007b3c:            95 29 30 0c  sllx      %g4, 0xc, %o2
    0x100007b40:            c7 1b e2 a8  ldd       [%o7 + 0x2a8], %d34
    0x100007b44:            ef 1a a2 98  ldd       [%o2 + 0x298], %d54
    0x100007b48:            11 00 04 00  sethi     %hi(0x100000), %o0
    0x100007b4c:            96 12 21 2f  or        %o0, 0x12f, %o3
    0x100007b50:            bb a4 c8 5b  faddd     %d50, %d58, %d60
    0x100007b54:            93 2a f0 0c  sllx      %o3, 0xc, %o1
    0x100007b58:            97 a5 48 4d  faddd     %d52, %d44, %d42
    0x100007b5c:            9b a4 49 42  fmuld     %d48, %d2, %d44
    0x100007b60:            b3 a3 c9 57  fmuld     %d46, %d54, %d56
    0x100007b64:            bf a2 49 43  fmuld     %d40, %d34, %d62
    0x100007b68:            ef 1a 62 c0  ldd       [%o1 + 0x2c0], %d54
    0x100007b6c:            2f 00 04 00  sethi     %hi(0x100000), %l7
    0x100007b70:            35 00 04 00  sethi     %hi(0x100000), %i2
    0x100007b74:            9a 15 e1 2f  or        %l7, 0x12f, %o5
    0x100007b78:            ab a7 48 58  faddd     %d60, %d24, %d52
    0x100007b7c:            84 16 a1 2f  or        %i2, 0x12f, %g2
    0x100007b80:            b7 a6 48 5f  faddd     %d56, %d62, %d58
    0x100007b84:            bb a3 49 57  fmuld     %d44, %d54, %d60
    0x100007b88:            99 2b 70 0c  sllx      %o5, 0xc, %o4
    0x100007b8c:            9f 28 b0 0c  sllx      %g2, 0xc, %o7
    0x100007b90:            f5 1b 21 70  ldd       [%o4 + 0x170], %d26
    0x100007b94:            c7 1b e1 68  ldd       [%o7 + 0x168], %d34
    0x100007b98:            2f 00 04 00  sethi     %hi(0x100000), %l7
    0x100007b9c:            9a 15 e1 2e  or        %l7, 0x12e, %o5
    0x100007ba0:            99 2b 70 0c  sllx      %o5, 0xc, %o4
    0x100007ba4:            b3 a3 c9 43  fmuld     %d46, %d34, %d56
    0x100007ba8:            a7 a2 49 5a  fmuld     %d40, %d26, %d50
    0x100007bac:            ff 1b 26 d0  ldd       [%o4 + 0x6d0], %d62
    0x100007bb0:            11 00 04 00  sethi     %hi(0x100000), %o0
    0x100007bb4:            bb a6 c8 5d  faddd     %d58, %d60, %d60
    0x100007bb8:            96 12 21 2f  or        %o0, 0x12f, %o3
    0x100007bbc:            af a0 89 5f  fmuld     %d2, %d62, %d54
    0x100007bc0:            93 2a f0 0c  sllx      %o3, 0xc, %o1
    0x100007bc4:            0b 00 04 00  sethi     %hi(0x100000), %g5
    0x100007bc8:            ff 1a 61 88  ldd       [%o1 + 0x188], %d62
    0x100007bcc:            b0 11 61 2f  or        %g5, 0x12f, %i0
    0x100007bd0:            2b 00 04 00  sethi     %hi(0x100000), %l5
    0x100007bd4:            87 2e 30 0c  sllx      %i0, 0xc, %g3
    0x100007bd8:            88 15 61 2e  or        %l5, 0x12e, %g4
    0x100007bdc:            0b 00 04 00  sethi     %hi(0x100000), %g5
    0x100007be0:            9f a6 48 53  faddd     %d56, %d50, %d46
    0x100007be4:            95 29 30 0c  sllx      %g4, 0xc, %o2
    0x100007be8:            9e 11 61 2f  or        %g5, 0x12f, %o7
    0x100007bec:            31 00 04 00  sethi     %hi(0x100000), %i0
    0x100007bf0:            a7 a3 49 5f  fmuld     %d44, %d62, %d50
    0x100007bf4:            a3 a4 49 5e  fmuld     %d48, %d30, %d48
    0x100007bf8:            f7 1a a6 b8  ldd       [%o2 + 0x6b8], %d58
    0x100007bfc:            d3 18 e1 c8  ldd       [%g3 + 0x1c8], %d40
    0x100007c00:            05 00 04 00  sethi     %hi(0x100000), %g2
    0x100007c04:            9a 16 21 2f  or        %i0, 0x12f, %o5
    0x100007c08:            af 2b f0 0c  sllx      %o7, 0xc, %l7
    0x100007c0c:            85 a7 89 5d  fmuld     %d30, %d60, %d2
    0x100007c10:            ff 1d e2 a0  ldd       [%l7 + 0x2a0], %d62
    0x100007c14:            07 00 04 00  sethi     %hi(0x100000), %g3
    0x100007c18:            98 10 a1 2e  or        %g2, 0x12e, %o4
    0x100007c1c:            89 2b 70 0c  sllx      %o5, 0xc, %g4
    0x100007c20:            87 a7 89 55  fmuld     %d30, %d52, %d34
    0x100007c24:            fb 19 22 88  ldd       [%g4 + 0x288], %d60
    0x100007c28:            b4 10 e1 2e  or        %g3, 0x12e, %i2
    0x100007c2c:            ab 2b 30 0c  sllx      %o4, 0xc, %l5
    0x100007c30:            ab a4 89 5b  fmuld     %d18, %d58, %d52
    0x100007c34:            f3 1d 66 c8  ldd       [%l5 + 0x6c8], %d56
    0x100007c38:            95 2e b0 0c  sllx      %i2, 0xc, %o2
    0x100007c3c:            9b a5 89 5f  fmuld     %d22, %d62, %d44
    0x100007c40:            f7 1a a6 c0  ldd       [%o2 + 0x6c0], %d58
    0x100007c44:            bf a5 09 5d  fmuld     %d20, %d60, %d62
    0x100007c48:            bb a4 49 59  fmuld     %d48, %d56, %d60
    0x100007c4c:            b7 a7 09 5b  fmuld     %d28, %d58, %d58
    0x100007c50:            b3 a5 48 57  faddd     %d52, %d54, %d56
    0x100007c54:            a3 a3 c8 53  faddd     %d46, %d50, %d48
    0x100007c58:            cb 1f 60 10  ldd       [%i5 + 0x10], %d36
    0x100007c5c:            af a3 48 5f  faddd     %d44, %d62, %d54
    0x100007c60:            cf 1b a9 3f  ldd       [%sp + 0x93f], %d38
    0x100007c64:            a7 a6 c8 5d  faddd     %d58, %d60, %d50
    0x100007c68:            ab a6 49 45  fmuld     %d56, %d36, %d52
    0x100007c6c:            9f a4 48 43  faddd     %d48, %d34, %d46
    0x100007c70:            11 00 04 00  sethi     %hi(0x100000), %o0
    0x100007c74:            97 a5 c8 4b  faddd     %d54, %d42, %d42
    0x100007c78:            96 12 21 2e  or        %o0, 0x12e, %o3
    0x100007c7c:            8f a1 c8 53  faddd     %d38, %d50, %d38
    0x100007c80:            93 2a f0 0c  sllx      %o3, 0xc, %o1
    0x100007c84:            cb 1a 67 40  ldd       [%o1 + 0x740], %d36
    0x100007c88:            ec 5d a2 a0  ldx       [%l6 + 0x2a0], %l6
    0x100007c8c:            bf a2 c8 42  faddd     %d42, %d2, %d62
    0x100007c90:            9b a3 c9 45  fmuld     %d46, %d36, %d44
    0x100007c94:            bb a1 c8 55  faddd     %d38, %d52, %d60
    0x100007c98:            93 a7 c9 49  fmuld     %d62, %d40, %d40
    0x100007c9c:            b7 a7 48 4d  faddd     %d60, %d44, %d58
    0x100007ca0:            8f a6 c8 49  faddd     %d58, %d40, %d38
    0x100007ca4:            2a fd bf 22  brnz,a,pt %l6, -0x378   <0x10000792c>
    0x100007ca8:            c7 1d a0 18  ldd       [%l6 + 0x18], %d34
    0x100007cac:            e0 5c 20 18  ldx       [%l0 + 0x18], %l0
    0x100007cb0:            2a fc 3f 14  brnz,a,pt %l0, -0x3b0   <0x100007900>
    0x100007cb4:            ec 5c 20 00  ldx       [%l0], %l6
    0x100007cb8:            19 00 04 00  sethi     %hi(0x100000), %o4
    0x100007cbc:            cf 3b a9 3f  std       %d38, [%sp + 0x93f]
    0x100007cc0:            a2 13 21 2e  or        %o4, 0x12e, %l1
    0x100007cc4:            a1 2c 70 0c  sllx      %l1, 0xc, %l0
    0x100007cc8:            e8 5c 22 88  ldx       [%l0 + 0x288], %l4
    0x100007ccc:            e0 73 a8 cf  stx       %l0, [%sp + 0x8cf]
    0x100007cd0:            40 04 96 84  call      +0x125a10     <0x10012d6e0>
    0x100007cd4:            90 05 21 00  add       %l4, 0x100, %o0
    0x100007cd8:            0a c2 02 db  brnz,pn   %o0, +0xb6c   <0x100008844>
    0x100007cdc:            da 5c 22 88  ldx       [%l0 + 0x288], %o5
    0x100007ce0:            d2 5b 61 28  ldx       [%o5 + 0x128], %o1
    0x100007ce4:            17 00 04 00  sethi     %hi(0x100000), %o3
    0x100007ce8:            ac 02 60 01  add       %o1, 0x1, %l6
    0x100007cec:            8a 12 e1 2f  or        %o3, 0x12f, %g5
    0x100007cf0:            b1 29 70 0c  sllx      %g5, 0xc, %i0
    0x100007cf4:            ec 73 61 28  stx       %l6, [%o5 + 0x128]
    0x100007cf8:            c6 5e 23 18  ldx       [%i0 + 0x318], %g3
    0x100007cfc:            f4 5b 61 30  ldx       [%o5 + 0x130], %i2
    0x100007d00:            80 a5 80 03  cmp       %l6, %g3
    0x100007d04:            02 60 00 1c  be,pn     %xcc, +0x70   <0x100007d74>
    0x100007d08:            90 10 20 01  mov       0x1, %o0
    0x100007d0c:            40 04 96 c5  call      +0x125b14     <0x10012d820>
    0x100007d10:            92 07 a7 d7  add       %fp, 0x7d7, %o1
    0x100007d14:            d0 5c 22 88  ldx       [%l0 + 0x288], %o0
    0x100007d18:            cf 1b a9 3f  ldd       [%sp + 0x93f], %d38
    0x100007d1c:            d4 5a 21 30  ldx       [%o0 + 0x130], %o2
    0x100007d20:            80 a6 80 0a  cmp       %i2, %o2
    0x100007d24:            12 60 00 0c  bne,pn    %xcc, +0x30   <0x100007d54>
    0x100007d28:            92 02 21 00  add       %o0, 0x100, %o1
    0x100007d2c:            90 02 21 18  add       %o0, 0x118, %o0
    0x100007d30:            40 04 96 c4  call      +0x125b10     <0x10012d840>
    0x100007d34:            cf 3b a9 3f  std       %d38, [%sp + 0x93f]
    0x100007d38:            cf 1b a9 3f  ldd       [%sp + 0x93f], %d38
    0x100007d3c:            0a c2 00 06  brnz,pn   %o0, +0x18    <0x100007d54>
    0x100007d40:            d0 5c 22 88  ldx       [%l0 + 0x288], %o0
    0x100007d44:            c8 5a 21 30  ldx       [%o0 + 0x130], %g4
    0x100007d48:            80 a6 80 04  cmp       %i2, %g4
    0x100007d4c:            02 6f ff f8  be,pt     %xcc, -0x20   <0x100007d2c>
    0x100007d50:            92 02 21 00  add       %o0, 0x100, %o1
    0x100007d54:            e0 07 a7 db  ld        [%fp + 0x7db], %l0
    0x100007d58:            cf 3b a9 3f  std       %d38, [%sp + 0x93f]
    0x100007d5c:            92 07 a7 cf  add       %fp, 0x7cf, %o1
    0x100007d60:            40 04 96 b0  call      +0x125ac0     <0x10012d820>
    0x100007d64:            91 3c 20 00  sra       %l0, 0x0, %o0
    0x100007d68:            cf 1b a9 3f  ldd       [%sp + 0x93f], %d38
    0x100007d6c:            10 80 00 0a  ba        +0x28         <0x100007d94>
    0x100007d70:            e2 5b a8 cf  ldx       [%sp + 0x8cf], %l1
    0x100007d74:            c0 73 61 28  clrx      [%o5 + 0x128]
    0x100007d78:            a6 10 20 00  clr       %l3
    0x100007d7c:            a7 7e a4 01  movre     %i2, 0x1, %l3
    0x100007d80:            e6 73 61 30  stx       %l3, [%o5 + 0x130]
    0x100007d84:            40 04 96 b7  call      +0x125adc     <0x10012d860>
    0x100007d88:            90 03 61 18  add       %o5, 0x118, %o0
    0x100007d8c:            e2 5b a8 cf  ldx       [%sp + 0x8cf], %l1
    0x100007d90:            cf 1b a9 3f  ldd       [%sp + 0x93f], %d38
    0x100007d94:            e2 5c 62 88  ldx       [%l1 + 0x288], %l1
    0x100007d98:            cf 3b a9 3f  std       %d38, [%sp + 0x93f]
    0x100007d9c:            40 04 96 59  call      +0x125964     <0x10012d700>
    0x100007da0:            90 04 61 00  add       %l1, 0x100, %o0
    0x100007da4:            e8 5f 23 28  ldx       [%i4 + 0x328], %l4
    0x100007da8:            cb 1e 68 70  ldd       [%i1 + 0x870], %d36
    0x100007dac:            d3 1e 68 70  ldd       [%i1 + 0x870], %d40
    0x100007db0:            ea 5d 00 1b  ldx       [%l4 + %i3], %l5
    0x100007db4:            cf 1b a9 3f  ldd       [%sp + 0x93f], %d38
    0x100007db8:            02 c5 42 85  brz,pn    %l5, +0xa14   <0x1000087cc>
    0x100007dbc:            ea 77 a7 df  stx       %l5, [%fp + 0x7df]
    0x100007dc0:            17 00 04 00  sethi     %hi(0x100000), %o3
    0x100007dc4:            94 12 e1 2f  or        %o3, 0x12f, %o2
    0x100007dc8:            b9 2a b0 0c  sllx      %o2, 0xc, %i4
    0x100007dcc:            1b 00 04 00  sethi     %hi(0x100000), %o5
    0x100007dd0:            13 00 04 00  sethi     %hi(0x100000), %o1
    0x100007dd4:            0b 00 04 00  sethi     %hi(0x100000), %g5
    0x100007dd8:            25 00 04 00  sethi     %hi(0x100000), %l2
    0x100007ddc:            98 13 61 2e  or        %o5, 0x12e, %o4
    0x100007de0:            90 12 61 2e  or        %o1, 0x12e, %o0
    0x100007de4:            84 11 61 2e  or        %g5, 0x12e, %g2
    0x100007de8:            88 14 a1 2e  or        %l2, 0x12e, %g4
    0x100007dec:            b7 2b 30 0c  sllx      %o4, 0xc, %i3
    0x100007df0:            a1 28 b0 0c  sllx      %g2, 0xc, %l0
    0x100007df4:            f8 73 a8 d7  stx       %i4, [%sp + 0x8d7]
    0x100007df8:            b9 2a 30 0c  sllx      %o0, 0xc, %i4
    0x100007dfc:            ec 5f a7 df  ldx       [%fp + 0x7df], %l6
    0x100007e00:            a3 29 30 0c  sllx      %g4, 0xc, %l1
    0x100007e04:            da 5d a0 00  ldx       [%l6], %o5
    0x100007e08:            da 73 a8 ef  stx       %o5, [%sp + 0x8ef]
    0x100007e0c:            98 03 7f ff  add       %o5, -0x1, %o4
    0x100007e10:            96 03 60 01  add       %o5, 0x1, %o3
    0x100007e14:            d6 73 a8 e7  stx       %o3, [%sp + 0x8e7]
    0x100007e18:            80 a3 00 0b  cmp       %o4, %o3
    0x100007e1c:            14 60 02 67  bg,pn     %xcc, +0x99c  <0x1000087b8>
    0x100007e20:            d8 73 a8 df  stx       %o4, [%sp + 0x8df]
    0x100007e24:            a5 2b 70 03  sllx      %o5, 0x3, %l2
    0x100007e28:            da 5d a0 08  ldx       [%l6 + 0x8], %o5
    0x100007e2c:            da 73 a9 17  stx       %o5, [%sp + 0x917]
    0x100007e30:            ec 5d a0 10  ldx       [%l6 + 0x10], %l6
    0x100007e34:            ec 73 a9 1f  stx       %l6, [%sp + 0x91f]
    0x100007e38:            b0 03 60 01  add       %o5, 0x1, %i0
    0x100007e3c:            a7 2d b0 05  sllx      %l6, 0x5, %l3
    0x100007e40:            f0 73 a8 f7  stx       %i0, [%sp + 0x8f7]
    0x100007e44:            c6 5e e2 b0  ldx       [%i3 + 0x2b0], %g3
    0x100007e48:            ae 05 a0 01  add       %l6, 0x1, %l7
    0x100007e4c:            9e 05 bf ff  add       %l6, -0x1, %o7
    0x100007e50:            ee 73 a9 0f  stx       %l7, [%sp + 0x90f]
    0x100007e54:            98 03 7f ff  add       %o5, -0x1, %o4
    0x100007e58:            de 73 a8 ff  stx       %o7, [%sp + 0x8ff]
    0x100007e5c:            aa 00 c0 12  add       %g3, %l2, %l5
    0x100007e60:            d8 73 a9 07  stx       %o4, [%sp + 0x907]
    0x100007e64:            a9 2b 70 03  sllx      %o5, 0x3, %l4
    0x100007e68:            c4 5b a9 07  ldx       [%sp + 0x907], %g2
    0x100007e6c:            80 a0 80 18  cmp       %g2, %i0
    0x100007e70:            14 60 02 4b  bg,pn     %xcc, +0x92c  <0x10000879c>
    0x100007e74:            d2 5b a8 df  ldx       [%sp + 0x8df], %o1
    0x100007e78:            ac 10 20 00  clr       %l6
    0x100007e7c:            90 10 20 00  clr       %o0
    0x100007e80:            d4 5b a8 ef  ldx       [%sp + 0x8ef], %o2
    0x100007e84:            b0 1a 60 02  xor       %o1, 0x2, %i0
    0x100007e88:            ad 7e 24 01  movre     %i0, 0x1, %l6
    0x100007e8c:            c4 73 a9 27  stx       %g2, [%sp + 0x927]
    0x100007e90:            af 32 70 3f  srlx      %o1, 0x3f, %l7
    0x100007e94:            b4 1a 40 0a  xor       %o1, %o2, %i2
    0x100007e98:            c6 5b a9 0f  ldx       [%sp + 0x90f], %g3
    0x100007e9c:            96 15 c0 16  or        %l7, %l6, %o3
    0x100007ea0:            d6 23 a9 33  st        %o3, [%sp + 0x933]
    0x100007ea4:            91 7e b4 01  movrne    %i2, 0x1, %o0
    0x100007ea8:            d0 23 a9 2f  st        %o0, [%sp + 0x92f]
    0x100007eac:            c8 5b a8 ff  ldx       [%sp + 0x8ff], %g4
    0x100007eb0:            80 a1 00 03  cmp       %g4, %g3
    0x100007eb4:            14 60 02 33  bg,pn     %xcc, +0x8cc  <0x100008780>
    0x100007eb8:            f2 5b a9 27  ldx       [%sp + 0x927], %i1
    0x100007ebc:            90 10 20 00  clr       %o0
    0x100007ec0:            92 10 20 00  clr       %o1
    0x100007ec4:            9a 1e 60 02  xor       %i1, 0x2, %o5
    0x100007ec8:            c6 5b a9 17  ldx       [%sp + 0x917], %g3
    0x100007ecc:            8b 36 70 3f  srlx      %i1, 0x3f, %g5
    0x100007ed0:            91 7b 64 01  movre     %o5, 0x1, %o0
    0x100007ed4:            c4 03 a9 2f  ld        [%sp + 0x92f], %g2
    0x100007ed8:            96 1e 40 03  xor       %i1, %g3, %o3
    0x100007edc:            93 7a f4 01  movrne    %o3, 0x1, %o1
    0x100007ee0:            b0 11 40 08  or        %g5, %o0, %i0
    0x100007ee4:            f0 23 a9 37  st        %i0, [%sp + 0x937]
    0x100007ee8:            b4 10 80 09  or        %g2, %o1, %i2
    0x100007eec:            ca 5b a8 d7  ldx       [%sp + 0x8d7], %g5
    0x100007ef0:            f4 23 a9 3b  st        %i2, [%sp + 0x93b]
    0x100007ef4:            b2 10 00 04  mov       %g4, %i1
    0x100007ef8:            d8 59 63 20  ldx       [%g5 + 0x320], %o4
    0x100007efc:            80 a3 20 02  cmp       %o4, 0x2
    0x100007f00:            12 60 00 15  bne,pn    %xcc, +0x54   <0x100007f54>
    0x100007f04:            d0 03 a9 33  ld        [%sp + 0x933], %o0
    0x100007f08:            80 a2 20 00  cmp       %o0, 0x0
    0x100007f0c:            12 40 02 18  bne,pn    %icc, +0x860  <0x10000876c>
    0x100007f10:            d2 03 a9 37  ld        [%sp + 0x937], %o1
    0x100007f14:            80 a2 60 00  cmp       %o1, 0x0
    0x100007f18:            32 40 02 16  bne,a,pn  %icc, +0x858  <0x100008770>
    0x100007f1c:            b2 06 60 01  add       %i1, 0x1, %i1
    0x100007f20:            06 c6 42 13  brlz,pn   %i1, +0x84c   <0x10000876c>
    0x100007f24:            80 a6 60 02  cmp       %i1, 0x2
    0x100007f28:            02 60 02 11  be,pn     %xcc, +0x844  <0x10000876c>
    0x100007f2c:            ee 5b a8 df  ldx       [%sp + 0x8df], %l7
    0x100007f30:            de 5b a9 27  ldx       [%sp + 0x927], %o7
    0x100007f34:            b4 25 c0 0c  sub       %l7, %o4, %i2
    0x100007f38:            80 a5 c0 0c  cmp       %l7, %o4
    0x100007f3c:            b5 64 d0 17  movl      %xcc, %l7, %i2
    0x100007f40:            ac 23 c0 0c  sub       %o7, %o4, %l6
    0x100007f44:            80 a3 c0 0c  cmp       %o7, %o4
    0x100007f48:            ad 64 d0 0f  movl      %xcc, %o7, %l6
    0x100007f4c:            10 80 00 1c  ba        +0x70         <0x100007fbc>
    0x100007f50:            80 a6 40 0c  cmp       %i1, %o4
    0x100007f54:            f4 5b a8 df  ldx       [%sp + 0x8df], %i2
    0x100007f58:            80 a6 bf ff  cmp       %i2, -0x1
    0x100007f5c:            12 60 00 05  bne,pn    %xcc, +0x14   <0x100007f70>
    0x100007f60:            94 10 00 1a  mov       %i2, %o2
    0x100007f64:            b4 03 3f ff  add       %o4, -0x1, %i2
    0x100007f68:            10 80 00 06  ba        +0x18         <0x100007f80>
    0x100007f6c:            ec 5b a9 27  ldx       [%sp + 0x927], %l6
    0x100007f70:            80 a6 80 0c  cmp       %i2, %o4
    0x100007f74:            b4 26 80 0c  sub       %i2, %o4, %i2
    0x100007f78:            ec 5b a9 27  ldx       [%sp + 0x927], %l6
    0x100007f7c:            b5 64 d0 0a  movl      %xcc, %o2, %i2
    0x100007f80:            80 a5 bf ff  cmp       %l6, -0x1
    0x100007f84:            12 60 00 05  bne,pn    %xcc, +0x14   <0x100007f98>
    0x100007f88:            ae 10 00 16  mov       %l6, %l7
    0x100007f8c:            ac 03 3f ff  add       %o4, -0x1, %l6
    0x100007f90:            10 80 00 06  ba        +0x18         <0x100007fa8>
    0x100007f94:            80 a6 7f ff  cmp       %i1, -0x1
    0x100007f98:            80 a5 80 0c  cmp       %l6, %o4
    0x100007f9c:            ac 25 80 0c  sub       %l6, %o4, %l6
    0x100007fa0:            ad 64 d0 17  movl      %xcc, %l7, %l6
    0x100007fa4:            80 a6 7f ff  cmp       %i1, -0x1
    0x100007fa8:            12 60 00 04  bne,pn    %xcc, +0x10   <0x100007fb8>
    0x100007fac:            ae 03 3f ff  add       %o4, -0x1, %l7
    0x100007fb0:            10 80 00 06  ba        +0x18         <0x100007fc8>
    0x100007fb4:            d6 5b a8 ef  ldx       [%sp + 0x8ef], %o3
    0x100007fb8:            80 a6 40 0c  cmp       %i1, %o4
    0x100007fbc:            ae 26 40 0c  sub       %i1, %o4, %l7
    0x100007fc0:            d6 5b a8 ef  ldx       [%sp + 0x8ef], %o3
    0x100007fc4:            af 64 d0 19  movl      %xcc, %i1, %l7
    0x100007fc8:            80 a6 80 0b  cmp       %i2, %o3
    0x100007fcc:            12 60 00 0d  bne,pn    %xcc, +0x34   <0x100008000>
    0x100007fd0:            d8 5b a9 17  ldx       [%sp + 0x917], %o4
    0x100007fd4:            80 a5 80 0c  cmp       %l6, %o4
    0x100007fd8:            12 60 00 0a  bne,pn    %xcc, +0x28   <0x100008000>
    0x100007fdc:            da 5b a9 1f  ldx       [%sp + 0x91f], %o5
    0x100007fe0:            80 a5 c0 0d  cmp       %l7, %o5
    0x100007fe4:            12 60 00 07  bne,pn    %xcc, +0x1c   <0x100008000>
    0x100007fe8:            de 03 a9 3b  ld        [%sp + 0x93b], %o7
    0x100007fec:            80 a3 e0 00  cmp       %o7, 0x0
    0x100007ff0:            12 40 01 df  bne,pn    %icc, +0x77c  <0x10000876c>
    0x100007ff4:            80 a6 40 0d  cmp       %i1, %o5
    0x100007ff8:            32 60 01 de  bne,a,pn  %xcc, +0x778  <0x100008770>
    0x100007ffc:            b2 06 60 01  add       %i1, 0x1, %i1
    0x100008000:            c4 5e e2 b0  ldx       [%i3 + 0x2b0], %g2
    0x100008004:            87 2e b0 03  sllx      %i2, 0x3, %g3
    0x100008008:            b5 2d b0 03  sllx      %l6, 0x3, %i2
    0x10000800c:            de 58 80 03  ldx       [%g2 + %g3], %o7
    0x100008010:            af 2d f0 05  sllx      %l7, 0x5, %l7
    0x100008014:            da 5b c0 1a  ldx       [%o7 + %i2], %o5
    0x100008018:            ee 5b 40 17  ldx       [%o5 + %l7], %l7
    0x10000801c:            02 c5 c1 d4  brz,pn    %l7, +0x750   <0x10000876c>
    0x100008020:            01 00 00 00  nop
    0x100008024:            f0 5d 60 00  ldx       [%l5], %i0
    0x100008028:            ec 5e 00 14  ldx       [%i0 + %l4], %l6
    0x10000802c:            ec 5c c0 16  ldx       [%l3 + %l6], %l6
    0x100008030:            02 c5 81 cc  brz,pn    %l6, +0x730   <0x100008760>
    0x100008034:            b4 05 e0 30  add       %l7, 0x30, %i2
    0x100008038:            aa 05 e0 48  add       %l7, 0x48, %l5
    0x10000803c:            b0 05 e0 18  add       %l7, 0x18, %i0
    0x100008040:            80 a5 80 17  cmp       %l6, %l7
    0x100008044:            32 60 00 05  bne,a,pn  %xcc, +0x14   <0x100008058>
    0x100008048:            cd 1d e0 00  ldd       [%l7], %d6
    0x10000804c:            ec 5d a2 a0  ldx       [%l6 + 0x2a0], %l6
    0x100008050:            10 80 01 c0  ba        +0x700        <0x100008750>
    0x100008054:            01 00 00 00  nop
    0x100008058:            c9 1d a0 00  ldd       [%l6], %d4
    0x10000805c:            d9 1c 66 a8  ldd       [%l1 + 0x6a8], %d12
    0x100008060:            d5 1c 26 a0  ldd       [%l0 + 0x6a0], %d10
    0x100008064:            98 07 a7 57  add       %fp, 0x757, %o4
    0x100008068:            92 10 00 18  mov       %i0, %o1
    0x10000806c:            cf 3b a9 3f  std       %d38, [%sp + 0x93f]
    0x100008070:            cb 3b a9 47  std       %d36, [%sp + 0x947]
    0x100008074:            d3 3b a9 4f  std       %d40, [%sp + 0x94f]
    0x100008078:            7f ff ee 3c  call      -0x4710       <0x100003968>
    0x10000807c:            90 05 a0 18  add       %l6, 0x18, %o0
    0x100008080:            cd 1d e0 08  ldd       [%l7 + 0x8], %d6
    0x100008084:            c9 1d a0 08  ldd       [%l6 + 0x8], %d4
    0x100008088:            d9 1c 66 a8  ldd       [%l1 + 0x6a8], %d12
    0x10000808c:            d5 1c 26 a0  ldd       [%l0 + 0x6a0], %d10
    0x100008090:            92 10 00 1a  mov       %i2, %o1
    0x100008094:            90 05 a0 30  add       %l6, 0x30, %o0
    0x100008098:            7f ff ee 34  call      -0x4730       <0x100003968>
    0x10000809c:            98 07 a6 df  add       %fp, 0x6df, %o4
    0x1000080a0:            cd 1d e0 10  ldd       [%l7 + 0x10], %d6
    0x1000080a4:            c9 1d a0 10  ldd       [%l6 + 0x10], %d4
    0x1000080a8:            d9 1c 66 a8  ldd       [%l1 + 0x6a8], %d12
    0x1000080ac:            d5 1c 26 a0  ldd       [%l0 + 0x6a0], %d10
    0x1000080b0:            92 10 00 15  mov       %l5, %o1
    0x1000080b4:            90 05 a0 48  add       %l6, 0x48, %o0
    0x1000080b8:            7f ff ee 2c  call      -0x4750       <0x100003968>
    0x1000080bc:            98 07 a6 67  add       %fp, 0x667, %o4
    0x1000080c0:            c5 1f a6 df  ldd       [%fp + 0x6df], %d2
    0x1000080c4:            fb 1f a7 17  ldd       [%fp + 0x717], %d60
    0x1000080c8:            ff 1f a7 57  ldd       [%fp + 0x757], %d62
    0x1000080cc:            b3 a0 89 42  fmuld     %d2, %d2, %d56
    0x1000080d0:            c5 1f a6 f7  ldd       [%fp + 0x6f7], %d2
    0x1000080d4:            b5 a7 49 5d  fmuld     %d60, %d60, %d26
    0x1000080d8:            bf a7 c9 5f  fmuld     %d62, %d62, %d62
    0x1000080dc:            9b a0 89 42  fmuld     %d2, %d2, %d44
    0x1000080e0:            c5 1f a7 5f  ldd       [%fp + 0x75f], %d2
    0x1000080e4:            e7 1f a7 0f  ldd       [%fp + 0x70f], %d50
    0x1000080e8:            c7 1f a6 e7  ldd       [%fp + 0x6e7], %d34
    0x1000080ec:            bb a0 89 42  fmuld     %d2, %d2, %d60
    0x1000080f0:            d7 1f a6 ef  ldd       [%fp + 0x6ef], %d42
    0x1000080f4:            df 1f a6 ff  ldd       [%fp + 0x6ff], %d46
    0x1000080f8:            b9 a4 c9 53  fmuld     %d50, %d50, %d28
    0x1000080fc:            af a0 c9 43  fmuld     %d34, %d34, %d54
    0x100008100:            ab a2 c9 4b  fmuld     %d42, %d42, %d52
    0x100008104:            e7 1f a7 6f  ldd       [%fp + 0x76f], %d50
    0x100008108:            97 a3 c9 4f  fmuld     %d46, %d46, %d42
    0x10000810c:            f7 1f a7 1f  ldd       [%fp + 0x71f], %d58
    0x100008110:            85 a7 c8 59  faddd     %d62, %d56, %d2
    0x100008114:            df 1f a7 67  ldd       [%fp + 0x767], %d46
    0x100008118:            bf a4 c9 53  fmuld     %d50, %d50, %d62
    0x10000811c:            b1 a6 c9 5b  fmuld     %d58, %d58, %d24
    0x100008120:            b7 a3 c9 4f  fmuld     %d46, %d46, %d58
    0x100008124:            e3 1f a7 07  ldd       [%fp + 0x707], %d48
    0x100008128:            bd a7 48 57  faddd     %d60, %d54, %d30
    0x10000812c:            fb 1f a6 67  ldd       [%fp + 0x667], %d60
    0x100008130:            87 a4 49 51  fmuld     %d48, %d48, %d34
    0x100008134:            a7 a7 c8 4d  faddd     %d62, %d44, %d50
    0x100008138:            e3 1f a7 77  ldd       [%fp + 0x777], %d48
    0x10000813c:            9b a7 49 5d  fmuld     %d60, %d60, %d44
    0x100008140:            ab a6 c8 55  faddd     %d58, %d52, %d52
    0x100008144:            b7 a4 49 51  fmuld     %d48, %d48, %d58
    0x100008148:            df 1f a7 7f  ldd       [%fp + 0x77f], %d46
    0x10000814c:            ef 1f a6 6f  ldd       [%fp + 0x66f], %d54
    0x100008150:            07 00 04 00  sethi     %hi(0x100000), %g3
    0x100008154:            9b a0 88 4d  faddd     %d2, %d44, %d44
    0x100008158:            b3 a3 c9 4f  fmuld     %d46, %d46, %d56
    0x10000815c:            bf a5 c9 57  fmuld     %d54, %d54, %d62
    0x100008160:            9e 10 e1 2e  or        %g3, 0x12e, %o7
    0x100008164:            a3 a6 c8 4b  faddd     %d58, %d42, %d48
    0x100008168:            9b 2b f0 0c  sllx      %o7, 0xc, %o5
    0x10000816c:            d7 1b 66 b0  ldd       [%o5 + 0x6b0], %d42
    0x100008170:            fb 1f a6 77  ldd       [%fp + 0x677], %d60
    0x100008174:            9f a6 48 43  faddd     %d56, %d34, %d46
    0x100008178:            81 ab 4a cb  fcmped    %fcc0, %d44, %d42
    0x10000817c:            87 a7 88 5f  faddd     %d30, %d62, %d34
    0x100008180:            b3 a7 49 5d  fmuld     %d60, %d60, %d56
    0x100008184:            98 10 20 01  mov       0x1, %o4
    0x100008188:            9e 10 20 00  clr       %o7
    0x10000818c:            f7 1f a6 7f  ldd       [%fp + 0x67f], %d58
    0x100008190:            9f 61 80 0c  movg      %fcc0, %o4, %o7
    0x100008194:            85 a8 ca cb  fcmped    %fcc2, %d34, %d42
    0x100008198:            ab a5 48 59  faddd     %d52, %d56, %d52
    0x10000819c:            85 a6 c9 5b  fmuld     %d58, %d58, %d2
    0x1000081a0:            ef 1f a6 87  ldd       [%fp + 0x687], %d54
    0x1000081a4:            fb 1f a6 8f  ldd       [%fp + 0x68f], %d60
    0x1000081a8:            9a 03 e0 01  add       %o7, 0x1, %o5
    0x1000081ac:            9b 63 90 0f  movule    %fcc2, %o7, %o5
    0x1000081b0:            bf a5 c9 57  fmuld     %d54, %d54, %d62
    0x1000081b4:            87 ad 4a cb  fcmped    %fcc3, %d52, %d42
    0x1000081b8:            a7 a4 c8 42  faddd     %d50, %d2, %d50
    0x1000081bc:            f7 1f a7 87  ldd       [%fp + 0x787], %d58
    0x1000081c0:            85 a7 49 5d  fmuld     %d60, %d60, %d2
    0x1000081c4:            98 03 60 01  add       %o5, 0x1, %o4
    0x1000081c8:            a3 a4 48 5f  faddd     %d48, %d62, %d48
    0x1000081cc:            99 63 98 0d  movule    %fcc3, %o5, %o4
    0x1000081d0:            bf a6 c9 5b  fmuld     %d58, %d58, %d62
    0x1000081d4:            83 ac ca cb  fcmped    %fcc1, %d50, %d42
    0x1000081d8:            f7 1f a6 97  ldd       [%fp + 0x697], %d58
    0x1000081dc:            9f a3 c8 42  faddd     %d46, %d2, %d46
    0x1000081e0:            f3 1f a7 8f  ldd       [%fp + 0x78f], %d56
    0x1000081e4:            96 03 20 01  add       %o4, 0x1, %o3
    0x1000081e8:            85 a6 c9 5b  fmuld     %d58, %d58, %d2
    0x1000081ec:            bb a7 c8 5c  faddd     %d62, %d28, %d60
    0x1000081f0:            97 63 88 0c  movule    %fcc1, %o4, %o3
    0x1000081f4:            81 ac 4a cb  fcmped    %fcc0, %d48, %d42
    0x1000081f8:            bf a6 49 59  fmuld     %d56, %d56, %d62
    0x1000081fc:            ef 1f a7 97  ldd       [%fp + 0x797], %d54
    0x100008200:            85 ab ca cb  fcmped    %fcc2, %d46, %d42
    0x100008204:            bb a7 48 42  faddd     %d60, %d2, %d60
    0x100008208:            94 02 e0 01  add       %o3, 0x1, %o2
    0x10000820c:            b3 a5 c9 57  fmuld     %d54, %d54, %d56
    0x100008210:            95 63 80 0b  movule    %fcc0, %o3, %o2
    0x100008214:            c5 1f a6 9f  ldd       [%fp + 0x69f], %d2
    0x100008218:            b7 a7 c8 5a  faddd     %d62, %d26, %d58
    0x10000821c:            fb 3f a6 1f  std       %d60, [%fp + 0x61f]
    0x100008220:            bf a0 89 42  fmuld     %d2, %d2, %d62
    0x100008224:            af a6 48 58  faddd     %d56, %d24, %d54
    0x100008228:            92 02 a0 01  add       %o2, 0x1, %o1
    0x10000822c:            93 63 90 0a  movule    %fcc2, %o2, %o1
    0x100008230:            f3 1f a6 a7  ldd       [%fp + 0x6a7], %d56
    0x100008234:            87 af 4a cb  fcmped    %fcc3, %d60, %d42
    0x100008238:            bb a6 c8 5f  faddd     %d58, %d62, %d60
    0x10000823c:            85 a6 49 59  fmuld     %d56, %d56, %d2
    0x100008240:            eb 3f a5 ff  std       %d52, [%fp + 0x5ff]
    0x100008244:            90 02 60 01  add       %o1, 0x1, %o0
    0x100008248:            db 3f a5 ef  std       %d44, [%fp + 0x5ef]
    0x10000824c:            91 63 98 09  movule    %fcc3, %o1, %o0
    0x100008250:            83 af 4a cb  fcmped    %fcc1, %d60, %d42
    0x100008254:            9b a5 c8 42  faddd     %d54, %d2, %d44
    0x100008258:            c7 3f a5 f7  std       %d34, [%fp + 0x5f7]
    0x10000825c:            e7 3f a6 07  std       %d50, [%fp + 0x607]
    0x100008260:            e3 3f a6 0f  std       %d48, [%fp + 0x60f]
    0x100008264:            8a 02 20 01  add       %o0, 0x1, %g5
    0x100008268:            8b 63 88 08  movule    %fcc1, %o0, %g5
    0x10000826c:            81 ab 4a cb  fcmped    %fcc0, %d44, %d42
    0x100008270:            df 3f a6 17  std       %d46, [%fp + 0x617]
    0x100008274:            fb 3f a6 27  std       %d60, [%fp + 0x627]
    0x100008278:            cb 1b a9 47  ldd       [%sp + 0x947], %d36
    0x10000827c:            cf 1b a9 3f  ldd       [%sp + 0x93f], %d38
    0x100008280:            84 01 60 01  add       %g5, 0x1, %g2
    0x100008284:            85 63 80 05  movule    %fcc0, %g5, %g2
    0x100008288:            d3 1b a9 4f  ldd       [%sp + 0x94f], %d40
    0x10000828c:            80 a0 a0 09  cmp       %g2, 0x9
    0x100008290:            02 60 01 2f  be,pn     %xcc, +0x4bc  <0x10000874c>
    0x100008294:            db 3f a6 2f  std       %d44, [%fp + 0x62f]
    0x100008298:            1f 00 04 00  sethi     %hi(0x100000), %o7
    0x10000829c:            09 00 04 00  sethi     %hi(0x100000), %g4
    0x1000082a0:            9a 13 e1 2e  or        %o7, 0x12e, %o5
    0x1000082a4:            94 11 21 2f  or        %g4, 0x12f, %o2
    0x1000082a8:            99 2b 70 0c  sllx      %o5, 0xc, %o4
    0x1000082ac:            ed 1b 22 80  ldd       [%o4 + 0x280], %d22
    0x1000082b0:            91 2a b0 0c  sllx      %o2, 0xc, %o0
    0x1000082b4:            ff 1a 22 80  ldd       [%o0 + 0x280], %d62
    0x1000082b8:            e9 1f 23 50  ldd       [%i4 + 0x350], %d20
    0x1000082bc:            8a 10 20 00  clr       %g5
    0x1000082c0:            92 07 a5 ef  add       %fp, 0x5ef, %o1
    0x1000082c4:            c7 1f a5 ef  ldd       [%fp + 0x5ef], %d34
    0x1000082c8:            96 07 a5 77  add       %fp, 0x577, %o3
    0x1000082cc:            83 a8 ca cb  fcmped    %fcc1, %d34, %d42
    0x1000082d0:            2b 50 00 06  fbug,a,pn %fcc1, +0x18   <0x1000082e8>
    0x1000082d4:            ff 3a e0 00  std       %d62, [%o3]
    0x1000082d8:            a3 a0 05 43  fsqrtd    %d34, %d48
    0x1000082dc:            e3 3a e0 00  std       %d48, [%o3]
    0x1000082e0:            10 80 00 04  ba        +0x10         <0x1000082f0>
    0x1000082e4:            8a 01 60 01  add       %g5, 0x1, %g5
    0x1000082e8:            d7 3a 60 00  std       %d42, [%o1]
    0x1000082ec:            8a 01 60 01  add       %g5, 0x1, %g5
    0x1000082f0:            80 a1 60 08  cmp       %g5, 0x8
    0x1000082f4:            92 02 60 08  add       %o1, 0x8, %o1
    0x1000082f8:            96 02 e0 08  add       %o3, 0x8, %o3
    0x1000082fc:            24 6f ff f4  ble,a,pt  %xcc, -0x30   <0x1000082cc>
    0x100008300:            c7 1a 60 00  ldd       [%o1], %d34
    0x100008304:            fb 1f a5 7f  ldd       [%fp + 0x57f], %d60
    0x100008308:            f7 1f a5 87  ldd       [%fp + 0x587], %d58
    0x10000830c:            ef 1f a5 8f  ldd       [%fp + 0x58f], %d54
    0x100008310:            db 1f a5 97  ldd       [%fp + 0x597], %d44
    0x100008314:            eb 1f a5 ff  ldd       [%fp + 0x5ff], %d52
    0x100008318:            e7 1f a5 f7  ldd       [%fp + 0x5f7], %d50
    0x10000831c:            e3 1f a6 27  ldd       [%fp + 0x627], %d48
    0x100008320:            df 1f a6 2f  ldd       [%fp + 0x62f], %d46
    0x100008324:            fd 1f a5 9f  ldd       [%fp + 0x59f], %d30
    0x100008328:            bf a2 49 5d  fmuld     %d40, %d60, %d62
    0x10000832c:            d3 1f a6 17  ldd       [%fp + 0x617], %d40
    0x100008330:            d7 1f a6 1f  ldd       [%fp + 0x61f], %d42
    0x100008334:            d9 1f a5 ef  ldd       [%fp + 0x5ef], %d12
    0x100008338:            c7 1f a6 07  ldd       [%fp + 0x607], %d34
    0x10000833c:            f9 1f a5 a7  ldd       [%fp + 0x5a7], %d28
    0x100008340:            bf a7 c8 d4  fsubd     %d62, %d20, %d62
    0x100008344:            f5 1f a5 af  ldd       [%fp + 0x5af], %d26
    0x100008348:            dd 1f 60 10  ldd       [%i5 + 0x10], %d14
    0x10000834c:            c5 1f a6 0f  ldd       [%fp + 0x60f], %d2
    0x100008350:            f1 1f a5 b7  ldd       [%fp + 0x5b7], %d24
    0x100008354:            e5 1f a5 77  ldd       [%fp + 0x577], %d18
    0x100008358:            bf a7 c9 5b  fmuld     %d62, %d58, %d62
    0x10000835c:            b3 a5 09 5d  fmuld     %d20, %d60, %d56
    0x100008360:            e1 1f 60 08  ldd       [%i5 + 0x8], %d16
    0x100008364:            15 00 04 00  sethi     %hi(0x100000), %o2
    0x100008368:            90 12 a1 2e  or        %o2, 0x12e, %o0
    0x10000836c:            97 2a 30 0c  sllx      %o0, 0xc, %o3
    0x100008370:            bb a6 c9 5d  fmuld     %d58, %d60, %d60
    0x100008374:            b3 a7 c8 d9  fsubd     %d62, %d56, %d56
    0x100008378:            13 00 04 00  sethi     %hi(0x100000), %o1
    0x10000837c:            8a 12 61 2e  or        %o1, 0x12e, %g5
    0x100008380:            87 29 70 0c  sllx      %g5, 0xc, %g3
    0x100008384:            d1 18 e7 28  ldd       [%g3 + 0x728], %d8
    0x100008388:            b7 a5 09 5d  fmuld     %d20, %d60, %d58
    0x10000838c:            bf a6 49 57  fmuld     %d56, %d54, %d62
    0x100008390:            f3 1a e7 30  ldd       [%o3 + 0x730], %d56
    0x100008394:            bb a5 c9 5d  fmuld     %d54, %d60, %d60
    0x100008398:            1b 00 04 00  sethi     %hi(0x100000), %o5
    0x10000839c:            98 13 61 2e  or        %o5, 0x12e, %o4
    0x1000083a0:            89 2b 30 0c  sllx      %o4, 0xc, %g4
    0x1000083a4:            bf a7 c8 db  fsubd     %d62, %d58, %d62
    0x1000083a8:            d5 19 23 58  ldd       [%g4 + 0x358], %d10
    0x1000083ac:            af a3 49 5d  fmuld     %d44, %d60, %d54
    0x1000083b0:            b7 a4 c8 55  faddd     %d50, %d52, %d58
    0x1000083b4:            ab a3 c8 51  faddd     %d46, %d48, %d52
    0x1000083b8:            bb a5 09 5d  fmuld     %d20, %d60, %d60
    0x1000083bc:            9f a7 c9 4d  fmuld     %d62, %d44, %d46
    0x1000083c0:            a7 a2 48 4b  faddd     %d40, %d42, %d50
    0x1000083c4:            a3 a7 89 57  fmuld     %d30, %d54, %d48
    0x1000083c8:            97 a6 49 4c  fmuld     %d56, %d12, %d42
    0x1000083cc:            9b a6 c8 43  faddd     %d58, %d34, %d44
    0x1000083d0:            b7 a5 89 57  fmuld     %d22, %d54, %d58
    0x1000083d4:            bf a3 c8 dd  fsubd     %d46, %d60, %d62
    0x1000083d8:            93 a4 c8 55  faddd     %d50, %d52, %d40
    0x1000083dc:            87 a7 09 51  fmuld     %d28, %d48, %d34
    0x1000083e0:            a7 a5 89 51  fmuld     %d22, %d48, %d50
    0x1000083e4:            a3 a1 48 cb  fsubd     %d36, %d42, %d48
    0x1000083e8:            85 a3 48 42  faddd     %d44, %d2, %d2
    0x1000083ec:            8b a7 c9 5e  fmuld     %d62, %d30, %d36
    0x1000083f0:            af a2 49 4e  fmuld     %d40, %d14, %d54
    0x1000083f4:            b3 a6 89 43  fmuld     %d26, %d34, %d56
    0x1000083f8:            9f a5 89 43  fmuld     %d22, %d34, %d46
    0x1000083fc:            ab a1 48 5b  faddd     %d36, %d58, %d52
    0x100008400:            bb a5 c8 c2  fsubd     %d54, %d2, %d60
    0x100008404:            9b a6 09 59  fmuld     %d24, %d56, %d44
    0x100008408:            af a5 89 59  fmuld     %d22, %d56, %d54
    0x10000840c:            97 a5 49 5c  fmuld     %d52, %d28, %d42
    0x100008410:            93 a2 09 5d  fmuld     %d8, %d60, %d40
    0x100008414:            87 a4 89 4d  fmuld     %d18, %d44, %d34
    0x100008418:            b3 a2 89 4d  fmuld     %d10, %d44, %d56
    0x10000841c:            bf a2 c8 53  faddd     %d42, %d50, %d62
    0x100008420:            8b a4 48 c9  fsubd     %d48, %d40, %d36
    0x100008424:            bb a4 09 c3  fdivd     %d16, %d34, %d60
    0x100008428:            b7 a7 c9 5a  fmuld     %d62, %d26, %d58
    0x10000842c:            85 a6 c8 4f  faddd     %d58, %d46, %d2
    0x100008430:            ab a0 89 58  fmuld     %d2, %d24, %d52
    0x100008434:            9b a5 48 57  faddd     %d52, %d54, %d44
    0x100008438:            a7 a3 49 52  fmuld     %d44, %d18, %d50
    0x10000843c:            97 a4 c8 59  faddd     %d50, %d56, %d42
    0x100008440:            0c c0 80 c3  brgz,pn   %g2, +0x30c   <0x10000874c>
    0x100008444:            93 a7 49 4b  fmuld     %d60, %d42, %d40
    0x100008448:            ff 1f a7 47  ldd       [%fp + 0x747], %d62
    0x10000844c:            fb 1f a7 bf  ldd       [%fp + 0x7bf], %d60
    0x100008450:            f7 1f a7 3f  ldd       [%fp + 0x73f], %d58
    0x100008454:            f3 1f a7 b7  ldd       [%fp + 0x7b7], %d56
    0x100008458:            ef 1f a7 37  ldd       [%fp + 0x737], %d54
    0x10000845c:            eb 1f a7 af  ldd       [%fp + 0x7af], %d52
    0x100008460:            e3 1f a7 a7  ldd       [%fp + 0x7a7], %d48
    0x100008464:            d7 1f a6 cf  ldd       [%fp + 0x6cf], %d42
    0x100008468:            d3 3b a9 4f  std       %d40, [%sp + 0x94f]
    0x10000846c:            df 1f a7 27  ldd       [%fp + 0x727], %d46
    0x100008470:            db 1f a7 9f  ldd       [%fp + 0x79f], %d44
    0x100008474:            d3 1f a6 c7  ldd       [%fp + 0x6c7], %d40
    0x100008478:            e7 1f a7 2f  ldd       [%fp + 0x72f], %d50
    0x10000847c:            cf 1f a6 bf  ldd       [%fp + 0x6bf], %d38
    0x100008480:            c7 1f a6 af  ldd       [%fp + 0x6af], %d34
    0x100008484:            cb 3b a9 47  std       %d36, [%sp + 0x947]
    0x100008488:            cb 1f a6 b7  ldd       [%fp + 0x6b7], %d36
    0x10000848c:            1b 00 04 00  sethi     %hi(0x100000), %o5
    0x100008490:            98 13 61 2d  or        %o5, 0x12d, %o4
    0x100008494:            89 2b 30 0c  sllx      %o4, 0xc, %g4
    0x100008498:            c5 19 2d 70  ldd       [%g4 + 0xd70], %d2
    0x10000849c:            c5 3b a9 bf  std       %d2, [%sp + 0x9bf]
    0x1000084a0:            15 00 04 00  sethi     %hi(0x100000), %o2
    0x1000084a4:            90 12 a1 2d  or        %o2, 0x12d, %o0
    0x1000084a8:            97 2a 30 0c  sllx      %o0, 0xc, %o3
    0x1000084ac:            c5 1a ed 60  ldd       [%o3 + 0xd60], %d2
    0x1000084b0:            c5 3b a9 cf  std       %d2, [%sp + 0x9cf]
    0x1000084b4:            05 00 04 00  sethi     %hi(0x100000), %g2
    0x1000084b8:            86 10 a1 2d  or        %g2, 0x12d, %g3
    0x1000084bc:            9f 28 f0 0c  sllx      %g3, 0xc, %o7
    0x1000084c0:            fd 1b ed 68  ldd       [%o7 + 0xd68], %d30
    0x1000084c4:            fd 3b a9 c7  std       %d30, [%sp + 0x9c7]
    0x1000084c8:            85 a7 c9 5f  fmuld     %d62, %d62, %d2
    0x1000084cc:            bf a7 49 5d  fmuld     %d60, %d60, %d62
    0x1000084d0:            bb a6 c9 5b  fmuld     %d58, %d58, %d60
    0x1000084d4:            b7 a6 49 59  fmuld     %d56, %d56, %d58
    0x1000084d8:            b3 a5 c9 57  fmuld     %d54, %d54, %d56
    0x1000084dc:            af a5 49 55  fmuld     %d52, %d52, %d54
    0x1000084e0:            a7 a4 c9 53  fmuld     %d50, %d50, %d50
    0x1000084e4:            85 a7 c8 42  faddd     %d62, %d2, %d2
    0x1000084e8:            bf a4 49 51  fmuld     %d48, %d48, %d62
    0x1000084ec:            a3 a6 c8 5d  faddd     %d58, %d60, %d48
    0x1000084f0:            bb a3 c9 4f  fmuld     %d46, %d46, %d60
    0x1000084f4:            ab a5 c8 59  faddd     %d54, %d56, %d52
    0x1000084f8:            b3 a2 c9 4b  fmuld     %d42, %d42, %d56
    0x1000084fc:            b7 a3 49 4d  fmuld     %d44, %d44, %d58
    0x100008500:            97 a2 49 49  fmuld     %d40, %d40, %d42
    0x100008504:            af a1 c9 47  fmuld     %d38, %d38, %d54
    0x100008508:            9f a7 c8 53  faddd     %d62, %d50, %d46
    0x10000850c:            9b a0 c9 43  fmuld     %d34, %d34, %d44
    0x100008510:            a7 a1 49 45  fmuld     %d36, %d36, %d50
    0x100008514:            93 a6 c8 5d  faddd     %d58, %d60, %d40
    0x100008518:            8f a0 88 59  faddd     %d2, %d56, %d38
    0x10000851c:            8b a5 48 57  faddd     %d52, %d54, %d36
    0x100008520:            bf a4 48 4b  faddd     %d48, %d42, %d62
    0x100008524:            87 a3 c8 53  faddd     %d46, %d50, %d34
    0x100008528:            bb a2 48 4d  faddd     %d40, %d44, %d60
    0x10000852c:            b7 a0 05 47  fsqrtd    %d38, %d58
    0x100008530:            85 a0 05 5d  fsqrtd    %d60, %d2
    0x100008534:            b3 a0 05 43  fsqrtd    %d34, %d56
    0x100008538:            97 a0 05 45  fsqrtd    %d36, %d42
    0x10000853c:            a3 a0 05 5f  fsqrtd    %d62, %d48
    0x100008540:            f7 3f a5 df  std       %d58, [%fp + 0x5df]
    0x100008544:            c5 3f a5 bf  std       %d2, [%fp + 0x5bf]
    0x100008548:            f3 3f a5 c7  std       %d56, [%fp + 0x5c7]
    0x10000854c:            d7 3f a5 cf  std       %d42, [%fp + 0x5cf]
    0x100008550:            ab a6 49 5e  fmuld     %d56, %d30, %d52
    0x100008554:            e3 3f a5 d7  std       %d48, [%fp + 0x5d7]
    0x100008558:            40 00 06 f2  call      +0x1bc8       <0x10000a120>
    0x10000855c:            81 a0 00 d5  fnegd     %d52, %d0
    0x100008560:            fd 1b a9 c7  ldd       [%sp + 0x9c7], %d30
    0x100008564:            e7 1f a5 cf  ldd       [%fp + 0x5cf], %d50
    0x100008568:            c1 3b a9 b7  std       %d0, [%sp + 0x9b7]
    0x10000856c:            9f a4 c9 5e  fmuld     %d50, %d30, %d46
    0x100008570:            40 00 06 ec  call      +0x1bb0       <0x10000a120>
    0x100008574:            81 a0 00 cf  fnegd     %d46, %d0
    0x100008578:            d3 1b a9 b7  ldd       [%sp + 0x9b7], %d40
    0x10000857c:            fd 1b a9 c7  ldd       [%sp + 0x9c7], %d30
    0x100008580:            db 1f a5 df  ldd       [%fp + 0x5df], %d44
    0x100008584:            b7 a2 48 40  faddd     %d40, %d0, %d58
    0x100008588:            8f a3 49 5e  fmuld     %d44, %d30, %d38
    0x10000858c:            f7 3b a9 af  std       %d58, [%sp + 0x9af]
    0x100008590:            40 00 06 e4  call      +0x1b90       <0x10000a120>
    0x100008594:            81 a0 00 c7  fnegd     %d38, %d0
    0x100008598:            fd 1b a9 c7  ldd       [%sp + 0x9c7], %d30
    0x10000859c:            ff 1f a5 d7  ldd       [%fp + 0x5d7], %d62
    0x1000085a0:            c1 3b a9 a7  std       %d0, [%sp + 0x9a7]
    0x1000085a4:            8b a7 c9 5e  fmuld     %d62, %d30, %d36
    0x1000085a8:            40 00 06 de  call      +0x1b78       <0x10000a120>
    0x1000085ac:            81 a0 00 c5  fnegd     %d36, %d0
    0x1000085b0:            c7 1b a9 a7  ldd       [%sp + 0x9a7], %d34
    0x1000085b4:            f3 1f a5 9f  ldd       [%fp + 0x59f], %d56
    0x1000085b8:            f7 1b a9 af  ldd       [%sp + 0x9af], %d58
    0x1000085bc:            c5 1b a9 cf  ldd       [%sp + 0x9cf], %d2
    0x1000085c0:            0b 00 04 00  sethi     %hi(0x100000), %g5
    0x1000085c4:            bb a0 c8 40  faddd     %d34, %d0, %d60
    0x1000085c8:            85 a6 49 42  fmuld     %d56, %d2, %d2
    0x1000085cc:            84 11 61 2d  or        %g5, 0x12d, %g2
    0x1000085d0:            87 28 b0 0c  sllx      %g2, 0xc, %g3
    0x1000085d4:            d7 18 ed 48  ldd       [%g3 + 0xd48], %d42
    0x1000085d8:            a3 a6 c8 5d  faddd     %d58, %d60, %d48
    0x1000085dc:            81 a0 00 c2  fnegd     %d2, %d0
    0x1000085e0:            af a4 49 4b  fmuld     %d48, %d42, %d54
    0x1000085e4:            40 00 06 cf  call      +0x1b3c       <0x10000a120>
    0x1000085e8:            ef 3b a9 9f  std       %d54, [%sp + 0x99f]
    0x1000085ec:            c5 1b a9 cf  ldd       [%sp + 0x9cf], %d2
    0x1000085f0:            ef 1f a5 a7  ldd       [%fp + 0x5a7], %d54
    0x1000085f4:            c1 3b a9 97  std       %d0, [%sp + 0x997]
    0x1000085f8:            ab a5 c9 42  fmuld     %d54, %d2, %d52
    0x1000085fc:            40 00 06 c9  call      +0x1b24       <0x10000a120>
    0x100008600:            81 a0 00 d5  fnegd     %d52, %d0
    0x100008604:            df 1b a9 97  ldd       [%sp + 0x997], %d46
    0x100008608:            c5 1b a9 cf  ldd       [%sp + 0x9cf], %d2
    0x10000860c:            e7 1f a5 b7  ldd       [%fp + 0x5b7], %d50
    0x100008610:            87 a3 c8 40  faddd     %d46, %d0, %d34
    0x100008614:            9b a4 c9 42  fmuld     %d50, %d2, %d44
    0x100008618:            c7 3b a9 8f  std       %d34, [%sp + 0x98f]
    0x10000861c:            40 00 06 c1  call      +0x1b04       <0x10000a120>
    0x100008620:            81 a0 00 cd  fnegd     %d44, %d0
    0x100008624:            c5 1b a9 cf  ldd       [%sp + 0x9cf], %d2
    0x100008628:            d3 1f a5 af  ldd       [%fp + 0x5af], %d40
    0x10000862c:            c1 3b a9 87  std       %d0, [%sp + 0x987]
    0x100008630:            8f a2 49 42  fmuld     %d40, %d2, %d38
    0x100008634:            40 00 06 bb  call      +0x1aec       <0x10000a120>
    0x100008638:            81 a0 00 c7  fnegd     %d38, %d0
    0x10000863c:            ff 1b a9 87  ldd       [%sp + 0x987], %d62
    0x100008640:            c7 1b a9 8f  ldd       [%sp + 0x98f], %d34
    0x100008644:            1f 00 04 00  sethi     %hi(0x100000), %o7
    0x100008648:            1b 00 04 00  sethi     %hi(0x100000), %o5
    0x10000864c:            98 13 e1 2d  or        %o7, 0x12d, %o4
    0x100008650:            8b a7 c8 40  faddd     %d62, %d0, %d36
    0x100008654:            88 13 61 2d  or        %o5, 0x12d, %g4
    0x100008658:            95 2b 30 0c  sllx      %o4, 0xc, %o2
    0x10000865c:            91 29 30 0c  sllx      %g4, 0xc, %o0
    0x100008660:            d7 1a ad 40  ldd       [%o2 + 0xd40], %d42
    0x100008664:            f7 1a 2d 58  ldd       [%o0 + 0xd58], %d58
    0x100008668:            bb a0 c8 45  faddd     %d34, %d36, %d60
    0x10000866c:            f3 1f a5 bf  ldd       [%fp + 0x5bf], %d56
    0x100008670:            ef 1b a9 9f  ldd       [%sp + 0x99f], %d54
    0x100008674:            ab a6 49 5b  fmuld     %d56, %d58, %d52
    0x100008678:            a3 a7 49 4b  fmuld     %d60, %d42, %d48
    0x10000867c:            81 a0 00 d5  fnegd     %d52, %d0
    0x100008680:            8f a5 c8 51  faddd     %d54, %d48, %d38
    0x100008684:            40 00 06 a7  call      +0x1a9c       <0x10000a120>
    0x100008688:            cf 3b a9 7f  std       %d38, [%sp + 0x97f]
    0x10000868c:            17 00 04 00  sethi     %hi(0x100000), %o3
    0x100008690:            92 12 e1 2d  or        %o3, 0x12d, %o1
    0x100008694:            8b 2a 70 0c  sllx      %o1, 0xc, %g5
    0x100008698:            e7 19 6d 38  ldd       [%g5 + 0xd38], %d50
    0x10000869c:            df 1f a5 c7  ldd       [%fp + 0x5c7], %d46
    0x1000086a0:            c5 1b a9 bf  ldd       [%sp + 0x9bf], %d2
    0x1000086a4:            9b a0 09 53  fmuld     %d0, %d50, %d44
    0x1000086a8:            d3 1b a9 4f  ldd       [%sp + 0x94f], %d40
    0x1000086ac:            85 a3 c9 42  fmuld     %d46, %d2, %d2
    0x1000086b0:            cf 1b a9 7f  ldd       [%sp + 0x97f], %d38
    0x1000086b4:            93 a2 48 4d  faddd     %d40, %d44, %d40
    0x1000086b8:            81 a0 00 c2  fnegd     %d2, %d0
    0x1000086bc:            93 a2 48 47  faddd     %d40, %d38, %d40
    0x1000086c0:            40 00 06 98  call      +0x1a60       <0x10000a120>
    0x1000086c4:            d3 3b a9 77  std       %d40, [%sp + 0x977]
    0x1000086c8:            c5 1b a9 bf  ldd       [%sp + 0x9bf], %d2
    0x1000086cc:            ff 1f a5 cf  ldd       [%fp + 0x5cf], %d62
    0x1000086d0:            c1 3b a9 6f  std       %d0, [%sp + 0x96f]
    0x1000086d4:            8b a7 c9 42  fmuld     %d62, %d2, %d36
    0x1000086d8:            40 00 06 92  call      +0x1a48       <0x10000a120>
    0x1000086dc:            81 a0 00 c5  fnegd     %d36, %d0
    0x1000086e0:            d7 1b a9 6f  ldd       [%sp + 0x96f], %d42
    0x1000086e4:            c5 1b a9 bf  ldd       [%sp + 0x9bf], %d2
    0x1000086e8:            c7 1f a5 df  ldd       [%fp + 0x5df], %d34
    0x1000086ec:            ab a2 c8 40  faddd     %d42, %d0, %d52
    0x1000086f0:            bb a0 c9 42  fmuld     %d34, %d2, %d60
    0x1000086f4:            eb 3b a9 67  std       %d52, [%sp + 0x967]
    0x1000086f8:            40 00 06 8a  call      +0x1a28       <0x10000a120>
    0x1000086fc:            81 a0 00 dd  fnegd     %d60, %d0
    0x100008700:            c5 1b a9 bf  ldd       [%sp + 0x9bf], %d2
    0x100008704:            f7 1f a5 d7  ldd       [%fp + 0x5d7], %d58
    0x100008708:            c1 3b a9 5f  std       %d0, [%sp + 0x95f]
    0x10000870c:            b3 a6 c9 42  fmuld     %d58, %d2, %d56
    0x100008710:            40 00 06 84  call      +0x1a10       <0x10000a120>
    0x100008714:            81 a0 00 d9  fnegd     %d56, %d0
    0x100008718:            e3 1b a9 5f  ldd       [%sp + 0x95f], %d48
    0x10000871c:            eb 1b a9 67  ldd       [%sp + 0x967], %d52
    0x100008720:            05 00 04 00  sethi     %hi(0x100000), %g2
    0x100008724:            86 10 a1 2d  or        %g2, 0x12d, %g3
    0x100008728:            9f 28 f0 0c  sllx      %g3, 0xc, %o7
    0x10000872c:            af a4 48 40  faddd     %d48, %d0, %d54
    0x100008730:            e7 1b ed 50  ldd       [%o7 + 0xd50], %d50
    0x100008734:            d3 1b a9 77  ldd       [%sp + 0x977], %d40
    0x100008738:            cb 1b a9 47  ldd       [%sp + 0x947], %d36
    0x10000873c:            cf 1b a9 3f  ldd       [%sp + 0x93f], %d38
    0x100008740:            9f a5 48 57  faddd     %d52, %d54, %d46
    0x100008744:            9b a3 c9 53  fmuld     %d46, %d50, %d44
    0x100008748:            93 a2 48 cd  fsubd     %d40, %d44, %d40
    0x10000874c:            ec 5d a2 a0  ldx       [%l6 + 0x2a0], %l6
    0x100008750:            0a fd be 3d  brnz,pt   %l6, -0x70c   <0x100008044>
    0x100008754:            80 a5 80 17  cmp       %l6, %l7
    0x100008758:            c6 5e e2 b0  ldx       [%i3 + 0x2b0], %g3
    0x10000875c:            aa 00 c0 12  add       %g3, %l2, %l5
    0x100008760:            ee 5d e2 a0  ldx       [%l7 + 0x2a0], %l7
    0x100008764:            2a fd fe 31  brnz,a,pt %l7, -0x73c   <0x100008028>
    0x100008768:            f0 5d 60 00  ldx       [%l5], %i0
    0x10000876c:            b2 06 60 01  add       %i1, 0x1, %i1
    0x100008770:            c4 5b a9 0f  ldx       [%sp + 0x90f], %g2
    0x100008774:            80 a6 40 02  cmp       %i1, %g2
    0x100008778:            24 6f fd e0  ble,a,pt  %xcc, -0x880  <0x100007ef8>
    0x10000877c:            ca 5b a8 d7  ldx       [%sp + 0x8d7], %g5
    0x100008780:            ca 5b a9 27  ldx       [%sp + 0x927], %g5
    0x100008784:            c8 5b a8 f7  ldx       [%sp + 0x8f7], %g4
    0x100008788:            86 01 60 01  add       %g5, 0x1, %g3
    0x10000878c:            c6 73 a9 27  stx       %g3, [%sp + 0x927]
    0x100008790:            80 a0 c0 04  cmp       %g3, %g4
    0x100008794:            24 6f fd c6  ble,a,pt  %xcc, -0x8e8  <0x100007eac>
    0x100008798:            c6 5b a9 0f  ldx       [%sp + 0x90f], %g3
    0x10000879c:            d4 5b a8 df  ldx       [%sp + 0x8df], %o2
    0x1000087a0:            d2 5b a8 e7  ldx       [%sp + 0x8e7], %o1
    0x1000087a4:            90 02 a0 01  add       %o2, 0x1, %o0
    0x1000087a8:            d0 73 a8 df  stx       %o0, [%sp + 0x8df]
    0x1000087ac:            80 a2 00 09  cmp       %o0, %o1
    0x1000087b0:            24 6f fd ae  ble,a,pt  %xcc, -0x948  <0x100007e68>
    0x1000087b4:            f0 5b a8 f7  ldx       [%sp + 0x8f7], %i0
    0x1000087b8:            e4 5f a7 df  ldx       [%fp + 0x7df], %l2
    0x1000087bc:            e6 5c a0 18  ldx       [%l2 + 0x18], %l3
    0x1000087c0:            e6 77 a7 df  stx       %l3, [%fp + 0x7df]
    0x1000087c4:            2a fc fd 90  brnz,a,pt %l3, -0x9c0   <0x100007e04>
    0x1000087c8:            ec 5f a7 df  ldx       [%fp + 0x7df], %l6
    0x1000087cc:            f8 5b a8 cf  ldx       [%sp + 0x8cf], %i4
    0x1000087d0:            cb 3b a9 47  std       %d36, [%sp + 0x947]
    0x1000087d4:            cf 3b a9 3f  std       %d38, [%sp + 0x93f]
    0x1000087d8:            f6 5f 22 88  ldx       [%i4 + 0x288], %i3
    0x1000087dc:            d3 3b a9 4f  std       %d40, [%sp + 0x94f]
    0x1000087e0:            40 04 93 c0  call      +0x124f00     <0x10012d6e0>
    0x1000087e4:            90 06 e0 78  add       %i3, 0x78, %o0
    0x1000087e8:            c7 1f 60 10  ldd       [%i5 + 0x10], %d34
    0x1000087ec:            d3 1b a9 4f  ldd       [%sp + 0x94f], %d40
    0x1000087f0:            f6 5b a8 b7  ldx       [%sp + 0x8b7], %i3
    0x1000087f4:            cb 1b a9 47  ldd       [%sp + 0x947], %d36
    0x1000087f8:            cf 1b a9 3f  ldd       [%sp + 0x93f], %d38
    0x1000087fc:            d7 1e e0 00  ldd       [%i3], %d42
    0x100008800:            fa 5b a8 c7  ldx       [%sp + 0x8c7], %i5
    0x100008804:            e0 5b a8 bf  ldx       [%sp + 0x8bf], %l0
    0x100008808:            b7 a2 49 43  fmuld     %d40, %d34, %d58
    0x10000880c:            f8 5f 22 88  ldx       [%i4 + 0x288], %i4
    0x100008810:            b3 a1 49 43  fmuld     %d36, %d34, %d56
    0x100008814:            93 a2 c8 47  faddd     %d42, %d38, %d40
    0x100008818:            d3 3e e0 00  std       %d40, [%i3]
    0x10000881c:            cf 1f 60 00  ldd       [%i5], %d38
    0x100008820:            90 07 20 78  add       %i4, 0x78, %o0
    0x100008824:            8b a1 c8 5b  faddd     %d38, %d58, %d36
    0x100008828:            cb 3f 60 00  std       %d36, [%i5]
    0x10000882c:            ff 1c 20 00  ldd       [%l0], %d62
    0x100008830:            ab a7 c8 59  faddd     %d62, %d56, %d52
    0x100008834:            40 04 93 b3  call      +0x124ecc     <0x10012d700>
    0x100008838:            eb 3c 20 00  std       %d52, [%l0]
    0x10000883c:            81 c7 e0 08  ret
    0x100008840:            81 e8 20 00  restore   %g0, 0x0, %g0
    0x100008844:            05 00 04 00  sethi     %hi(0x100000), %g2
    0x100008848:            9e 10 a1 2d  or        %g2, 0x12d, %o7
    0x10000884c:            af 2b f0 0c  sllx      %o7, 0xc, %l7
    0x100008850:            40 04 93 c4  call      +0x124f10     <0x10012d760>
    0x100008854:            90 05 ec f8  add       %l7, 0xcf8, %o0
    0x100008858:            40 04 93 92  call      +0x124e48     <0x10012d6a0>
    0x10000885c:            90 10 3f ff  mov       -0x1, %o0
    0x100008860:            da 5c 22 88  ldx       [%l0 + 0x288], %o5
    0x100008864:            10 bf fd 20  ba        -0xb80        <0x100007ce4>
    0x100008868:            d2 5b 61 28  ldx       [%o5 + 0x128], %o1
    0x10000886c:            00 00 00 00  illtrap   0x0
    0x100008870:            00 00 00 00  illtrap   0x0
    0x100008874:            00 00 00 00  illtrap   0x0
PREDIC()
    0x100008878:            9d e3 bf 50  save      %sp, -0xb0, %sp
    0x10000887c:            3b 00 04 00  sethi     %hi(0x100000), %i5
    0x100008880:            ae 17 61 2f  or        %i5, 0x12f, %l7
    0x100008884:            ad 2d f0 0c  sllx      %l7, 0xc, %l6
    0x100008888:            e8 5d a3 28  ldx       [%l6 + 0x328], %l4
    0x10000888c:            ab 2e b0 03  sllx      %i2, 0x3, %l5
    0x100008890:            e2 5d 00 15  ldx       [%l4 + %l5], %l1
    0x100008894:            02 c4 40 a3  brz,pn    %l1, +0x28c   <0x100008b20>
    0x100008898:            27 00 04 00  sethi     %hi(0x100000), %l3
    0x10000889c:            a4 14 e1 2f  or        %l3, 0x12f, %l2
    0x1000088a0:            91 2c b0 0c  sllx      %l2, 0xc, %o0
    0x1000088a4:            21 00 04 00  sethi     %hi(0x100000), %l0
    0x1000088a8:            c2 5a 22 e0  ldx       [%o0 + 0x2e0], %g1
    0x1000088ac:            92 14 21 2e  or        %l0, 0x12e, %o1
    0x1000088b0:            8b 2a 70 0c  sllx      %o1, 0xc, %g5
    0x1000088b4:            85 2e 70 03  sllx      %i1, 0x3, %g2
    0x1000088b8:            ee 59 62 b0  ldx       [%g5 + 0x2b0], %l7
    0x1000088bc:            86 06 20 10  add       %i0, 0x10, %g3
    0x1000088c0:            da 5c 60 00  ldx       [%l1], %o5
    0x1000088c4:            b2 00 7f ff  add       %g1, -0x1, %i1
    0x1000088c8:            d6 5c 60 08  ldx       [%l1 + 0x8], %o3
    0x1000088cc:            99 2b 70 03  sllx      %o5, 0x3, %o4
    0x1000088d0:            d0 5b 00 17  ldx       [%o4 + %l7], %o0
    0x1000088d4:            d4 5c 60 10  ldx       [%l1 + 0x10], %o2
    0x1000088d8:            93 2a f0 03  sllx      %o3, 0x3, %o1
    0x1000088dc:            f0 5a 00 09  ldx       [%o0 + %o1], %i0
    0x1000088e0:            b5 2a b0 05  sllx      %o2, 0x5, %i2
    0x1000088e4:            c8 5e 00 1a  ldx       [%i0 + %i2], %g4
    0x1000088e8:            22 c1 00 8c  brz,a,pn  %g4, +0x230   <0x100008b18>
    0x1000088ec:            e2 5c 60 18  ldx       [%l1 + 0x18], %l1
    0x1000088f0:            04 c0 40 86  brlez,pn  %g1, +0x218   <0x100008b08>
    0x1000088f4:            ac 10 20 00  clr       %l6
    0x1000088f8:            a4 01 20 18  add       %g4, 0x18, %l2
    0x1000088fc:            aa 10 00 03  mov       %g3, %l5
    0x100008900:            a8 10 20 00  clr       %l4
    0x100008904:            a6 10 00 12  mov       %l2, %l3
    0x100008908:            ba 10 20 00  clr       %i5
    0x10000890c:            a0 10 00 13  mov       %l3, %l0
    0x100008910:            80 a5 80 01  cmp       %l6, %g1
    0x100008914:            37 00 04 00  sethi     %hi(0x100000), %i3
    0x100008918:            b8 16 e0 08  or        %i3, 0x8, %i4
    0x10000891c:            9f 2f 30 0c  sllx      %i4, 0xc, %o7
    0x100008920:            c9 1b e8 70  ldd       [%o7 + 0x870], %d4
    0x100008924:            16 60 00 66  bge,pn    %xcc, +0x198  <0x100008abc>
    0x100008928:            b4 10 00 16  mov       %l6, %i2
    0x10000892c:            96 26 40 16  sub       %i1, %l6, %o3
    0x100008930:            94 02 e0 01  add       %o3, 0x1, %o2
    0x100008934:            80 a2 a0 10  cmp       %o2, 0x10
    0x100008938:            b8 10 00 15  mov       %l5, %i4
    0x10000893c:            b6 04 20 48  add       %l0, 0x48, %i3
    0x100008940:            06 60 00 55  bl,pn     %xcc, +0x154  <0x100008a94>
    0x100008944:            01 00 00 00  nop
    0x100008948:            c1 1d 60 08  ldd       [%l5 + 0x8], %d0
    0x10000894c:            e5 1c 20 90  ldd       [%l0 + 0x90], %d18
    0x100008950:            f5 1d 60 00  ldd       [%l5], %d26
    0x100008954:            f9 1c 20 48  ldd       [%l0 + 0x48], %d28
    0x100008958:            ed 1d 60 10  ldd       [%l5 + 0x10], %d22
    0x10000895c:            c5 1c 20 d8  ldd       [%l0 + 0xd8], %d2
    0x100008960:            f1 1d 60 18  ldd       [%l5 + 0x18], %d24
    0x100008964:            d1 1c 21 20  ldd       [%l0 + 0x120], %d8
    0x100008968:            e9 1d 60 28  ldd       [%l5 + 0x28], %d20
    0x10000896c:            d5 1c 21 68  ldd       [%l0 + 0x168], %d10
    0x100008970:            d9 1c 21 b0  ldd       [%l0 + 0x1b0], %d12
    0x100008974:            dd 1c 21 f8  ldd       [%l0 + 0x1f8], %d14
    0x100008978:            bf a0 09 52  fmuld     %d0, %d18, %d62
    0x10000897c:            31 00 04 00  sethi     %hi(0x100000), %i0
    0x100008980:            e1 1c 22 40  ldd       [%l0 + 0x240], %d16
    0x100008984:            9e 16 20 08  or        %i0, 0x8, %o7
    0x100008988:            8d a6 89 5c  fmuld     %d26, %d28, %d6
    0x10000898c:            9b 2b f0 0c  sllx      %o7, 0xc, %o5
    0x100008990:            e5 1d 60 20  ldd       [%l5 + 0x20], %d18
    0x100008994:            b5 a1 08 5f  faddd     %d4, %d62, %d26
    0x100008998:            c9 1b 68 70  ldd       [%o5 + 0x870], %d4
    0x10000899c:            b6 04 22 88  add       %l0, 0x288, %i3
    0x1000089a0:            85 a5 89 42  fmuld     %d22, %d2, %d2
    0x1000089a4:            ed 1d 60 30  ldd       [%l5 + 0x30], %d22
    0x1000089a8:            b8 05 60 40  add       %l5, 0x40, %i4
    0x1000089ac:            b4 05 a0 08  add       %l6, 0x8, %i2
    0x1000089b0:            81 a6 09 48  fmuld     %d24, %d8, %d0
    0x1000089b4:            8d a1 08 46  faddd     %d4, %d6, %d6
    0x1000089b8:            ff 1d 60 38  ldd       [%l5 + 0x38], %d62
    0x1000089bc:            b0 00 7f f8  add       %g1, -0x8, %i0
    0x1000089c0:            c1 6f 20 48  prefetch  [%i4 + 0x48], #n_reads
    0x1000089c4:            c1 6e e2 88  prefetch  [%i3 + 0x288], #n_reads
    0x1000089c8:            b4 06 a0 08  add       %i2, 0x8, %i2
    0x1000089cc:            b6 06 e2 40  add       %i3, 0x240, %i3
    0x1000089d0:            c9 1f 20 00  ldd       [%i4], %d4
    0x1000089d4:            b9 a1 88 42  faddd     %d6, %d2, %d28
    0x1000089d8:            80 a6 80 18  cmp       %i2, %i0
    0x1000089dc:            f1 1e fd c0  ldd       [%i3 - 0x240], %d24
    0x1000089e0:            95 a4 89 4a  fmuld     %d18, %d10, %d10
    0x1000089e4:            c5 1f 20 08  ldd       [%i4 + 0x8], %d2
    0x1000089e8:            b8 07 20 40  add       %i4, 0x40, %i4
    0x1000089ec:            a5 a6 88 40  faddd     %d26, %d0, %d18
    0x1000089f0:            a9 a5 09 4c  fmuld     %d20, %d12, %d20
    0x1000089f4:            d9 1e fe 08  ldd       [%i3 - 0x1f8], %d12
    0x1000089f8:            d1 1f 3f d0  ldd       [%i4 - 0x30], %d8
    0x1000089fc:            b9 a7 08 4a  faddd     %d28, %d10, %d28
    0x100008a00:            ad a5 89 4e  fmuld     %d22, %d14, %d22
    0x100008a04:            dd 1e fe 50  ldd       [%i3 - 0x1b0], %d14
    0x100008a08:            fd 1f 3f d8  ldd       [%i4 - 0x28], %d30
    0x100008a0c:            b5 a4 88 54  faddd     %d18, %d20, %d26
    0x100008a10:            a1 a7 c9 50  fmuld     %d62, %d16, %d16
    0x100008a14:            c1 1e fe 98  ldd       [%i3 - 0x168], %d0
    0x100008a18:            e5 1f 3f e0  ldd       [%i4 - 0x20], %d18
    0x100008a1c:            bf a7 08 56  faddd     %d28, %d22, %d62
    0x100008a20:            8d a1 09 58  fmuld     %d4, %d24, %d6
    0x100008a24:            d5 1e fe e0  ldd       [%i3 - 0x120], %d10
    0x100008a28:            e9 1f 3f e8  ldd       [%i4 - 0x18], %d20
    0x100008a2c:            b9 a6 88 50  faddd     %d26, %d16, %d28
    0x100008a30:            b1 a0 89 4c  fmuld     %d2, %d12, %d24
    0x100008a34:            d9 1e ff 28  ldd       [%i3 - 0xd8], %d12
    0x100008a38:            ed 1f 3f f0  ldd       [%i4 - 0x10], %d22
    0x100008a3c:            8d a7 c8 46  faddd     %d62, %d6, %d6
    0x100008a40:            85 a2 09 4e  fmuld     %d8, %d14, %d2
    0x100008a44:            dd 1e ff 70  ldd       [%i3 - 0x90], %d14
    0x100008a48:            ff 1f 3f f8  ldd       [%i4 - 0x8], %d62
    0x100008a4c:            b5 a7 08 58  faddd     %d28, %d24, %d26
    0x100008a50:            e1 1e ff b8  ldd       [%i3 - 0x48], %d16
    0x100008a54:            04 6f ff db  ble,pt    %xcc, -0x94   <0x1000089c0>
    0x100008a58:            81 a7 89 40  fmuld     %d30, %d0, %d0
    0x100008a5c:            89 a6 88 40  faddd     %d26, %d0, %d4
    0x100008a60:            b9 a1 88 42  faddd     %d6, %d2, %d28
    0x100008a64:            91 a5 09 4c  fmuld     %d20, %d12, %d8
    0x100008a68:            b5 a4 89 4a  fmuld     %d18, %d10, %d26
    0x100008a6c:            b1 a7 c9 50  fmuld     %d62, %d16, %d24
    0x100008a70:            8d a5 89 4e  fmuld     %d22, %d14, %d6
    0x100008a74:            80 a6 80 19  cmp       %i2, %i1
    0x100008a78:            bf a1 08 48  faddd     %d4, %d8, %d62
    0x100008a7c:            85 a7 08 5a  faddd     %d28, %d26, %d2
    0x100008a80:            a9 a7 c8 58  faddd     %d62, %d24, %d20
    0x100008a84:            ad a0 88 46  faddd     %d2, %d6, %d22
    0x100008a88:            89 a5 88 54  faddd     %d22, %d20, %d4
    0x100008a8c:            14 60 00 0c  bg,pn     %xcc, +0x30   <0x100008abc>
    0x100008a90:            01 00 00 00  nop
    0x100008a94:            e9 1e e0 00  ldd       [%i3], %d20
    0x100008a98:            ed 1f 20 00  ldd       [%i4], %d22
    0x100008a9c:            b4 06 a0 01  add       %i2, 0x1, %i2
    0x100008aa0:            80 a6 80 19  cmp       %i2, %i1
    0x100008aa4:            b5 a5 89 54  fmuld     %d22, %d20, %d26
    0x100008aa8:            b6 06 e0 48  add       %i3, 0x48, %i3
    0x100008aac:            b8 07 20 08  add       %i4, 0x8, %i4
    0x100008ab0:            89 a1 08 5a  faddd     %d4, %d26, %d4
    0x100008ab4:            24 6f ff f9  ble,a,pt  %xcc, -0x1c   <0x100008a98>
    0x100008ab8:            e9 1e e0 00  ldd       [%i3], %d20
    0x100008abc:            ba 07 60 01  add       %i5, 0x1, %i5
    0x100008ac0:            d5 1c 20 00  ldd       [%l0], %d10
    0x100008ac4:            80 a7 60 02  cmp       %i5, 0x2
    0x100008ac8:            a5 a2 88 44  faddd     %d10, %d4, %d18
    0x100008acc:            e5 3c 20 00  std       %d18, [%l0]
    0x100008ad0:            a0 04 20 08  add       %l0, 0x8, %l0
    0x100008ad4:            04 6f ff 90  ble,pt    %xcc, -0x1c0  <0x100008914>
    0x100008ad8:            80 a5 80 01  cmp       %l6, %g1
    0x100008adc:            a8 05 20 01  add       %l4, 0x1, %l4
    0x100008ae0:            80 a5 20 02  cmp       %l4, 0x2
    0x100008ae4:            a6 04 e0 18  add       %l3, 0x18, %l3
    0x100008ae8:            04 6f ff 89  ble,pt    %xcc, -0x1dc  <0x10000890c>
    0x100008aec:            ba 10 20 00  clr       %i5
    0x100008af0:            ac 05 a0 01  add       %l6, 0x1, %l6
    0x100008af4:            80 a5 80 19  cmp       %l6, %i1
    0x100008af8:            aa 05 40 02  add       %l5, %g2, %l5
    0x100008afc:            a4 04 a0 48  add       %l2, 0x48, %l2
    0x100008b00:            04 6f ff 81  ble,pt    %xcc, -0x1fc  <0x100008904>
    0x100008b04:            a8 10 20 00  clr       %l4
    0x100008b08:            c8 59 22 a0  ldx       [%g4 + 0x2a0], %g4
    0x100008b0c:            0a f9 3f 79  brnz,pt   %g4, -0x21c   <0x1000088f0>
    0x100008b10:            01 00 00 00  nop
    0x100008b14:            e2 5c 60 18  ldx       [%l1 + 0x18], %l1
    0x100008b18:            2a fc 7f 6c  brnz,a,pt %l1, -0x250   <0x1000088c8>
    0x100008b1c:            da 5c 60 00  ldx       [%l1], %o5
    0x100008b20:            81 c7 e0 08  ret
    0x100008b24:            81 e8 20 00  restore   %g0, 0x0, %g0
CORREC()
    0x100008b28:            9d e3 bf 50  save      %sp, -0xb0, %sp
    0x100008b2c:            2f 00 04 00  sethi     %hi(0x100000), %l7
    0x100008b30:            ac 15 e1 2f  or        %l7, 0x12f, %l6
    0x100008b34:            ab 2d b0 0c  sllx      %l6, 0xc, %l5
    0x100008b38:            d8 5d 63 28  ldx       [%l5 + 0x328], %o4
    0x100008b3c:            a9 2e b0 03  sllx      %i2, 0x3, %l4
    0x100008b40:            c2 5b 00 14  ldx       [%o4 + %l4], %g1
    0x100008b44:            02 c0 40 b0  brz,pn    %g1, +0x2c0   <0x100008e04>
    0x100008b48:            17 00 04 00  sethi     %hi(0x100000), %o3
    0x100008b4c:            94 12 e1 2e  or        %o3, 0x12e, %o2
    0x100008b50:            de 58 60 00  ldx       [%g1], %o7
    0x100008b54:            93 2a b0 0c  sllx      %o2, 0xc, %o1
    0x100008b58:            c4 5a 62 b0  ldx       [%o1 + 0x2b0], %g2
    0x100008b5c:            a0 06 7f ff  add       %i1, -0x1, %l0
    0x100008b60:            f4 58 60 08  ldx       [%g1 + 0x8], %i2
    0x100008b64:            9b 2b f0 03  sllx      %o7, 0x3, %o5
    0x100008b68:            d6 5b 40 02  ldx       [%o5 + %g2], %o3
    0x100008b6c:            e2 58 60 10  ldx       [%g1 + 0x10], %l1
    0x100008b70:            99 2e b0 03  sllx      %i2, 0x3, %o4
    0x100008b74:            d2 5a c0 0c  ldx       [%o3 + %o4], %o1
    0x100008b78:            95 2c 70 05  sllx      %l1, 0x5, %o2
    0x100008b7c:            c6 5a 40 0a  ldx       [%o1 + %o2], %g3
    0x100008b80:            02 c0 c0 9e  brz,pn    %g3, +0x278   <0x100008df8>
    0x100008b84:            ae 10 20 00  clr       %l7
    0x100008b88:            ac 00 e0 18  add       %g3, 0x18, %l6
    0x100008b8c:            a8 10 20 00  clr       %l4
    0x100008b90:            aa 10 00 16  mov       %l6, %l5
    0x100008b94:            04 c6 40 8d  brlez,pn  %i1, +0x234   <0x100008dc8>
    0x100008b98:            80 a4 20 03  cmp       %l0, 0x3
    0x100008b9c:            e1 1d 60 90  ldd       [%l5 + 0x90], %d16
    0x100008ba0:            c9 1d 61 f8  ldd       [%l5 + 0x1f8], %d4
    0x100008ba4:            06 60 00 10  bl,pn     %xcc, +0x40   <0x100008be4>
    0x100008ba8:            a1 a1 08 d0  fsubd     %d4, %d16, %d16
    0x100008bac:            b9 2e 70 03  sllx      %i1, 0x3, %i4
    0x100008bb0:            8a 07 00 19  add       %i4, %i1, %g5
    0x100008bb4:            b6 26 00 15  sub       %i0, %l5, %i3
    0x100008bb8:            89 29 70 03  sllx      %g5, 0x3, %g4
    0x100008bbc:            a6 10 20 00  clr       %l3
    0x100008bc0:            80 a6 c0 04  cmp       %i3, %g4
    0x100008bc4:            a7 66 f0 01  movge     %xcc, 0x1, %l3
    0x100008bc8:            ba 25 40 18  sub       %l5, %i0, %i5
    0x100008bcc:            a4 10 20 00  clr       %l2
    0x100008bd0:            80 a7 40 1c  cmp       %i5, %i4
    0x100008bd4:            a5 66 f0 01  movge     %xcc, 0x1, %l2
    0x100008bd8:            80 94 80 13  orcc      %l2, %l3, %g0
    0x100008bdc:            12 48 00 34  bne,pt    %icc, +0xd0   <0x100008cac>
    0x100008be0:            b6 10 20 00  clr       %i3
    0x100008be4:            80 a6 60 04  cmp       %i1, 0x4
    0x100008be8:            a6 10 20 00  clr       %l3
    0x100008bec:            a4 10 00 18  mov       %i0, %l2
    0x100008bf0:            a2 10 00 15  mov       %l5, %l1
    0x100008bf4:            06 60 00 21  bl,pn     %xcc, +0x84   <0x100008c78>
    0x100008bf8:            01 00 00 00  nop
    0x100008bfc:            b8 06 7f fc  add       %i1, -0x4, %i4
    0x100008c00:            c1 6c a0 30  prefetch  [%l2 + 0x30], #n_reads
    0x100008c04:            c1 6c 61 b0  prefetch  [%l1 + 0x1b0], #n_reads
    0x100008c08:            a6 04 e0 04  add       %l3, 0x4, %l3
    0x100008c0c:            a2 04 61 20  add       %l1, 0x120, %l1
    0x100008c10:            d1 1c a0 00  ldd       [%l2], %d8
    0x100008c14:            80 a4 c0 1c  cmp       %l3, %i4
    0x100008c18:            a4 04 a0 20  add       %l2, 0x20, %l2
    0x100008c1c:            99 a2 09 50  fmuld     %d8, %d16, %d12
    0x100008c20:            dd 1c 7e e0  ldd       [%l1 - 0x120], %d14
    0x100008c24:            b5 a3 88 4c  faddd     %d14, %d12, %d26
    0x100008c28:            f5 3c 7e e0  std       %d26, [%l1 - 0x120]
    0x100008c2c:            f9 1c bf e8  ldd       [%l2 - 0x18], %d28
    0x100008c30:            85 a7 09 50  fmuld     %d28, %d16, %d2
    0x100008c34:            fd 1c 7f 28  ldd       [%l1 - 0xd8], %d30
    0x100008c38:            8d a7 88 42  faddd     %d30, %d2, %d6
    0x100008c3c:            cd 3c 7f 28  std       %d6, [%l1 - 0xd8]
    0x100008c40:            e9 1c bf f0  ldd       [%l2 - 0x10], %d20
    0x100008c44:            ad a5 09 50  fmuld     %d20, %d16, %d22
    0x100008c48:            c9 1c 7f 70  ldd       [%l1 - 0x90], %d4
    0x100008c4c:            b1 a1 08 56  faddd     %d4, %d22, %d24
    0x100008c50:            f1 3c 7f 70  std       %d24, [%l1 - 0x90]
    0x100008c54:            c1 1c bf f8  ldd       [%l2 - 0x8], %d0
    0x100008c58:            95 a0 09 50  fmuld     %d0, %d16, %d10
    0x100008c5c:            e5 1c 7f b8  ldd       [%l1 - 0x48], %d18
    0x100008c60:            91 a4 88 4a  faddd     %d18, %d10, %d8
    0x100008c64:            04 6f ff e7  ble,pt    %xcc, -0x64   <0x100008c00>
    0x100008c68:            d1 3c 7f b8  std       %d8, [%l1 - 0x48]
    0x100008c6c:            80 a4 c0 10  cmp       %l3, %l0
    0x100008c70:            14 60 00 0d  bg,pn     %xcc, +0x34   <0x100008ca4>
    0x100008c74:            01 00 00 00  nop
    0x100008c78:            fd 1c a0 00  ldd       [%l2], %d30
    0x100008c7c:            85 a7 89 50  fmuld     %d30, %d16, %d2
    0x100008c80:            cd 1c 60 00  ldd       [%l1], %d6
    0x100008c84:            a6 04 e0 01  add       %l3, 0x1, %l3
    0x100008c88:            80 a4 c0 10  cmp       %l3, %l0
    0x100008c8c:            a4 04 a0 08  add       %l2, 0x8, %l2
    0x100008c90:            a9 a1 88 42  faddd     %d6, %d2, %d20
    0x100008c94:            e9 3c 60 00  std       %d20, [%l1]
    0x100008c98:            a2 04 60 48  add       %l1, 0x48, %l1
    0x100008c9c:            24 6f ff f8  ble,a,pt  %xcc, -0x20   <0x100008c7c>
    0x100008ca0:            fd 1c a0 00  ldd       [%l2], %d30
    0x100008ca4:            10 80 00 4a  ba        +0x128        <0x100008dcc>
    0x100008ca8:            a8 05 20 01  add       %l4, 0x1, %l4
    0x100008cac:            80 a6 60 08  cmp       %i1, 0x8
    0x100008cb0:            b8 10 00 18  mov       %i0, %i4
    0x100008cb4:            90 10 00 15  mov       %l5, %o0
    0x100008cb8:            06 60 00 39  bl,pn     %xcc, +0xe4   <0x100008d9c>
    0x100008cbc:            01 00 00 00  nop
    0x100008cc0:            fd 1e 20 00  ldd       [%i0], %d30
    0x100008cc4:            f9 1e 20 08  ldd       [%i0 + 0x8], %d28
    0x100008cc8:            e9 1e 20 10  ldd       [%i0 + 0x10], %d20
    0x100008ccc:            c1 1e 20 18  ldd       [%i0 + 0x18], %d0
    0x100008cd0:            d1 1d 60 00  ldd       [%l5], %d8
    0x100008cd4:            b8 06 20 20  add       %i0, 0x20, %i4
    0x100008cd8:            95 a7 09 50  fmuld     %d28, %d16, %d10
    0x100008cdc:            cd 1d 60 48  ldd       [%l5 + 0x48], %d6
    0x100008ce0:            ba 05 60 d8  add       %l5, 0xd8, %i5
    0x100008ce4:            b6 10 20 04  mov       0x4, %i3
    0x100008ce8:            85 a7 89 50  fmuld     %d30, %d16, %d2
    0x100008cec:            c9 1d 60 90  ldd       [%l5 + 0x90], %d4
    0x100008cf0:            b4 06 7f fc  add       %i1, -0x4, %i2
    0x100008cf4:            c1 6f 20 30  prefetch  [%i4 + 0x30], #n_reads
    0x100008cf8:            c1 6f 61 b0  prefetch  [%i5 + 0x1b0], #n_reads
    0x100008cfc:            b6 06 e0 04  add       %i3, 0x4, %i3
    0x100008d00:            ba 07 61 20  add       %i5, 0x120, %i5
    0x100008d04:            ed 1f 20 00  ldd       [%i4], %d22
    0x100008d08:            85 a2 08 42  faddd     %d8, %d2, %d2
    0x100008d0c:            80 a6 c0 1a  cmp       %i3, %i2
    0x100008d10:            b8 07 20 20  add       %i4, 0x20, %i4
    0x100008d14:            f1 1f 7e e0  ldd       [%i5 - 0x120], %d24
    0x100008d18:            c5 3f 7e 08  std       %d2, [%i5 - 0x1f8]
    0x100008d1c:            a9 a5 09 50  fmuld     %d20, %d16, %d20
    0x100008d20:            8d a1 88 4a  faddd     %d6, %d10, %d6
    0x100008d24:            d5 1f 3f e8  ldd       [%i4 - 0x18], %d10
    0x100008d28:            d1 1f 7f 28  ldd       [%i5 - 0xd8], %d8
    0x100008d2c:            cd 3f 7e 50  std       %d6, [%i5 - 0x1b0]
    0x100008d30:            81 a0 09 50  fmuld     %d0, %d16, %d0
    0x100008d34:            89 a1 08 54  faddd     %d4, %d20, %d4
    0x100008d38:            e9 1f 3f f0  ldd       [%i4 - 0x10], %d20
    0x100008d3c:            cd 1f 7f 70  ldd       [%i5 - 0x90], %d6
    0x100008d40:            c9 3f 7e 98  std       %d4, [%i5 - 0x168]
    0x100008d44:            85 a5 89 50  fmuld     %d22, %d16, %d2
    0x100008d48:            a5 a6 08 40  faddd     %d24, %d0, %d18
    0x100008d4c:            c1 1f 3f f8  ldd       [%i4 - 0x8], %d0
    0x100008d50:            c9 1f 7f b8  ldd       [%i5 - 0x48], %d4
    0x100008d54:            e5 3f 7e e0  std       %d18, [%i5 - 0x120]
    0x100008d58:            04 6f ff e7  ble,pt    %xcc, -0x64   <0x100008cf4>
    0x100008d5c:            95 a2 89 50  fmuld     %d10, %d16, %d10
    0x100008d60:            99 a0 09 50  fmuld     %d0, %d16, %d12
    0x100008d64:            dd 1f 60 00  ldd       [%i5], %d14
    0x100008d68:            a5 a5 09 50  fmuld     %d20, %d16, %d18
    0x100008d6c:            81 a1 88 4a  faddd     %d6, %d10, %d0
    0x100008d70:            c1 3f 7f 70  std       %d0, [%i5 - 0x90]
    0x100008d74:            b1 a2 08 42  faddd     %d8, %d2, %d24
    0x100008d78:            80 a6 c0 10  cmp       %i3, %l0
    0x100008d7c:            f1 3f 7f 28  std       %d24, [%i5 - 0xd8]
    0x100008d80:            ad a1 08 52  faddd     %d4, %d18, %d22
    0x100008d84:            ed 3f 7f b8  std       %d22, [%i5 - 0x48]
    0x100008d88:            90 07 60 48  add       %i5, 0x48, %o0
    0x100008d8c:            b5 a3 88 4c  faddd     %d14, %d12, %d26
    0x100008d90:            f5 3f 60 00  std       %d26, [%i5]
    0x100008d94:            14 60 00 0d  bg,pn     %xcc, +0x34   <0x100008dc8>
    0x100008d98:            01 00 00 00  nop
    0x100008d9c:            dd 1f 20 00  ldd       [%i4], %d14
    0x100008da0:            99 a3 89 50  fmuld     %d14, %d16, %d12
    0x100008da4:            f5 1a 20 00  ldd       [%o0], %d26
    0x100008da8:            b6 06 e0 01  add       %i3, 0x1, %i3
    0x100008dac:            80 a6 c0 10  cmp       %i3, %l0
    0x100008db0:            b8 07 20 08  add       %i4, 0x8, %i4
    0x100008db4:            b9 a6 88 4c  faddd     %d26, %d12, %d28
    0x100008db8:            f9 3a 20 00  std       %d28, [%o0]
    0x100008dbc:            90 02 20 48  add       %o0, 0x48, %o0
    0x100008dc0:            24 6f ff f8  ble,a,pt  %xcc, -0x20   <0x100008da0>
    0x100008dc4:            dd 1f 20 00  ldd       [%i4], %d14
    0x100008dc8:            a8 05 20 01  add       %l4, 0x1, %l4
    0x100008dcc:            80 a5 20 02  cmp       %l4, 0x2
    0x100008dd0:            04 6f ff 71  ble,pt    %xcc, -0x23c  <0x100008b94>
    0x100008dd4:            aa 05 60 08  add       %l5, 0x8, %l5
    0x100008dd8:            ae 05 e0 01  add       %l7, 0x1, %l7
    0x100008ddc:            80 a5 e0 02  cmp       %l7, 0x2
    0x100008de0:            ac 05 a0 18  add       %l6, 0x18, %l6
    0x100008de4:            04 6f ff 6b  ble,pt    %xcc, -0x254  <0x100008b90>
    0x100008de8:            a8 10 20 00  clr       %l4
    0x100008dec:            c6 58 e2 a0  ldx       [%g3 + 0x2a0], %g3
    0x100008df0:            0a f8 ff 66  brnz,pt   %g3, -0x268   <0x100008b88>
    0x100008df4:            ae 10 20 00  clr       %l7
    0x100008df8:            c2 58 60 18  ldx       [%g1 + 0x18], %g1
    0x100008dfc:            2a f8 7f 59  brnz,a,pt %g1, -0x29c   <0x100008b60>
    0x100008e00:            de 58 60 00  ldx       [%g1], %o7
    0x100008e04:            81 c7 e0 08  ret
    0x100008e08:            81 e8 20 00  restore   %g0, 0x0, %g0
    0x100008e0c:            00 00 00 00  illtrap   0x0
    0x100008e10:            3f f0 00 00  0x3ff00000
    0x100008e14:            00 00 00 00  illtrap   0x0
    0x100008e18:            40 00 00 00  call      +0x0          <0x100008e18>
    0x100008e1c:            00 00 00 00  illtrap   0x0
    0x100008e20:            3f e0 00 00  0x3fe00000
    0x100008e24:            00 00 00 00  illtrap   0x0
    0x100008e28:            3f d5 55 55  0x3fd55555
    0x100008e2c:            55 55 55 55  call      +0x55555554   <0x15555e380>
    0x100008e30:            00 00 00 00  illtrap   0x0
    0x100008e34:            00 00 00 00  illtrap   0x0
    0x100008e38:            40 26 00 00  call      +0x980000     <0x100988e38>
    0x100008e3c:            00 00 00 00  illtrap   0x0
SYSCNS()
    0x100008e40:            9d e3 bf 00  save      %sp, -0x100, %sp
    0x100008e44:            39 00 04 00  sethi     %hi(0x100000), %i4
    0x100008e48:            3b 00 04 00  sethi     %hi(0x100000), %i5
    0x100008e4c:            b4 17 21 2f  or        %i4, 0x12f, %i2
    0x100008e50:            ba 17 60 08  or        %i5, 0x8, %i5
    0x100008e54:            b7 2f 70 0c  sllx      %i5, 0xc, %i3
    0x100008e58:            cd 1e ee 10  ldd       [%i3 + 0xe10], %d6
    0x100008e5c:            b3 2e b0 0c  sllx      %i2, 0xc, %i1
    0x100008e60:            c9 1e 61 e8  ldd       [%i1 + 0x1e8], %d4
    0x100008e64:            31 00 04 00  sethi     %hi(0x100000), %i0
    0x100008e68:            2f 00 04 00  sethi     %hi(0x100000), %l7
    0x100008e6c:            95 a1 89 c4  fdivd     %d6, %d4, %d10
    0x100008e70:            ac 16 21 2e  or        %i0, 0x12e, %l6
    0x100008e74:            a8 15 e1 2f  or        %l7, 0x12f, %l4
    0x100008e78:            ab 2d b0 0c  sllx      %l6, 0xc, %l5
    0x100008e7c:            f8 5d 67 00  ldx       [%l5 + 0x700], %i4
    0x100008e80:            a7 2d 30 0c  sllx      %l4, 0xc, %l3
    0x100008e84:            e4 5c e2 d8  ldx       [%l3 + 0x2d8], %l2
    0x100008e88:            23 00 04 00  sethi     %hi(0x100000), %l1
    0x100008e8c:            9e 14 61 2f  or        %l1, 0x12f, %o7
    0x100008e90:            ba 4c 80 1c  mulx      %l2, %i4, %i5
    0x100008e94:            21 00 04 00  sethi     %hi(0x100000), %l0
    0x100008e98:            9a 14 21 2f  or        %l0, 0x12f, %o5
    0x100008e9c:            ab 2b f0 0c  sllx      %o7, 0xc, %l5
    0x100008ea0:            d1 1d 61 d0  ldd       [%l5 + 0x1d0], %d8
    0x100008ea4:            99 2b 70 0c  sllx      %o5, 0xc, %o4
    0x100008ea8:            e9 1b 21 d8  ldd       [%o4 + 0x1d8], %d20
    0x100008eac:            e9 3b a8 cf  std       %d20, [%sp + 0x8cf]
    0x100008eb0:            17 00 04 00  sethi     %hi(0x100000), %o3
    0x100008eb4:            13 00 04 00  sethi     %hi(0x100000), %o1
    0x100008eb8:            94 12 e1 2f  or        %o3, 0x12f, %o2
    0x100008ebc:            90 12 61 2f  or        %o1, 0x12f, %o0
    0x100008ec0:            09 00 04 00  sethi     %hi(0x100000), %g4
    0x100008ec4:            05 00 04 00  sethi     %hi(0x100000), %g2
    0x100008ec8:            8b 2a 30 0c  sllx      %o0, 0xc, %g5
    0x100008ecc:            e1 19 61 e0  ldd       [%g5 + 0x1e0], %d16
    0x100008ed0:            e1 3b a8 d7  std       %d16, [%sp + 0x8d7]
    0x100008ed4:            86 11 21 2f  or        %g4, 0x12f, %g3
    0x100008ed8:            82 10 a1 2f  or        %g2, 0x12f, %g1
    0x100008edc:            b5 2a b0 0c  sllx      %o2, 0xc, %i2
    0x100008ee0:            c9 1e a2 80  ldd       [%i2 + 0x280], %d4
    0x100008ee4:            c9 3b a8 e7  std       %d4, [%sp + 0x8e7]
    0x100008ee8:            af 2f 70 02  sllx      %i5, 0x2, %l7
    0x100008eec:            a2 06 ee 10  add       %i3, 0xe10, %l1
    0x100008ef0:            c5 1c 60 08  ldd       [%l1 + 0x8], %d2
    0x100008ef4:            b1 28 70 0c  sllx      %g1, 0xc, %i0
    0x100008ef8:            fa 76 21 98  stx       %i5, [%i0 + 0x198]
    0x100008efc:            b3 28 f0 0c  sllx      %g3, 0xc, %i1
    0x100008f00:            ac 25 c0 1d  sub       %l7, %i5, %l6
    0x100008f04:            ec 76 62 d0  stx       %l6, [%i1 + 0x2d0]
    0x100008f08:            29 00 04 00  sethi     %hi(0x100000), %l4
    0x100008f0c:            27 00 04 00  sethi     %hi(0x100000), %l3
    0x100008f10:            a4 15 21 2e  or        %l4, 0x12e, %l2
    0x100008f14:            a1 2c b0 0c  sllx      %l2, 0xc, %l0
    0x100008f18:            b1 a2 09 4a  fmuld     %d8, %d10, %d24
    0x100008f1c:            f1 3d 61 d0  std       %d24, [%l5 + 0x1d0]
    0x100008f20:            81 a5 09 4a  fmuld     %d20, %d10, %d0
    0x100008f24:            40 00 05 af  call      +0x16bc       <0x10000a5e0>
    0x100008f28:            f1 3b a8 df  std       %d24, [%sp + 0x8df]
    0x100008f2c:            fa 73 a8 f7  stx       %i5, [%sp + 0x8f7]
    0x100008f30:            f5 1b a8 f7  ldd       [%sp + 0x8f7], %d26
    0x100008f34:            fd 1c 27 48  ldd       [%l0 + 0x748], %d30
    0x100008f38:            e5 1e ee 10  ldd       [%i3 + 0xe10], %d18
    0x100008f3c:            e1 1b a8 d7  ldd       [%sp + 0x8d7], %d16
    0x100008f40:            ed 1e ee 10  ldd       [%i3 + 0xe10], %d22
    0x100008f44:            f1 1b a8 df  ldd       [%sp + 0x8df], %d24
    0x100008f48:            d9 1c 60 10  ldd       [%l1 + 0x10], %d12
    0x100008f4c:            f8 73 a8 ef  stx       %i4, [%sp + 0x8ef]
    0x100008f50:            e9 1b a8 ef  ldd       [%sp + 0x8ef], %d20
    0x100008f54:            c5 1c 60 18  ldd       [%l1 + 0x18], %d2
    0x100008f58:            9e 14 e1 2f  or        %l3, 0x12f, %o7
    0x100008f5c:            9b 2b f0 0c  sllx      %o7, 0xc, %o5
    0x100008f60:            f9 1b 61 60  ldd       [%o5 + 0x160], %d28
    0x100008f64:            37 00 04 00  sethi     %hi(0x100000), %i3
    0x100008f68:            98 16 e1 2e  or        %i3, 0x12e, %o4
    0x100008f6c:            97 2b 30 0c  sllx      %o4, 0xc, %o3
    0x100008f70:            dd 1a e3 60  ldd       [%o3 + 0x360], %d14
    0x100008f74:            15 00 04 00  sethi     %hi(0x100000), %o2
    0x100008f78:            92 12 a1 2f  or        %o2, 0x12f, %o1
    0x100008f7c:            9d a5 89 ce  fdivd     %d22, %d14, %d14
    0x100008f80:            91 2a 70 0c  sllx      %o1, 0xc, %o0
    0x100008f84:            c9 1a 21 f0  ldd       [%o0 + 0x1f0], %d4
    0x100008f88:            bb a7 09 5e  fmuld     %d28, %d30, %d60
    0x100008f8c:            bf a0 11 1a  fxtod     %d26, %d62
    0x100008f90:            09 00 04 00  sethi     %hi(0x100000), %g4
    0x100008f94:            86 11 21 2e  or        %g4, 0x12e, %g3
    0x100008f98:            0b 00 04 00  sethi     %hi(0x100000), %g5
    0x100008f9c:            85 28 f0 0c  sllx      %g3, 0xc, %g2
    0x100008fa0:            ba 11 61 2e  or        %g5, 0x12e, %i5
    0x100008fa4:            8d a7 49 5f  fmuld     %d60, %d62, %d6
    0x100008fa8:            83 2f 70 0c  sllx      %i5, 0xc, %g1
    0x100008fac:            95 a6 09 58  fmuld     %d24, %d24, %d10
    0x100008fb0:            d5 3b a8 c7  std       %d10, [%sp + 0x8c7]
    0x100008fb4:            ad a1 09 50  fmuld     %d4, %d16, %d22
    0x100008fb8:            bd a0 11 14  fxtod     %d20, %d30
    0x100008fbc:            91 a4 89 c6  fdivd     %d18, %d6, %d8
    0x100008fc0:            b9 a4 09 48  fmuld     %d16, %d8, %d28
    0x100008fc4:            b5 a5 89 4e  fmuld     %d22, %d14, %d26
    0x100008fc8:            b1 a7 09 40  fmuld     %d28, %d0, %d24
    0x100008fcc:            f1 38 a6 e0  std       %d24, [%g2 + 0x6e0]
    0x100008fd0:            81 a6 89 5e  fmuld     %d26, %d30, %d0
    0x100008fd4:            bf a6 09 4c  fmuld     %d24, %d12, %d62
    0x100008fd8:            95 a7 c9 ca  fdivd     %d62, %d10, %d10
    0x100008fdc:            40 00 05 81  call      +0x1604       <0x10000a5e0>
    0x100008fe0:            d5 38 66 d8  std       %d10, [%g1 + 0x6d8]
    0x100008fe4:            e9 1b a8 cf  ldd       [%sp + 0x8cf], %d20
    0x100008fe8:            c9 1b a8 e7  ldd       [%sp + 0x8e7], %d4
    0x100008fec:            fb 1c 60 20  ldd       [%l1 + 0x20], %d60
    0x100008ff0:            bf a0 09 d4  fdivd     %d0, %d20, %d62
    0x100008ff4:            cd 1c 60 10  ldd       [%l1 + 0x10], %d6
    0x100008ff8:            03 00 04 00  sethi     %hi(0x100000), %g1
    0x100008ffc:            05 00 04 00  sethi     %hi(0x100000), %g2
    0x100009000:            84 10 a1 2e  or        %g2, 0x12e, %g2
    0x100009004:            d5 1b a8 c7  ldd       [%sp + 0x8c7], %d10
    0x100009008:            81 a9 0a 5d  fcmpd     %fcc0, %d4, %d60
    0x10000900c:            b0 10 61 2e  or        %g1, 0x12e, %i0
    0x100009010:            83 28 b0 0c  sllx      %g2, 0xc, %g1
    0x100009014:            ff 38 66 a8  std       %d62, [%g1 + 0x6a8]
    0x100009018:            9d a7 c9 46  fmuld     %d62, %d6, %d14
    0x10000901c:            85 2e 30 0c  sllx      %i0, 0xc, %g2
    0x100009020:            dd 38 a6 a0  std       %d14, [%g2 + 0x6a0]
    0x100009024:            03 40 00 04  fbne,pn   %fcc0, +0x10   <0x100009034>
    0x100009028:            e5 1c 60 28  ldd       [%l1 + 0x28], %d18
    0x10000902c:            83 a9 0a ce  fcmped    %fcc1, %d4, %d14
    0x100009030:            89 ab 88 4e  fmovdule  %fcc1, %d14, %d4
    0x100009034:            85 ac 8a c4  fcmped    %fcc2, %d18, %d4
    0x100009038:            89 a9 10 52  fmovdl    %fcc2, %d18, %d4
    0x10000903c:            c9 3e a2 80  std       %d4, [%i2 + 0x280]
    0x100009040:            91 a7 c9 c4  fdivd     %d62, %d4, %d8
    0x100009044:            a1 a0 10 48  fdtox     %d8, %d16
    0x100009048:            e1 3b a8 bf  std       %d16, [%sp + 0x8bf]
    0x10000904c:            de 5b a8 bf  ldx       [%sp + 0x8bf], %o7
    0x100009050:            0a c3 c0 08  brnz,pn   %o7, +0x20    <0x100009070>
    0x100009054:            3b 00 04 00  sethi     %hi(0x100000), %i5
    0x100009058:            86 17 61 2f  or        %i5, 0x12f, %g3
    0x10000905c:            9e 10 20 01  mov       0x1, %o7
    0x100009060:            bb 28 f0 0c  sllx      %g3, 0xc, %i5
    0x100009064:            de 77 63 20  stx       %o7, [%i5 + 0x320]
    0x100009068:            10 80 00 07  ba        +0x1c         <0x100009084>
    0x10000906c:            b4 10 20 01  mov       0x1, %i2
    0x100009070:            b4 4b c0 0f  mulx      %o7, %o7, %i2
    0x100009074:            2f 00 04 00  sethi     %hi(0x100000), %l7
    0x100009078:            82 15 e1 2f  or        %l7, 0x12f, %g1
    0x10000907c:            b1 28 70 0c  sllx      %g1, 0xc, %i0
    0x100009080:            e1 3e 23 20  std       %d16, [%i0 + 0x320]
    0x100009084:            96 4e 80 0f  mulx      %i2, %o7, %o3
    0x100009088:            de 73 a8 c7  stx       %o7, [%sp + 0x8c7]
    0x10000908c:            e5 1c 60 10  ldd       [%l1 + 0x10], %d18
    0x100009090:            d1 1b a8 c7  ldd       [%sp + 0x8c7], %d8
    0x100009094:            33 00 04 00  sethi     %hi(0x100000), %i1
    0x100009098:            84 16 61 2e  or        %i1, 0x12e, %g2
    0x10000909c:            af 28 b0 0c  sllx      %g2, 0xc, %l7
    0x1000090a0:            f5 1d e2 80  ldd       [%l7 + 0x280], %d26
    0x1000090a4:            2d 00 04 00  sethi     %hi(0x100000), %l6
    0x1000090a8:            31 00 04 00  sethi     %hi(0x100000), %i0
    0x1000090ac:            aa 15 a1 2e  or        %l6, 0x12e, %l5
    0x1000090b0:            a8 16 21 2e  or        %i0, 0x12e, %l4
    0x1000090b4:            83 2d 70 0c  sllx      %l5, 0xc, %g1
    0x1000090b8:            ed 18 66 e8  ldd       [%g1 + 0x6e8], %d22
    0x1000090bc:            b3 2d 30 0c  sllx      %l4, 0xc, %i1
    0x1000090c0:            dd 1e 67 20  ldd       [%i1 + 0x720], %d14
    0x1000090c4:            25 00 04 00  sethi     %hi(0x100000), %l2
    0x1000090c8:            b6 07 3f ff  add       %i4, -0x1, %i3
    0x1000090cc:            ae 14 a1 2f  or        %l2, 0x12f, %l7
    0x1000090d0:            27 00 04 00  sethi     %hi(0x100000), %l3
    0x1000090d4:            84 14 e1 2e  or        %l3, 0x12e, %g2
    0x1000090d8:            b9 2d f0 0c  sllx      %l7, 0xc, %i4
    0x1000090dc:            f4 77 23 00  stx       %i2, [%i4 + 0x300]
    0x1000090e0:            a1 28 b0 0c  sllx      %g2, 0xc, %l0
    0x1000090e4:            1f 00 04 00  sethi     %hi(0x100000), %o7
    0x1000090e8:            31 00 04 00  sethi     %hi(0x100000), %i0
    0x1000090ec:            23 00 04 00  sethi     %hi(0x100000), %l1
    0x1000090f0:            33 00 04 00  sethi     %hi(0x100000), %i1
    0x1000090f4:            11 00 04 00  sethi     %hi(0x100000), %o0
    0x1000090f8:            2f 00 04 00  sethi     %hi(0x100000), %l7
    0x1000090fc:            2d 00 04 00  sethi     %hi(0x100000), %l6
    0x100009100:            03 00 04 00  sethi     %hi(0x100000), %g1
    0x100009104:            aa 15 a1 2f  or        %l6, 0x12f, %l5
    0x100009108:            98 13 e1 2f  or        %o7, 0x12f, %o4
    0x10000910c:            94 16 21 2e  or        %i0, 0x12e, %o2
    0x100009110:            a4 14 61 2e  or        %l1, 0x12e, %l2
    0x100009114:            92 16 61 2f  or        %i1, 0x12f, %o1
    0x100009118:            a6 10 61 2e  or        %g1, 0x12e, %l3
    0x10000911c:            84 12 21 2e  or        %o0, 0x12e, %g2
    0x100009120:            8a 15 e1 2e  or        %l7, 0x12e, %g5
    0x100009124:            9b 2d 70 0c  sllx      %l5, 0xc, %o5
    0x100009128:            f6 73 61 a8  stx       %i3, [%o5 + 0x1a8]
    0x10000912c:            a9 2b 30 0c  sllx      %o4, 0xc, %l4
    0x100009130:            d6 75 23 10  stx       %o3, [%l4 + 0x310]
    0x100009134:            b5 2c f0 0c  sllx      %l3, 0xc, %i2
    0x100009138:            b9 2c b0 0c  sllx      %l2, 0xc, %i4
    0x10000913c:            ad 2a 70 0c  sllx      %o1, 0xc, %l6
    0x100009140:            89 2a b0 0c  sllx      %o2, 0xc, %g4
    0x100009144:            bb 28 b0 0c  sllx      %g2, 0xc, %i5
    0x100009148:            87 29 70 0c  sllx      %g5, 0xc, %g3
    0x10000914c:            a1 a1 09 44  fmuld     %d4, %d4, %d16
    0x100009150:            e1 3c 26 b0  std       %d16, [%l0 + 0x6b0]
    0x100009154:            99 a2 89 52  fmuld     %d10, %d18, %d12
    0x100009158:            bd a0 11 08  fxtod     %d8, %d30
    0x10000915c:            89 a4 09 44  fmuld     %d16, %d4, %d4
    0x100009160:            b9 a3 09 ce  fdivd     %d12, %d14, %d28
    0x100009164:            bb a6 89 c4  fdivd     %d26, %d4, %d60
    0x100009168:            b1 a3 09 d6  fdivd     %d12, %d22, %d24
    0x10000916c:            bf a7 c9 de  fdivd     %d62, %d30, %d62
    0x100009170:            f9 3e a2 c0  std       %d28, [%i2 + 0x2c0]
    0x100009174:            95 a0 00 dd  fnegd     %d60, %d10
    0x100009178:            d5 3f 27 28  std       %d10, [%i4 + 0x728]
    0x10000917c:            ff 3d a2 78  std       %d62, [%l6 + 0x278]
    0x100009180:            f1 39 22 b8  std       %d24, [%g4 + 0x2b8]
    0x100009184:            a9 a2 88 dd  fsubd     %d10, %d60, %d20
    0x100009188:            e9 3f 67 30  std       %d20, [%i5 + 0x730]
    0x10000918c:            8d a5 08 54  faddd     %d20, %d20, %d6
    0x100009190:            cd 38 e7 38  std       %d6, [%g3 + 0x738]
    0x100009194:            81 c7 e0 08  ret
    0x100009198:            81 e8 20 00  restore   %g0, 0x0, %g0
    0x10000919c:            00 00 00 00  illtrap   0x0
    0x1000091a0:            40 72 a0 00  call      +0x1ca8000    <0x101cb11a0>
    0x1000091a4:            00 00 00 00  illtrap   0x0
    0x1000091a8:            3f ef ef 9d  0x3fefef9d
    0x1000091ac:            b2 2d 0e 56  andn      %l4, %l6, %i1
    0x1000091b0:            3f d5 55 55  0x3fd55555
    0x1000091b4:            55 55 55 55  call      +0x55555554   <0x15555e708>
    0x1000091b8:            3d 06 84 9b  sethi     %hi(0x1a126c00), %fp
    0x1000091bc:            86 a1 2b 9b  subcc     %g4, 0xb9b, %g3
main()
    0x1000091c0:            9d e3 be 00  save      %sp, -0x200, %sp
    0x1000091c4:            03 00 04 00  sethi     %hi(0x100000), %g1
    0x1000091c8:            09 00 04 00  sethi     %hi(0x100000), %g4
    0x1000091cc:            9a 10 61 2e  or        %g1, 0x12e, %o5
    0x1000091d0:            9e 11 20 2d  or        %g4, 0x2d, %o7
    0x1000091d4:            ab 2b 70 0c  sllx      %o5, 0xc, %l5
    0x1000091d8:            97 2b f0 0c  sllx      %o7, 0xc, %o3
    0x1000091dc:            ea 73 a9 07  stx       %l5, [%sp + 0x907]
    0x1000091e0:            80 a6 20 02  cmp       %i0, 0x2
    0x1000091e4:            a8 02 e5 70  add       %o3, 0x570, %l4
    0x1000091e8:            12 40 00 27  bne,pn    %icc, +0x9c   <0x100009284>
    0x1000091ec:            e8 73 a8 d7  stx       %l4, [%sp + 0x8d7]
    0x1000091f0:            f4 5e 60 08  ldx       [%i1 + 0x8], %i2
    0x1000091f4:            92 05 38 f8  add       %l4, -0x708, %o1
    0x1000091f8:            80 a6 80 09  cmp       %i2, %o1
    0x1000091fc:            02 60 00 0d  be,pn     %xcc, +0x34   <0x100009230>
    0x100009200:            90 10 20 00  clr       %o0
    0x100009204:            f0 0d 38 f8  ldub      [%l4 - 0x708], %i0
    0x100009208:            ea 0e a0 00  ldub      [%i2], %l5
    0x10000920c:            90 a5 40 18  subcc     %l5, %i0, %o0
    0x100009210:            12 60 00 08  bne,pn    %xcc, +0x20   <0x100009230>
    0x100009214:            01 00 00 00  nop
    0x100009218:            02 c5 40 06  brz,pn    %l5, +0x18    <0x100009230>
    0x10000921c:            90 10 20 00  clr       %o0
    0x100009220:            90 06 a0 01  add       %i2, 0x1, %o0
    0x100009224:            94 10 20 01  mov       0x1, %o2
    0x100009228:            40 04 91 ae  call      +0x1246b8     <0x10012d8e0>
    0x10000922c:            92 05 38 f9  add       %l4, -0x707, %o1
    0x100009230:            80 90 00 08  tst       %o0
    0x100009234:            02 40 02 bd  be,pn     %icc, +0xaf4  <0x100009d28>
    0x100009238:            92 05 39 00  add       %l4, -0x700, %o1
    0x10000923c:            ea 5e 60 08  ldx       [%i1 + 0x8], %l5
    0x100009240:            80 a5 40 09  cmp       %l5, %o1
    0x100009244:            02 60 00 0d  be,pn     %xcc, +0x34   <0x100009278>
    0x100009248:            90 10 20 00  clr       %o0
    0x10000924c:            ee 0d 39 00  ldub      [%l4 - 0x700], %l7
    0x100009250:            f4 0d 60 00  ldub      [%l5], %i2
    0x100009254:            90 a6 80 17  subcc     %i2, %l7, %o0
    0x100009258:            12 60 00 08  bne,pn    %xcc, +0x20   <0x100009278>
    0x10000925c:            01 00 00 00  nop
    0x100009260:            02 c6 80 06  brz,pn    %i2, +0x18    <0x100009278>
    0x100009264:            90 10 20 00  clr       %o0
    0x100009268:            94 10 20 01  mov       0x1, %o2
    0x10000926c:            90 05 60 01  add       %l5, 0x1, %o0
    0x100009270:            40 04 91 9c  call      +0x124670     <0x10012d8e0>
    0x100009274:            92 05 39 01  add       %l4, -0x6ff, %o1
    0x100009278:            80 90 00 08  tst       %o0
    0x10000927c:            02 40 02 ab  be,pn     %icc, +0xaac  <0x100009d28>
    0x100009280:            01 00 00 00  nop
    0x100009284:            27 00 04 00  sethi     %hi(0x100000), %l3
    0x100009288:            35 00 04 00  sethi     %hi(0x100000), %i2
    0x10000928c:            1f 00 04 00  sethi     %hi(0x100000), %o7
    0x100009290:            11 00 04 00  sethi     %hi(0x100000), %o0
    0x100009294:            ae 16 a1 2f  or        %i2, 0x12f, %l7
    0x100009298:            86 13 e1 2f  or        %o7, 0x12f, %g3
    0x10000929c:            b2 12 21 2f  or        %o0, 0x12f, %i1
    0x1000092a0:            2d 00 04 00  sethi     %hi(0x100000), %l6
    0x1000092a4:            89 2d f0 0c  sllx      %l7, 0xc, %g4
    0x1000092a8:            aa 15 a1 2f  or        %l6, 0x12f, %l5
    0x1000092ac:            83 28 f0 0c  sllx      %g3, 0xc, %g1
    0x1000092b0:            b5 2e 70 0c  sllx      %i1, 0xc, %i2
    0x1000092b4:            37 00 04 00  sethi     %hi(0x100000), %i3
    0x1000092b8:            31 00 04 00  sethi     %hi(0x100000), %i0
    0x1000092bc:            17 00 04 00  sethi     %hi(0x100000), %o3
    0x1000092c0:            1f 00 04 00  sethi     %hi(0x100000), %o7
    0x1000092c4:            b8 14 e0 09  or        %l3, 0x9, %i4
    0x1000092c8:            a8 16 e1 2e  or        %i3, 0x12e, %l4
    0x1000092cc:            8a 16 21 2e  or        %i0, 0x12e, %g5
    0x1000092d0:            94 12 e1 2e  or        %o3, 0x12e, %o2
    0x1000092d4:            86 13 e1 2f  or        %o7, 0x12f, %g3
    0x1000092d8:            2d 00 04 00  sethi     %hi(0x100000), %l6
    0x1000092dc:            b2 01 23 18  add       %g4, 0x318, %i1
    0x1000092e0:            a1 2f 30 0c  sllx      %i4, 0xc, %l0
    0x1000092e4:            9b 29 70 0c  sllx      %g5, 0xc, %o5
    0x1000092e8:            b6 15 a1 2e  or        %l6, 0x12e, %i3
    0x1000092ec:            97 28 f0 0c  sllx      %g3, 0xc, %o3
    0x1000092f0:            05 00 04 00  sethi     %hi(0x100000), %g2
    0x1000092f4:            a6 03 67 d0  add       %o5, 0x7d0, %l3
    0x1000092f8:            93 2d 70 0c  sllx      %l5, 0xc, %o1
    0x1000092fc:            a4 10 a1 2e  or        %g2, 0x12e, %l2
    0x100009300:            c8 73 a8 df  stx       %g4, [%sp + 0x8df]
    0x100009304:            09 00 04 00  sethi     %hi(0x100000), %g4
    0x100009308:            a3 2d 30 0c  sllx      %l4, 0xc, %l1
    0x10000930c:            19 00 04 00  sethi     %hi(0x100000), %o4
    0x100009310:            ac 04 21 a0  add       %l0, 0x1a0, %l6
    0x100009314:            b0 11 21 2f  or        %g4, 0x12f, %i0
    0x100009318:            e5 1c 21 a0  ldd       [%l0 + 0x1a0], %d18
    0x10000931c:            0b 00 04 00  sethi     %hi(0x100000), %g5
    0x100009320:            af 2c b0 0c  sllx      %l2, 0xc, %l7
    0x100009324:            de 5b a8 d7  ldx       [%sp + 0x8d7], %o7
    0x100009328:            ba 13 21 2e  or        %o4, 0x12e, %i5
    0x10000932c:            c2 73 a8 ef  stx       %g1, [%sp + 0x8ef]
    0x100009330:            a9 2e f0 0c  sllx      %i3, 0xc, %l4
    0x100009334:            c6 5b a9 07  ldx       [%sp + 0x907], %g3
    0x100009338:            9b 2e 30 0c  sllx      %i0, 0xc, %o5
    0x10000933c:            a0 11 61 2f  or        %g5, 0x12f, %l0
    0x100009340:            d2 73 a9 0f  stx       %o1, [%sp + 0x90f]
    0x100009344:            b9 2a b0 0c  sllx      %o2, 0xc, %i4
    0x100009348:            90 03 f9 b0  add       %o7, -0x650, %o0
    0x10000934c:            94 07 27 00  add       %i4, 0x700, %o2
    0x100009350:            da 73 a8 f7  stx       %o5, [%sp + 0x8f7]
    0x100009354:            f2 73 a8 c7  stx       %i1, [%sp + 0x8c7]
    0x100009358:            e9 1d a0 08  ldd       [%l6 + 0x8], %d20
    0x10000935c:            92 02 62 80  add       %o1, 0x280, %o1
    0x100009360:            84 04 66 f8  add       %l1, 0x6f8, %g2
    0x100009364:            82 00 62 e8  add       %g1, 0x2e8, %g1
    0x100009368:            d6 73 a8 e7  stx       %o3, [%sp + 0x8e7]
    0x10000936c:            ab 2f 70 0c  sllx      %i5, 0xc, %l5
    0x100009370:            a4 05 e7 08  add       %l7, 0x708, %l2
    0x100009374:            d2 73 a8 cf  stx       %o1, [%sp + 0x8cf]
    0x100009378:            b7 2c 30 0c  sllx      %l0, 0xc, %i3
    0x10000937c:            c2 73 a8 b7  stx       %g1, [%sp + 0x8b7]
    0x100009380:            9a 03 61 b8  add       %o5, 0x1b8, %o5
    0x100009384:            c4 73 a8 bf  stx       %g2, [%sp + 0x8bf]
    0x100009388:            98 06 e2 e0  add       %i3, 0x2e0, %o4
    0x10000938c:            e4 73 a8 af  stx       %l2, [%sp + 0x8af]
    0x100009390:            96 02 e1 c0  add       %o3, 0x1c0, %o3
    0x100009394:            e5 3d 27 48  std       %d18, [%l4 + 0x748]
    0x100009398:            e9 3d 63 60  std       %d20, [%l5 + 0x360]
    0x10000939c:            e6 70 e6 98  stx       %l3, [%g3 + 0x698]
    0x1000093a0:            40 04 91 58  call      +0x124560     <0x10012d900>
    0x1000093a4:            92 06 a1 d0  add       %i2, 0x1d0, %o1
    0x1000093a8:            80 a2 20 0a  cmp       %o0, 0xa
    0x1000093ac:            02 40 00 05  be,pn     %icc, +0x14   <0x1000093c0>
    0x1000093b0:            92 04 e0 80  add       %l3, 0x80, %o1
    0x1000093b4:            d0 5b a8 d7  ldx       [%sp + 0x8d7], %o0
    0x1000093b8:            40 04 90 da  call      +0x124368     <0x10012d720>
    0x1000093bc:            90 02 39 d0  add       %o0, -0x630, %o0
    0x1000093c0:            fa 5b a8 df  ldx       [%sp + 0x8df], %i5
    0x1000093c4:            d4 5b a8 e7  ldx       [%sp + 0x8e7], %o2
    0x1000093c8:            f2 5b a8 d7  ldx       [%sp + 0x8d7], %i1
    0x1000093cc:            d2 5f 63 18  ldx       [%i5 + 0x318], %o1
    0x1000093d0:            d6 5f 27 00  ldx       [%i4 + 0x700], %o3
    0x1000093d4:            d4 5a a1 c0  ldx       [%o2 + 0x1c0], %o2
    0x1000093d8:            40 04 90 e2  call      +0x124388     <0x10012d760>
    0x1000093dc:            90 06 7a 40  add       %i1, -0x5c0, %o0
    0x1000093e0:            e4 5b a8 f7  ldx       [%sp + 0x8f7], %l2
    0x1000093e4:            d2 5e a1 d0  ldx       [%i2 + 0x1d0], %o1
    0x1000093e8:            d4 5e e2 e0  ldx       [%i3 + 0x2e0], %o2
    0x1000093ec:            d6 5c a1 b8  ldx       [%l2 + 0x1b8], %o3
    0x1000093f0:            40 04 90 dc  call      +0x124370     <0x10012d760>
    0x1000093f4:            90 06 7a 70  add       %i1, -0x590, %o0
    0x1000093f8:            d6 5c 66 f8  ldx       [%l1 + 0x6f8], %o3
    0x1000093fc:            e2 5b a9 0f  ldx       [%sp + 0x90f], %l1
    0x100009400:            f0 5b a8 ef  ldx       [%sp + 0x8ef], %i0
    0x100009404:            90 06 7a b0  add       %i1, -0x550, %o0
    0x100009408:            d8 5c 62 80  ldx       [%l1 + 0x280], %o4
    0x10000940c:            d4 5e 22 e8  ldx       [%i0 + 0x2e8], %o2
    0x100009410:            23 00 04 00  sethi     %hi(0x100000), %l1
    0x100009414:            40 04 90 d3  call      +0x12434c     <0x10012d760>
    0x100009418:            d2 5d e7 08  ldx       [%l7 + 0x708], %o1
    0x10000941c:            d4 5e e2 e0  ldx       [%i3 + 0x2e0], %o2
    0x100009420:            8a 14 61 2e  or        %l1, 0x12e, %g5
    0x100009424:            17 00 04 00  sethi     %hi(0x100000), %o3
    0x100009428:            9b 29 70 0c  sllx      %g5, 0xc, %o5
    0x10000942c:            82 12 e1 2f  or        %o3, 0x12f, %g1
    0x100009430:            8b 28 70 0c  sllx      %g1, 0xc, %g5
    0x100009434:            ca 73 a8 ff  stx       %g5, [%sp + 0x8ff]
    0x100009438:            90 02 a0 01  add       %o2, 0x1, %o0
    0x10000943c:            92 03 63 70  add       %o5, 0x370, %o1
    0x100009440:            7f ff e7 54  call      -0x62b0       <0x100003190>
    0x100009444:            d0 71 61 b0  stx       %o0, [%g5 + 0x1b0]
    0x100009448:            7f ff fe 7e  call      -0x608        <0x100008e40>
    0x10000944c:            01 00 00 00  nop
    0x100009450:            d4 5f 63 18  ldx       [%i5 + 0x318], %o2
    0x100009454:            11 00 04 00  sethi     %hi(0x100000), %o0
    0x100009458:            a0 12 21 2f  or        %o0, 0x12f, %l0
    0x10000945c:            a3 2c 30 0c  sllx      %l0, 0xc, %l1
    0x100009460:            d2 5c 63 20  ldx       [%l1 + 0x320], %o1
    0x100009464:            90 06 7a e8  add       %i1, -0x518, %o0
    0x100009468:            b2 4a 40 09  mulx      %o1, %o1, %i1
    0x10000946c:            40 04 90 bd  call      +0x1242f4     <0x10012d760>
    0x100009470:            92 4e 40 09  mulx      %i1, %o1, %o1
    0x100009474:            d8 5c 63 20  ldx       [%l1 + 0x320], %o4
    0x100009478:            d6 5f 63 18  ldx       [%i5 + 0x318], %o3
    0x10000947c:            ba 4b 00 0c  mulx      %o4, %o4, %i5
    0x100009480:            94 4f 40 0c  mulx      %i5, %o4, %o2
    0x100009484:            80 a2 c0 0a  cmp       %o3, %o2
    0x100009488:            14 60 02 31  bg,pn     %xcc, +0x8c4  <0x100009d4c>
    0x10000948c:            01 00 00 00  nop
    0x100009490:            d4 5d 27 48  ldx       [%l4 + 0x748], %o2
    0x100009494:            fa 5b a8 d7  ldx       [%sp + 0x8d7], %i5
    0x100009498:            e0 5b a9 07  ldx       [%sp + 0x907], %l0
    0x10000949c:            92 07 7b 38  add       %i5, -0x4c8, %o1
    0x1000094a0:            40 04 91 08  call      +0x124420     <0x10012d8c0>
    0x1000094a4:            d0 5c 26 98  ldx       [%l0 + 0x698], %o0
    0x1000094a8:            d4 5d 63 60  ldx       [%l5 + 0x360], %o2
    0x1000094ac:            92 07 7b 60  add       %i5, -0x4a0, %o1
    0x1000094b0:            40 04 91 04  call      +0x124410     <0x10012d8c0>
    0x1000094b4:            d0 5c 26 98  ldx       [%l0 + 0x698], %o0
    0x1000094b8:            d4 5f 27 00  ldx       [%i4 + 0x700], %o2
    0x1000094bc:            92 07 7b 90  add       %i5, -0x470, %o1
    0x1000094c0:            40 04 91 00  call      +0x124400     <0x10012d8c0>
    0x1000094c4:            d0 5c 26 98  ldx       [%l0 + 0x698], %o0
    0x1000094c8:            f8 5b a8 df  ldx       [%sp + 0x8df], %i4
    0x1000094cc:            92 07 7b b8  add       %i5, -0x448, %o1
    0x1000094d0:            d4 5f 23 18  ldx       [%i4 + 0x318], %o2
    0x1000094d4:            40 04 90 fb  call      +0x1243ec     <0x10012d8c0>
    0x1000094d8:            d0 5c 26 98  ldx       [%l0 + 0x698], %o0
    0x1000094dc:            d4 5e a1 d0  ldx       [%i2 + 0x1d0], %o2
    0x1000094e0:            92 07 7b e0  add       %i5, -0x420, %o1
    0x1000094e4:            40 04 90 f7  call      +0x1243dc     <0x10012d8c0>
    0x1000094e8:            d0 5c 26 98  ldx       [%l0 + 0x698], %o0
    0x1000094ec:            d4 5e e2 e0  ldx       [%i3 + 0x2e0], %o2
    0x1000094f0:            92 07 7c 08  add       %i5, -0x3f8, %o1
    0x1000094f4:            40 04 90 f3  call      +0x1243cc     <0x10012d8c0>
    0x1000094f8:            d0 5c 26 98  ldx       [%l0 + 0x698], %o0
    0x1000094fc:            d8 5b a8 e7  ldx       [%sp + 0x8e7], %o4
    0x100009500:            92 07 7c 30  add       %i5, -0x3d0, %o1
    0x100009504:            d4 5b 21 c0  ldx       [%o4 + 0x1c0], %o2
    0x100009508:            40 04 90 ee  call      +0x1243b8     <0x10012d8c0>
    0x10000950c:            d0 5c 26 98  ldx       [%l0 + 0x698], %o0
    0x100009510:            d6 5b a8 f7  ldx       [%sp + 0x8f7], %o3
    0x100009514:            92 07 7c 58  add       %i5, -0x3a8, %o1
    0x100009518:            d4 5a e1 b8  ldx       [%o3 + 0x1b8], %o2
    0x10000951c:            40 04 90 e9  call      +0x1243a4     <0x10012d8c0>
    0x100009520:            d0 5c 26 98  ldx       [%l0 + 0x698], %o0
    0x100009524:            d4 5d e7 08  ldx       [%l7 + 0x708], %o2
    0x100009528:            92 07 7c 80  add       %i5, -0x380, %o1
    0x10000952c:            40 04 90 e5  call      +0x124394     <0x10012d8c0>
    0x100009530:            d0 5c 26 98  ldx       [%l0 + 0x698], %o0
    0x100009534:            40 04 90 93  call      +0x12424c     <0x10012d780>
    0x100009538:            d0 5c 26 98  ldx       [%l0 + 0x698], %o0
    0x10000953c:            e8 5f 23 18  ldx       [%i4 + 0x318], %l4
    0x100009540:            3b 00 04 00  sethi     %hi(0x100000), %i5
    0x100009544:            40 04 90 9f  call      +0x12427c     <0x10012d7c0>
    0x100009548:            91 2d 30 03  sllx      %l4, 0x3, %o0
    0x10000954c:            f8 5f 23 18  ldx       [%i4 + 0x318], %i4
    0x100009550:            92 17 61 2f  or        %i5, 0x12f, %o1
    0x100009554:            a9 2a 70 0c  sllx      %o1, 0xc, %l4
    0x100009558:            04 c7 00 0f  brlez,pn  %i4, +0x3c    <0x100009594>
    0x10000955c:            d0 75 23 08  stx       %o0, [%l4 + 0x308]
    0x100009560:            b6 10 20 00  clr       %i3
    0x100009564:            a0 10 20 00  clr       %l0
    0x100009568:            90 10 20 30  mov       0x30, %o0
    0x10000956c:            40 04 90 95  call      +0x124254     <0x10012d7c0>
    0x100009570:            b6 06 e0 01  add       %i3, 0x1, %i3
    0x100009574:            da 5b a8 df  ldx       [%sp + 0x8df], %o5
    0x100009578:            ee 5d 23 08  ldx       [%l4 + 0x308], %l7
    0x10000957c:            f8 5b 63 18  ldx       [%o5 + 0x318], %i4
    0x100009580:            d0 75 c0 10  stx       %o0, [%l7 + %l0]
    0x100009584:            a0 04 20 08  add       %l0, 0x8, %l0
    0x100009588:            80 a6 c0 1c  cmp       %i3, %i4
    0x10000958c:            06 6f ff f8  bl,pt     %xcc, -0x20   <0x10000956c>
    0x100009590:            90 10 20 30  mov       0x30, %o0
    0x100009594:            f8 73 a9 67  stx       %i4, [%sp + 0x967]
    0x100009598:            d5 1b a9 67  ldd       [%sp + 0x967], %d10
    0x10000959c:            c5 1d a0 10  ldd       [%l6 + 0x10], %d2
    0x1000095a0:            a4 10 20 00  clr       %l2
    0x1000095a4:            81 a0 11 0a  fxtod     %d10, %d0
    0x1000095a8:            40 00 04 0e  call      +0x1038       <0x10000a5e0>
    0x1000095ac:            ae 10 20 00  clr       %l7
    0x1000095b0:            d9 1d a0 18  ldd       [%l6 + 0x18], %d12
    0x1000095b4:            9d a0 08 4c  faddd     %d0, %d12, %d14
    0x1000095b8:            a1 a0 10 4e  fdtox     %d14, %d16
    0x1000095bc:            e1 3b a9 5f  std       %d16, [%sp + 0x95f]
    0x1000095c0:            ea 5b a9 5f  ldx       [%sp + 0x95f], %l5
    0x1000095c4:            80 a5 60 01  cmp       %l5, 0x1
    0x1000095c8:            b4 10 00 15  mov       %l5, %i2
    0x1000095cc:            26 68 00 02  bl,a,pt   %xcc, +0x8    <0x1000095d4>
    0x1000095d0:            b4 10 20 01  mov       0x1, %i2
    0x1000095d4:            04 c6 80 2c  brlez,pn  %i2, +0xb0    <0x100009684>
    0x1000095d8:            96 10 00 10  mov       %l0, %o3
    0x1000095dc:            2a c4 80 27  brnz,a,pn %l2, +0x9c    <0x100009678>
    0x1000095e0:            b4 06 bf ff  add       %i2, -0x1, %i2
    0x1000095e4:            97 6f 00 1a  sdivx     %i4, %i2, %o3
    0x1000095e8:            d6 73 a9 67  stx       %o3, [%sp + 0x967]
    0x1000095ec:            c9 1b a9 67  ldd       [%sp + 0x967], %d4
    0x1000095f0:            89 a0 11 04  fxtod     %d4, %d4
    0x1000095f4:            8d a0 05 44  fsqrtd    %d4, %d6
    0x1000095f8:            91 a0 10 46  fdtox     %d6, %d8
    0x1000095fc:            d1 3b a9 3f  std       %d8, [%sp + 0x93f]
    0x100009600:            ec 5b a9 3f  ldx       [%sp + 0x93f], %l6
    0x100009604:            80 a5 a0 01  cmp       %l6, 0x1
    0x100009608:            82 10 00 16  mov       %l6, %g1
    0x10000960c:            26 68 00 02  bl,a,pt   %xcc, +0x8    <0x100009614>
    0x100009610:            82 10 20 01  mov       0x1, %g1
    0x100009614:            04 c0 40 18  brlez,pn  %g1, +0x60    <0x100009674>
    0x100009618:            b0 48 40 1a  mulx      %g1, %i2, %i0
    0x10000961c:            8b 6f 00 18  sdivx     %i4, %i0, %g5
    0x100009620:            9a 10 00 18  mov       %i0, %o5
    0x100009624:            b2 49 40 18  mulx      %g5, %i0, %i1
    0x100009628:            80 a6 40 1c  cmp       %i1, %i4
    0x10000962c:            32 60 00 0a  bne,a,pn  %xcc, +0x28   <0x100009654>
    0x100009630:            9a 23 40 1a  sub       %o5, %i2, %o5
    0x100009634:            a0 10 00 05  mov       %g5, %l0
    0x100009638:            a4 10 00 01  mov       %g1, %l2
    0x10000963c:            0a c0 40 0a  brnz,pn   %g1, +0x28    <0x100009664>
    0x100009640:            ae 10 00 1a  mov       %i2, %l7
    0x100009644:            82 00 7f ff  add       %g1, -0x1, %g1
    0x100009648:            9a 23 40 1a  sub       %o5, %i2, %o5
    0x10000964c:            10 80 00 04  ba        +0x10         <0x10000965c>
    0x100009650:            b0 48 40 1a  mulx      %g1, %i2, %i0
    0x100009654:            82 00 7f ff  add       %g1, -0x1, %g1
    0x100009658:            b0 48 40 1a  mulx      %g1, %i2, %i0
    0x10000965c:            2c f8 7f f2  brgz,a,pt %g1, -0x38    <0x100009624>
    0x100009660:            8b 6f 00 0d  sdivx     %i4, %o5, %g5
    0x100009664:            0a c5 c0 08  brnz,pn   %l7, +0x20    <0x100009684>
    0x100009668:            96 10 00 10  mov       %l0, %o3
    0x10000966c:            10 80 00 03  ba        +0xc          <0x100009678>
    0x100009670:            b4 06 bf ff  add       %i2, -0x1, %i2
    0x100009674:            b4 06 bf ff  add       %i2, -0x1, %i2
    0x100009678:            0c fe bf d9  brgz,pt   %i2, -0x9c    <0x1000095dc>
    0x10000967c:            01 00 00 00  nop
    0x100009680:            96 10 00 10  mov       %l0, %o3
    0x100009684:            f0 5b a8 d7  ldx       [%sp + 0x8d7], %i0
    0x100009688:            94 10 00 12  mov       %l2, %o2
    0x10000968c:            92 10 00 17  mov       %l7, %o1
    0x100009690:            40 04 90 34  call      +0x1240d0     <0x10012d760>
    0x100009694:            90 06 3c a8  add       %i0, -0x358, %o0
    0x100009698:            40 04 90 3a  call      +0x1240e8     <0x10012d780>
    0x10000969c:            90 10 00 13  mov       %l3, %o0
    0x1000096a0:            c4 5c 63 20  ldx       [%l1 + 0x320], %g2
    0x1000096a4:            90 06 3c d0  add       %i0, -0x330, %o0
    0x1000096a8:            ab 68 80 17  sdivx     %g2, %l7, %l5
    0x1000096ac:            bb 68 80 10  sdivx     %g2, %l0, %i5
    0x1000096b0:            b9 68 80 12  sdivx     %g2, %l2, %i4
    0x1000096b4:            8a 4d c0 15  mulx      %l7, %l5, %g5
    0x1000096b8:            86 4c 00 1d  mulx      %l0, %i5, %g3
    0x1000096bc:            88 4c 80 1c  mulx      %l2, %i4, %g4
    0x1000096c0:            ac 20 80 05  sub       %g2, %g5, %l6
    0x1000096c4:            b6 20 80 03  sub       %g2, %g3, %i3
    0x1000096c8:            b4 20 80 04  sub       %g2, %g4, %i2
    0x1000096cc:            96 10 00 1d  mov       %i5, %o3
    0x1000096d0:            94 10 00 1c  mov       %i4, %o2
    0x1000096d4:            ec 73 a9 17  stx       %l6, [%sp + 0x917]
    0x1000096d8:            40 04 90 22  call      +0x124088     <0x10012d760>
    0x1000096dc:            92 10 00 15  mov       %l5, %o1
    0x1000096e0:            90 06 3c f8  add       %i0, -0x308, %o0
    0x1000096e4:            96 10 00 1b  mov       %i3, %o3
    0x1000096e8:            94 10 00 1a  mov       %i2, %o2
    0x1000096ec:            40 04 90 1d  call      +0x124074     <0x10012d760>
    0x1000096f0:            92 10 00 16  mov       %l6, %o1
    0x1000096f4:            40 04 90 23  call      +0x12408c     <0x10012d780>
    0x1000096f8:            90 10 00 13  mov       %l3, %o0
    0x1000096fc:            04 c5 c0 59  brlez,pn  %l7, +0x164   <0x100009860>
    0x100009700:            b2 05 ff ff  add       %l7, -0x1, %i1
    0x100009704:            84 05 60 01  add       %l5, 0x1, %g2
    0x100009708:            8a 10 3f ff  mov       -0x1, %g5
    0x10000970c:            9a 10 20 00  clr       %o5
    0x100009710:            a6 10 20 00  clr       %l3
    0x100009714:            c6 5d 23 08  ldx       [%l4 + 0x308], %g3
    0x100009718:            88 04 bf ff  add       %l2, -0x1, %g4
    0x10000971c:            f2 73 a9 27  stx       %i1, [%sp + 0x927]
    0x100009720:            90 04 3f ff  add       %l0, -0x1, %o0
    0x100009724:            c0 73 a9 1f  clrx      [%sp + 0x91f]
    0x100009728:            b8 07 20 01  add       %i4, 0x1, %i4
    0x10000972c:            92 00 bf ff  add       %g2, -0x1, %o1
    0x100009730:            d6 5b a9 17  ldx       [%sp + 0x917], %o3
    0x100009734:            d4 5b a9 1f  ldx       [%sp + 0x91f], %o2
    0x100009738:            98 22 c0 0a  sub       %o3, %o2, %o4
    0x10000973c:            85 7b 04 09  movre     %o4, %o1, %g2
    0x100009740:            04 c4 80 40  brlez,pn  %l2, +0x100   <0x100009840>
    0x100009744:            8a 01 40 02  add       %g5, %g2, %g5
    0x100009748:            98 10 20 00  clr       %o4
    0x10000974c:            94 10 3f ff  mov       -0x1, %o2
    0x100009750:            9e 10 20 00  clr       %o7
    0x100009754:            ba 07 60 01  add       %i5, 0x1, %i5
    0x100009758:            ac 07 3f ff  add       %i4, -0x1, %l6
    0x10000975c:            ae 26 80 0c  sub       %i2, %o4, %l7
    0x100009760:            b9 7d c4 16  movre     %l7, %l6, %i4
    0x100009764:            04 c4 00 32  brlez,pn  %l0, +0xc8    <0x10000982c>
    0x100009768:            94 02 80 1c  add       %o2, %i4, %o2
    0x10000976c:            ab 2c f0 03  sllx      %l3, 0x3, %l5
    0x100009770:            82 05 40 03  add       %l5, %g3, %g1
    0x100009774:            a6 02 00 13  add       %o0, %l3, %l3
    0x100009778:            a6 04 e0 01  add       %l3, 0x1, %l3
    0x10000977c:            92 10 20 00  clr       %o1
    0x100009780:            ae 10 3f ff  mov       -0x1, %l7
    0x100009784:            aa 10 20 00  clr       %l5
    0x100009788:            e8 58 60 00  ldx       [%g1], %l4
    0x10000978c:            ac 10 00 1b  mov       %i3, %l6
    0x100009790:            b2 07 7f ff  add       %i5, -0x1, %i1
    0x100009794:            bb 7d 84 19  movre     %l6, %i1, %i5
    0x100009798:            92 02 60 01  add       %o1, 0x1, %o1
    0x10000979c:            da 75 20 00  stx       %o5, [%l4]
    0x1000097a0:            b0 10 00 05  mov       %g5, %i0
    0x1000097a4:            e8 5c 63 20  ldx       [%l1 + 0x320], %l4
    0x1000097a8:            d6 58 60 00  ldx       [%g1], %o3
    0x1000097ac:            b2 05 3f ff  add       %l4, -0x1, %i1
    0x1000097b0:            80 a1 40 19  cmp       %g5, %i1
    0x1000097b4:            04 60 00 03  ble,pn    %xcc, +0xc    <0x1000097c0>
    0x1000097b8:            ae 05 c0 1d  add       %l7, %i5, %l7
    0x1000097bc:            b0 10 00 19  mov       %i1, %i0
    0x1000097c0:            f0 72 e0 08  stx       %i0, [%o3 + 0x8]
    0x1000097c4:            e8 58 60 00  ldx       [%g1], %l4
    0x1000097c8:            b0 10 00 0a  mov       %o2, %i0
    0x1000097cc:            ac 25 a0 01  sub       %l6, 0x1, %l6
    0x1000097d0:            de 75 20 10  stx       %o7, [%l4 + 0x10]
    0x1000097d4:            d6 5c 63 20  ldx       [%l1 + 0x320], %o3
    0x1000097d8:            e8 58 60 00  ldx       [%g1], %l4
    0x1000097dc:            b2 02 ff ff  add       %o3, -0x1, %i1
    0x1000097e0:            80 a2 80 19  cmp       %o2, %i1
    0x1000097e4:            34 68 00 02  bg,a,pt   %xcc, +0x8    <0x1000097ec>
    0x1000097e8:            b0 10 00 19  mov       %i1, %i0
    0x1000097ec:            f0 75 20 18  stx       %i0, [%l4 + 0x18]
    0x1000097f0:            d6 58 60 00  ldx       [%g1], %o3
    0x1000097f4:            ea 72 e0 20  stx       %l5, [%o3 + 0x20]
    0x1000097f8:            aa 05 e0 01  add       %l7, 0x1, %l5
    0x1000097fc:            f2 5c 63 20  ldx       [%l1 + 0x320], %i1
    0x100009800:            96 10 00 17  mov       %l7, %o3
    0x100009804:            e8 58 60 00  ldx       [%g1], %l4
    0x100009808:            b0 06 7f ff  add       %i1, -0x1, %i0
    0x10000980c:            80 a5 c0 18  cmp       %l7, %i0
    0x100009810:            04 60 00 03  ble,pn    %xcc, +0xc    <0x10000981c>
    0x100009814:            80 a2 40 08  cmp       %o1, %o0
    0x100009818:            96 10 00 18  mov       %i0, %o3
    0x10000981c:            d6 75 20 28  stx       %o3, [%l4 + 0x28]
    0x100009820:            82 00 60 08  add       %g1, 0x8, %g1
    0x100009824:            24 6f ff db  ble,a,pt  %xcc, -0x94   <0x100009790>
    0x100009828:            e8 58 60 00  ldx       [%g1], %l4
    0x10000982c:            98 03 20 01  add       %o4, 0x1, %o4
    0x100009830:            80 a3 00 04  cmp       %o4, %g4
    0x100009834:            9e 02 a0 01  add       %o2, 0x1, %o7
    0x100009838:            24 6f ff c8  ble,a,pt  %xcc, -0xe0   <0x100009758>
    0x10000983c:            ba 07 60 01  add       %i5, 0x1, %i5
    0x100009840:            de 5b a9 1f  ldx       [%sp + 0x91f], %o7
    0x100009844:            da 5b a9 27  ldx       [%sp + 0x927], %o5
    0x100009848:            98 03 e0 01  add       %o7, 0x1, %o4
    0x10000984c:            80 a3 00 0d  cmp       %o4, %o5
    0x100009850:            9a 01 60 01  add       %g5, 0x1, %o5
    0x100009854:            d8 73 a9 1f  stx       %o4, [%sp + 0x91f]
    0x100009858:            04 6f ff b5  ble,pt    %xcc, -0x12c  <0x10000972c>
    0x10000985c:            b8 07 20 01  add       %i4, 0x1, %i4
    0x100009860:            e4 5b a8 df  ldx       [%sp + 0x8df], %l2
    0x100009864:            37 00 04 00  sethi     %hi(0x100000), %i3
    0x100009868:            b8 16 e1 2f  or        %i3, 0x12f, %i4
    0x10000986c:            f4 5c a3 18  ldx       [%l2 + 0x318], %i2
    0x100009870:            40 04 8f d4  call      +0x123f50     <0x10012d7c0>
    0x100009874:            91 2e b0 03  sllx      %i2, 0x3, %o0
    0x100009878:            e0 5c a3 18  ldx       [%l2 + 0x318], %l0
    0x10000987c:            bb 2f 30 0c  sllx      %i4, 0xc, %i5
    0x100009880:            04 c4 00 1c  brlez,pn  %l0, +0x70    <0x1000098f0>
    0x100009884:            d0 77 63 28  stx       %o0, [%i5 + 0x328]
    0x100009888:            ac 04 20 00  add       %l0, 0x0, %l6
    0x10000988c:            80 a5 a0 04  cmp       %l6, 0x4
    0x100009890:            a0 04 3f ff  add       %l0, -0x1, %l0
    0x100009894:            94 10 20 00  clr       %o2
    0x100009898:            a4 10 00 08  mov       %o0, %l2
    0x10000989c:            06 60 00 0f  bl,pn     %xcc, +0x3c   <0x1000098d8>
    0x1000098a0:            01 00 00 00  nop
    0x1000098a4:            a6 24 20 03  sub       %l0, 0x3, %l3
    0x1000098a8:            ed 6c a1 10  prefetch  [%l2 + 0x110], #n_writes_strong
    0x1000098ac:            c0 74 a0 00  clrx      [%l2]
    0x1000098b0:            94 02 a0 04  add       %o2, 0x4, %o2
    0x1000098b4:            a4 04 a0 20  add       %l2, 0x20, %l2
    0x1000098b8:            c0 74 bf e8  clrx      [%l2 - 0x18]
    0x1000098bc:            80 a2 80 13  cmp       %o2, %l3
    0x1000098c0:            c0 74 bf f0  clrx      [%l2 - 0x10]
    0x1000098c4:            04 6f ff f9  ble,pt    %xcc, -0x1c   <0x1000098a8>
    0x1000098c8:            c0 74 bf f8  clrx      [%l2 - 0x8]
    0x1000098cc:            80 a2 80 10  cmp       %o2, %l0
    0x1000098d0:            14 60 00 08  bg,pn     %xcc, +0x20   <0x1000098f0>
    0x1000098d4:            01 00 00 00  nop
    0x1000098d8:            94 02 a0 01  add       %o2, 0x1, %o2
    0x1000098dc:            80 a2 80 10  cmp       %o2, %l0
    0x1000098e0:            c0 74 a0 00  clrx      [%l2]
    0x1000098e4:            a4 04 a0 08  add       %l2, 0x8, %l2
    0x1000098e8:            04 6f ff fd  ble,pt    %xcc, -0xc    <0x1000098dc>
    0x1000098ec:            94 02 a0 01  add       %o2, 0x1, %o2
    0x1000098f0:            e4 5a 20 00  ldx       [%o0], %l2
    0x1000098f4:            22 c4 80 0c  brz,a,pn  %l2, +0x30    <0x100009924>
    0x1000098f8:            c6 5c 63 20  ldx       [%l1 + 0x320], %g3
    0x1000098fc:            e4 5c a0 18  ldx       [%l2 + 0x18], %l2
    0x100009900:            22 c4 80 09  brz,a,pn  %l2, +0x24    <0x100009924>
    0x100009904:            c6 5c 63 20  ldx       [%l1 + 0x320], %g3
    0x100009908:            e4 5c a0 18  ldx       [%l2 + 0x18], %l2
    0x10000990c:            22 c4 80 06  brz,a,pn  %l2, +0x18    <0x100009924>
    0x100009910:            c6 5c 63 20  ldx       [%l1 + 0x320], %g3
    0x100009914:            e4 5c a0 18  ldx       [%l2 + 0x18], %l2
    0x100009918:            2a fc bf fa  brnz,a,pt %l2, -0x18    <0x100009900>
    0x10000991c:            e4 5c a0 18  ldx       [%l2 + 0x18], %l2
    0x100009920:            c6 5c 63 20  ldx       [%l1 + 0x320], %g3
    0x100009924:            40 04 8f a7  call      +0x123e9c     <0x10012d7c0>
    0x100009928:            91 28 f0 03  sllx      %g3, 0x3, %o0
    0x10000992c:            d4 5c 63 20  ldx       [%l1 + 0x320], %o2
    0x100009930:            09 00 04 00  sethi     %hi(0x100000), %g4
    0x100009934:            84 11 21 2e  or        %g4, 0x12e, %g2
    0x100009938:            bb 28 b0 0c  sllx      %g2, 0xc, %i5
    0x10000993c:            04 c2 80 32  brlez,pn  %o2, +0xc8    <0x100009a04>
    0x100009940:            d0 77 62 b0  stx       %o0, [%i5 + 0x2b0]
    0x100009944:            b8 10 20 00  clr       %i4
    0x100009948:            a0 10 20 00  clr       %l0
    0x10000994c:            91 2a b0 03  sllx      %o2, 0x3, %o0
    0x100009950:            40 04 8f 9c  call      +0x123e70     <0x10012d7c0>
    0x100009954:            01 00 00 00  nop
    0x100009958:            de 5f 62 b0  ldx       [%i5 + 0x2b0], %o7
    0x10000995c:            d4 5c 63 20  ldx       [%l1 + 0x320], %o2
    0x100009960:            04 c2 80 24  brlez,pn  %o2, +0x90    <0x1000099f0>
    0x100009964:            d0 73 c0 10  stx       %o0, [%o7 + %l0]
    0x100009968:            b6 10 20 00  clr       %i3
    0x10000996c:            ae 10 20 00  clr       %l7
    0x100009970:            91 2a b0 05  sllx      %o2, 0x5, %o0
    0x100009974:            40 04 8f 93  call      +0x123e4c     <0x10012d7c0>
    0x100009978:            01 00 00 00  nop
    0x10000997c:            d2 5f 62 b0  ldx       [%i5 + 0x2b0], %o1
    0x100009980:            d4 5c 63 20  ldx       [%l1 + 0x320], %o2
    0x100009984:            d8 5a 40 10  ldx       [%o1 + %l0], %o4
    0x100009988:            04 c2 80 15  brlez,pn  %o2, +0x54    <0x1000099dc>
    0x10000998c:            d0 73 00 17  stx       %o0, [%o4 + %l7]
    0x100009990:            b4 10 20 00  clr       %i2
    0x100009994:            da 5f 62 b0  ldx       [%i5 + 0x2b0], %o5
    0x100009998:            aa 10 20 00  clr       %l5
    0x10000999c:            d0 5b 40 10  ldx       [%o5 + %l0], %o0
    0x1000099a0:            92 10 20 00  clr       %o1
    0x1000099a4:            b4 06 a0 01  add       %i2, 0x1, %i2
    0x1000099a8:            d6 5a 00 17  ldx       [%o0 + %l7], %o3
    0x1000099ac:            a6 05 60 08  add       %l5, 0x8, %l3
    0x1000099b0:            c0 72 c0 15  clrx      [%o3 + %l5]
    0x1000099b4:            ec 5f 62 b0  ldx       [%i5 + 0x2b0], %l6
    0x1000099b8:            aa 05 60 20  add       %l5, 0x20, %l5
    0x1000099bc:            c2 5d 80 10  ldx       [%l6 + %l0], %g1
    0x1000099c0:            e8 58 40 17  ldx       [%g1 + %l7], %l4
    0x1000099c4:            40 04 8f d7  call      +0x123f5c     <0x10012d920>
    0x1000099c8:            90 04 c0 14  add       %l3, %l4, %o0
    0x1000099cc:            d4 5c 63 20  ldx       [%l1 + 0x320], %o2
    0x1000099d0:            80 a6 80 0a  cmp       %i2, %o2
    0x1000099d4:            26 6f ff f2  bl,a,pt   %xcc, -0x38   <0x10000999c>
    0x1000099d8:            da 5f 62 b0  ldx       [%i5 + 0x2b0], %o5
    0x1000099dc:            b6 06 e0 01  add       %i3, 0x1, %i3
    0x1000099e0:            80 a6 c0 0a  cmp       %i3, %o2
    0x1000099e4:            ae 05 e0 08  add       %l7, 0x8, %l7
    0x1000099e8:            06 6f ff e3  bl,pt     %xcc, -0x74   <0x100009974>
    0x1000099ec:            91 2a b0 05  sllx      %o2, 0x5, %o0
    0x1000099f0:            b8 07 20 01  add       %i4, 0x1, %i4
    0x1000099f4:            80 a7 00 0a  cmp       %i4, %o2
    0x1000099f8:            a0 04 20 08  add       %l0, 0x8, %l0
    0x1000099fc:            06 6f ff d5  bl,pt     %xcc, -0xac   <0x100009950>
    0x100009a00:            91 2a b0 03  sllx      %o2, 0x3, %o0
    0x100009a04:            33 00 04 00  sethi     %hi(0x100000), %i1
    0x100009a08:            40 04 8f 6e  call      +0x123db8     <0x10012d7c0>
    0x100009a0c:            90 10 21 d0  mov       0x1d0, %o0
    0x100009a10:            8a 16 61 2e  or        %i1, 0x12e, %g5
    0x100009a14:            b3 29 70 0c  sllx      %g5, 0xc, %i1
    0x100009a18:            92 10 20 00  clr       %o1
    0x100009a1c:            d0 76 62 88  stx       %o0, [%i1 + 0x288]
    0x100009a20:            40 04 8f c0  call      +0x123f00     <0x10012d920>
    0x100009a24:            90 02 20 90  add       %o0, 0x90, %o0
    0x100009a28:            0a c2 00 d9  brnz,pn   %o0, +0x364   <0x100009d8c>
    0x100009a2c:            e2 5e 62 88  ldx       [%i1 + 0x288], %l1
    0x100009a30:            92 10 20 00  clr       %o1
    0x100009a34:            40 04 8f c3  call      +0x123f0c     <0x10012d940>
    0x100009a38:            90 04 60 a8  add       %l1, 0xa8, %o0
    0x100009a3c:            0a c2 00 dd  brnz,pn   %o0, +0x374   <0x100009db0>
    0x100009a40:            c4 5e 62 88  ldx       [%i1 + 0x288], %g2
    0x100009a44:            92 10 20 00  clr       %o1
    0x100009a48:            c0 70 a0 b8  clrx      [%g2 + 0xb8]
    0x100009a4c:            90 00 a0 c8  add       %g2, 0xc8, %o0
    0x100009a50:            40 04 8f b4  call      +0x123ed0     <0x10012d920>
    0x100009a54:            c0 70 a0 c0  clrx      [%g2 + 0xc0]
    0x100009a58:            0a c2 00 e3  brnz,pn   %o0, +0x38c   <0x100009de4>
    0x100009a5c:            f4 5e 62 88  ldx       [%i1 + 0x288], %i2
    0x100009a60:            92 10 20 00  clr       %o1
    0x100009a64:            40 04 8f b7  call      +0x123edc     <0x10012d940>
    0x100009a68:            90 06 a0 e0  add       %i2, 0xe0, %o0
    0x100009a6c:            0a c2 00 e7  brnz,pn   %o0, +0x39c   <0x100009e08>
    0x100009a70:            e0 5e 62 88  ldx       [%i1 + 0x288], %l0
    0x100009a74:            92 10 20 00  clr       %o1
    0x100009a78:            c0 74 20 f0  clrx      [%l0 + 0xf0]
    0x100009a7c:            90 04 21 00  add       %l0, 0x100, %o0
    0x100009a80:            40 04 8f a8  call      +0x123ea0     <0x10012d920>
    0x100009a84:            c0 74 20 f8  clrx      [%l0 + 0xf8]
    0x100009a88:            0a c2 00 ee  brnz,pn   %o0, +0x3b8   <0x100009e40>
    0x100009a8c:            d6 5e 62 88  ldx       [%i1 + 0x288], %o3
    0x100009a90:            92 10 20 00  clr       %o1
    0x100009a94:            40 04 8f ab  call      +0x123eac     <0x10012d940>
    0x100009a98:            90 02 e1 18  add       %o3, 0x118, %o0
    0x100009a9c:            0a c2 00 f2  brnz,pn   %o0, +0x3c8   <0x100009e64>
    0x100009aa0:            d0 5e 62 88  ldx       [%i1 + 0x288], %o0
    0x100009aa4:            92 10 20 00  clr       %o1
    0x100009aa8:            c0 72 21 28  clrx      [%o0 + 0x128]
    0x100009aac:            40 04 8f 9d  call      +0x123e74     <0x10012d920>
    0x100009ab0:            c0 72 21 30  clrx      [%o0 + 0x130]
    0x100009ab4:            f4 5e 62 88  ldx       [%i1 + 0x288], %i2
    0x100009ab8:            92 10 20 00  clr       %o1
    0x100009abc:            40 04 8f 99  call      +0x123e64     <0x10012d920>
    0x100009ac0:            90 06 a0 18  add       %i2, 0x18, %o0
    0x100009ac4:            ea 5e 62 88  ldx       [%i1 + 0x288], %l5
    0x100009ac8:            92 10 20 00  clr       %o1
    0x100009acc:            40 04 8f 95  call      +0x123e54     <0x10012d920>
    0x100009ad0:            90 05 60 30  add       %l5, 0x30, %o0
    0x100009ad4:            f6 5e 62 88  ldx       [%i1 + 0x288], %i3
    0x100009ad8:            92 10 20 00  clr       %o1
    0x100009adc:            40 04 8f 91  call      +0x123e44     <0x10012d920>
    0x100009ae0:            90 06 e0 48  add       %i3, 0x48, %o0
    0x100009ae4:            ee 5e 62 88  ldx       [%i1 + 0x288], %l7
    0x100009ae8:            92 10 20 00  clr       %o1
    0x100009aec:            40 04 8f 8d  call      +0x123e34     <0x10012d920>
    0x100009af0:            90 05 e0 60  add       %l7, 0x60, %o0
    0x100009af4:            f8 5e 62 88  ldx       [%i1 + 0x288], %i4
    0x100009af8:            92 10 20 00  clr       %o1
    0x100009afc:            40 04 8f 89  call      +0x123e24     <0x10012d920>
    0x100009b00:            90 07 20 78  add       %i4, 0x78, %o0
    0x100009b04:            e8 5b a8 d7  ldx       [%sp + 0x8d7], %l4
    0x100009b08:            ea 5b a9 0f  ldx       [%sp + 0x90f], %l5
    0x100009b0c:            e6 5b a9 07  ldx       [%sp + 0x907], %l3
    0x100009b10:            92 05 3e 18  add       %l4, -0x1e8, %o1
    0x100009b14:            d4 5d 62 80  ldx       [%l5 + 0x280], %o2
    0x100009b18:            40 04 8f 6a  call      +0x123da8     <0x10012d8c0>
    0x100009b1c:            d0 5c e6 98  ldx       [%l3 + 0x698], %o0
    0x100009b20:            40 04 8f 18  call      +0x123c60     <0x10012d780>
    0x100009b24:            d0 5c e6 98  ldx       [%l3 + 0x698], %o0
    0x100009b28:            07 00 04 00  sethi     %hi(0x100000), %g3
    0x100009b2c:            ba 10 e1 2e  or        %g3, 0x12e, %i5
    0x100009b30:            89 2f 70 0c  sllx      %i5, 0xc, %g4
    0x100009b34:            7f ff e7 e5  call      -0x606c       <0x100003ac8>
    0x100009b38:            c0 71 26 f0  clrx      [%g4 + 0x6f0]
    0x100009b3c:            e2 5e 62 88  ldx       [%i1 + 0x288], %l1
    0x100009b40:            de 5b a8 f7  ldx       [%sp + 0x8f7], %o7
    0x100009b44:            84 10 20 01  mov       0x1, %g2
    0x100009b48:            c4 74 61 38  stx       %g2, [%l1 + 0x138]
    0x100009b4c:            c0 74 61 c8  clrx      [%l1 + 0x1c8]
    0x100009b50:            c0 74 61 b0  clrx      [%l1 + 0x1b0]
    0x100009b54:            c0 74 61 98  clrx      [%l1 + 0x198]
    0x100009b58:            d4 5b e1 b8  ldx       [%o7 + 0x1b8], %o2
    0x100009b5c:            04 c2 80 04  brlez,pn  %o2, +0x10    <0x100009b6c>
    0x100009b60:            92 05 3e 48  add       %l4, -0x1b8, %o1
    0x100009b64:            40 04 8f 57  call      +0x123d5c     <0x10012d8c0>
    0x100009b68:            d0 5c e6 98  ldx       [%l3 + 0x698], %o0
    0x100009b6c:            92 10 20 00  clr       %o1
    0x100009b70:            40 04 8f 4c  call      +0x123d30     <0x10012d8a0>
    0x100009b74:            90 07 a7 ef  add       %fp, 0x7ef, %o0
    0x100009b78:            d0 5f a7 ef  ldx       [%fp + 0x7ef], %o0
    0x100009b7c:            e8 5f a7 f7  ldx       [%fp + 0x7f7], %l4
    0x100009b80:            d8 5e 62 88  ldx       [%i1 + 0x288], %o4
    0x100009b84:            8b 2a 30 05  sllx      %o0, 0x5, %g5
    0x100009b88:            9a 22 00 05  sub       %o0, %g5, %o5
    0x100009b8c:            95 2b 70 09  sllx      %o5, 0x9, %o2
    0x100009b90:            a6 22 80 08  sub       %o2, %o0, %l3
    0x100009b94:            97 2c f0 06  sllx      %l3, 0x6, %o3
    0x100009b98:            ac 22 c0 13  sub       %o3, %l3, %l6
    0x100009b9c:            c6 5b a8 df  ldx       [%sp + 0x8df], %g3
    0x100009ba0:            82 22 00 16  sub       %o0, %l6, %g1
    0x100009ba4:            92 05 00 01  add       %l4, %g1, %o1
    0x100009ba8:            d2 73 21 78  stx       %o1, [%o4 + 0x178]
    0x100009bac:            de 58 e3 18  ldx       [%g3 + 0x318], %o7
    0x100009bb0:            a0 03 ff ff  add       %o7, -0x1, %l0
    0x100009bb4:            80 a0 00 10  cmp       %g0, %l0
    0x100009bb8:            16 60 00 19  bge,pn    %xcc, +0x64   <0x100009c1c>
    0x100009bbc:            21 00 04 00  sethi     %hi(0x100000), %l0
    0x100009bc0:            27 00 04 00  sethi     %hi(0x100000), %l3
    0x100009bc4:            94 14 21 2f  or        %l0, 0x12f, %o2
    0x100009bc8:            aa 14 e0 09  or        %l3, 0x9, %l5
    0x100009bcc:            a5 2a b0 0c  sllx      %o2, 0xc, %l2
    0x100009bd0:            af 2d 70 0c  sllx      %l5, 0xc, %l7
    0x100009bd4:            a4 04 a1 f8  add       %l2, 0x1f8, %l2
    0x100009bd8:            a2 05 ef cc  add       %l7, 0xfcc, %l1
    0x100009bdc:            b0 10 20 00  clr       %i0
    0x100009be0:            96 10 20 00  clr       %o3
    0x100009be4:            94 10 00 11  mov       %l1, %o2
    0x100009be8:            92 10 20 00  clr       %o1
    0x100009bec:            40 04 8f 5d  call      +0x123d74     <0x10012d960>
    0x100009bf0:            90 10 00 12  mov       %l2, %o0
    0x100009bf4:            80 90 00 08  tst       %o0
    0x100009bf8:            12 40 00 a8  bne,pn    %icc, +0x2a0  <0x100009e98>
    0x100009bfc:            a4 04 a0 04  add       %l2, 0x4, %l2
    0x100009c00:            b0 06 20 01  add       %i0, 0x1, %i0
    0x100009c04:            c8 5b a8 df  ldx       [%sp + 0x8df], %g4
    0x100009c08:            f8 59 23 18  ldx       [%g4 + 0x318], %i4
    0x100009c0c:            86 07 3f ff  add       %i4, -0x1, %g3
    0x100009c10:            80 a6 00 03  cmp       %i0, %g3
    0x100009c14:            06 6f ff f4  bl,pt     %xcc, -0x30   <0x100009be4>
    0x100009c18:            96 10 20 00  clr       %o3
    0x100009c1c:            f0 5e 62 88  ldx       [%i1 + 0x288], %i0
    0x100009c20:            40 04 8e b0  call      +0x123ac0     <0x10012d6e0>
    0x100009c24:            90 06 20 18  add       %i0, 0x18, %o0
    0x100009c28:            e6 5e 62 88  ldx       [%i1 + 0x288], %l3
    0x100009c2c:            e8 5c e1 38  ldx       [%l3 + 0x138], %l4
    0x100009c30:            90 04 e0 18  add       %l3, 0x18, %o0
    0x100009c34:            96 05 20 01  add       %l4, 0x1, %o3
    0x100009c38:            40 04 8e b2  call      +0x123ac8     <0x10012d700>
    0x100009c3c:            d6 74 e1 38  stx       %o3, [%l3 + 0x138]
    0x100009c40:            d0 5b a8 df  ldx       [%sp + 0x8df], %o0
    0x100009c44:            c2 5a 23 18  ldx       [%o0 + 0x318], %g1
    0x100009c48:            ac 20 60 01  sub       %g1, 0x1, %l6
    0x100009c4c:            80 88 40 16  btst      %l6, %g1
    0x100009c50:            12 60 00 0c  bne,pn    %xcc, +0x30   <0x100009c80>
    0x100009c54:            01 00 00 00  nop
    0x100009c58:            02 c0 40 0a  brz,pn    %g1, +0x28    <0x100009c80>
    0x100009c5c:            91 3d 30 3f  srax      %l4, 0x3f, %o0
    0x100009c60:            a8 1d 00 08  xor       %l4, %o0, %l4
    0x100009c64:            ba 25 00 08  sub       %l4, %o0, %i5
    0x100009c68:            a2 8f 40 16  andcc     %i5, %l6, %l1
    0x100009c6c:            8a 1c 40 08  xor       %l1, %o0, %g5
    0x100009c70:            92 21 40 08  sub       %g5, %o0, %o1
    0x100009c74:            a3 66 50 09  movne     %xcc, %o1, %l1
    0x100009c78:            10 80 00 06  ba        +0x18         <0x100009c90>
    0x100009c7c:            f6 5b a8 ff  ldx       [%sp + 0x8ff], %i3
    0x100009c80:            b7 6d 00 01  sdivx     %l4, %g1, %i3
    0x100009c84:            b8 4e c0 01  mulx      %i3, %g1, %i4
    0x100009c88:            f6 5b a8 ff  ldx       [%sp + 0x8ff], %i3
    0x100009c8c:            a2 25 00 1c  sub       %l4, %i4, %l1
    0x100009c90:            ee 5b a8 ef  ldx       [%sp + 0x8ef], %l7
    0x100009c94:            f0 5b a8 f7  ldx       [%sp + 0x8f7], %i0
    0x100009c98:            ec 5b a8 e7  ldx       [%sp + 0x8e7], %l6
    0x100009c9c:            d6 5e e1 b0  ldx       [%i3 + 0x1b0], %o3
    0x100009ca0:            d4 5e 21 b8  ldx       [%i0 + 0x1b8], %o2
    0x100009ca4:            d2 5d e2 e8  ldx       [%l7 + 0x2e8], %o1
    0x100009ca8:            98 10 00 11  mov       %l1, %o4
    0x100009cac:            7f ff f2 99  call      -0x359c       <0x100006710>
    0x100009cb0:            d0 5d a1 c0  ldx       [%l6 + 0x1c0], %o0
    0x100009cb4:            0a c4 40 05  brnz,pn   %l1, +0x14    <0x100009cc8>
    0x100009cb8:            11 00 04 00  sethi     %hi(0x100000), %o0
    0x100009cbc:            9a 12 21 2e  or        %o0, 0x12e, %o5
    0x100009cc0:            95 2b 70 0c  sllx      %o5, 0xc, %o2
    0x100009cc4:            c1 3a a6 90  std       %d0, [%o2 + 0x690]
    0x100009cc8:            d2 5b a8 df  ldx       [%sp + 0x8df], %o1
    0x100009ccc:            e2 5a 63 18  ldx       [%o1 + 0x318], %l1
    0x100009cd0:            a4 04 7f ff  add       %l1, -0x1, %l2
    0x100009cd4:            80 a0 00 12  cmp       %g0, %l2
    0x100009cd8:            1a 60 00 82  bcc,pn    %xcc, +0x208  <0x100009ee0>
    0x100009cdc:            07 00 04 00  sethi     %hi(0x100000), %g3
    0x100009ce0:            84 10 e1 2f  or        %g3, 0x12f, %g2
    0x100009ce4:            99 28 b0 0c  sllx      %g2, 0xc, %o4
    0x100009ce8:            b6 03 21 f8  add       %o4, 0x1f8, %i3
    0x100009cec:            ae 10 20 00  clr       %l7
    0x100009cf0:            aa 10 20 00  clr       %l5
    0x100009cf4:            92 10 20 00  clr       %o1
    0x100009cf8:            40 04 8f 22  call      +0x123c88     <0x10012d980>
    0x100009cfc:            d0 05 40 1b  ld        [%l5 + %i3], %o0
    0x100009d00:            0a c2 00 6f  brnz,pn   %o0, +0x1bc   <0x100009ebc>
    0x100009d04:            ae 05 e0 01  add       %l7, 0x1, %l7
    0x100009d08:            ca 5b a8 df  ldx       [%sp + 0x8df], %g5
    0x100009d0c:            d2 59 63 18  ldx       [%g5 + 0x318], %o1
    0x100009d10:            98 02 7f ff  add       %o1, -0x1, %o4
    0x100009d14:            80 a5 c0 0c  cmp       %l7, %o4
    0x100009d18:            0a 6f ff f7  bcs,pt    %xcc, -0x24   <0x100009cf4>
    0x100009d1c:            ab 2d f0 02  sllx      %l7, 0x2, %l5
    0x100009d20:            10 80 00 71  ba        +0x1c4        <0x100009ee4>
    0x100009d24:            92 10 20 00  clr       %o1
    0x100009d28:            23 00 04 00  sethi     %hi(0x100000), %l1
    0x100009d2c:            a6 14 60 2c  or        %l1, 0x2c, %l3
    0x100009d30:            b9 2c f0 0c  sllx      %l3, 0xc, %i4
    0x100009d34:            40 04 8e 8b  call      +0x123a2c     <0x10012d760>
    0x100009d38:            90 07 2e 78  add       %i4, 0xe78, %o0
    0x100009d3c:            40 04 8e 59  call      +0x123964     <0x10012d6a0>
    0x100009d40:            90 10 20 00  clr       %o0
    0x100009d44:            10 bf fd 51  ba        -0xabc        <0x100009288>
    0x100009d48:            27 00 04 00  sethi     %hi(0x100000), %l3
    0x100009d4c:            19 00 04 00  sethi     %hi(0x100000), %o4
    0x100009d50:            09 00 04 00  sethi     %hi(0x100000), %g4
    0x100009d54:            9e 13 21 2e  or        %o4, 0x12e, %o7
    0x100009d58:            84 11 20 2d  or        %g4, 0x2d, %g2
    0x100009d5c:            87 2b f0 0c  sllx      %o7, 0xc, %g3
    0x100009d60:            a5 28 b0 0c  sllx      %g2, 0xc, %l2
    0x100009d64:            b0 00 e8 50  add       %g3, 0x850, %i0
    0x100009d68:            92 04 a0 78  add       %l2, 0x78, %o1
    0x100009d6c:            40 04 8e d5  call      +0x123b54     <0x10012d8c0>
    0x100009d70:            90 10 00 18  mov       %i0, %o0
    0x100009d74:            40 04 8e 83  call      +0x123a0c     <0x10012d780>
    0x100009d78:            90 10 00 18  mov       %i0, %o0
    0x100009d7c:            40 04 8e 49  call      +0x123924     <0x10012d6a0>
    0x100009d80:            90 10 3f ff  mov       -0x1, %o0
    0x100009d84:            10 bf fd c4  ba        -0x8f0        <0x100009494>
    0x100009d88:            d4 5d 27 48  ldx       [%l4 + 0x748], %o2
    0x100009d8c:            15 00 04 00  sethi     %hi(0x100000), %o2
    0x100009d90:            a4 12 a0 2d  or        %o2, 0x2d, %l2
    0x100009d94:            b1 2c b0 0c  sllx      %l2, 0xc, %i0
    0x100009d98:            40 04 8e 72  call      +0x1239c8     <0x10012d760>
    0x100009d9c:            90 06 22 98  add       %i0, 0x298, %o0
    0x100009da0:            40 04 8e 40  call      +0x123900     <0x10012d6a0>
    0x100009da4:            90 10 3f ff  mov       -0x1, %o0
    0x100009da8:            10 bf ff 22  ba        -0x378        <0x100009a30>
    0x100009dac:            e2 5e 62 88  ldx       [%i1 + 0x288], %l1
    0x100009db0:            39 00 04 00  sethi     %hi(0x100000), %i4
    0x100009db4:            86 17 20 2d  or        %i4, 0x2d, %g3
    0x100009db8:            bb 28 f0 0c  sllx      %g3, 0xc, %i5
    0x100009dbc:            40 04 8e 69  call      +0x1239a4     <0x10012d760>
    0x100009dc0:            90 07 62 c0  add       %i5, 0x2c0, %o0
    0x100009dc4:            c8 5e 62 88  ldx       [%i1 + 0x288], %g4
    0x100009dc8:            40 04 8e f6  call      +0x123bd8     <0x10012d9a0>
    0x100009dcc:            90 01 20 90  add       %g4, 0x90, %o0
    0x100009dd0:            40 04 8e 34  call      +0x1238d0     <0x10012d6a0>
    0x100009dd4:            90 10 3f ff  mov       -0x1, %o0
    0x100009dd8:            c4 5e 62 88  ldx       [%i1 + 0x288], %g2
    0x100009ddc:            10 bf ff 1b  ba        -0x394        <0x100009a48>
    0x100009de0:            92 10 20 00  clr       %o1
    0x100009de4:            2b 00 04 00  sethi     %hi(0x100000), %l5
    0x100009de8:            b6 15 60 2d  or        %l5, 0x2d, %i3
    0x100009dec:            af 2e f0 0c  sllx      %i3, 0xc, %l7
    0x100009df0:            40 04 8e 5c  call      +0x123970     <0x10012d760>
    0x100009df4:            90 05 e2 e8  add       %l7, 0x2e8, %o0
    0x100009df8:            40 04 8e 2a  call      +0x1238a8     <0x10012d6a0>
    0x100009dfc:            90 10 3f ff  mov       -0x1, %o0
    0x100009e00:            10 bf ff 18  ba        -0x3a0        <0x100009a60>
    0x100009e04:            f4 5e 62 88  ldx       [%i1 + 0x288], %i2
    0x100009e08:            29 00 04 00  sethi     %hi(0x100000), %l4
    0x100009e0c:            92 15 20 2d  or        %l4, 0x2d, %o1
    0x100009e10:            99 2a 70 0c  sllx      %o1, 0xc, %o4
    0x100009e14:            40 04 8e 53  call      +0x12394c     <0x10012d760>
    0x100009e18:            90 03 23 10  add       %o4, 0x310, %o0
    0x100009e1c:            de 5e 62 88  ldx       [%i1 + 0x288], %o7
    0x100009e20:            90 03 e0 c8  add       %o7, 0xc8, %o0
    0x100009e24:            40 04 8e df  call      +0x123b7c     <0x10012d9a0>
    0x100009e28:            01 00 00 00  nop
    0x100009e2c:            40 04 8e 1d  call      +0x123874     <0x10012d6a0>
    0x100009e30:            90 10 3f ff  mov       -0x1, %o0
    0x100009e34:            e0 5e 62 88  ldx       [%i1 + 0x288], %l0
    0x100009e38:            10 bf ff 10  ba        -0x3c0        <0x100009a78>
    0x100009e3c:            92 10 20 00  clr       %o1
    0x100009e40:            27 00 04 00  sethi     %hi(0x100000), %l3
    0x100009e44:            ac 14 e0 2d  or        %l3, 0x2d, %l6
    0x100009e48:            83 2d b0 0c  sllx      %l6, 0xc, %g1
    0x100009e4c:            40 04 8e 45  call      +0x123914     <0x10012d760>
    0x100009e50:            90 00 63 38  add       %g1, 0x338, %o0
    0x100009e54:            40 04 8e 13  call      +0x12384c     <0x10012d6a0>
    0x100009e58:            90 10 3f ff  mov       -0x1, %o0
    0x100009e5c:            10 bf ff 0d  ba        -0x3cc        <0x100009a90>
    0x100009e60:            d6 5e 62 88  ldx       [%i1 + 0x288], %o3
    0x100009e64:            25 00 04 00  sethi     %hi(0x100000), %l2
    0x100009e68:            b0 14 a0 2d  or        %l2, 0x2d, %i0
    0x100009e6c:            8b 2e 30 0c  sllx      %i0, 0xc, %g5
    0x100009e70:            40 04 8e 3c  call      +0x1238f0     <0x10012d760>
    0x100009e74:            90 01 63 60  add       %g5, 0x360, %o0
    0x100009e78:            da 5e 62 88  ldx       [%i1 + 0x288], %o5
    0x100009e7c:            40 04 8e c9  call      +0x123b24     <0x10012d9a0>
    0x100009e80:            90 03 61 00  add       %o5, 0x100, %o0
    0x100009e84:            40 04 8e 07  call      +0x12381c     <0x10012d6a0>
    0x100009e88:            90 10 3f ff  mov       -0x1, %o0
    0x100009e8c:            d0 5e 62 88  ldx       [%i1 + 0x288], %o0
    0x100009e90:            10 bf ff 06  ba        -0x3e8        <0x100009aa8>
    0x100009e94:            92 10 20 00  clr       %o1
    0x100009e98:            3b 00 04 00  sethi     %hi(0x100000), %i5
    0x100009e9c:            88 17 60 2d  or        %i5, 0x2d, %g4
    0x100009ea0:            85 29 30 0c  sllx      %g4, 0xc, %g2
    0x100009ea4:            40 04 8e 2f  call      +0x1238bc     <0x10012d760>
    0x100009ea8:            90 00 a3 f0  add       %g2, 0x3f0, %o0
    0x100009eac:            40 04 8d fd  call      +0x1237f4     <0x10012d6a0>
    0x100009eb0:            90 10 3f ff  mov       -0x1, %o0
    0x100009eb4:            10 bf ff 54  ba        -0x2b0        <0x100009c04>
    0x100009eb8:            b0 06 20 01  add       %i0, 0x1, %i0
    0x100009ebc:            1f 00 04 00  sethi     %hi(0x100000), %o7
    0x100009ec0:            a0 13 e0 2d  or        %o7, 0x2d, %l0
    0x100009ec4:            b5 2c 30 0c  sllx      %l0, 0xc, %i2
    0x100009ec8:            40 04 8e 26  call      +0x123898     <0x10012d760>
    0x100009ecc:            90 06 a4 10  add       %i2, 0x410, %o0
    0x100009ed0:            40 04 8d f4  call      +0x1237d0     <0x10012d6a0>
    0x100009ed4:            90 10 3f ff  mov       -0x1, %o0
    0x100009ed8:            10 bf ff 8d  ba        -0x1cc        <0x100009d0c>
    0x100009edc:            ca 5b a8 df  ldx       [%sp + 0x8df], %g5
    0x100009ee0:            92 10 20 00  clr       %o1
    0x100009ee4:            40 04 8e 6f  call      +0x1239bc     <0x10012d8a0>
    0x100009ee8:            90 07 a7 df  add       %fp, 0x7df, %o0
    0x100009eec:            f6 5f a7 df  ldx       [%fp + 0x7df], %i3
    0x100009ef0:            f8 5f a7 e7  ldx       [%fp + 0x7e7], %i4
    0x100009ef4:            fa 5e 62 88  ldx       [%i1 + 0x288], %i5
    0x100009ef8:            93 2e f0 05  sllx      %i3, 0x5, %o1
    0x100009efc:            98 26 c0 09  sub       %i3, %o1, %o4
    0x100009f00:            d2 5f 61 78  ldx       [%i5 + 0x178], %o1
    0x100009f04:            9f 2b 30 09  sllx      %o4, 0x9, %o7
    0x100009f08:            b4 23 c0 1b  sub       %o7, %i3, %i2
    0x100009f0c:            a1 2e b0 06  sllx      %i2, 0x6, %l0
    0x100009f10:            aa 24 00 1a  sub       %l0, %i2, %l5
    0x100009f14:            ae 26 c0 15  sub       %i3, %l5, %l7
    0x100009f18:            86 07 00 17  add       %i4, %l7, %g3
    0x100009f1c:            ee 5b a8 d7  ldx       [%sp + 0x8d7], %l7
    0x100009f20:            90 05 fe c0  add       %l7, -0x140, %o0
    0x100009f24:            40 04 8e 0f  call      +0x12383c     <0x10012d760>
    0x100009f28:            c6 77 61 80  stx       %g3, [%i5 + 0x180]
    0x100009f2c:            c8 5e 62 88  ldx       [%i1 + 0x288], %g4
    0x100009f30:            90 05 fe f0  add       %l7, -0x110, %o0
    0x100009f34:            40 04 8e 0b  call      +0x12382c     <0x10012d760>
    0x100009f38:            d2 59 21 80  ldx       [%g4 + 0x180], %o1
    0x100009f3c:            c4 5e 62 88  ldx       [%i1 + 0x288], %g2
    0x100009f40:            90 05 ff 08  add       %l7, -0xf8, %o0
    0x100009f44:            e2 58 a1 80  ldx       [%g2 + 0x180], %l1
    0x100009f48:            ca 58 a1 78  ldx       [%g2 + 0x178], %g5
    0x100009f4c:            40 04 8e 05  call      +0x123814     <0x10012d760>
    0x100009f50:            92 24 40 05  sub       %l1, %g5, %o1
    0x100009f54:            e4 5e 62 88  ldx       [%i1 + 0x288], %l2
    0x100009f58:            90 05 ff 38  add       %l7, -0xc8, %o0
    0x100009f5c:            40 04 8e 01  call      +0x123804     <0x10012d760>
    0x100009f60:            d2 5c a1 98  ldx       [%l2 + 0x198], %o1
    0x100009f64:            da 5e 62 88  ldx       [%i1 + 0x288], %o5
    0x100009f68:            90 05 ff 68  add       %l7, -0x98, %o0
    0x100009f6c:            40 04 8d fd  call      +0x1237f4     <0x10012d760>
    0x100009f70:            d2 5b 61 b0  ldx       [%o5 + 0x1b0], %o1
    0x100009f74:            d4 5e 62 88  ldx       [%i1 + 0x288], %o2
    0x100009f78:            90 05 ff a0  add       %l7, -0x60, %o0
    0x100009f7c:            40 04 8d f9  call      +0x1237e4     <0x10012d760>
    0x100009f80:            d2 5a a1 c8  ldx       [%o2 + 0x1c8], %o1
    0x100009f84:            f2 5e 62 88  ldx       [%i1 + 0x288], %i1
    0x100009f88:            90 05 ff d8  add       %l7, -0x28, %o0
    0x100009f8c:            f0 5e 61 b0  ldx       [%i1 + 0x1b0], %i0
    0x100009f90:            d6 5e 61 98  ldx       [%i1 + 0x198], %o3
    0x100009f94:            e6 5e 61 c8  ldx       [%i1 + 0x1c8], %l3
    0x100009f98:            ac 22 c0 18  sub       %o3, %i0, %l6
    0x100009f9c:            40 04 8d f1  call      +0x1237c4     <0x10012d760>
    0x100009fa0:            92 25 80 13  sub       %l6, %l3, %o1
    0x100009fa4:            11 00 04 00  sethi     %hi(0x100000), %o0
    0x100009fa8:            82 12 21 2e  or        %o0, 0x12e, %g1
    0x100009fac:            a9 28 70 0c  sllx      %g1, 0xc, %l4
    0x100009fb0:            90 10 00 17  mov       %l7, %o0
    0x100009fb4:            40 04 8d eb  call      +0x1237ac     <0x10012d760>
    0x100009fb8:            d2 5d 26 90  ldx       [%l4 + 0x690], %o1
    0x100009fbc:            40 04 8d b9  call      +0x1236e4     <0x10012d6a0>
    0x100009fc0:            90 10 20 00  clr       %o0
    0x100009fc4:            81 c7 e0 08  ret
    0x100009fc8:            91 e8 20 00  restore   %g0, 0x0, %o0
WorkStart()
    0x100009fcc:            9d e3 bf 50  save      %sp, -0xb0, %sp
    0x100009fd0:            15 00 04 00  sethi     %hi(0x100000), %o2
    0x100009fd4:            92 12 a1 2e  or        %o2, 0x12e, %o1
    0x100009fd8:            b3 2a 70 0c  sllx      %o1, 0xc, %i1
    0x100009fdc:            d0 5e 62 88  ldx       [%i1 + 0x288], %o0
    0x100009fe0:            40 04 8d c0  call      +0x123700     <0x10012d6e0>
    0x100009fe4:            90 02 20 18  add       %o0, 0x18, %o0
    0x100009fe8:            c8 5e 62 88  ldx       [%i1 + 0x288], %g4
    0x100009fec:            f6 59 21 38  ldx       [%g4 + 0x138], %i3
    0x100009ff0:            90 01 20 18  add       %g4, 0x18, %o0
    0x100009ff4:            8a 06 e0 01  add       %i3, 0x1, %g5
    0x100009ff8:            40 04 8d c2  call      +0x123708     <0x10012d700>
    0x100009ffc:            ca 71 21 38  stx       %g5, [%g4 + 0x138]
    0x10000a000:            07 00 04 00  sethi     %hi(0x100000), %g3
    0x10000a004:            84 10 e1 2f  or        %g3, 0x12f, %g2
    0x10000a008:            83 28 b0 0c  sllx      %g2, 0xc, %g1
    0x10000a00c:            fa 58 63 18  ldx       [%g1 + 0x318], %i5
    0x10000a010:            b4 27 60 01  sub       %i5, 0x1, %i2
    0x10000a014:            80 8f 40 1a  btst      %i2, %i5
    0x10000a018:            12 60 00 0c  bne,pn    %xcc, +0x30   <0x10000a048>
    0x10000a01c:            01 00 00 00  nop
    0x10000a020:            02 c7 40 0a  brz,pn    %i5, +0x28    <0x10000a048>
    0x10000a024:            99 3e f0 3f  srax      %i3, 0x3f, %o4
    0x10000a028:            a0 1e c0 0c  xor       %i3, %o4, %l0
    0x10000a02c:            9e 24 00 0c  sub       %l0, %o4, %o7
    0x10000a030:            b8 8b c0 1a  andcc     %o7, %i2, %i4
    0x10000a034:            9a 1f 00 0c  xor       %i4, %o4, %o5
    0x10000a038:            96 23 40 0c  sub       %o5, %o4, %o3
    0x10000a03c:            b9 66 50 0b  movne     %xcc, %o3, %i4
    0x10000a040:            10 80 00 06  ba        +0x18         <0x10000a058>
    0x10000a044:            3b 00 04 00  sethi     %hi(0x100000), %i5
    0x10000a048:            b9 6e c0 1d  sdivx     %i3, %i5, %i4
    0x10000a04c:            a2 4f 00 1d  mulx      %i4, %i5, %l1
    0x10000a050:            b8 26 c0 11  sub       %i3, %l1, %i4
    0x10000a054:            3b 00 04 00  sethi     %hi(0x100000), %i5
    0x10000a058:            33 00 04 00  sethi     %hi(0x100000), %i1
    0x10000a05c:            35 00 04 00  sethi     %hi(0x100000), %i2
    0x10000a060:            ae 16 61 2f  or        %i1, 0x12f, %l7
    0x10000a064:            ba 17 61 2f  or        %i5, 0x12f, %i5
    0x10000a068:            ac 16 a1 2f  or        %i2, 0x12f, %l6
    0x10000a06c:            a9 2d f0 0c  sllx      %l7, 0xc, %l4
    0x10000a070:            37 00 04 00  sethi     %hi(0x100000), %i3
    0x10000a074:            b1 2f 70 0c  sllx      %i5, 0xc, %i0
    0x10000a078:            a7 2d b0 0c  sllx      %l6, 0xc, %l3
    0x10000a07c:            d6 5e 21 b0  ldx       [%i0 + 0x1b0], %o3
    0x10000a080:            d4 5d 21 b8  ldx       [%l4 + 0x1b8], %o2
    0x10000a084:            aa 16 e1 2f  or        %i3, 0x12f, %l5
    0x10000a088:            d2 5c e2 e8  ldx       [%l3 + 0x2e8], %o1
    0x10000a08c:            98 10 00 1c  mov       %i4, %o4
    0x10000a090:            a5 2d 70 0c  sllx      %l5, 0xc, %l2
    0x10000a094:            7f ff f1 9f  call      -0x3984       <0x100006710>
    0x10000a098:            d0 5c a1 c0  ldx       [%l2 + 0x1c0], %o0
    0x10000a09c:            0a c7 00 05  brnz,pn   %i4, +0x14    <0x10000a0b0>
    0x10000a0a0:            2f 00 04 00  sethi     %hi(0x100000), %l7
    0x10000a0a4:            ac 15 e1 2e  or        %l7, 0x12e, %l6
    0x10000a0a8:            b1 2d b0 0c  sllx      %l6, 0xc, %i0
    0x10000a0ac:            c1 3e 26 90  std       %d0, [%i0 + 0x690]
    0x10000a0b0:            81 c7 e0 08  ret
    0x10000a0b4:            81 e8 20 00  restore   %g0, 0x0, %g0
    0x10000a0b8:            00 00 00 00  illtrap   0x0
    0x10000a0bc:            00 00 00 00  illtrap   0x0
    0x10000a0c0:            3f 17 e4 d4  sethi     %hi(0x5f935000), %i7
    0x10000a0c4:            9e c0 b0 d3  addccc    %g2, -0xf2d, %o7
    0x10000a0c8:            40 11 0e 33  call      +0x4438cc     <0x10044d994>
    0x10000a0cc:            59 a1 c3 b5  call      +0x66870ed4   <0x16687afa0>
    0x10000a0d0:            40 2f d6 68  call      +0xbf59a0     <0x100bffa70>
    0x10000a0d4:            87 a3 49 81  0x87a34981
    0x10000a0d8:            40 11 3a f8  call      +0x44ebe0     <0x100458cb8>
    0x10000a0dc:            f5 a3 c0 b7  sta       %f26, [%o7 + %l7] 0x05
    0x10000a0e0:            40 1a aa 76  call      +0x6aa9d8     <0x1006b4ab8>
    0x10000a0e4:            3f ef 62 32  0x3fef6232
    0x10000a0e8:            40 63 ff e0  call      +0x18fff80    <0x10190a068>
    0x10000a0ec:            c8 2c 1a 9a  stb       %g4, [%l0 + %i2]
    0x10000a0f0:            7f e1 cc f3  call      -0x78cc34     <0xff87d4bc>
    0x10000a0f4:            85 eb c8 a0  restore   %o7, %g0, %g2
    0x10000a0f8:            00 07 30 d6  illtrap   0x730d6
    0x10000a0fc:            78 19 e8 d2  call      -0x1f985cb8   <0xe0684444>
    0x10000a100:            3f e0 00 00  0x3fe00000
    0x10000a104:            00 00 00 00  illtrap   0x0
    0x10000a108:            00 00 00 00  illtrap   0x0
    0x10000a10c:            00 00 00 00  illtrap   0x0
    0x10000a110:            00 00 00 00  illtrap   0x0
    0x10000a114:            00 00 00 00  illtrap   0x0
    0x10000a118:            00 00 00 00  illtrap   0x0
    0x10000a11c:            00 00 00 00  illtrap   0x0
exp()
    0x10000a120:            9d e3 bf 40  save      %sp, -0xc0, %sp
    0x10000a124:            c1 23 a8 af  st        %f0, [%sp + 0x8af]
    0x10000a128:            3b 00 00 00  sethi     %hi(0x0), %i5
    0x10000a12c:            39 00 00 00  sethi     %hi(0x0), %i4
    0x10000a130:            c3 23 a8 b3  st        %f1, [%sp + 0x8b3]
    0x10000a134:            ba 17 60 01  or        %i5, 0x1, %i5
    0x10000a138:            b2 17 20 01  or        %i4, 0x1, %i1
    0x10000a13c:            35 00 00 28  sethi     %hi(0xa000), %i2
    0x10000a140:            b1 2f 70 20  sllx      %i5, 0x20, %i0
    0x10000a144:            37 00 00 33  sethi     %hi(0xcc00), %i3
    0x10000a148:            af 2e 70 20  sllx      %i1, 0x20, %l7
    0x10000a14c:            a0 16 00 1a  or        %i0, %i2, %l0
    0x10000a150:            a8 15 c0 1b  or        %l7, %i3, %l4
    0x10000a154:            a2 04 20 d8  add       %l0, 0xd8, %l1
    0x10000a158:            9c 03 a0 00  add       %sp, 0x0, %sp
    0x10000a15c:            9c 03 a0 00  add       %sp, 0x0, %sp
    0x10000a160:            9c 03 a0 00  add       %sp, 0x0, %sp
    0x10000a164:            9c 03 a0 00  add       %sp, 0x0, %sp
    0x10000a168:            c2 03 a8 af  ld        [%sp + 0x8af], %g1
    0x10000a16c:            a7 38 60 14  sra       %g1, 0x14, %l3
    0x10000a170:            ac 04 e0 0b  add       %l3, 0xb, %l6
    0x10000a174:            aa 0d a7 f0  and       %l6, 0x7f0, %l5
    0x10000a178:            80 a5 64 00  cmp       %l5, 0x400
    0x10000a17c:            12 40 00 28  bne,pn    %icc, +0xa0   <0x10000a21c>
    0x10000a180:            b6 05 23 38  add       %l4, 0x338, %i3
    0x10000a184:            c9 1c 7f e8  ldd       [%l1 - 0x18], %d4
    0x10000a188:            ac 1c e0 01  xor       %l3, 0x1, %l6
    0x10000a18c:            aa 0c e7 ff  and       %l3, 0x7ff, %l5
    0x10000a190:            f5 1c 7f f0  ldd       [%l1 - 0x10], %d26
    0x10000a194:            a5 2d a0 14  sll       %l6, 0x14, %l2
    0x10000a198:            a8 10 24 0e  mov       0x40e, %l4
    0x10000a19c:            f9 1c 60 08  ldd       [%l1 + 0x8], %d28
    0x10000a1a0:            9e 18 40 12  xor       %g1, %l2, %o7
    0x10000a1a4:            82 25 00 15  sub       %l4, %l5, %g1
    0x10000a1a8:            e1 1c 7f f8  ldd       [%l1 - 0x8], %d16
    0x10000a1ac:            9a 0c e8 00  and       %l3, 0x800, %o5
    0x10000a1b0:            99 3b c0 01  sra       %o7, %g1, %o4
    0x10000a1b4:            d1 1c 60 10  ldd       [%l1 + 0x10], %d8
    0x10000a1b8:            96 13 00 0d  or        %o4, %o5, %o3
    0x10000a1bc:            f1 1c 20 d8  ldd       [%l0 + 0xd8], %d24
    0x10000a1c0:            a3 2a e0 01  sll       %o3, 0x1, %l1
    0x10000a1c4:            a1 3c 60 00  sra       %l1, 0x0, %l0
    0x10000a1c8:            95 2c 30 03  sllx      %l0, 0x3, %o2
    0x10000a1cc:            c5 1e c0 0a  ldd       [%i3 + %o2], %d2
    0x10000a1d0:            b6 02 80 1b  add       %o2, %i3, %i3
    0x10000a1d4:            d9 1e e0 08  ldd       [%i3 + 0x8], %d12
    0x10000a1d8:            a9 a0 08 c2  fsubd     %d0, %d2, %d20
    0x10000a1dc:            95 a3 09 44  fmuld     %d12, %d4, %d10
    0x10000a1e0:            bd a5 08 5c  faddd     %d20, %d28, %d30
    0x10000a1e4:            ad a5 09 54  fmuld     %d20, %d20, %d22
    0x10000a1e8:            8d a5 08 5a  faddd     %d20, %d26, %d6
    0x10000a1ec:            9d a2 89 54  fmuld     %d10, %d20, %d14
    0x10000a1f0:            89 a5 08 58  faddd     %d20, %d24, %d4
    0x10000a1f4:            a5 a5 89 5e  fmuld     %d22, %d30, %d18
    0x10000a1f8:            85 a5 09 46  fmuld     %d20, %d6, %d2
    0x10000a1fc:            bf a4 88 48  faddd     %d18, %d8, %d62
    0x10000a200:            b9 a0 88 50  faddd     %d2, %d16, %d28
    0x10000a204:            b5 a1 09 5f  fmuld     %d4, %d62, %d26
    0x10000a208:            95 a3 89 5c  fmuld     %d14, %d28, %d10
    0x10000a20c:            b1 a2 89 5a  fmuld     %d10, %d26, %d24
    0x10000a210:            81 a3 08 58  faddd     %d12, %d24, %d0
    0x10000a214:            81 c7 e0 08  ret
    0x10000a218:            81 e8 20 00  restore   %g0, 0x0, %g0
    0x10000a21c:            35 00 00 00  sethi     %hi(0x0), %i2
    0x10000a220:            33 00 00 33  sethi     %hi(0xcc00), %i1
    0x10000a224:            b8 16 a0 01  or        %i2, 0x1, %i4
    0x10000a228:            b0 0c e7 ff  and       %l3, 0x7ff, %i0
    0x10000a22c:            bb 2f 30 20  sllx      %i4, 0x20, %i5
    0x10000a230:            80 a6 24 05  cmp       %i0, 0x405
    0x10000a234:            ae 17 40 19  or        %i5, %i1, %l7
    0x10000a238:            06 40 00 93  bl,pn     %icc, +0x24c  <0x10000a484>
    0x10000a23c:            ba 05 e1 f8  add       %l7, 0x1f8, %i5
    0x10000a240:            80 a6 24 08  cmp       %i0, 0x408
    0x10000a244:            16 40 00 36  bge,pn    %icc, +0xd8   <0x10000a31c>
    0x10000a248:            a6 10 24 07  mov       0x407, %l3
    0x10000a24c:            9f 38 60 12  sra       %g1, 0x12, %o7
    0x10000a250:            e9 1c 7f e8  ldd       [%l1 - 0x18], %d20
    0x10000a254:            9a 24 c0 18  sub       %l3, %i0, %o5
    0x10000a258:            98 1b e0 04  xor       %o7, 0x4, %o4
    0x10000a25c:            ed 1c 7f f0  ldd       [%l1 - 0x10], %d22
    0x10000a260:            95 3b 00 0d  sra       %o4, %o5, %o2
    0x10000a264:            97 30 60 1c  srl       %g1, 0x1c, %o3
    0x10000a268:            f1 1c 60 08  ldd       [%l1 + 0x8], %d24
    0x10000a26c:            92 0a ff f8  and       %o3, -0x8, %o1
    0x10000a270:            90 0a a0 07  and       %o2, 0x7, %o0
    0x10000a274:            d9 1c 7f f8  ldd       [%l1 - 0x8], %d12
    0x10000a278:            dd 1c 60 10  ldd       [%l1 + 0x10], %d14
    0x10000a27c:            88 12 00 09  or        %o0, %o1, %g4
    0x10000a280:            8a 10 24 0e  mov       0x40e, %g5
    0x10000a284:            cd 1c 20 d8  ldd       [%l0 + 0xd8], %d6
    0x10000a288:            a4 21 40 18  sub       %g5, %i0, %l2
    0x10000a28c:            a3 29 20 01  sll       %g4, 0x1, %l1
    0x10000a290:            a1 30 60 14  srl       %g1, 0x14, %l0
    0x10000a294:            b9 3c 60 00  sra       %l1, 0x0, %i4
    0x10000a298:            83 38 40 12  sra       %g1, %l2, %g1
    0x10000a29c:            b1 2f 30 03  sllx      %i4, 0x3, %i0
    0x10000a2a0:            b4 0c 38 00  and       %l0, -0x800, %i2
    0x10000a2a4:            b2 08 67 ff  and       %g1, 0x7ff, %i1
    0x10000a2a8:            f5 1f 40 18  ldd       [%i5 + %i0], %d26
    0x10000a2ac:            ae 16 40 1a  or        %i1, %i2, %l7
    0x10000a2b0:            ba 06 00 1d  add       %i0, %i5, %i5
    0x10000a2b4:            ad 2d e0 01  sll       %l7, 0x1, %l6
    0x10000a2b8:            c5 1f 60 08  ldd       [%i5 + 0x8], %d2
    0x10000a2bc:            ab 3d a0 00  sra       %l6, 0x0, %l5
    0x10000a2c0:            bd a0 08 da  fsubd     %d0, %d26, %d30
    0x10000a2c4:            a9 2d 70 03  sllx      %l5, 0x3, %l4
    0x10000a2c8:            ff 1e c0 14  ldd       [%i3 + %l4], %d62
    0x10000a2cc:            b6 05 00 1b  add       %l4, %i3, %i3
    0x10000a2d0:            c9 1e e0 08  ldd       [%i3 + 0x8], %d4
    0x10000a2d4:            a1 a7 88 df  fsubd     %d30, %d62, %d16
    0x10000a2d8:            95 a1 09 42  fmuld     %d4, %d2, %d10
    0x10000a2dc:            a5 a4 08 58  faddd     %d16, %d24, %d18
    0x10000a2e0:            91 a4 09 50  fmuld     %d16, %d16, %d8
    0x10000a2e4:            b9 a4 08 56  faddd     %d16, %d22, %d28
    0x10000a2e8:            b5 a2 89 54  fmuld     %d10, %d20, %d26
    0x10000a2ec:            89 a4 08 46  faddd     %d16, %d6, %d4
    0x10000a2f0:            bf a2 09 52  fmuld     %d8, %d18, %d62
    0x10000a2f4:            bd a4 09 5c  fmuld     %d16, %d28, %d30
    0x10000a2f8:            ad a6 89 50  fmuld     %d26, %d16, %d22
    0x10000a2fc:            85 a7 c8 4e  faddd     %d62, %d14, %d2
    0x10000a300:            b1 a7 88 4c  faddd     %d30, %d12, %d24
    0x10000a304:            a9 a1 09 42  fmuld     %d4, %d2, %d20
    0x10000a308:            8d a5 89 58  fmuld     %d22, %d24, %d6
    0x10000a30c:            a5 a1 89 54  fmuld     %d6, %d20, %d18
    0x10000a310:            81 a2 88 52  faddd     %d10, %d18, %d0
    0x10000a314:            81 c7 e0 08  ret
    0x10000a318:            81 e8 20 00  restore   %g0, 0x0, %g0
    0x10000a31c:            0b 10 21 8b  sethi     %hi(0x40862c00), %g5
    0x10000a320:            88 01 62 42  add       %g5, 0x242, %g4
    0x10000a324:            80 a0 40 04  cmp       %g1, %g4
    0x10000a328:            34 40 00 54  bg,a,pn   %icc, +0x150  <0x10000a478>
    0x10000a32c:            ff 1c 60 18  ldd       [%l1 + 0x18], %d62
    0x10000a330:            12 48 00 09  bne,pt    %icc, +0x24   <0x10000a354>
    0x10000a334:            d0 03 a8 b3  ld        [%sp + 0x8b3], %o0
    0x10000a338:            15 3f be 8e  sethi     %hi(0xfefa3800), %o2
    0x10000a33c:            92 02 a1 ef  add       %o2, 0x1ef, %o1
    0x10000a340:            80 a2 00 09  cmp       %o0, %o1
    0x10000a344:            18 40 00 4c  bgu,pn    %icc, +0x130  <0x10000a474>
    0x10000a348:            19 30 21 d2  sethi     %hi(0xc0874800), %o4
    0x10000a34c:            10 80 00 04  ba        +0x10         <0x10000a35c>
    0x10000a350:            96 03 21 10  add       %o4, 0x110, %o3
    0x10000a354:            19 30 21 d2  sethi     %hi(0xc0874800), %o4
    0x10000a358:            96 03 21 10  add       %o4, 0x110, %o3
    0x10000a35c:            80 a0 40 0b  cmp       %g1, %o3
    0x10000a360:            38 40 00 40  bgu,a,pn  %icc, +0x100  <0x10000a460>
    0x10000a364:            dd 1c 60 20  ldd       [%l1 + 0x20], %d14
    0x10000a368:            02 40 00 04  be,pn     %icc, +0x10   <0x10000a378>
    0x10000a36c:            a5 30 60 1f  srl       %g1, 0x1f, %l2
    0x10000a370:            10 80 00 08  ba        +0x20         <0x10000a390>
    0x10000a374:            a7 30 60 1d  srl       %g1, 0x1d, %l3
    0x10000a378:            1f 35 4b 4c  sethi     %hi(0xd52d3000), %o7
    0x10000a37c:            9a 03 e0 51  add       %o7, 0x51, %o5
    0x10000a380:            80 a2 00 0d  cmp       %o0, %o5
    0x10000a384:            18 40 00 36  bgu,pn    %icc, +0xd8   <0x10000a45c>
    0x10000a388:            a5 30 60 1f  srl       %g1, 0x1f, %l2
    0x10000a38c:            a7 30 60 1d  srl       %g1, 0x1d, %l3
    0x10000a390:            9f 38 60 11  sra       %g1, 0x11, %o7
    0x10000a394:            9a 0c ff fc  and       %l3, -0x4, %o5
    0x10000a398:            c9 1c 7f f0  ldd       [%l1 - 0x10], %d4
    0x10000a39c:            98 0b e0 03  and       %o7, 0x3, %o4
    0x10000a3a0:            93 30 60 14  srl       %g1, 0x14, %o1
    0x10000a3a4:            c5 1c 60 08  ldd       [%l1 + 0x8], %d2
    0x10000a3a8:            96 13 00 0d  or        %o4, %o5, %o3
    0x10000a3ac:            91 38 60 06  sra       %g1, 0x6, %o0
    0x10000a3b0:            f1 1c 7f e8  ldd       [%l1 - 0x18], %d24
    0x10000a3b4:            95 2a e0 01  sll       %o3, 0x1, %o2
    0x10000a3b8:            b8 07 7f 80  add       %i5, -0x80, %i4
    0x10000a3bc:            ed 1c 20 d8  ldd       [%l0 + 0xd8], %d22
    0x10000a3c0:            8b 3a a0 00  sra       %o2, 0x0, %g5
    0x10000a3c4:            b4 0a 27 ff  and       %o0, 0x7ff, %i2
    0x10000a3c8:            d9 1c 7f f8  ldd       [%l1 - 0x8], %d12
    0x10000a3cc:            af 29 70 03  sllx      %g5, 0x3, %l7
    0x10000a3d0:            88 0a 78 00  and       %o1, -0x800, %g4
    0x10000a3d4:            dd 1c 60 10  ldd       [%l1 + 0x10], %d14
    0x10000a3d8:            d1 1d c0 1c  ldd       [%l7 + %i4], %d8
    0x10000a3dc:            b2 16 80 04  or        %i2, %g4, %i1
    0x10000a3e0:            ac 05 c0 1c  add       %l7, %i4, %l6
    0x10000a3e4:            b1 2e 60 01  sll       %i1, 0x1, %i0
    0x10000a3e8:            f9 1d a0 08  ldd       [%l6 + 0x8], %d28
    0x10000a3ec:            a8 04 a0 0a  add       %l2, 0xa, %l4
    0x10000a3f0:            ab 3e 20 00  sra       %i0, 0x0, %l5
    0x10000a3f4:            a7 2d 30 03  sllx      %l4, 0x3, %l3
    0x10000a3f8:            bf a0 08 c8  fsubd     %d0, %d8, %d62
    0x10000a3fc:            83 2d 70 03  sllx      %l5, 0x3, %g1
    0x10000a400:            d1 1c c0 1d  ldd       [%l3 + %i5], %d8
    0x10000a404:            e1 1e c0 01  ldd       [%i3 + %g1], %d16
    0x10000a408:            b6 00 40 1b  add       %g1, %i3, %i3
    0x10000a40c:            f5 1e e0 08  ldd       [%i3 + 0x8], %d26
    0x10000a410:            a1 a7 c8 d0  fsubd     %d62, %d16, %d16
    0x10000a414:            95 a6 89 5c  fmuld     %d26, %d28, %d10
    0x10000a418:            a9 a4 08 42  faddd     %d16, %d2, %d20
    0x10000a41c:            bd a4 09 50  fmuld     %d16, %d16, %d30
    0x10000a420:            8d a4 08 44  faddd     %d16, %d4, %d6
    0x10000a424:            a5 a2 89 58  fmuld     %d10, %d24, %d18
    0x10000a428:            89 a4 08 56  faddd     %d16, %d22, %d4
    0x10000a42c:            bf a7 89 54  fmuld     %d30, %d20, %d62
    0x10000a430:            b5 a4 09 46  fmuld     %d16, %d6, %d26
    0x10000a434:            b9 a4 89 50  fmuld     %d18, %d16, %d28
    0x10000a438:            85 a7 c8 4e  faddd     %d62, %d14, %d2
    0x10000a43c:            b1 a6 88 4c  faddd     %d26, %d12, %d24
    0x10000a440:            ad a1 09 42  fmuld     %d4, %d2, %d22
    0x10000a444:            a9 a7 09 58  fmuld     %d28, %d24, %d20
    0x10000a448:            bd a5 09 56  fmuld     %d20, %d22, %d30
    0x10000a44c:            8d a2 88 5e  faddd     %d10, %d30, %d6
    0x10000a450:            81 a2 09 46  fmuld     %d8, %d6, %d0
    0x10000a454:            81 c7 e0 08  ret
    0x10000a458:            81 e8 20 00  restore   %g0, 0x0, %g0
    0x10000a45c:            dd 1c 60 20  ldd       [%l1 + 0x20], %d14
    0x10000a460:            a5 a0 00 ce  fnegd     %d14, %d18
    0x10000a464:            a1 a4 89 c0  fdivd     %d18, %d0, %d16
    0x10000a468:            81 a4 09 4e  fmuld     %d16, %d14, %d0
    0x10000a46c:            81 c7 e0 08  ret
    0x10000a470:            81 e8 20 00  restore   %g0, 0x0, %g0
    0x10000a474:            ff 1c 60 18  ldd       [%l1 + 0x18], %d62
    0x10000a478:            81 a0 09 5f  fmuld     %d0, %d62, %d0
    0x10000a47c:            81 c7 e0 08  ret
    0x10000a480:            81 e8 20 00  restore   %g0, 0x0, %g0
    0x10000a484:            80 a6 23 e4  cmp       %i0, 0x3e4
    0x10000a488:            06 40 00 16  bl,pn     %icc, +0x58   <0x10000a4e0>
    0x10000a48c:            d1 1c 7f f0  ldd       [%l1 - 0x10], %d8
    0x10000a490:            b1 a0 09 40  fmuld     %d0, %d0, %d24
    0x10000a494:            d5 1c 60 08  ldd       [%l1 + 0x8], %d10
    0x10000a498:            ed 1c 7f f8  ldd       [%l1 - 0x8], %d22
    0x10000a49c:            b5 a0 08 48  faddd     %d0, %d8, %d26
    0x10000a4a0:            dd 1c 7f e8  ldd       [%l1 - 0x18], %d14
    0x10000a4a4:            bd a0 08 4a  faddd     %d0, %d10, %d30
    0x10000a4a8:            d9 1c 20 d8  ldd       [%l0 + 0xd8], %d12
    0x10000a4ac:            e9 1c 60 10  ldd       [%l1 + 0x10], %d20
    0x10000a4b0:            b9 a0 09 4e  fmuld     %d0, %d14, %d28
    0x10000a4b4:            e1 1f 60 d0  ldd       [%i5 + 0xd0], %d16
    0x10000a4b8:            bf a0 09 5a  fmuld     %d0, %d26, %d62
    0x10000a4bc:            a5 a0 08 4c  faddd     %d0, %d12, %d18
    0x10000a4c0:            85 a6 09 5e  fmuld     %d24, %d30, %d2
    0x10000a4c4:            89 a7 c8 56  faddd     %d62, %d22, %d4
    0x10000a4c8:            8d a0 88 54  faddd     %d2, %d20, %d6
    0x10000a4cc:            95 a7 09 44  fmuld     %d28, %d4, %d10
    0x10000a4d0:            91 a4 89 46  fmuld     %d18, %d6, %d8
    0x10000a4d4:            81 a2 89 48  fmuld     %d10, %d8, %d0
    0x10000a4d8:            10 80 00 0a  ba        +0x28         <0x10000a500>
    0x10000a4dc:            81 a4 08 40  faddd     %d16, %d0, %d0
    0x10000a4e0:            80 a6 23 ca  cmp       %i0, 0x3ca
    0x10000a4e4:            e1 1f 60 d0  ldd       [%i5 + 0xd0], %d16
    0x10000a4e8:            06 40 00 05  bl,pn     %icc, +0x14   <0x10000a4fc>
    0x10000a4ec:            c5 1c 60 28  ldd       [%l1 + 0x28], %d2
    0x10000a4f0:            89 a0 09 42  fmuld     %d0, %d2, %d4
    0x10000a4f4:            8d a4 08 44  faddd     %d16, %d4, %d6
    0x10000a4f8:            81 a0 09 46  fmuld     %d0, %d6, %d0
    0x10000a4fc:            81 a4 08 40  faddd     %d16, %d0, %d0
    0x10000a500:            81 c7 e0 08  ret
    0x10000a504:            81 e8 20 00  restore   %g0, 0x0, %g0
    0x10000a508:            00 00 00 00  illtrap   0x0
    0x10000a50c:            00 00 00 00  illtrap   0x0
    0x10000a510:            00 00 00 00  illtrap   0x0
    0x10000a514:            00 00 00 00  illtrap   0x0
    0x10000a518:            00 00 00 00  illtrap   0x0
    0x10000a51c:            00 00 00 00  illtrap   0x0
    0x10000a520:            3f f0 00 00  0x3ff00000
    0x10000a524:            00 00 00 00  illtrap   0x0
    0x10000a528:            bf 9b 4f 14  wrhpr     %o5, %l4, %hstick_cmpr
    0x10000a52c:            84 d2 d8 0a  umulcc    %o3, %o2, %g2
    0x10000a530:            c0 08 85 55  ldub      [%g2 + %l5], %g0
    0x10000a534:            8e d5 8b 2e  umulcc    %l6, %sp, %g7
    0x10000a538:            40 0d 45 9a  call      +0x351668     <0x10035bba0>
    0x10000a53c:            7b 39 73 bd  call      -0x131a310c   <0xece67430>
    0x10000a540:            3f f5 57 fb  0x3ff557fb
    0x10000a544:            33 6e 60 b5  fbe,a,pt  %fcc2, -0x67d2c <0xfffa2818>
    0x10000a548:            40 0c 69 c8  call      +0x31a720     <0x100324c68>
    0x10000a54c:            4a 7e 1b b4  call      +0x29f86ed0   <0x129f9141c>
    0x10000a550:            00 00 00 00  illtrap   0x0
    0x10000a554:            00 00 00 00  illtrap   0x0
    0x10000a558:            43 50 00 00  call      +0xd400000    <0x10d40a558>
    0x10000a55c:            00 00 00 00  illtrap   0x0
    0x10000a560:            7e 37 e4 3c  call      -0x7206f10    <0xf8e03650>
    0x10000a564:            88 00 75 9c  add       %g1, -0xa64, %g4
    0x10000a568:            01 a5 6e 1f  fbn       -0x6a4784     <0xff965de4>
    0x10000a56c:            c2 f8 f3 59  swapa     [%g3 - 0xca7] %asi, %g1
    0x10000a570:            3f f7 15 40  0x3ff71540
    0x10000a574:            00 00 00 00  illtrap   0x0
    0x10000a578:            3e dd 94 ae  0x3edd94ae
    0x10000a57c:            0b f8 5d df  0x0bf85ddf
    0x10000a580:            3f a7 a3 2f  fbo,a     -0x617344     <0xff9f323c>
    0x10000a584:            e0 75 ca 5a  stx       %l0, [%l7 + %i2]
    0x10000a588:            bf ff 92 a3  fumsubs   %f30, %f3, %f9, %f31
    0x10000a58c:            01 1e 43 46  sethi     %hi(0x790d1800), %g0
    0x10000a590:            3f c5 c0 24  0x3fc5c024
    0x10000a594:            96 7b 1b 5a  sdiv      %o4, %i2, %o3
    0x10000a598:            40 0e 6f 26  call      +0x39bc98     <0x1003a6230>
    0x10000a59c:            d0 91 d4 ac  lduha     [%g7 + %o4] 0xa5, %o0
    0x10000a5a0:            40 80 00 00  call      +0x2000000    <0x10200a5a0>
    0x10000a5a4:            00 00 00 00  illtrap   0x0
    0x10000a5a8:            3f 60 00 00  fbo,a,pn  %fcc2, +0x0    <0x10000a5a8>
    0x10000a5ac:            00 00 00 00  illtrap   0x0
    0x10000a5b0:            3f 52 34 6a  fbo,a,pn  %fcc1, +0x8d1a8 <0x100097758>
    0x10000a5b4:            a2 07 34 8e  add       %i4, -0xb72, %l1
    0x10000a5b8:            40 38 f9 f6  call      +0xe3e7d8     <0x100e48d90>
    0x10000a5bc:            fe 86 40 ad  lduwa     [%i1 + %o5] 0x05, %i7
    0x10000a5c0:            40 21 4f f5  call      +0x853fd4     <0x10085e594>
    0x10000a5c4:            9f fb 1c 43  fumaddd   %d12, %d34, %d14, %d46
    0x10000a5c8:            40 38 f9 f7  call      +0xe3e7dc     <0x100e48da4>
    0x10000a5cc:            48 a4 bb 6e  call      +0x2292edb8   <0x122939384>
    0x10000a5d0:            39 b0 00 00  fbuge,a   -0x400000     <0xffc0a5d0>
    0x10000a5d4:            00 00 00 00  illtrap   0x0
    0x10000a5d8:            00 00 00 00  illtrap   0x0
    0x10000a5dc:            00 00 00 00  illtrap   0x0
pow()
    0x10000a5e0:            9d e3 bf 00  save      %sp, -0x100, %sp
    0x10000a5e4:            c1 23 a8 af  st        %f0, [%sp + 0x8af]
    0x10000a5e8:            3b 00 00 00  sethi     %hi(0x0), %i5
    0x10000a5ec:            89 a0 00 40  fmovd     %d0, %d4
    0x10000a5f0:            31 00 00 29  sethi     %hi(0xa400), %i0
    0x10000a5f4:            c5 23 a8 d7  st        %f2, [%sp + 0x8d7]
    0x10000a5f8:            b8 17 60 01  or        %i5, 0x1, %i4
    0x10000a5fc:            c7 23 a8 db  st        %f3, [%sp + 0x8db]
    0x10000a600:            b7 2f 30 20  sllx      %i4, 0x20, %i3
    0x10000a604:            c3 23 a8 b3  st        %f1, [%sp + 0x8b3]
    0x10000a608:            81 41 40 00  rd        %pc, %g0
    0x10000a60c:            e4 03 a8 d7  ld        [%sp + 0x8d7], %l2
    0x10000a610:            ea 03 a8 db  ld        [%sp + 0x8db], %l5
    0x10000a614:            f2 03 a8 af  ld        [%sp + 0x8af], %i1
    0x10000a618:            d6 03 a8 b3  ld        [%sp + 0x8b3], %o3
    0x10000a61c:            80 96 40 0b  orcc      %i1, %o3, %g0
    0x10000a620:            02 40 02 43  be,pn     %icc, +0x90c  <0x10000af2c>
    0x10000a624:            a2 16 c0 18  or        %i3, %i0, %l1
    0x10000a628:            27 1f ff ff  sethi     %hi(0x7ffffc00), %l3
    0x10000a62c:            35 20 03 ff  sethi     %hi(0x800ffc00), %i2
    0x10000a630:            90 04 e3 ff  add       %l3, 0x3ff, %o0
    0x10000a634:            8a 06 a3 ff  add       %i2, 0x3ff, %g5
    0x10000a638:            b4 0e 40 08  and       %i1, %o0, %i2
    0x10000a63c:            1b 30 04 00  sethi     %hi(0xc0100000), %o5
    0x10000a640:            98 0e 80 05  and       %i2, %g5, %o4
    0x10000a644:            a6 06 80 0d  add       %i2, %o5, %l3
    0x10000a648:            b9 3b 20 09  sra       %o4, 0x9, %i4
    0x10000a64c:            29 00 00 00  sethi     %hi(0x0), %l4
    0x10000a650:            89 3c e0 14  sra       %l3, 0x14, %g4
    0x10000a654:            af 3b 20 0b  sra       %o4, 0xb, %l7
    0x10000a658:            b6 0f 3f fc  and       %i4, -0x4, %i3
    0x10000a65c:            99 29 20 14  sll       %g4, 0x14, %o4
    0x10000a660:            a8 15 20 01  or        %l4, 0x1, %l4
    0x10000a664:            b8 26 80 0c  sub       %i2, %o4, %i4
    0x10000a668:            f8 23 a8 b7  st        %i4, [%sp + 0x8b7]
    0x10000a66c:            03 00 00 73  sethi     %hi(0x1cc00), %g1
    0x10000a670:            a9 2d 30 20  sllx      %l4, 0x20, %l4
    0x10000a674:            cb 23 a8 bb  st        %f5, [%sp + 0x8bb]
    0x10000a678:            b6 05 c0 1b  add       %l7, %i3, %i3
    0x10000a67c:            98 15 00 01  or        %l4, %g1, %o4
    0x10000a680:            b9 3e e0 00  sra       %i3, 0x0, %i4
    0x10000a684:            ac 03 23 f8  add       %o4, 0x3f8, %l6
    0x10000a688:            a9 2f 30 03  sllx      %i4, 0x3, %l4
    0x10000a68c:            a0 04 61 20  add       %l1, 0x120, %l0
    0x10000a690:            d9 1d 00 16  ldd       [%l4 + %l6], %d12
    0x10000a694:            b0 05 00 16  add       %l4, %l6, %i0
    0x10000a698:            13 00 04 00  sethi     %hi(0x100000), %o1
    0x10000a69c:            d1 1e 20 08  ldd       [%i0 + 0x8], %d8
    0x10000a6a0:            a8 0c 80 08  and       %l2, %o0, %l4
    0x10000a6a4:            e1 1e 20 10  ldd       [%i0 + 0x10], %d16
    0x10000a6a8:            ba 05 00 09  add       %l4, %o1, %i5
    0x10000a6ac:            fb 1c 20 10  ldd       [%l0 + 0x10], %d60
    0x10000a6b0:            83 3f 60 14  sra       %i5, 0x14, %g1
    0x10000a6b4:            f9 1c 20 20  ldd       [%l0 + 0x20], %d28
    0x10000a6b8:            80 80 7c 40  addcc     %g1, -0x3c0, %g0
    0x10000a6bc:            cd 1b a8 b7  ldd       [%sp + 0x8b7], %d6
    0x10000a6c0:            f5 1c 20 08  ldd       [%l0 + 0x8], %d26
    0x10000a6c4:            f1 1c 20 18  ldd       [%l0 + 0x18], %d24
    0x10000a6c8:            a5 a1 88 cc  fsubd     %d6, %d12, %d18
    0x10000a6cc:            ed 1c 20 28  ldd       [%l0 + 0x28], %d22
    0x10000a6d0:            a5 a4 89 48  fmuld     %d18, %d8, %d18
    0x10000a6d4:            a1 a4 88 d0  fsubd     %d18, %d16, %d16
    0x10000a6d8:            bd a4 08 5d  faddd     %d16, %d60, %d30
    0x10000a6dc:            9d a4 09 50  fmuld     %d16, %d16, %d14
    0x10000a6e0:            95 a4 08 5c  faddd     %d16, %d28, %d10
    0x10000a6e4:            b7 a4 09 5e  fmuld     %d16, %d30, %d58
    0x10000a6e8:            99 a3 89 5a  fmuld     %d14, %d26, %d12
    0x10000a6ec:            a9 a4 09 4a  fmuld     %d16, %d10, %d20
    0x10000a6f0:            bf a6 c8 58  faddd     %d58, %d24, %d62
    0x10000a6f4:            8d a5 08 56  faddd     %d20, %d22, %d6
    0x10000a6f8:            91 a3 09 5f  fmuld     %d12, %d62, %d8
    0x10000a6fc:            bb a2 09 46  fmuld     %d8, %d6, %d60
    0x10000a700:            0c 40 01 9f  bneg,pn   %icc, +0x67c  <0x10000ad7c>
    0x10000a704:            81 a0 00 42  fmovd     %d2, %d0
    0x10000a708:            b6 05 00 0d  add       %l4, %o5, %i3
    0x10000a70c:            80 96 c0 15  orcc      %i3, %l5, %g0
    0x10000a710:            02 40 01 9b  be,pn     %icc, +0x66c  <0x10000ad7c>
    0x10000a714:            dd 1c 61 20  ldd       [%l1 + 0x120], %d14
    0x10000a718:            15 00 08 00  sethi     %hi(0x200000), %o2
    0x10000a71c:            9e 06 40 09  add       %i1, %o1, %o7
    0x10000a720:            80 a3 c0 0a  cmp       %o7, %o2
    0x10000a724:            06 40 00 05  bl,pn     %icc, +0x14   <0x10000a738>
    0x10000a728:            dd 3b a8 bf  std       %d14, [%sp + 0x8bf]
    0x10000a72c:            b8 10 20 00  clr       %i4
    0x10000a730:            10 80 00 96  ba        +0x258        <0x10000a988>
    0x10000a734:            98 10 20 d4  mov       0xd4, %o4
    0x10000a738:            b8 20 00 0b  neg       %o3, %i4
    0x10000a73c:            15 1f fc 00  sethi     %hi(0x7ff00000), %o2
    0x10000a740:            98 12 c0 1c  or        %o3, %i4, %o4
    0x10000a744:            83 33 20 1f  srl       %o4, 0x1f, %g1
    0x10000a748:            ba 16 80 01  or        %i2, %g1, %i5
    0x10000a74c:            80 a7 40 0a  cmp       %i5, %o2
    0x10000a750:            08 40 00 05  bleu,pn   %icc, +0x14   <0x10000a764>
    0x10000a754:            80 a6 60 00  cmp       %i1, 0x0
    0x10000a758:            81 a1 09 44  fmuld     %d4, %d4, %d0
    0x10000a75c:            81 c7 e0 08  ret
    0x10000a760:            81 e8 20 00  restore   %g0, 0x0, %g0
    0x10000a764:            06 40 00 04  bl,pn     %icc, +0x10   <0x10000a774>
    0x10000a768:            b8 10 20 00  clr       %i4
    0x10000a76c:            10 80 00 2f  ba        +0xbc         <0x10000a828>
    0x10000a770:            80 96 80 0b  orcc      %i2, %o3, %g0
    0x10000a774:            b7 3d 20 14  sra       %l4, 0x14, %i3
    0x10000a778:            80 a6 e4 34  cmp       %i3, 0x434
    0x10000a77c:            06 40 00 04  bl,pn     %icc, +0x10   <0x10000a78c>
    0x10000a780:            b8 10 20 02  mov       0x2, %i4
    0x10000a784:            10 80 00 23  ba        +0x8c         <0x10000a810>
    0x10000a788:            89 a0 01 44  fabsd     %d4, %d4
    0x10000a78c:            9e 86 fc 01  addcc     %i3, -0x3ff, %o7
    0x10000a790:            1c 40 00 04  bpos,pn   %icc, +0x10   <0x10000a7a0>
    0x10000a794:            b8 10 20 00  clr       %i4
    0x10000a798:            10 80 00 1e  ba        +0x78         <0x10000a810>
    0x10000a79c:            89 a0 01 44  fabsd     %d4, %d4
    0x10000a7a0:            80 a3 e0 14  cmp       %o7, 0x14
    0x10000a7a4:            04 40 00 0c  ble,pn    %icc, +0x30   <0x10000a7d4>
    0x10000a7a8:            b6 10 20 34  mov       0x34, %i3
    0x10000a7ac:            9e 26 c0 0f  sub       %i3, %o7, %o7
    0x10000a7b0:            ba 10 20 02  mov       0x2, %i5
    0x10000a7b4:            b9 35 40 0f  srl       %l5, %o7, %i4
    0x10000a7b8:            99 2f 00 0f  sll       %i4, %o7, %o4
    0x10000a7bc:            82 0f 20 01  and       %i4, 0x1, %g1
    0x10000a7c0:            80 a3 00 15  cmp       %o4, %l5
    0x10000a7c4:            b8 27 40 01  sub       %i5, %g1, %i4
    0x10000a7c8:            b9 66 40 00  movne     %icc, %g0, %i4
    0x10000a7cc:            10 80 00 11  ba        +0x44         <0x10000a810>
    0x10000a7d0:            89 a0 01 44  fabsd     %d4, %d4
    0x10000a7d4:            80 a5 60 00  cmp       %l5, 0x0
    0x10000a7d8:            02 40 00 04  be,pn     %icc, +0x10   <0x10000a7e8>
    0x10000a7dc:            b8 10 20 00  clr       %i4
    0x10000a7e0:            10 80 00 0c  ba        +0x30         <0x10000a810>
    0x10000a7e4:            89 a0 01 44  fabsd     %d4, %d4
    0x10000a7e8:            b6 10 20 14  mov       0x14, %i3
    0x10000a7ec:            ba 10 20 02  mov       0x2, %i5
    0x10000a7f0:            89 a0 01 44  fabsd     %d4, %d4
    0x10000a7f4:            9e 26 c0 0f  sub       %i3, %o7, %o7
    0x10000a7f8:            b9 3d 00 0f  sra       %l4, %o7, %i4
    0x10000a7fc:            99 2f 00 0f  sll       %i4, %o7, %o4
    0x10000a800:            82 0f 20 01  and       %i4, 0x1, %g1
    0x10000a804:            80 a3 00 14  cmp       %o4, %l4
    0x10000a808:            b8 27 40 01  sub       %i5, %g1, %i4
    0x10000a80c:            b9 66 40 00  movne     %icc, %g0, %i4
    0x10000a810:            1f 0f fc 00  sethi     %hi(0x3ff00000), %o7
    0x10000a814:            bb 2f 20 1f  sll       %i4, 0x1f, %i5
    0x10000a818:            98 17 40 0f  or        %i5, %o7, %o4
    0x10000a81c:            d8 23 a8 bf  st        %o4, [%sp + 0x8bf]
    0x10000a820:            80 96 80 0b  orcc      %i2, %o3, %g0
    0x10000a824:            dd 1b a8 bf  ldd       [%sp + 0x8bf], %d14
    0x10000a828:            12 40 00 0b  bne,pn    %icc, +0x2c   <0x10000a854>
    0x10000a82c:            80 a4 a0 00  cmp       %l2, 0x0
    0x10000a830:            06 40 00 05  bl,pn     %icc, +0x14   <0x10000a844>
    0x10000a834:            fd 1c 20 30  ldd       [%l0 + 0x30], %d30
    0x10000a838:            81 a3 89 5e  fmuld     %d14, %d30, %d0
    0x10000a83c:            81 c7 e0 08  ret
    0x10000a840:            81 e8 20 00  restore   %g0, 0x0, %g0
    0x10000a844:            f5 1c 20 30  ldd       [%l0 + 0x30], %d26
    0x10000a848:            81 a3 89 da  fdivd     %d14, %d26, %d0
    0x10000a84c:            81 c7 e0 08  ret
    0x10000a850:            81 e8 20 00  restore   %g0, 0x0, %g0
    0x10000a854:            80 a6 80 0a  cmp       %i2, %o2
    0x10000a858:            12 40 00 0a  bne,pn    %icc, +0x28   <0x10000a880>
    0x10000a85c:            80 a4 a0 00  cmp       %l2, 0x0
    0x10000a860:            26 40 00 05  bl,a,pn   %icc, +0x14   <0x10000a874>
    0x10000a864:            e1 1c 20 30  ldd       [%l0 + 0x30], %d16
    0x10000a868:            81 a1 09 4e  fmuld     %d4, %d14, %d0
    0x10000a86c:            81 c7 e0 08  ret
    0x10000a870:            81 e8 20 00  restore   %g0, 0x0, %g0
    0x10000a874:            81 a3 89 50  fmuld     %d14, %d16, %d0
    0x10000a878:            81 c7 e0 08  ret
    0x10000a87c:            81 e8 20 00  restore   %g0, 0x0, %g0
    0x10000a880:            b7 3e 60 1f  sra       %i1, 0x1f, %i3
    0x10000a884:            96 06 e0 01  add       %i3, 0x1, %o3
    0x10000a888:            80 92 c0 1c  orcc      %o3, %i4, %g0
    0x10000a88c:            12 40 00 06  bne,pn    %icc, +0x18   <0x10000a8a4>
    0x10000a890:            80 a6 80 09  cmp       %i2, %o1
    0x10000a894:            a5 a1 08 c4  fsubd     %d4, %d4, %d18
    0x10000a898:            81 a4 89 d2  fdivd     %d18, %d18, %d0
    0x10000a89c:            81 c7 e0 08  ret
    0x10000a8a0:            81 e8 20 00  restore   %g0, 0x0, %g0
    0x10000a8a4:            16 40 00 39  bge,pn    %icc, +0xe4   <0x10000a988>
    0x10000a8a8:            98 10 20 d4  mov       0xd4, %o4
    0x10000a8ac:            35 30 08 00  sethi     %hi(0xc0200000), %i2
    0x10000a8b0:            b2 04 80 1a  add       %l2, %i2, %i1
    0x10000a8b4:            98 16 40 1b  or        %i1, %i3, %o4
    0x10000a8b8:            80 93 00 15  orcc      %o4, %l5, %g0
    0x10000a8bc:            32 40 00 05  bne,a,pn  %icc, +0x14   <0x10000a8d0>
    0x10000a8c0:            f7 1c 20 38  ldd       [%l0 + 0x38], %d58
    0x10000a8c4:            81 a0 05 44  fsqrtd    %d4, %d0
    0x10000a8c8:            81 c7 e0 08  ret
    0x10000a8cc:            81 e8 20 00  restore   %g0, 0x0, %g0
    0x10000a8d0:            89 a1 09 5b  fmuld     %d4, %d58, %d4
    0x10000a8d4:            c9 23 a8 af  st        %f4, [%sp + 0x8af]
    0x10000a8d8:            98 10 20 d4  mov       0xd4, %o4
    0x10000a8dc:            f9 1c 20 10  ldd       [%l0 + 0x10], %d28
    0x10000a8e0:            f5 1c 20 20  ldd       [%l0 + 0x20], %d26
    0x10000a8e4:            f1 1c 20 08  ldd       [%l0 + 0x8], %d24
    0x10000a8e8:            ed 1c 20 18  ldd       [%l0 + 0x18], %d22
    0x10000a8ec:            e9 1c 20 28  ldd       [%l0 + 0x28], %d20
    0x10000a8f0:            9c 03 a0 00  add       %sp, 0x0, %sp
    0x10000a8f4:            9c 03 a0 00  add       %sp, 0x0, %sp
    0x10000a8f8:            9c 03 a0 00  add       %sp, 0x0, %sp
    0x10000a8fc:            9c 03 a0 00  add       %sp, 0x0, %sp
    0x10000a900:            f2 03 a8 af  ld        [%sp + 0x8af], %i1
    0x10000a904:            b4 0e 40 08  and       %i1, %o0, %i2
    0x10000a908:            ae 0e 80 05  and       %i2, %g5, %l7
    0x10000a90c:            a6 06 80 0d  add       %i2, %o5, %l3
    0x10000a910:            b1 3d e0 09  sra       %l7, 0x9, %i0
    0x10000a914:            89 3c e0 14  sra       %l3, 0x14, %g4
    0x10000a918:            92 0e 3f fc  and       %i0, -0x4, %o1
    0x10000a91c:            af 3d e0 0b  sra       %l7, 0xb, %l7
    0x10000a920:            9f 29 20 14  sll       %g4, 0x14, %o7
    0x10000a924:            90 05 c0 09  add       %l7, %o1, %o0
    0x10000a928:            9a 26 80 0f  sub       %i2, %o7, %o5
    0x10000a92c:            da 23 a8 b7  st        %o5, [%sp + 0x8b7]
    0x10000a930:            8b 3a 20 00  sra       %o0, 0x0, %g5
    0x10000a934:            cb 23 a8 bb  st        %f5, [%sp + 0x8bb]
    0x10000a938:            83 29 70 03  sllx      %g5, 0x3, %g1
    0x10000a93c:            88 01 3f ca  add       %g4, -0x36, %g4
    0x10000a940:            e1 1d 80 01  ldd       [%l6 + %g1], %d16
    0x10000a944:            b0 00 40 16  add       %g1, %l6, %i0
    0x10000a948:            cd 1e 20 08  ldd       [%i0 + 0x8], %d6
    0x10000a94c:            fb 1e 20 10  ldd       [%i0 + 0x10], %d60
    0x10000a950:            d9 1b a8 b7  ldd       [%sp + 0x8b7], %d12
    0x10000a954:            91 a3 08 d0  fsubd     %d12, %d16, %d8
    0x10000a958:            a5 a2 09 46  fmuld     %d8, %d6, %d18
    0x10000a95c:            a1 a4 88 dd  fsubd     %d18, %d60, %d16
    0x10000a960:            bd a4 08 5c  faddd     %d16, %d28, %d30
    0x10000a964:            b7 a4 09 50  fmuld     %d16, %d16, %d58
    0x10000a968:            95 a4 08 5a  faddd     %d16, %d26, %d10
    0x10000a96c:            bf a4 09 5e  fmuld     %d16, %d30, %d62
    0x10000a970:            99 a4 09 4a  fmuld     %d16, %d10, %d12
    0x10000a974:            91 a6 c9 58  fmuld     %d58, %d24, %d8
    0x10000a978:            8d a7 c8 56  faddd     %d62, %d22, %d6
    0x10000a97c:            bb a3 08 54  faddd     %d12, %d20, %d60
    0x10000a980:            b9 a2 09 46  fmuld     %d8, %d6, %d28
    0x10000a984:            bb a7 09 5d  fmuld     %d28, %d60, %d60
    0x10000a988:            17 10 3c 00  sethi     %hi(0x40f00000), %o3
    0x10000a98c:            b6 23 00 17  sub       %o4, %l7, %i3
    0x10000a990:            95 36 f0 3f  srlx      %i3, 0x3f, %o2
    0x10000a994:            80 a5 00 0b  cmp       %l4, %o3
    0x10000a998:            06 40 00 67  bl,pn     %icc, +0x19c  <0x10000ab34>
    0x10000a99c:            ba 01 00 0a  add       %g4, %o2, %i5
    0x10000a9a0:            80 a7 60 00  cmp       %i5, 0x0
    0x10000a9a4:            12 40 00 58  bne,pn    %icc, +0x160  <0x10000ab04>
    0x10000a9a8:            03 10 fc 00  sethi     %hi(0x43f00000), %g1
    0x10000a9ac:            80 a5 00 01  cmp       %l4, %g1
    0x10000a9b0:            16 40 00 55  bge,pn    %icc, +0x154  <0x10000ab04>
    0x10000a9b4:            1f 30 04 17  sethi     %hi(0xc0105c00), %o7
    0x10000a9b8:            11 00 00 22  sethi     %hi(0x8800), %o0
    0x10000a9bc:            9a 03 e1 25  add       %o7, 0x125, %o5
    0x10000a9c0:            8a 02 23 b7  add       %o0, 0x3b7, %g5
    0x10000a9c4:            88 06 80 0d  add       %i2, %o5, %g4
    0x10000a9c8:            80 a1 00 05  cmp       %g4, %g5
    0x10000a9cc:            18 40 00 4e  bgu,pn    %icc, +0x138  <0x10000ab04>
    0x10000a9d0:            a8 06 a0 40  add       %i2, 0x40, %l4
    0x10000a9d4:            13 0f fc 00  sethi     %hi(0x3ff00000), %o1
    0x10000a9d8:            a4 0d 3f 80  and       %l4, -0x80, %l2
    0x10000a9dc:            80 a4 80 09  cmp       %l2, %o1
    0x10000a9e0:            12 40 00 1c  bne,pn    %icc, +0x70   <0x10000aa50>
    0x10000a9e4:            f5 1c 20 60  ldd       [%l0 + 0x60], %d26
    0x10000a9e8:            cd 1c 61 20  ldd       [%l1 + 0x120], %d6
    0x10000a9ec:            d5 1c 20 50  ldd       [%l0 + 0x50], %d10
    0x10000a9f0:            d1 1c 20 58  ldd       [%l0 + 0x58], %d8
    0x10000a9f4:            a9 a1 08 c6  fsubd     %d4, %d6, %d20
    0x10000a9f8:            fd 1c 20 70  ldd       [%l0 + 0x70], %d30
    0x10000a9fc:            e5 1c 20 68  ldd       [%l0 + 0x68], %d18
    0x10000aa00:            ed 1c 20 78  ldd       [%l0 + 0x78], %d22
    0x10000aa04:            bb a5 09 4a  fmuld     %d20, %d10, %d60
    0x10000aa08:            fb 3b a8 df  std       %d60, [%sp + 0x8df]
    0x10000aa0c:            b7 a5 09 48  fmuld     %d20, %d8, %d58
    0x10000aa10:            c0 23 a8 e3  clr       [%sp + 0x8e3]
    0x10000aa14:            b1 a7 48 5b  faddd     %d60, %d58, %d24
    0x10000aa18:            99 a6 08 5e  faddd     %d24, %d30, %d12
    0x10000aa1c:            a1 a6 09 58  fmuld     %d24, %d24, %d16
    0x10000aa20:            d5 1b a8 df  ldd       [%sp + 0x8df], %d10
    0x10000aa24:            b9 a6 08 52  faddd     %d24, %d18, %d28
    0x10000aa28:            8d a4 09 5a  fmuld     %d16, %d26, %d6
    0x10000aa2c:            bf a2 88 dd  fsubd     %d10, %d60, %d62
    0x10000aa30:            91 a6 09 4c  fmuld     %d24, %d12, %d8
    0x10000aa34:            bd a1 89 5c  fmuld     %d6, %d28, %d30
    0x10000aa38:            a9 a7 c8 db  fsubd     %d62, %d58, %d20
    0x10000aa3c:            bb a2 08 56  faddd     %d8, %d22, %d60
    0x10000aa40:            a5 a7 89 5d  fmuld     %d30, %d60, %d18
    0x10000aa44:            bf a4 88 d4  fsubd     %d18, %d20, %d62
    0x10000aa48:            10 80 00 65  ba        +0x194        <0x10000abdc>
    0x10000aa4c:            ed 1c 20 80  ldd       [%l0 + 0x80], %d22
    0x10000aa50:            1b 3f c0 10  sethi     %hi(0xff004000), %o5
    0x10000aa54:            89 3e a0 06  sra       %i2, 0x6, %g4
    0x10000aa58:            f7 1c 20 70  ldd       [%l0 + 0x70], %d58
    0x10000aa5c:            8a 03 61 75  add       %o5, 0x175, %g5
    0x10000aa60:            23 00 00 00  sethi     %hi(0x0), %l1
    0x10000aa64:            fd 1c 20 68  ldd       [%l0 + 0x68], %d30
    0x10000aa68:            98 01 00 05  add       %g4, %g5, %o4
    0x10000aa6c:            82 14 60 01  or        %l1, 0x1, %g1
    0x10000aa70:            e9 1c 20 78  ldd       [%l0 + 0x78], %d20
    0x10000aa74:            b3 2b 20 02  sll       %o4, 0x2, %i1
    0x10000aa78:            37 00 00 87  sethi     %hi(0x21c00), %i3
    0x10000aa7c:            97 28 70 20  sllx      %g1, 0x20, %o3
    0x10000aa80:            94 03 00 19  add       %o4, %i1, %o2
    0x10000aa84:            ba 12 c0 1b  or        %o3, %i3, %i5
    0x10000aa88:            af 3a a0 00  sra       %o2, 0x0, %l7
    0x10000aa8c:            b0 07 63 f8  add       %i5, 0x3f8, %i0
    0x10000aa90:            ad 2d f0 03  sllx      %l7, 0x3, %l6
    0x10000aa94:            d9 1d 80 18  ldd       [%l6 + %i0], %d12
    0x10000aa98:            aa 05 80 18  add       %l6, %i0, %l5
    0x10000aa9c:            fb 1d 60 08  ldd       [%l5 + 0x8], %d60
    0x10000aaa0:            e5 1d 60 10  ldd       [%l5 + 0x10], %d18
    0x10000aaa4:            8d a1 08 cc  fsubd     %d4, %d12, %d6
    0x10000aaa8:            f9 1d 60 18  ldd       [%l5 + 0x18], %d28
    0x10000aaac:            e1 1d 60 20  ldd       [%l5 + 0x20], %d16
    0x10000aab0:            ad a1 89 5d  fmuld     %d6, %d60, %d22
    0x10000aab4:            b1 a5 88 d2  fsubd     %d22, %d18, %d24
    0x10000aab8:            91 a7 08 56  faddd     %d28, %d22, %d8
    0x10000aabc:            d1 3b a8 df  std       %d8, [%sp + 0x8df]
    0x10000aac0:            c0 23 a8 e3  clr       [%sp + 0x8e3]
    0x10000aac4:            99 a6 08 5b  faddd     %d24, %d58, %d12
    0x10000aac8:            bf a6 09 58  fmuld     %d24, %d24, %d62
    0x10000aacc:            91 a6 08 5e  faddd     %d24, %d30, %d8
    0x10000aad0:            bd a7 c9 5a  fmuld     %d62, %d26, %d30
    0x10000aad4:            bb a6 09 4c  fmuld     %d24, %d12, %d60
    0x10000aad8:            d5 1b a8 df  ldd       [%sp + 0x8df], %d10
    0x10000aadc:            b5 a7 89 48  fmuld     %d30, %d8, %d26
    0x10000aae0:            8d a2 88 dc  fsubd     %d10, %d28, %d6
    0x10000aae4:            b9 a7 48 54  faddd     %d60, %d20, %d28
    0x10000aae8:            b7 a5 88 c6  fsubd     %d22, %d6, %d58
    0x10000aaec:            bf a6 89 5c  fmuld     %d26, %d28, %d62
    0x10000aaf0:            99 a4 88 db  fsubd     %d18, %d58, %d12
    0x10000aaf4:            b1 a4 08 5f  faddd     %d16, %d62, %d24
    0x10000aaf8:            bf a6 08 cc  fsubd     %d24, %d12, %d62
    0x10000aafc:            10 80 00 38  ba        +0xe0         <0x10000abdc>
    0x10000ab00:            ed 1c 20 80  ldd       [%l0 + 0x80], %d22
    0x10000ab04:            80 9c c0 12  xorcc     %l3, %l2, %g0
    0x10000ab08:            06 40 00 06  bl,pn     %icc, +0x18   <0x10000ab20>
    0x10000ab0c:            d5 1c 20 40  ldd       [%l0 + 0x40], %d10
    0x10000ab10:            9d a2 89 4e  fmuld     %d10, %d14, %d14
    0x10000ab14:            81 a3 89 4a  fmuld     %d14, %d10, %d0
    0x10000ab18:            81 c7 e0 08  ret
    0x10000ab1c:            81 e8 20 00  restore   %g0, 0x0, %g0
    0x10000ab20:            d5 1c 20 48  ldd       [%l0 + 0x48], %d10
    0x10000ab24:            9d a2 89 4e  fmuld     %d10, %d14, %d14
    0x10000ab28:            81 a3 89 4a  fmuld     %d14, %d10, %d0
    0x10000ab2c:            81 c7 e0 08  ret
    0x10000ab30:            81 e8 20 00  restore   %g0, 0x0, %g0
    0x10000ab34:            fa 23 a8 ef  st        %i5, [%sp + 0x8ef]
    0x10000ab38:            80 a5 60 00  cmp       %l5, 0x0
    0x10000ab3c:            d5 1e 20 20  ldd       [%i0 + 0x20], %d10
    0x10000ab40:            f9 1e 20 18  ldd       [%i0 + 0x18], %d28
    0x10000ab44:            bd a7 48 4a  faddd     %d60, %d10, %d30
    0x10000ab48:            c5 03 a8 ef  ld        [%sp + 0x8ef], %f2
    0x10000ab4c:            bf a0 19 02  fitod     %f2, %d62
    0x10000ab50:            12 40 00 11  bne,pn    %icc, +0x44   <0x10000ab94>
    0x10000ab54:            95 a7 c8 5c  faddd     %d62, %d28, %d10
    0x10000ab58:            11 10 00 00  sethi     %hi(0x40000000), %o0
    0x10000ab5c:            80 a4 80 08  cmp       %l2, %o0
    0x10000ab60:            12 40 00 05  bne,pn    %icc, +0x14   <0x10000ab74>
    0x10000ab64:            1f 0f f8 00  sethi     %hi(0x3fe00000), %o7
    0x10000ab68:            81 a1 09 44  fmuld     %d4, %d4, %d0
    0x10000ab6c:            81 c7 e0 08  ret
    0x10000ab70:            81 e8 20 00  restore   %g0, 0x0, %g0
    0x10000ab74:            80 a4 80 0f  cmp       %l2, %o7
    0x10000ab78:            12 40 00 07  bne,pn    %icc, +0x1c   <0x10000ab94>
    0x10000ab7c:            80 a6 60 00  cmp       %i1, 0x0
    0x10000ab80:            04 40 00 06  ble,pn    %icc, +0x18   <0x10000ab98>
    0x10000ab84:            27 10 14 00  sethi     %hi(0x40500000), %l3
    0x10000ab88:            81 a0 05 44  fsqrtd    %d4, %d0
    0x10000ab8c:            81 c7 e0 08  ret
    0x10000ab90:            81 e8 20 00  restore   %g0, 0x0, %g0
    0x10000ab94:            27 10 14 00  sethi     %hi(0x40500000), %l3
    0x10000ab98:            80 a5 00 13  cmp       %l4, %l3
    0x10000ab9c:            36 40 00 05  bge,a,pn  %icc, +0x14   <0x10000abb0>
    0x10000aba0:            8d a2 88 52  faddd     %d10, %d18, %d6
    0x10000aba4:            bf a7 88 50  faddd     %d30, %d16, %d62
    0x10000aba8:            10 80 00 0d  ba        +0x34         <0x10000abdc>
    0x10000abac:            ed 1c 20 80  ldd       [%l0 + 0x80], %d22
    0x10000abb0:            cd 3b a8 e7  std       %d6, [%sp + 0x8e7]
    0x10000abb4:            c0 23 a8 eb  clr       [%sp + 0x8eb]
    0x10000abb8:            f1 1e 20 10  ldd       [%i0 + 0x10], %d24
    0x10000abbc:            81 41 40 00  rd        %pc, %g0
    0x10000abc0:            d1 1b a8 e7  ldd       [%sp + 0x8e7], %d8
    0x10000abc4:            a1 a2 08 ca  fsubd     %d8, %d10, %d16
    0x10000abc8:            95 a0 00 48  fmovd     %d8, %d10
    0x10000abcc:            a5 a4 88 d0  fsubd     %d18, %d16, %d18
    0x10000abd0:            ad a6 08 d2  fsubd     %d24, %d18, %d22
    0x10000abd4:            bf a7 88 d6  fsubd     %d30, %d22, %d62
    0x10000abd8:            ed 1c 20 80  ldd       [%l0 + 0x80], %d22
    0x10000abdc:            c1 3b a8 ef  std       %d0, [%sp + 0x8ef]
    0x10000abe0:            b7 a2 88 5f  faddd     %d10, %d62, %d58
    0x10000abe4:            bb a0 09 56  fmuld     %d0, %d22, %d60
    0x10000abe8:            25 00 00 00  sethi     %hi(0x0), %l2
    0x10000abec:            c0 23 a8 f3  clr       [%sp + 0x8f3]
    0x10000abf0:            b9 a0 09 5f  fmuld     %d0, %d62, %d28
    0x10000abf4:            a2 14 a0 01  or        %l2, 0x1, %l1
    0x10000abf8:            17 00 00 9d  sethi     %hi(0x27400), %o3
    0x10000abfc:            f5 1c 20 88  ldd       [%l0 + 0x88], %d26
    0x10000ac00:            99 2c 70 20  sllx      %l1, 0x20, %o4
    0x10000ac04:            bb 2f 20 1f  sll       %i4, 0x1f, %i5
    0x10000ac08:            94 13 00 0b  or        %o4, %o3, %o2
    0x10000ac0c:            f1 1c 20 90  ldd       [%l0 + 0x90], %d24
    0x10000ac10:            33 0f fc 00  sethi     %hi(0x3ff00000), %i1
    0x10000ac14:            8d a6 c9 5d  fmuld     %d58, %d60, %d6
    0x10000ac18:            b8 02 a3 78  add       %o2, 0x378, %i4
    0x10000ac1c:            e9 1c 20 a0  ldd       [%l0 + 0xa0], %d20
    0x10000ac20:            8a 10 23 ff  mov       0x3ff, %g5
    0x10000ac24:            e5 1c 20 98  ldd       [%l0 + 0x98], %d18
    0x10000ac28:            e1 1c 20 a8  ldd       [%l0 + 0xa8], %d16
    0x10000ac2c:            9c 03 a0 00  add       %sp, 0x0, %sp
    0x10000ac30:            9c 03 a0 00  add       %sp, 0x0, %sp
    0x10000ac34:            9c 03 a0 00  add       %sp, 0x0, %sp
    0x10000ac38:            ff 1b a8 ef  ldd       [%sp + 0x8ef], %d62
    0x10000ac3c:            bd a0 08 df  fsubd     %d0, %d62, %d30
    0x10000ac40:            ad a7 c9 4a  fmuld     %d62, %d10, %d22
    0x10000ac44:            81 a0 1a 46  fdtoi     %d6, %f0
    0x10000ac48:            c1 23 a8 f7  st        %f0, [%sp + 0x8f7]
    0x10000ac4c:            91 a7 89 4a  fmuld     %d30, %d10, %d8
    0x10000ac50:            95 a0 19 00  fitod     %f0, %d10
    0x10000ac54:            bb a2 08 5c  faddd     %d8, %d28, %d60
    0x10000ac58:            bf a2 89 5a  fmuld     %d10, %d26, %d62
    0x10000ac5c:            9c 03 a0 00  add       %sp, 0x0, %sp
    0x10000ac60:            9c 03 a0 00  add       %sp, 0x0, %sp
    0x10000ac64:            9c 03 a0 00  add       %sp, 0x0, %sp
    0x10000ac68:            9c 03 a0 00  add       %sp, 0x0, %sp
    0x10000ac6c:            9c 03 a0 00  add       %sp, 0x0, %sp
    0x10000ac70:            d2 03 a8 f7  ld        [%sp + 0x8f7], %o1
    0x10000ac74:            90 0a 61 ff  and       %o1, 0x1ff, %o0
    0x10000ac78:            a5 3a 60 09  sra       %o1, 0x9, %l2
    0x10000ac7c:            bd a7 c8 d6  fsubd     %d62, %d22, %d30
    0x10000ac80:            89 2a 20 01  sll       %o0, 0x1, %g4
    0x10000ac84:            93 2c a0 14  sll       %l2, 0x14, %o1
    0x10000ac88:            83 39 20 00  sra       %g4, 0x0, %g1
    0x10000ac8c:            ae 02 40 19  add       %o1, %i1, %l7
    0x10000ac90:            b7 28 70 03  sllx      %g1, 0x3, %i3
    0x10000ac94:            ac 15 c0 1d  or        %l7, %i5, %l6
    0x10000ac98:            d9 1e c0 1c  ldd       [%i3 + %i4], %d12
    0x10000ac9c:            b0 06 c0 1c  add       %i3, %i4, %i0
    0x10000aca0:            b4 21 40 12  sub       %g5, %l2, %i2
    0x10000aca4:            95 a7 48 de  fsubd     %d60, %d30, %d10
    0x10000aca8:            f5 1e 20 08  ldd       [%i0 + 0x8], %d26
    0x10000acac:            a8 04 a3 fd  add       %l2, 0x3fd, %l4
    0x10000acb0:            ab 2d b0 20  sllx      %l6, 0x20, %l5
    0x10000acb4:            ea 73 a8 cf  stx       %l5, [%sp + 0x8cf]
    0x10000acb8:            80 96 80 14  orcc      %i2, %l4, %g0
    0x10000acbc:            b7 a3 09 58  fmuld     %d12, %d24, %d58
    0x10000acc0:            91 a2 88 54  faddd     %d10, %d20, %d8
    0x10000acc4:            8d a2 89 4a  fmuld     %d10, %d10, %d6
    0x10000acc8:            b9 a6 c9 4a  fmuld     %d58, %d10, %d28
    0x10000accc:            ad a1 88 52  faddd     %d6, %d18, %d22
    0x10000acd0:            b1 a2 89 48  fmuld     %d10, %d8, %d24
    0x10000acd4:            bd a7 09 56  fmuld     %d28, %d22, %d30
    0x10000acd8:            bf a6 08 50  faddd     %d24, %d16, %d62
    0x10000acdc:            bb a7 89 5f  fmuld     %d30, %d62, %d60
    0x10000ace0:            a9 a6 88 dd  fsubd     %d26, %d60, %d20
    0x10000ace4:            b7 a3 08 d4  fsubd     %d12, %d20, %d58
    0x10000ace8:            16 40 00 20  bge,pn    %icc, +0x80   <0x10000ad68>
    0x10000acec:            f7 3b a8 c7  std       %d58, [%sp + 0x8c7]
    0x10000acf0:            da 03 a8 c7  ld        [%sp + 0x8c7], %o5
    0x10000acf4:            a7 3b 60 14  sra       %o5, 0x14, %l3
    0x10000acf8:            9e 04 c0 12  add       %l3, %l2, %o7
    0x10000acfc:            80 a3 e0 00  cmp       %o7, 0x0
    0x10000ad00:            14 40 00 10  bg,pn     %icc, +0x40   <0x10000ad40>
    0x10000ad04:            80 a3 ff ca  cmp       %o7, -0x36
    0x10000ad08:            14 40 00 06  bg,pn     %icc, +0x18   <0x10000ad20>
    0x10000ad0c:            e5 1c 20 48  ldd       [%l0 + 0x48], %d18
    0x10000ad10:            a9 a3 89 52  fmuld     %d14, %d18, %d20
    0x10000ad14:            e9 3b a8 c7  std       %d20, [%sp + 0x8c7]
    0x10000ad18:            10 80 00 15  ba        +0x54         <0x10000ad6c>
    0x10000ad1c:            91 a0 00 52  fmovd     %d18, %d8
    0x10000ad20:            e1 1c 20 b0  ldd       [%l0 + 0xb0], %d16
    0x10000ad24:            ac 04 a0 64  add       %l2, 0x64, %l6
    0x10000ad28:            ab 2d a0 14  sll       %l6, 0x14, %l5
    0x10000ad2c:            a8 03 40 15  add       %o5, %l5, %l4
    0x10000ad30:            e8 23 a8 c7  st        %l4, [%sp + 0x8c7]
    0x10000ad34:            9d a3 89 50  fmuld     %d14, %d16, %d14
    0x10000ad38:            10 80 00 0d  ba        +0x34         <0x10000ad6c>
    0x10000ad3c:            91 a0 00 4e  fmovd     %d14, %d8
    0x10000ad40:            80 a3 e7 ff  cmp       %o7, 0x7ff
    0x10000ad44:            06 40 00 06  bl,pn     %icc, +0x18   <0x10000ad5c>
    0x10000ad48:            d5 1c 20 40  ldd       [%l0 + 0x40], %d10
    0x10000ad4c:            99 a3 89 4a  fmuld     %d14, %d10, %d12
    0x10000ad50:            d9 3b a8 c7  std       %d12, [%sp + 0x8c7]
    0x10000ad54:            10 80 00 06  ba        +0x18         <0x10000ad6c>
    0x10000ad58:            91 a0 00 4a  fmovd     %d10, %d8
    0x10000ad5c:            dd 3b a8 cf  std       %d14, [%sp + 0x8cf]
    0x10000ad60:            ae 03 40 09  add       %o5, %o1, %l7
    0x10000ad64:            ee 23 a8 c7  st        %l7, [%sp + 0x8c7]
    0x10000ad68:            d1 1b a8 cf  ldd       [%sp + 0x8cf], %d8
    0x10000ad6c:            cd 1b a8 c7  ldd       [%sp + 0x8c7], %d6
    0x10000ad70:            81 a2 09 46  fmuld     %d8, %d6, %d0
    0x10000ad74:            81 c7 e0 08  ret
    0x10000ad78:            81 e8 20 00  restore   %g0, 0x0, %g0
    0x10000ad7c:            80 95 00 15  orcc      %l4, %l5, %g0
    0x10000ad80:            22 40 00 82  be,a,pn   %icc, +0x208  <0x10000af88>
    0x10000ad84:            c1 1c 61 20  ldd       [%l1 + 0x120], %d0
    0x10000ad88:            39 00 00 00  sethi     %hi(0x0), %i4
    0x10000ad8c:            98 17 20 01  or        %i4, 0x1, %o4
    0x10000ad90:            b6 06 40 0d  add       %i1, %o5, %i3
    0x10000ad94:            39 00 04 b7  sethi     %hi(0x12dc00), %i4
    0x10000ad98:            99 2b 30 20  sllx      %o4, 0x20, %o4
    0x10000ad9c:            80 96 c0 0b  orcc      %i3, %o3, %g0
    0x10000ada0:            12 40 00 09  bne,pn    %icc, +0x24   <0x10000adc4>
    0x10000ada4:            98 13 00 1c  or        %o4, %i4, %o4
    0x10000ada8:            f6 03 20 f0  ld        [%o4 + 0xf0], %i3
    0x10000adac:            80 8e e0 80  btst      0x80, %i3
    0x10000adb0:            02 40 00 06  be,pn     %icc, +0x18   <0x10000adc8>
    0x10000adb4:            37 0f fc 00  sethi     %hi(0x3ff00000), %i3
    0x10000adb8:            c1 1c 61 20  ldd       [%l1 + 0x120], %d0
    0x10000adbc:            81 c7 e0 08  ret
    0x10000adc0:            81 e8 20 00  restore   %g0, 0x0, %g0
    0x10000adc4:            37 0f fc 00  sethi     %hi(0x3ff00000), %i3
    0x10000adc8:            80 a5 00 1b  cmp       %l4, %i3
    0x10000adcc:            12 40 00 0b  bne,pn    %icc, +0x2c   <0x10000adf8>
    0x10000add0:            80 a4 a0 00  cmp       %l2, 0x0
    0x10000add4:            06 40 00 05  bl,pn     %icc, +0x14   <0x10000ade8>
    0x10000add8:            e9 1c 61 20  ldd       [%l1 + 0x120], %d20
    0x10000addc:            81 a1 09 54  fmuld     %d4, %d20, %d0
    0x10000ade0:            81 c7 e0 08  ret
    0x10000ade4:            81 e8 20 00  restore   %g0, 0x0, %g0
    0x10000ade8:            ff 1c 61 20  ldd       [%l1 + 0x120], %d62
    0x10000adec:            81 a7 c9 c4  fdivd     %d62, %d4, %d0
    0x10000adf0:            81 c7 e0 08  ret
    0x10000adf4:            81 e8 20 00  restore   %g0, 0x0, %g0
    0x10000adf8:            9a 20 00 0b  neg       %o3, %o5
    0x10000adfc:            13 1f fc 00  sethi     %hi(0x7ff00000), %o1
    0x10000ae00:            88 12 c0 0d  or        %o3, %o5, %g4
    0x10000ae04:            8b 31 20 1f  srl       %g4, 0x1f, %g5
    0x10000ae08:            90 16 80 05  or        %i2, %g5, %o0
    0x10000ae0c:            80 a2 00 09  cmp       %o0, %o1
    0x10000ae10:            38 40 00 5e  bgu,a,pn  %icc, +0x178  <0x10000af88>
    0x10000ae14:            81 a1 09 42  fmuld     %d4, %d2, %d0
    0x10000ae18:            b0 20 00 15  neg       %l5, %i0
    0x10000ae1c:            aa 15 40 18  or        %l5, %i0, %l5
    0x10000ae20:            ad 35 60 1f  srl       %l5, 0x1f, %l6
    0x10000ae24:            ae 15 00 16  or        %l4, %l6, %l7
    0x10000ae28:            80 a5 c0 09  cmp       %l7, %o1
    0x10000ae2c:            08 48 00 05  bleu,pt   %icc, +0x14   <0x10000ae40>
    0x10000ae30:            80 a5 00 09  cmp       %l4, %o1
    0x10000ae34:            81 a1 09 42  fmuld     %d4, %d2, %d0
    0x10000ae38:            81 c7 e0 08  ret
    0x10000ae3c:            81 e8 20 00  restore   %g0, 0x0, %g0
    0x10000ae40:            12 40 00 18  bne,pn    %icc, +0x60   <0x10000aea0>
    0x10000ae44:            80 94 c0 0b  orcc      %l3, %o3, %g0
    0x10000ae48:            12 40 00 09  bne,pn    %icc, +0x24   <0x10000ae6c>
    0x10000ae4c:            80 a4 a0 00  cmp       %l2, 0x0
    0x10000ae50:            e0 03 20 f0  ld        [%o4 + 0xf0], %l0
    0x10000ae54:            80 8c 20 80  btst      0x80, %l0
    0x10000ae58:            22 40 00 4c  be,a,pn   %icc, +0x130  <0x10000af88>
    0x10000ae5c:            81 a0 88 c2  fsubd     %d2, %d2, %d0
    0x10000ae60:            c1 1c 61 20  ldd       [%l1 + 0x120], %d0
    0x10000ae64:            81 c7 e0 08  ret
    0x10000ae68:            81 e8 20 00  restore   %g0, 0x0, %g0
    0x10000ae6c:            04 40 00 06  ble,pn    %icc, +0x18   <0x10000ae84>
    0x10000ae70:            80 a6 80 1b  cmp       %i2, %i3
    0x10000ae74:            26 40 00 02  bl,a,pn   %icc, +0x8    <0x10000ae7c>
    0x10000ae78:            c1 1c 20 30  ldd       [%l0 + 0x30], %d0
    0x10000ae7c:            81 c7 e0 08  ret
    0x10000ae80:            81 e8 20 00  restore   %g0, 0x0, %g0
    0x10000ae84:            06 40 00 04  bl,pn     %icc, +0x10   <0x10000ae94>
    0x10000ae88:            c1 1c 20 30  ldd       [%l0 + 0x30], %d0
    0x10000ae8c:            81 c7 e0 08  ret
    0x10000ae90:            81 e8 20 00  restore   %g0, 0x0, %g0
    0x10000ae94:            81 a0 00 c2  fnegd     %d2, %d0
    0x10000ae98:            81 c7 e0 08  ret
    0x10000ae9c:            81 e8 20 00  restore   %g0, 0x0, %g0
    0x10000aea0:            80 96 80 0b  orcc      %i2, %o3, %g0
    0x10000aea4:            12 40 00 0b  bne,pn    %icc, +0x2c   <0x10000aed0>
    0x10000aea8:            80 a4 a0 00  cmp       %l2, 0x0
    0x10000aeac:            06 40 00 04  bl,pn     %icc, +0x10   <0x10000aebc>
    0x10000aeb0:            c1 1c 20 30  ldd       [%l0 + 0x30], %d0
    0x10000aeb4:            81 c7 e0 08  ret
    0x10000aeb8:            81 e8 20 00  restore   %g0, 0x0, %g0
    0x10000aebc:            ed 1c 61 20  ldd       [%l1 + 0x120], %d22
    0x10000aec0:            f7 1c 20 30  ldd       [%l0 + 0x30], %d58
    0x10000aec4:            81 a5 89 db  fdivd     %d22, %d58, %d0
    0x10000aec8:            81 c7 e0 08  ret
    0x10000aecc:            81 e8 20 00  restore   %g0, 0x0, %g0
    0x10000aed0:            80 a6 80 09  cmp       %i2, %o1
    0x10000aed4:            12 40 00 09  bne,pn    %icc, +0x24   <0x10000aef8>
    0x10000aed8:            80 a4 a0 00  cmp       %l2, 0x0
    0x10000aedc:            26 40 00 05  bl,a,pn   %icc, +0x14   <0x10000aef0>
    0x10000aee0:            c1 1c 20 30  ldd       [%l0 + 0x30], %d0
    0x10000aee4:            81 a1 09 44  fmuld     %d4, %d4, %d0
    0x10000aee8:            81 c7 e0 08  ret
    0x10000aeec:            81 e8 20 00  restore   %g0, 0x0, %g0
    0x10000aef0:            81 c7 e0 08  ret
    0x10000aef4:            81 e8 20 00  restore   %g0, 0x0, %g0
    0x10000aef8:            80 a6 60 00  cmp       %i1, 0x0
    0x10000aefc:            36 40 00 06  bge,a,pn  %icc, +0x18   <0x10000af14>
    0x10000af00:            95 a0 00 c2  fnegd     %d2, %d10
    0x10000af04:            b1 a1 08 c4  fsubd     %d4, %d4, %d24
    0x10000af08:            81 a6 09 d8  fdivd     %d24, %d24, %d0
    0x10000af0c:            81 c7 e0 08  ret
    0x10000af10:            81 e8 20 00  restore   %g0, 0x0, %g0
    0x10000af14:            dd 1c 61 20  ldd       [%l1 + 0x120], %d14
    0x10000af18:            80 a6 80 1b  cmp       %i2, %i3
    0x10000af1c:            95 aa e0 42  fmovdge   %icc, %d2, %d10
    0x10000af20:            81 a2 88 4e  faddd     %d10, %d14, %d0
    0x10000af24:            81 c7 e0 08  ret
    0x10000af28:            81 e8 20 00  restore   %g0, 0x0, %g0
    0x10000af2c:            37 1f ff ff  sethi     %hi(0x7ffffc00), %i3
    0x10000af30:            96 06 e3 ff  add       %i3, 0x3ff, %o3
    0x10000af34:            94 0c 80 0b  and       %l2, %o3, %o2
    0x10000af38:            80 92 80 15  orcc      %o2, %l5, %g0
    0x10000af3c:            12 40 00 04  bne,pn    %icc, +0x10   <0x10000af4c>
    0x10000af40:            c1 1c 61 20  ldd       [%l1 + 0x120], %d0
    0x10000af44:            81 c7 e0 08  ret
    0x10000af48:            81 e8 20 00  restore   %g0, 0x0, %g0
    0x10000af4c:            a2 20 00 15  neg       %l5, %l1
    0x10000af50:            33 1f fc 00  sethi     %hi(0x7ff00000), %i1
    0x10000af54:            96 15 40 11  or        %l5, %l1, %o3
    0x10000af58:            a7 32 e0 1f  srl       %o3, 0x1f, %l3
    0x10000af5c:            b4 12 80 13  or        %o2, %l3, %i2
    0x10000af60:            80 a6 80 19  cmp       %i2, %i1
    0x10000af64:            08 40 00 05  bleu,pn   %icc, +0x14   <0x10000af78>
    0x10000af68:            80 a4 a0 00  cmp       %l2, 0x0
    0x10000af6c:            81 a0 89 42  fmuld     %d2, %d2, %d0
    0x10000af70:            81 c7 e0 08  ret
    0x10000af74:            81 e8 20 00  restore   %g0, 0x0, %g0
    0x10000af78:            16 40 00 03  bge,pn    %icc, +0xc    <0x10000af84>
    0x10000af7c:            b9 a0 00 c2  fnegd     %d2, %d28
    0x10000af80:            89 a7 09 c4  fdivd     %d28, %d4, %d4
    0x10000af84:            81 a0 00 44  fmovd     %d4, %d0
    0x10000af88:            81 c7 e0 08  ret
    0x10000af8c:            81 e8 20 00  restore   %g0, 0x0, %g0
    0x10000af90:            00 00 00 00  illtrap   0x0
    0x10000af94:            00 00 00 00  illtrap   0x0
    0x10000af98:            00 00 00 00  illtrap   0x0
    0x10000af9c:            00 00 00 00  illtrap   0x0
    0x10000afa0:            3f f0 00 00  0x3ff00000
    0x10000afa4:            00 00 00 00  illtrap   0x0
    0x10000afa8:            3f 81 11 0e  fbo,a     +0x44438      <0x10004f3e0>
    0x10000afac:            b1 93 30 12  0xb1933012
    0x10000afb0:            c0 34 00 02  clrh      [%l0 + %g2]
    0x10000afb4:            c7 e7 b8 76  casa      [%fp] %asi, %l6, %g3	<ASI_PST16_S>
    0x10000afb8:            3f a5 55 51  fbo,a     -0x6aaabc     <0xff9604fc>
    0x10000afbc:            2e 39 20 17  illtrap   0x392017
    0x10000afc0:            bf df ff ff  flush     [%i7 - 0x1]
    0x10000afc4:            ff ff 53 8b  0xffff538b
    0x10000afc8:            3e c7 1a 52  0x3ec71a52
    0x10000afcc:            06 51 6d 8f  0x06516d8f
    0x10000afd0:            c0 41 7f 4a  ldsw      [%g5 - 0xb6], %g0
    0x10000afd4:            cc 41 9d 84  ldsw      [%g6 + %g4], %g6
    0x10000afd8:            c0 42 86 44  ldsw      [%o2 + %g4], %g0
    0x10000afdc:            66 d2 f5 11  call      -0x64b42bbc   <0x9b4c8420>
    0x10000afe0:            40 9b 05 43  call      +0x26c150c    <0x1026cc4ec>
    0x10000afe4:            85 4e 40 6b  0x854e406b
    0x10000afe8:            bf a7 d2 ec  0xbfa7d2ec
    0x10000afec:            18 2e 65 66  illtrap   0x2e6566
    0x10000aff0:            bf 41 74 4f  rd        %pc, %i7
    0x10000aff4:            e6 87 83 36  lduwa     [%fp + %l6] 0x19, %l3	<ASI_AIUSL>
    0x10000aff8:            c0 41 45 d1  ldsw      [%g5 + %l1], %g0
    0x10000affc:            13 d1 ae 68  0x13d1ae68
    0x10000b000:            bf e0 00 00  save      %g0, %g0, %i7
    0x10000b004:            00 00 00 00  illtrap   0x0
    0x10000b008:            bf c5 55 55  jmpl      %l5 + %l5, %i7
    0x10000b00c:            55 55 55 46  call      +0x55555518   <0x155560524>
    0x10000b010:            3d e5 d7 71  0x3de5d771
    0x10000b014:            42 38 78 77  call      +0x8e1e1dc    <0x108e291f0>
    0x10000b018:            c0 61 32 5f  0xc061325f
    0x10000b01c:            3d 01 28 cc  sethi     %hi(0x4a33000), %fp
    0x10000b020:            40 b9 2d 90  call      +0x2e4b640    <0x102e56660>
    0x10000b024:            40 df 29 de  call      +0x37ca778    <0x1037d579c>
    0x10000b028:            c0 34 0e e7  clrh      [%l0 + %g7]
    0x10000b02c:            d6 9c 29 93  ldda      [%l0 + 0x993] %asi, %o3
    0x10000b030:            40 bf c7 7d  call      +0x2ff1df4    <0x102ffce24>
    0x10000b034:            e6 66 5f aa  0xe6665faa
    0x10000b038:            bd a8 f9 17  0xbda8f917
    0x10000b03c:            d3 81 64 a1  lda       [%g5 + 0x4a1] %asi, %f9
    0x10000b040:            c0 52 b0 27  ldsh      [%o2 - 0xfd9], %g0
    0x10000b044:            03 86 fe 61  fbne      +0x1bf984     <0x1001ca9c8>
    0x10000b048:            c0 57 8a 6d  ldsh      [%fp + %o5], %g0
    0x10000b04c:            21 48 f5 c5  fbn,a,pt  %fcc0, +0x3d714 <0x100048760>
    0x10000b050:            40 b3 fd 16  call      +0x2cff458    <0x102d0a4a8>
    0x10000b054:            f3 20 cd 73  st        %f25, [%g3 + %l3]
    0x10000b058:            c0 2d d0 91  clrb      [%l7 + %l1]
    0x10000b05c:            12 f4 1d a5  0x12f41da5
    0x10000b060:            40 c2 bb e4  call      +0x30aef90    <0x1030b9ff0>
    0x10000b064:            8d ed 51 14  restore   %l5, %l4, %g6
    0x10000b068:            3f f9 21 fb  0x3ff921fb
    0x10000b06c:            54 44 2d 18  call      +0x5110b460   <0x1511164cc>
    0x10000b070:            3c 91 a6 26  bpos,a    +0x469898     <0x100474908>
    0x10000b074:            33 14 5c 07  sethi     %hi(0x51701c00), %i1
    0x10000b078:            3c 91 a6 26  bpos,a    +0x469898     <0x100474910>
    0x10000b07c:            30 00 00 00  illtrap   0x0
    0x10000b080:            3a e8 a2 e0  0x3ae8a2e0
    0x10000b084:            37 07 34 4a  sethi     %hi(0x1cd12800), %i3
    0x10000b088:            40 09 21 fb  call      +0x2487ec     <0x100253874>
    0x10000b08c:            54 44 2d 18  call      +0x5110b460   <0x1511164ec>
    0x10000b090:            3c a1 a6 26  bpos,a    -0x796768     <0xff874928>
    0x10000b094:            33 14 5c 07  sethi     %hi(0x51701c00), %i1
    0x10000b098:            3c a1 a6 26  bpos,a    -0x796768     <0xff874930>
    0x10000b09c:            33 14 40 00  sethi     %hi(0x51000000), %i1
    0x10000b0a0:            3a 2c 06 e0  illtrap   0x2c06e0
    0x10000b0a4:            e6 89 48 12  lduba     [%g5 + %l2] 0x40, %l3
    0x10000b0a8:            40 12 d9 7c  call      +0x4b65f0     <0x1004c1698>
    0x10000b0ac:            7f 33 21 d2  call      -0x33378b8    <0xfccd37f4>
    0x10000b0b0:            3c aa 79 39  bpos,a    -0x561b1c     <0xffaa9594>
    0x10000b0b4:            4c 9e 8a 0a  call      +0x327a2828   <0x1327ad8dc>
    0x10000b0b8:            3c aa 79 39  bpos,a    -0x561b1c     <0xffaa959c>
    0x10000b0bc:            4c 9e 80 00  call      +0x327a0000   <0x1327ab0bc>
    0x10000b0c0:            3a 14 14 a2  illtrap   0x1414a2
    0x10000b0c4:            b3 9b d8 37  0xb39bd837
    0x10000b0c8:            40 19 21 fb  call      +0x6487ec     <0x1006538b4>
    0x10000b0cc:            54 44 2d 18  call      +0x5110b460   <0x15111652c>
    0x10000b0d0:            3c b1 a6 26  bpos,a    -0x396768     <0xffc74968>
    0x10000b0d4:            33 14 5c 07  sethi     %hi(0x51701c00), %i1
    0x10000b0d8:            3c b1 a6 26  bpos,a    -0x396768     <0xffc74970>
    0x10000b0dc:            33 14 40 00  sethi     %hi(0x51000000), %i1
    0x10000b0e0:            3a 3c 06 e0  illtrap   0x3c06e0
    0x10000b0e4:            e6 89 48 12  lduba     [%g5 + %l2] 0x40, %l3
    0x10000b0e8:            40 1f 6a 7a  call      +0x7da9e8     <0x1007e5ad0>
    0x10000b0ec:            29 55 38 5e  fbl,a,pn  %fcc1, -0xb1e88 <0xfff59264>
    0x10000b0f0:            3c b6 0f af  bpos,a    -0x27c144     <0xffd8efac>
    0x10000b0f4:            bf d9 73 09  flush     [%g5 - 0xcf7]
    0x10000b0f8:            3c b6 0f af  bpos,a    -0x27c144     <0xffd8efb4>
    0x10000b0fc:            bf d9 40 00  flush     [%g5]
    0x10000b100:            3a 49 84 4c  bcc,a,pt  %icc, +0x61130 <0x10006c230>
    0x10000b104:            90 15 cd 0c  or        %l7, %o4, %o0
    0x10000b108:            3f e4 5f 30  0x3fe45f30
    0x10000b10c:            6d c9 c8 83  call      -0x48d8ddf4   <0xb727d318>
    0x10000b110:            3f e0 00 00  0x3fe00000
    0x10000b114:            00 00 00 00  illtrap   0x0
    0x10000b118:            3f f9 21 fb  0x3ff921fb
    0x10000b11c:            54 44 00 00  call      +0x51100000   <0x15110b11c>
    0x10000b120:            3d 86 8c 23  fbule,a   +0x1a308c     <0x1001ae1ac>
    0x10000b124:            4c 4c 66 29  call      +0x313198a4   <0x1313249c8>
    0x10000b128:            3f 10 40 bf  sethi     %hi(0x4102fc00), %i7
    0x10000b12c:            e3 b0 3e 21  stqa      %f17, [-0x1df] %asi
    0x10000b130:            3d 86 8c 23  fbule,a   +0x1a308c     <0x1001ae1bc>
    0x10000b134:            4c 4c 00 00  call      +0x31300000   <0x13130b134>
    0x10000b138:            3b 29 8a 2e  sethi     %hi(0xa628b800), %i5
    0x10000b13c:            03 70 73 45  fbne,pn   %fcc3, +0x1cd14 <0x100027e50>
sincos()
    0x10000b140:            9d e3 bf 20  save      %sp, -0xe0, %sp
    0x10000b144:            c1 27 a7 f7  st        %f0, [%fp + 0x7f7]
    0x10000b148:            3b 00 00 00  sethi     %hi(0x0), %i5
    0x10000b14c:            39 1f ff ff  sethi     %hi(0x7ffffc00), %i4
    0x10000b150:            c3 27 a7 fb  st        %f1, [%fp + 0x7fb]
    0x10000b154:            b6 17 60 01  or        %i5, 0x1, %i3
    0x10000b158:            ae 07 23 ff  add       %i4, 0x3ff, %l7
    0x10000b15c:            b0 10 00 19  mov       %i1, %i0
    0x10000b160:            ad 2e f0 20  sllx      %i3, 0x20, %l6
    0x10000b164:            2b 00 00 2b  sethi     %hi(0xac00), %l5
    0x10000b168:            33 0f fa 60  sethi     %hi(0x3fe98000), %i1
    0x10000b16c:            a6 15 80 15  or        %l6, %l5, %l3
    0x10000b170:            9c 03 a0 00  add       %sp, 0x0, %sp
    0x10000b174:            9c 03 a0 00  add       %sp, 0x0, %sp
    0x10000b178:            9c 03 a0 00  add       %sp, 0x0, %sp
    0x10000b17c:            9c 03 a0 00  add       %sp, 0x0, %sp
    0x10000b180:            9c 03 a0 00  add       %sp, 0x0, %sp
    0x10000b184:            e2 07 a7 f7  ld        [%fp + 0x7f7], %l1
    0x10000b188:            a0 0c 40 17  and       %l1, %l7, %l0
    0x10000b18c:            80 a4 00 19  cmp       %l0, %i1
    0x10000b190:            06 40 02 79  bl,pn     %icc, +0x9e4  <0x10000bb74>
    0x10000b194:            ba 04 e3 a0  add       %l3, 0x3a0, %i5
    0x10000b198:            a5 3c 20 14  sra       %l0, 0x14, %l2
    0x10000b19c:            80 a4 a4 02  cmp       %l2, 0x402
    0x10000b1a0:            16 40 01 64  bge,pn    %icc, +0x590  <0x10000b730>
    0x10000b1a4:            39 00 03 ff  sethi     %hi(0xffc00), %i4
    0x10000b1a8:            af a0 01 40  fabsd     %d0, %d54
    0x10000b1ac:            ae 07 23 ff  add       %i4, 0x3ff, %l7
    0x10000b1b0:            b6 10 24 0d  mov       0x40d, %i3
    0x10000b1b4:            fb 1f 60 08  ldd       [%i5 + 0x8], %d60
    0x10000b1b8:            aa 0c 00 17  and       %l0, %l7, %l5
    0x10000b1bc:            2d 00 04 00  sethi     %hi(0x100000), %l6
    0x10000b1c0:            e1 1f 60 18  ldd       [%i5 + 0x18], %d16
    0x10000b1c4:            90 26 c0 12  sub       %i3, %l2, %o0
    0x10000b1c8:            b2 15 40 16  or        %l5, %l6, %i1
    0x10000b1cc:            f7 1f 60 10  ldd       [%i5 + 0x10], %d58
    0x10000b1d0:            27 00 00 00  sethi     %hi(0x0), %l3
    0x10000b1d4:            a9 3e 40 08  sra       %i1, %o0, %l4
    0x10000b1d8:            d9 1f 60 20  ldd       [%i5 + 0x20], %d12
    0x10000b1dc:            9e 14 e0 01  or        %l3, 0x1, %o7
    0x10000b1e0:            19 00 00 ae  sethi     %hi(0x2b800), %o4
    0x10000b1e4:            e4 07 a7 fb  ld        [%fp + 0x7fb], %l2
    0x10000b1e8:            9b 2b f0 20  sllx      %o7, 0x20, %o5
    0x10000b1ec:            aa 05 3f f6  add       %l4, -0xa, %l5
    0x10000b1f0:            96 13 40 0c  or        %o5, %o4, %o3
    0x10000b1f4:            95 3d 60 00  sra       %l5, 0x0, %o2
    0x10000b1f8:            92 02 e0 78  add       %o3, 0x78, %o1
    0x10000b1fc:            8b 2a b0 03  sllx      %o2, 0x3, %g5
    0x10000b200:            e5 19 40 09  ldd       [%g5 + %o1], %d18
    0x10000b204:            09 00 00 00  sethi     %hi(0x0), %g4
    0x10000b208:            b8 05 3d ff  add       %l4, -0x201, %i4
    0x10000b20c:            ae 05 3e 13  add       %l4, -0x1ed, %l7
    0x10000b210:            90 05 3f 2d  add       %l4, -0xd3, %o0
    0x10000b214:            b6 05 3f 41  add       %l4, -0xbf, %i3
    0x10000b218:            82 11 20 01  or        %g4, 0x1, %g1
    0x10000b21c:            9f a5 c8 d2  fsubd     %d54, %d18, %d46
    0x10000b220:            9e 05 3e c8  add       %l4, -0x138, %o7
    0x10000b224:            b2 05 3e dc  add       %l4, -0x124, %i1
    0x10000b228:            98 05 3f 91  add       %l4, -0x6f, %o4
    0x10000b22c:            96 05 3f a5  add       %l4, -0x5b, %o3
    0x10000b230:            8a 05 40 15  add       %l5, %l5, %g5
    0x10000b234:            a6 1d c0 1c  xor       %l7, %i4, %l3
    0x10000b238:            9a 1e c0 08  xor       %i3, %o0, %o5
    0x10000b23c:            94 1e 40 0f  xor       %i1, %o7, %o2
    0x10000b240:            b3 a3 c9 4f  fmuld     %d46, %d46, %d56
    0x10000b244:            af 39 60 00  sra       %g5, 0x0, %l7
    0x10000b248:            ad 28 70 20  sllx      %g1, 0x20, %l6
    0x10000b24c:            bf a3 c9 5d  fmuld     %d46, %d60, %d62
    0x10000b250:            90 05 3e 64  add       %l4, -0x19c, %o0
    0x10000b254:            92 1a c0 0c  xor       %o3, %o4, %o1
    0x10000b258:            39 00 00 a6  sethi     %hi(0x29800), %i4
    0x10000b25c:            b6 05 3e 78  add       %l4, -0x188, %i3
    0x10000b260:            88 13 40 13  or        %o5, %l3, %g4
    0x10000b264:            a6 05 e0 01  add       %l7, 0x1, %l3
    0x10000b268:            9b a6 49 50  fmuld     %d56, %d16, %d44
    0x10000b26c:            9d a6 48 5b  faddd     %d56, %d58, %d14
    0x10000b270:            b6 1e c0 08  xor       %i3, %o0, %i3
    0x10000b274:            82 12 40 0a  or        %o1, %o2, %g1
    0x10000b278:            97 a7 c9 59  fmuld     %d62, %d56, %d42
    0x10000b27c:            9e 15 80 1c  or        %l6, %i4, %o7
    0x10000b280:            91 2d f0 03  sllx      %l7, 0x3, %o0
    0x10000b284:            9e 03 e1 18  add       %o7, 0x118, %o7
    0x10000b288:            b2 10 40 04  or        %g1, %g4, %i1
    0x10000b28c:            af 2c f0 03  sllx      %l3, 0x3, %l7
    0x10000b290:            e7 1a 00 0f  ldd       [%o0 + %o7], %d50
    0x10000b294:            80 96 40 1b  orcc      %i1, %i3, %g0
    0x10000b298:            a9 a3 48 4c  faddd     %d44, %d12, %d20
    0x10000b29c:            eb 1d c0 0f  ldd       [%l7 + %o7], %d52
    0x10000b2a0:            a3 a2 c9 4e  fmuld     %d42, %d14, %d48
    0x10000b2a4:            a5 a6 49 54  fmuld     %d56, %d20, %d18
    0x10000b2a8:            16 40 01 0f  bge,pn    %icc, +0x43c  <0x10000b6e4>
    0x10000b2ac:            bb a3 c8 51  faddd     %d46, %d48, %d60
    0x10000b2b0:            80 a5 60 65  cmp       %l5, 0x65
    0x10000b2b4:            14 40 00 32  bg,pn     %icc, +0xc8   <0x10000b37c>
    0x10000b2b8:            dd 1f 60 c8  ldd       [%i5 + 0xc8], %d14
    0x10000b2bc:            80 a4 60 00  cmp       %l1, 0x0
    0x10000b2c0:            f3 1f 60 d0  ldd       [%i5 + 0xd0], %d56
    0x10000b2c4:            0b 30 01 b7  sethi     %hi(0xc006dc00), %g5
    0x10000b2c8:            09 15 11 00  sethi     %hi(0x54440000), %g4
    0x10000b2cc:            a9 a4 c9 52  fmuld     %d50, %d18, %d20
    0x10000b2d0:            a3 a3 88 d7  fsubd     %d14, %d54, %d48
    0x10000b2d4:            97 a5 49 5d  fmuld     %d52, %d60, %d42
    0x10000b2d8:            ab a5 08 4b  faddd     %d20, %d42, %d52
    0x10000b2dc:            06 40 00 05  bl,pn     %icc, +0x14   <0x10000b2f0>
    0x10000b2e0:            82 01 62 05  add       %g5, 0x205, %g1
    0x10000b2e4:            9f a4 c8 55  faddd     %d50, %d52, %d46
    0x10000b2e8:            10 80 00 05  ba        +0x14         <0x10000b2fc>
    0x10000b2ec:            94 24 80 04  sub       %l2, %g4, %o2
    0x10000b2f0:            9b a0 00 d3  fnegd     %d50, %d44
    0x10000b2f4:            94 24 80 04  sub       %l2, %g4, %o2
    0x10000b2f8:            9f a3 48 d5  fsubd     %d44, %d52, %d46
    0x10000b2fc:            df 3e 20 00  std       %d46, [%i0]
    0x10000b300:            92 04 00 01  add       %l0, %g1, %o1
    0x10000b304:            b1 32 a0 10  srl       %o2, 0x10, %i0
    0x10000b308:            80 92 40 18  orcc      %o1, %i0, %g0
    0x10000b30c:            12 40 00 09  bne,pn    %icc, +0x24   <0x10000b330>
    0x10000b310:            a7 a4 48 59  faddd     %d48, %d56, %d50
    0x10000b314:            ff 1f 60 d8  ldd       [%i5 + 0xd8], %d62
    0x10000b318:            e1 1f 60 e0  ldd       [%i5 + 0xe0], %d16
    0x10000b31c:            b7 a4 48 5f  faddd     %d48, %d62, %d58
    0x10000b320:            99 a6 c8 50  faddd     %d58, %d16, %d12
    0x10000b324:            d9 3e a0 00  std       %d12, [%i2]
    0x10000b328:            81 c7 e0 08  ret
    0x10000b32c:            81 e8 20 00  restore   %g0, 0x0, %g0
    0x10000b330:            9f a4 c9 53  fmuld     %d50, %d50, %d46
    0x10000b334:            e1 1f 60 30  ldd       [%i5 + 0x30], %d16
    0x10000b338:            f7 1f 60 28  ldd       [%i5 + 0x28], %d58
    0x10000b33c:            ff 1f 60 38  ldd       [%i5 + 0x38], %d62
    0x10000b340:            ef 1f 60 40  ldd       [%i5 + 0x40], %d54
    0x10000b344:            97 a4 c9 5b  fmuld     %d50, %d58, %d42
    0x10000b348:            9b a3 c8 50  faddd     %d46, %d16, %d44
    0x10000b34c:            eb 1f 60 d0  ldd       [%i5 + 0xd0], %d52
    0x10000b350:            99 a3 c8 5f  faddd     %d46, %d62, %d12
    0x10000b354:            9d a3 c9 4d  fmuld     %d46, %d44, %d14
    0x10000b358:            a7 a3 c9 4c  fmuld     %d46, %d12, %d50
    0x10000b35c:            a9 a2 c9 4e  fmuld     %d42, %d14, %d20
    0x10000b360:            b3 a4 c8 57  faddd     %d50, %d54, %d56
    0x10000b364:            a5 a5 09 59  fmuld     %d20, %d56, %d18
    0x10000b368:            bb a4 88 55  faddd     %d18, %d52, %d60
    0x10000b36c:            a3 a4 48 5d  faddd     %d48, %d60, %d48
    0x10000b370:            e3 3e a0 00  std       %d48, [%i2]
    0x10000b374:            81 c7 e0 08  ret
    0x10000b378:            81 e8 20 00  restore   %g0, 0x0, %g0
    0x10000b37c:            80 a5 60 c9  cmp       %l5, 0xc9
    0x10000b380:            14 40 00 3a  bg,pn     %icc, +0xe8   <0x10000b468>
    0x10000b384:            df 1f 60 e8  ldd       [%i5 + 0xe8], %d46
    0x10000b388:            9d a5 49 52  fmuld     %d52, %d18, %d14
    0x10000b38c:            97 a4 c9 5d  fmuld     %d50, %d60, %d42
    0x10000b390:            f3 1f 60 f0  ldd       [%i5 + 0xf0], %d56
    0x10000b394:            27 15 11 00  sethi     %hi(0x54440000), %l3
    0x10000b398:            1f 2f fd b7  sethi     %hi(0xbff6dc00), %o7
    0x10000b39c:            a4 24 80 13  sub       %l2, %l3, %l2
    0x10000b3a0:            9a 03 e2 05  add       %o7, 0x205, %o5
    0x10000b3a4:            a3 a3 c8 d7  fsubd     %d46, %d54, %d48
    0x10000b3a8:            99 34 a0 10  srl       %l2, 0x10, %o4
    0x10000b3ac:            96 04 00 0d  add       %l0, %o5, %o3
    0x10000b3b0:            80 92 c0 0c  orcc      %o3, %o4, %g0
    0x10000b3b4:            a9 a2 c8 ce  fsubd     %d42, %d14, %d20
    0x10000b3b8:            bb a4 48 59  faddd     %d48, %d56, %d60
    0x10000b3bc:            a5 a5 48 d4  fsubd     %d52, %d20, %d18
    0x10000b3c0:            e5 3e a0 00  std       %d18, [%i2]
    0x10000b3c4:            12 40 00 10  bne,pn    %icc, +0x40   <0x10000b404>
    0x10000b3c8:            80 a4 60 00  cmp       %l1, 0x0
    0x10000b3cc:            d9 1f 60 f8  ldd       [%i5 + 0xf8], %d12
    0x10000b3d0:            06 40 00 07  bl,pn     %icc, +0x1c   <0x10000b3ec>
    0x10000b3d4:            9b a4 48 4c  faddd     %d48, %d12, %d44
    0x10000b3d8:            e1 1f 61 00  ldd       [%i5 + 0x100], %d16
    0x10000b3dc:            b7 a3 48 50  faddd     %d44, %d16, %d58
    0x10000b3e0:            f7 3e 20 00  std       %d58, [%i0]
    0x10000b3e4:            81 c7 e0 08  ret
    0x10000b3e8:            81 e8 20 00  restore   %g0, 0x0, %g0
    0x10000b3ec:            e3 1f 61 00  ldd       [%i5 + 0x100], %d48
    0x10000b3f0:            ab a3 48 51  faddd     %d44, %d48, %d52
    0x10000b3f4:            b7 a0 00 d5  fnegd     %d52, %d58
    0x10000b3f8:            f7 3e 20 00  std       %d58, [%i0]
    0x10000b3fc:            81 c7 e0 08  ret
    0x10000b400:            81 e8 20 00  restore   %g0, 0x0, %g0
    0x10000b404:            b3 a7 49 5d  fmuld     %d60, %d60, %d56
    0x10000b408:            e1 1f 60 30  ldd       [%i5 + 0x30], %d16
    0x10000b40c:            eb 1f 60 38  ldd       [%i5 + 0x38], %d52
    0x10000b410:            f7 1f 60 28  ldd       [%i5 + 0x28], %d58
    0x10000b414:            df 1f 60 40  ldd       [%i5 + 0x40], %d46
    0x10000b418:            99 a6 48 55  faddd     %d56, %d52, %d12
    0x10000b41c:            ef 1f 60 f0  ldd       [%i5 + 0xf0], %d54
    0x10000b420:            9b a6 48 50  faddd     %d56, %d16, %d44
    0x10000b424:            a9 a7 49 5b  fmuld     %d60, %d58, %d20
    0x10000b428:            9d a6 49 4c  fmuld     %d56, %d12, %d14
    0x10000b42c:            97 a6 49 4d  fmuld     %d56, %d44, %d42
    0x10000b430:            a5 a3 88 4f  faddd     %d14, %d46, %d18
    0x10000b434:            bb a5 09 4b  fmuld     %d20, %d42, %d60
    0x10000b438:            bf a7 49 52  fmuld     %d60, %d18, %d62
    0x10000b43c:            06 40 00 06  bl,pn     %icc, +0x18   <0x10000b454>
    0x10000b440:            a7 a7 c8 57  faddd     %d62, %d54, %d50
    0x10000b444:            a7 a4 48 53  faddd     %d48, %d50, %d50
    0x10000b448:            e7 3e 20 00  std       %d50, [%i0]
    0x10000b44c:            81 c7 e0 08  ret
    0x10000b450:            81 e8 20 00  restore   %g0, 0x0, %g0
    0x10000b454:            af a0 00 d1  fnegd     %d48, %d54
    0x10000b458:            a7 a5 c8 d3  fsubd     %d54, %d50, %d50
    0x10000b45c:            e7 3e 20 00  std       %d50, [%i0]
    0x10000b460:            81 c7 e0 08  ret
    0x10000b464:            81 e8 20 00  restore   %g0, 0x0, %g0
    0x10000b468:            80 a5 61 2e  cmp       %l5, 0x12e
    0x10000b46c:            14 40 00 32  bg,pn     %icc, +0xc8   <0x10000b534>
    0x10000b470:            d7 1f 61 08  ldd       [%i5 + 0x108], %d42
    0x10000b474:            a9 a5 49 5d  fmuld     %d52, %d60, %d20
    0x10000b478:            bb a4 c9 52  fmuld     %d50, %d18, %d60
    0x10000b47c:            80 a4 60 00  cmp       %l1, 0x0
    0x10000b480:            e5 1f 61 10  ldd       [%i5 + 0x110], %d18
    0x10000b484:            33 2f fb 49  sethi     %hi(0xbfed2400), %i1
    0x10000b488:            11 1f cc c0  sethi     %hi(0x7f330000), %o0
    0x10000b48c:            a3 a5 c8 cb  fsubd     %d54, %d42, %d48
    0x10000b490:            bf a7 48 54  faddd     %d60, %d20, %d62
    0x10000b494:            06 40 00 05  bl,pn     %icc, +0x14   <0x10000b4a8>
    0x10000b498:            a8 06 62 84  add       %i1, 0x284, %l4
    0x10000b49c:            9d a4 c8 5f  faddd     %d50, %d62, %d14
    0x10000b4a0:            10 80 00 05  ba        +0x14         <0x10000b4b4>
    0x10000b4a4:            ae 24 80 08  sub       %l2, %o0, %l7
    0x10000b4a8:            9f a0 00 d3  fnegd     %d50, %d46
    0x10000b4ac:            ae 24 80 08  sub       %l2, %o0, %l7
    0x10000b4b0:            9d a3 c8 df  fsubd     %d46, %d62, %d14
    0x10000b4b4:            aa 04 00 14  add       %l0, %l4, %l5
    0x10000b4b8:            ad 35 e0 10  srl       %l7, 0x10, %l6
    0x10000b4bc:            9b a4 48 d2  fsubd     %d48, %d18, %d44
    0x10000b4c0:            80 95 40 16  orcc      %l5, %l6, %g0
    0x10000b4c4:            12 40 00 09  bne,pn    %icc, +0x24   <0x10000b4e8>
    0x10000b4c8:            dd 3e 20 00  std       %d14, [%i0]
    0x10000b4cc:            eb 1f 61 18  ldd       [%i5 + 0x118], %d52
    0x10000b4d0:            e1 1f 61 20  ldd       [%i5 + 0x120], %d16
    0x10000b4d4:            b7 a4 48 d5  fsubd     %d48, %d52, %d58
    0x10000b4d8:            99 a6 c8 d0  fsubd     %d58, %d16, %d12
    0x10000b4dc:            d9 3e a0 00  std       %d12, [%i2]
    0x10000b4e0:            81 c7 e0 08  ret
    0x10000b4e4:            81 e8 20 00  restore   %g0, 0x0, %g0
    0x10000b4e8:            9d a3 49 4d  fmuld     %d44, %d44, %d14
    0x10000b4ec:            e1 1f 60 30  ldd       [%i5 + 0x30], %d16
    0x10000b4f0:            f7 1f 60 28  ldd       [%i5 + 0x28], %d58
    0x10000b4f4:            eb 1f 60 38  ldd       [%i5 + 0x38], %d52
    0x10000b4f8:            ef 1f 60 40  ldd       [%i5 + 0x40], %d54
    0x10000b4fc:            a9 a3 49 5b  fmuld     %d44, %d58, %d20
    0x10000b500:            9f a3 88 50  faddd     %d14, %d16, %d46
    0x10000b504:            e5 1f 61 10  ldd       [%i5 + 0x110], %d18
    0x10000b508:            99 a3 88 55  faddd     %d14, %d52, %d12
    0x10000b50c:            97 a3 89 4f  fmuld     %d14, %d46, %d42
    0x10000b510:            9b a3 89 4c  fmuld     %d14, %d12, %d44
    0x10000b514:            bb a5 09 4b  fmuld     %d20, %d42, %d60
    0x10000b518:            a7 a3 48 57  faddd     %d44, %d54, %d50
    0x10000b51c:            bf a7 49 53  fmuld     %d60, %d50, %d62
    0x10000b520:            b3 a7 c8 d2  fsubd     %d62, %d18, %d56
    0x10000b524:            a3 a4 48 59  faddd     %d48, %d56, %d48
    0x10000b528:            e3 3e a0 00  std       %d48, [%i2]
    0x10000b52c:            81 c7 e0 08  ret
    0x10000b530:            81 e8 20 00  restore   %g0, 0x0, %g0
    0x10000b534:            80 a5 61 92  cmp       %l5, 0x192
    0x10000b538:            14 40 00 3a  bg,pn     %icc, +0xe8   <0x10000b620>
    0x10000b53c:            d7 1f 61 28  ldd       [%i5 + 0x128], %d42
    0x10000b540:            a9 a5 49 52  fmuld     %d52, %d18, %d20
    0x10000b544:            a7 a4 c9 5d  fmuld     %d50, %d60, %d50
    0x10000b548:            fb 1f 61 30  ldd       [%i5 + 0x130], %d60
    0x10000b54c:            13 15 11 00  sethi     %hi(0x54440000), %o1
    0x10000b550:            0b 2f f9 b7  sethi     %hi(0xbfe6dc00), %g5
    0x10000b554:            88 24 80 09  sub       %l2, %o1, %g4
    0x10000b558:            82 01 62 05  add       %g5, 0x205, %g1
    0x10000b55c:            a3 a5 c8 cb  fsubd     %d54, %d42, %d48
    0x10000b560:            b9 31 20 10  srl       %g4, 0x10, %i4
    0x10000b564:            b6 04 00 01  add       %l0, %g1, %i3
    0x10000b568:            80 96 c0 1c  orcc      %i3, %i4, %g0
    0x10000b56c:            a5 a4 c8 d4  fsubd     %d50, %d20, %d18
    0x10000b570:            b3 a4 48 dd  fsubd     %d48, %d60, %d56
    0x10000b574:            bf a5 48 d2  fsubd     %d52, %d18, %d62
    0x10000b578:            ff 3e a0 00  std       %d62, [%i2]
    0x10000b57c:            12 40 00 10  bne,pn    %icc, +0x40   <0x10000b5bc>
    0x10000b580:            80 a4 60 00  cmp       %l1, 0x0
    0x10000b584:            dd 1f 61 38  ldd       [%i5 + 0x138], %d14
    0x10000b588:            06 40 00 07  bl,pn     %icc, +0x1c   <0x10000b5a4>
    0x10000b58c:            9b a4 48 ce  fsubd     %d48, %d14, %d44
    0x10000b590:            d9 1f 61 40  ldd       [%i5 + 0x140], %d12
    0x10000b594:            9f a3 48 cc  fsubd     %d44, %d12, %d46
    0x10000b598:            df 3e 20 00  std       %d46, [%i0]
    0x10000b59c:            81 c7 e0 08  ret
    0x10000b5a0:            81 e8 20 00  restore   %g0, 0x0, %g0
    0x10000b5a4:            e3 1f 61 40  ldd       [%i5 + 0x140], %d48
    0x10000b5a8:            a1 a3 48 d1  fsubd     %d44, %d48, %d16
    0x10000b5ac:            9f a0 00 d0  fnegd     %d16, %d46
    0x10000b5b0:            df 3e 20 00  std       %d46, [%i0]
    0x10000b5b4:            81 c7 e0 08  ret
    0x10000b5b8:            81 e8 20 00  restore   %g0, 0x0, %g0
    0x10000b5bc:            97 a6 49 59  fmuld     %d56, %d56, %d42
    0x10000b5c0:            d9 1f 60 30  ldd       [%i5 + 0x30], %d12
    0x10000b5c4:            e1 1f 60 38  ldd       [%i5 + 0x38], %d16
    0x10000b5c8:            df 1f 60 28  ldd       [%i5 + 0x28], %d46
    0x10000b5cc:            e9 1f 60 40  ldd       [%i5 + 0x40], %d20
    0x10000b5d0:            9d a2 c8 50  faddd     %d42, %d16, %d14
    0x10000b5d4:            f7 1f 61 30  ldd       [%i5 + 0x130], %d58
    0x10000b5d8:            9b a2 c8 4c  faddd     %d42, %d12, %d44
    0x10000b5dc:            a5 a6 49 4f  fmuld     %d56, %d46, %d18
    0x10000b5e0:            a7 a2 c9 4e  fmuld     %d42, %d14, %d50
    0x10000b5e4:            bb a2 c9 4d  fmuld     %d42, %d44, %d60
    0x10000b5e8:            bf a4 c8 54  faddd     %d50, %d20, %d62
    0x10000b5ec:            b3 a4 89 5d  fmuld     %d18, %d60, %d56
    0x10000b5f0:            af a6 49 5f  fmuld     %d56, %d62, %d54
    0x10000b5f4:            06 40 00 06  bl,pn     %icc, +0x18   <0x10000b60c>
    0x10000b5f8:            ab a5 c8 db  fsubd     %d54, %d58, %d52
    0x10000b5fc:            ab a4 48 55  faddd     %d48, %d52, %d52
    0x10000b600:            eb 3e 20 00  std       %d52, [%i0]
    0x10000b604:            81 c7 e0 08  ret
    0x10000b608:            81 e8 20 00  restore   %g0, 0x0, %g0
    0x10000b60c:            af a0 00 d1  fnegd     %d48, %d54
    0x10000b610:            ab a5 c8 d5  fsubd     %d54, %d52, %d52
    0x10000b614:            eb 3e 20 00  std       %d52, [%i0]
    0x10000b618:            81 c7 e0 08  ret
    0x10000b61c:            81 e8 20 00  restore   %g0, 0x0, %g0
    0x10000b620:            a5 a4 c9 52  fmuld     %d50, %d18, %d18
    0x10000b624:            e9 1f 61 48  ldd       [%i5 + 0x148], %d20
    0x10000b628:            80 a4 60 00  cmp       %l1, 0x0
    0x10000b62c:            19 2f f8 25  sethi     %hi(0xbfe09400), %o4
    0x10000b630:            bf a5 49 5d  fmuld     %d52, %d60, %d62
    0x10000b634:            f3 1f 61 50  ldd       [%i5 + 0x150], %d56
    0x10000b638:            17 0a 55 40  sethi     %hi(0x29550000), %o3
    0x10000b63c:            a3 a5 08 d7  fsubd     %d20, %d54, %d48
    0x10000b640:            b7 a4 88 5f  faddd     %d18, %d62, %d58
    0x10000b644:            06 40 00 05  bl,pn     %icc, +0x14   <0x10000b658>
    0x10000b648:            94 03 21 86  add       %o4, 0x186, %o2
    0x10000b64c:            bb a4 c8 5b  faddd     %d50, %d58, %d60
    0x10000b650:            10 80 00 05  ba        +0x14         <0x10000b664>
    0x10000b654:            9e 24 80 0b  sub       %l2, %o3, %o7
    0x10000b658:            97 a0 00 d3  fnegd     %d50, %d42
    0x10000b65c:            9e 24 80 0b  sub       %l2, %o3, %o7
    0x10000b660:            bb a2 c8 db  fsubd     %d42, %d58, %d60
    0x10000b664:            fb 3e 20 00  std       %d60, [%i0]
    0x10000b668:            9a 04 00 0a  add       %l0, %o2, %o5
    0x10000b66c:            b1 33 e0 10  srl       %o7, 0x10, %i0
    0x10000b670:            80 93 40 18  orcc      %o5, %i0, %g0
    0x10000b674:            12 40 00 09  bne,pn    %icc, +0x24   <0x10000b698>
    0x10000b678:            a7 a4 48 59  faddd     %d48, %d56, %d50
    0x10000b67c:            d9 1f 61 58  ldd       [%i5 + 0x158], %d12
    0x10000b680:            df 1f 61 60  ldd       [%i5 + 0x160], %d46
    0x10000b684:            9d a4 48 4c  faddd     %d48, %d12, %d14
    0x10000b688:            9b a3 88 4f  faddd     %d14, %d46, %d44
    0x10000b68c:            db 3e a0 00  std       %d44, [%i2]
    0x10000b690:            81 c7 e0 08  ret
    0x10000b694:            81 e8 20 00  restore   %g0, 0x0, %g0
    0x10000b698:            b3 a4 c9 53  fmuld     %d50, %d50, %d56
    0x10000b69c:            dd 1f 60 28  ldd       [%i5 + 0x28], %d14
    0x10000b6a0:            d9 1f 60 38  ldd       [%i5 + 0x38], %d12
    0x10000b6a4:            df 1f 60 30  ldd       [%i5 + 0x30], %d46
    0x10000b6a8:            a9 a4 c9 4e  fmuld     %d50, %d14, %d20
    0x10000b6ac:            ef 1f 60 40  ldd       [%i5 + 0x40], %d54
    0x10000b6b0:            9b a6 48 4c  faddd     %d56, %d12, %d44
    0x10000b6b4:            f7 1f 61 50  ldd       [%i5 + 0x150], %d58
    0x10000b6b8:            bb a6 48 4f  faddd     %d56, %d46, %d60
    0x10000b6bc:            a7 a6 49 4d  fmuld     %d56, %d44, %d50
    0x10000b6c0:            97 a6 49 5d  fmuld     %d56, %d60, %d42
    0x10000b6c4:            bf a4 c8 57  faddd     %d50, %d54, %d62
    0x10000b6c8:            a5 a5 09 4b  fmuld     %d20, %d42, %d18
    0x10000b6cc:            ab a4 89 5f  fmuld     %d18, %d62, %d52
    0x10000b6d0:            a1 a5 48 5b  faddd     %d52, %d58, %d16
    0x10000b6d4:            a3 a4 48 50  faddd     %d48, %d16, %d48
    0x10000b6d8:            e3 3e a0 00  std       %d48, [%i2]
    0x10000b6dc:            81 c7 e0 08  ret
    0x10000b6e0:            81 e8 20 00  restore   %g0, 0x0, %g0
    0x10000b6e4:            bf a5 49 52  fmuld     %d52, %d18, %d62
    0x10000b6e8:            80 a4 60 00  cmp       %l1, 0x0
    0x10000b6ec:            a3 a4 c9 5d  fmuld     %d50, %d60, %d48
    0x10000b6f0:            a9 a5 49 5d  fmuld     %d52, %d60, %d20
    0x10000b6f4:            a5 a4 c9 52  fmuld     %d50, %d18, %d18
    0x10000b6f8:            b7 a4 48 df  fsubd     %d48, %d62, %d58
    0x10000b6fc:            a1 a4 88 54  faddd     %d18, %d20, %d16
    0x10000b700:            ab a5 48 db  fsubd     %d52, %d58, %d52
    0x10000b704:            06 40 00 06  bl,pn     %icc, +0x18   <0x10000b71c>
    0x10000b708:            eb 3e a0 00  std       %d52, [%i2]
    0x10000b70c:            97 a4 c8 50  faddd     %d50, %d16, %d42
    0x10000b710:            d7 3e 20 00  std       %d42, [%i0]
    0x10000b714:            81 c7 e0 08  ret
    0x10000b718:            81 e8 20 00  restore   %g0, 0x0, %g0
    0x10000b71c:            a7 a0 00 d3  fnegd     %d50, %d50
    0x10000b720:            97 a4 c8 d0  fsubd     %d50, %d16, %d42
    0x10000b724:            d7 3e 20 00  std       %d42, [%i0]
    0x10000b728:            81 c7 e0 08  ret
    0x10000b72c:            81 e8 20 00  restore   %g0, 0x0, %g0
    0x10000b730:            80 a4 a4 12  cmp       %l2, 0x412
    0x10000b734:            16 40 00 ae  bge,pn    %icc, +0x2b8  <0x10000b9ec>
    0x10000b738:            fb 1f 61 68  ldd       [%i5 + 0x168], %d60
    0x10000b73c:            80 90 00 11  tst       %l1
    0x10000b740:            06 40 00 06  bl,pn     %icc, +0x18   <0x10000b758>
    0x10000b744:            af a0 09 5d  fmuld     %d0, %d60, %d54
    0x10000b748:            dd 1f 61 70  ldd       [%i5 + 0x170], %d14
    0x10000b74c:            9b a5 c8 4e  faddd     %d54, %d14, %d44
    0x10000b750:            10 80 00 05  ba        +0x14         <0x10000b764>
    0x10000b754:            91 a0 1a 4d  fdtoi     %d44, %f8
    0x10000b758:            df 1f 60 60  ldd       [%i5 + 0x60], %d46
    0x10000b75c:            9b a5 c8 4f  faddd     %d54, %d46, %d44
    0x10000b760:            91 a0 1a 4d  fdtoi     %d44, %f8
    0x10000b764:            99 a0 19 08  fitod     %f8, %d12
    0x10000b768:            f3 1f 61 88  ldd       [%i5 + 0x188], %d56
    0x10000b76c:            e3 1f 61 78  ldd       [%i5 + 0x178], %d48
    0x10000b770:            e9 1f 61 80  ldd       [%i5 + 0x180], %d20
    0x10000b774:            a5 a5 c8 cc  fsubd     %d54, %d12, %d18
    0x10000b778:            b7 a3 09 51  fmuld     %d12, %d48, %d58
    0x10000b77c:            b5 a3 09 54  fmuld     %d12, %d20, %d26
    0x10000b780:            a1 a0 01 52  fabsd     %d18, %d16
    0x10000b784:            81 ac 0a d9  fcmped    %fcc0, %d16, %d56
    0x10000b788:            1d 40 00 5b  fbule,pn  %fcc0, +0x16c  <0x10000b8f4>
    0x10000b78c:            9d a0 08 db  fsubd     %d0, %d58, %d14
    0x10000b790:            db 1f 60 98  ldd       [%i5 + 0x98], %d44
    0x10000b794:            f3 1f 60 78  ldd       [%i5 + 0x78], %d56
    0x10000b798:            8d a0 1a 4c  fdtoi     %d12, %f6
    0x10000b79c:            d7 1f 60 a8  ldd       [%i5 + 0xa8], %d42
    0x10000b7a0:            e5 1f 60 70  ldd       [%i5 + 0x70], %d18
    0x10000b7a4:            bd a3 88 da  fsubd     %d14, %d26, %d30
    0x10000b7a8:            ef 1f 60 b8  ldd       [%i5 + 0xb8], %d54
    0x10000b7ac:            eb 1f 60 88  ldd       [%i5 + 0x88], %d52
    0x10000b7b0:            e7 1f 60 a0  ldd       [%i5 + 0xa0], %d50
    0x10000b7b4:            e1 1f 60 60  ldd       [%i5 + 0x60], %d16
    0x10000b7b8:            89 a0 18 de  fdtos     %d30, %f4
    0x10000b7bc:            b9 a7 89 5e  fmuld     %d30, %d30, %d28
    0x10000b7c0:            d9 1f 60 90  ldd       [%i5 + 0x90], %d12
    0x10000b7c4:            9f a7 89 52  fmuld     %d30, %d18, %d46
    0x10000b7c8:            e5 1f 60 c0  ldd       [%i5 + 0xc0], %d18
    0x10000b7cc:            cd 23 a8 af  st        %f6, [%sp + 0x8af]
    0x10000b7d0:            ed 1c e3 a0  ldd       [%l3 + 0x3a0], %d22
    0x10000b7d4:            b1 a0 19 24  fstod     %f4, %d24
    0x10000b7d8:            bf a7 09 4d  fmuld     %d28, %d44, %d62
    0x10000b7dc:            db 1f 60 b0  ldd       [%i5 + 0xb0], %d44
    0x10000b7e0:            b7 a7 08 59  faddd     %d28, %d56, %d58
    0x10000b7e4:            a3 a7 09 5c  fmuld     %d28, %d28, %d48
    0x10000b7e8:            bb a7 08 4b  faddd     %d28, %d42, %d60
    0x10000b7ec:            d7 1f 60 80  ldd       [%i5 + 0x80], %d42
    0x10000b7f0:            b3 a7 08 57  faddd     %d28, %d54, %d56
    0x10000b7f4:            af a3 88 d8  fsubd     %d14, %d24, %d54
    0x10000b7f8:            a9 a7 c9 5c  fmuld     %d62, %d28, %d20
    0x10000b7fc:            dd 1f 60 68  ldd       [%i5 + 0x68], %d14
    0x10000b800:            bf a7 08 55  faddd     %d28, %d52, %d62
    0x10000b804:            b7 a7 09 5b  fmuld     %d28, %d58, %d58
    0x10000b808:            ab a7 08 53  faddd     %d28, %d50, %d52
    0x10000b80c:            bb a7 09 5d  fmuld     %d28, %d60, %d60
    0x10000b810:            a7 a3 c9 51  fmuld     %d46, %d48, %d50
    0x10000b814:            e2 03 a8 af  ld        [%sp + 0x8af], %l1
    0x10000b818:            b5 a5 c8 da  fsubd     %d54, %d26, %d26
    0x10000b81c:            b3 a7 09 59  fmuld     %d28, %d56, %d56
    0x10000b820:            af a6 c8 4b  faddd     %d58, %d42, %d54
    0x10000b824:            9f a7 09 5f  fmuld     %d28, %d62, %d46
    0x10000b828:            a0 0c 60 03  and       %l1, 0x3, %l0
    0x10000b82c:            9b a7 48 4d  faddd     %d60, %d44, %d44
    0x10000b830:            bb a5 09 55  fmuld     %d20, %d52, %d60
    0x10000b834:            80 a4 20 02  cmp       %l0, 0x2
    0x10000b838:            ab a6 09 50  fmuld     %d24, %d16, %d52
    0x10000b83c:            97 a6 89 50  fmuld     %d26, %d16, %d42
    0x10000b840:            a3 a6 48 52  faddd     %d56, %d18, %d48
    0x10000b844:            a5 a3 c8 4c  faddd     %d46, %d12, %d18
    0x10000b848:            b7 a4 c9 57  fmuld     %d50, %d54, %d58
    0x10000b84c:            a9 a7 49 4d  fmuld     %d60, %d44, %d20
    0x10000b850:            bf a7 89 4e  fmuld     %d30, %d14, %d62
    0x10000b854:            b3 a6 08 cb  fsubd     %d24, %d42, %d56
    0x10000b858:            af a5 49 58  fmuld     %d52, %d24, %d54
    0x10000b85c:            a1 a6 c9 52  fmuld     %d58, %d18, %d16
    0x10000b860:            99 a5 09 51  fmuld     %d20, %d48, %d12
    0x10000b864:            9b a7 c9 5c  fmuld     %d62, %d28, %d44
    0x10000b868:            9f a6 89 59  fmuld     %d26, %d56, %d46
    0x10000b86c:            9d a6 88 50  faddd     %d26, %d16, %d14
    0x10000b870:            bb a3 c8 cc  fsubd     %d46, %d12, %d60
    0x10000b874:            a7 a3 48 4e  faddd     %d44, %d14, %d50
    0x10000b878:            97 a5 c8 dd  fsubd     %d54, %d60, %d42
    0x10000b87c:            ab a6 08 53  faddd     %d24, %d50, %d52
    0x10000b880:            06 40 00 10  bl,pn     %icc, +0x40   <0x10000b8c0>
    0x10000b884:            bf a2 c8 56  faddd     %d42, %d22, %d62
    0x10000b888:            02 40 00 08  be,pn     %icc, +0x20   <0x10000b8a8>
    0x10000b88c:            80 a4 20 03  cmp       %l0, 0x3
    0x10000b890:            12 40 01 2f  bne,pn    %icc, +0x4bc  <0x10000bd4c>
    0x10000b894:            9f a0 00 df  fnegd     %d62, %d46
    0x10000b898:            df 3e 20 00  std       %d46, [%i0]
    0x10000b89c:            eb 3e a0 00  std       %d52, [%i2]
    0x10000b8a0:            81 c7 e0 08  ret
    0x10000b8a4:            81 e8 20 00  restore   %g0, 0x0, %g0
    0x10000b8a8:            b7 a0 00 d5  fnegd     %d52, %d58
    0x10000b8ac:            f7 3e 20 00  std       %d58, [%i0]
    0x10000b8b0:            99 a0 00 df  fnegd     %d62, %d12
    0x10000b8b4:            d9 3e a0 00  std       %d12, [%i2]
    0x10000b8b8:            81 c7 e0 08  ret
    0x10000b8bc:            81 e8 20 00  restore   %g0, 0x0, %g0
    0x10000b8c0:            80 a4 20 00  cmp       %l0, 0x0
    0x10000b8c4:            02 40 00 08  be,pn     %icc, +0x20   <0x10000b8e4>
    0x10000b8c8:            80 a4 20 01  cmp       %l0, 0x1
    0x10000b8cc:            12 40 01 20  bne,pn    %icc, +0x480  <0x10000bd4c>
    0x10000b8d0:            bb a0 00 d5  fnegd     %d52, %d60
    0x10000b8d4:            ff 3e 20 00  std       %d62, [%i0]
    0x10000b8d8:            fb 3e a0 00  std       %d60, [%i2]
    0x10000b8dc:            81 c7 e0 08  ret
    0x10000b8e0:            81 e8 20 00  restore   %g0, 0x0, %g0
    0x10000b8e4:            eb 3e 20 00  std       %d52, [%i0]
    0x10000b8e8:            ff 3e a0 00  std       %d62, [%i2]
    0x10000b8ec:            81 c7 e0 08  ret
    0x10000b8f0:            81 e8 20 00  restore   %g0, 0x0, %g0
    0x10000b8f4:            df 1f 61 90  ldd       [%i5 + 0x190], %d46
    0x10000b8f8:            85 a0 1a 4c  fdtoi     %d12, %f2
    0x10000b8fc:            d7 1f 61 98  ldd       [%i5 + 0x198], %d42
    0x10000b900:            f3 1f 60 08  ldd       [%i5 + 0x8], %d56
    0x10000b904:            a5 a3 09 4f  fmuld     %d12, %d46, %d18
    0x10000b908:            ef 1f 60 18  ldd       [%i5 + 0x18], %d54
    0x10000b90c:            ab a3 09 4b  fmuld     %d12, %d42, %d52
    0x10000b910:            e7 1f 60 10  ldd       [%i5 + 0x10], %d50
    0x10000b914:            e3 1f 60 20  ldd       [%i5 + 0x20], %d48
    0x10000b918:            c5 23 a8 af  st        %f2, [%sp + 0x8af]
    0x10000b91c:            99 a3 88 d2  fsubd     %d14, %d18, %d12
    0x10000b920:            e9 1c e3 a0  ldd       [%l3 + 0x3a0], %d20
    0x10000b924:            97 a3 08 d5  fsubd     %d12, %d52, %d42
    0x10000b928:            bb a3 88 cc  fsubd     %d14, %d12, %d60
    0x10000b92c:            9b a2 c9 4b  fmuld     %d42, %d42, %d44
    0x10000b930:            bf a3 08 cb  fsubd     %d12, %d42, %d62
    0x10000b934:            e6 03 a8 af  ld        [%sp + 0x8af], %l3
    0x10000b938:            a1 a2 c9 59  fmuld     %d42, %d56, %d16
    0x10000b93c:            9d a7 48 d2  fsubd     %d60, %d18, %d14
    0x10000b940:            a4 0c e0 03  and       %l3, 0x3, %l2
    0x10000b944:            80 a4 a0 02  cmp       %l2, 0x2
    0x10000b948:            9f a7 c8 d5  fsubd     %d62, %d52, %d46
    0x10000b94c:            b7 a3 49 57  fmuld     %d44, %d54, %d58
    0x10000b950:            99 a3 48 53  faddd     %d44, %d50, %d12
    0x10000b954:            bb a4 09 4d  fmuld     %d16, %d44, %d60
    0x10000b958:            af a3 c8 4e  faddd     %d46, %d14, %d54
    0x10000b95c:            a5 a6 c8 51  faddd     %d58, %d48, %d18
    0x10000b960:            b3 a7 49 4c  fmuld     %d60, %d12, %d56
    0x10000b964:            a7 a2 c9 57  fmuld     %d42, %d54, %d50
    0x10000b968:            ab a3 49 52  fmuld     %d44, %d18, %d52
    0x10000b96c:            bf a5 c8 59  faddd     %d54, %d56, %d62
    0x10000b970:            a1 a4 c8 d5  fsubd     %d50, %d52, %d16
    0x10000b974:            a3 a2 c8 5f  faddd     %d42, %d62, %d48
    0x10000b978:            06 40 00 10  bl,pn     %icc, +0x40   <0x10000b9b8>
    0x10000b97c:            9d a5 08 d0  fsubd     %d20, %d16, %d14
    0x10000b980:            02 40 00 08  be,pn     %icc, +0x20   <0x10000b9a0>
    0x10000b984:            80 a4 a0 03  cmp       %l2, 0x3
    0x10000b988:            12 40 00 f1  bne,pn    %icc, +0x3c4  <0x10000bd4c>
    0x10000b98c:            a1 a0 00 ce  fnegd     %d14, %d16
    0x10000b990:            e1 3e 20 00  std       %d16, [%i0]
    0x10000b994:            e3 3e a0 00  std       %d48, [%i2]
    0x10000b998:            81 c7 e0 08  ret
    0x10000b99c:            81 e8 20 00  restore   %g0, 0x0, %g0
    0x10000b9a0:            b7 a0 00 d1  fnegd     %d48, %d58
    0x10000b9a4:            f7 3e 20 00  std       %d58, [%i0]
    0x10000b9a8:            9d a0 00 ce  fnegd     %d14, %d14
    0x10000b9ac:            dd 3e a0 00  std       %d14, [%i2]
    0x10000b9b0:            81 c7 e0 08  ret
    0x10000b9b4:            81 e8 20 00  restore   %g0, 0x0, %g0
    0x10000b9b8:            80 a4 a0 00  cmp       %l2, 0x0
    0x10000b9bc:            02 40 00 08  be,pn     %icc, +0x20   <0x10000b9dc>
    0x10000b9c0:            80 a4 a0 01  cmp       %l2, 0x1
    0x10000b9c4:            12 40 00 e2  bne,pn    %icc, +0x388  <0x10000bd4c>
    0x10000b9c8:            9b a0 00 d1  fnegd     %d48, %d44
    0x10000b9cc:            dd 3e 20 00  std       %d14, [%i0]
    0x10000b9d0:            db 3e a0 00  std       %d44, [%i2]
    0x10000b9d4:            81 c7 e0 08  ret
    0x10000b9d8:            81 e8 20 00  restore   %g0, 0x0, %g0
    0x10000b9dc:            e3 3e 20 00  std       %d48, [%i0]
    0x10000b9e0:            dd 3e a0 00  std       %d14, [%i2]
    0x10000b9e4:            81 c7 e0 08  ret
    0x10000b9e8:            81 e8 20 00  restore   %g0, 0x0, %g0
    0x10000b9ec:            80 a4 a7 ff  cmp       %l2, 0x7ff
    0x10000b9f0:            06 40 00 07  bl,pn     %icc, +0x1c   <0x10000ba0c>
    0x10000b9f4:            01 00 00 00  nop
    0x10000b9f8:            a5 a0 09 c0  fdivd     %d0, %d0, %d18
    0x10000b9fc:            e5 3e a0 00  std       %d18, [%i2]
    0x10000ba00:            e5 3e 20 00  std       %d18, [%i0]
    0x10000ba04:            81 c7 e0 08  ret
    0x10000ba08:            81 e8 20 00  restore   %g0, 0x0, %g0
    0x10000ba0c:            40 00 00 dd  call      +0x374        <0x10000bd80>
    0x10000ba10:            92 07 a7 e7  add       %fp, 0x7e7, %o1
    0x10000ba14:            eb 1f a7 e7  ldd       [%fp + 0x7e7], %d52
    0x10000ba18:            a8 0a 20 03  and       %o0, 0x3, %l4
    0x10000ba1c:            d7 1f a7 ef  ldd       [%fp + 0x7ef], %d42
    0x10000ba20:            80 a5 20 02  cmp       %l4, 0x2
    0x10000ba24:            df 1f 60 98  ldd       [%i5 + 0x98], %d46
    0x10000ba28:            f7 1f 60 a8  ldd       [%i5 + 0xa8], %d58
    0x10000ba2c:            bd a5 48 4b  faddd     %d52, %d42, %d30
    0x10000ba30:            e5 1f 60 70  ldd       [%i5 + 0x70], %d18
    0x10000ba34:            f3 1f 60 78  ldd       [%i5 + 0x78], %d56
    0x10000ba38:            e7 1f 60 b8  ldd       [%i5 + 0xb8], %d50
    0x10000ba3c:            ef 1f 60 a0  ldd       [%i5 + 0xa0], %d54
    0x10000ba40:            b9 a7 89 5e  fmuld     %d30, %d30, %d28
    0x10000ba44:            81 a0 18 de  fdtos     %d30, %f0
    0x10000ba48:            e3 1f 60 88  ldd       [%i5 + 0x88], %d48
    0x10000ba4c:            9b a7 89 52  fmuld     %d30, %d18, %d44
    0x10000ba50:            e9 1f 60 b0  ldd       [%i5 + 0xb0], %d20
    0x10000ba54:            e5 1f 60 80  ldd       [%i5 + 0x80], %d18
    0x10000ba58:            e1 1f 60 60  ldd       [%i5 + 0x60], %d16
    0x10000ba5c:            bf a7 09 4f  fmuld     %d28, %d46, %d62
    0x10000ba60:            b5 a0 19 20  fstod     %f0, %d26
    0x10000ba64:            d9 1f 60 90  ldd       [%i5 + 0x90], %d12
    0x10000ba68:            bb a7 08 5b  faddd     %d28, %d58, %d60
    0x10000ba6c:            9f a7 09 5c  fmuld     %d28, %d28, %d46
    0x10000ba70:            dd 1f 60 c0  ldd       [%i5 + 0xc0], %d14
    0x10000ba74:            b7 a7 08 59  faddd     %d28, %d56, %d58
    0x10000ba78:            f1 1f 60 68  ldd       [%i5 + 0x68], %d24
    0x10000ba7c:            af a7 08 57  faddd     %d28, %d54, %d54
    0x10000ba80:            ed 1f 60 00  ldd       [%i5], %d22
    0x10000ba84:            b3 a5 48 da  fsubd     %d52, %d26, %d56
    0x10000ba88:            bf a7 c9 5c  fmuld     %d62, %d28, %d62
    0x10000ba8c:            ab a7 08 53  faddd     %d28, %d50, %d52
    0x10000ba90:            bb a7 09 5d  fmuld     %d28, %d60, %d60
    0x10000ba94:            a7 a7 08 51  faddd     %d28, %d48, %d50
    0x10000ba98:            a3 a3 49 4f  fmuld     %d44, %d46, %d48
    0x10000ba9c:            b7 a7 09 5b  fmuld     %d28, %d58, %d58
    0x10000baa0:            9f a6 48 4b  faddd     %d56, %d42, %d46
    0x10000baa4:            b3 a7 c9 57  fmuld     %d62, %d54, %d56
    0x10000baa8:            9b a7 09 55  fmuld     %d28, %d52, %d44
    0x10000baac:            97 a7 48 54  faddd     %d60, %d20, %d42
    0x10000bab0:            af a7 09 53  fmuld     %d28, %d50, %d54
    0x10000bab4:            a9 a6 c8 52  faddd     %d58, %d18, %d20
    0x10000bab8:            a7 a6 89 50  fmuld     %d26, %d16, %d50
    0x10000babc:            ab a3 c9 50  fmuld     %d46, %d16, %d52
    0x10000bac0:            bf a3 48 4e  faddd     %d44, %d14, %d62
    0x10000bac4:            bb a6 49 4b  fmuld     %d56, %d42, %d60
    0x10000bac8:            a5 a5 c8 4c  faddd     %d54, %d12, %d18
    0x10000bacc:            a1 a7 89 58  fmuld     %d30, %d24, %d16
    0x10000bad0:            b7 a4 49 54  fmuld     %d48, %d20, %d58
    0x10000bad4:            9d a6 88 d5  fsubd     %d26, %d52, %d14
    0x10000bad8:            a3 a4 c9 5a  fmuld     %d50, %d26, %d48
    0x10000badc:            97 a7 49 5f  fmuld     %d60, %d62, %d42
    0x10000bae0:            b3 a4 09 5c  fmuld     %d16, %d28, %d56
    0x10000bae4:            9b a6 c9 52  fmuld     %d58, %d18, %d44
    0x10000bae8:            99 a3 c9 4e  fmuld     %d46, %d14, %d12
    0x10000baec:            af a3 c8 4d  faddd     %d46, %d44, %d54
    0x10000baf0:            a9 a3 08 cb  fsubd     %d12, %d42, %d20
    0x10000baf4:            ab a6 48 57  faddd     %d56, %d54, %d52
    0x10000baf8:            a7 a4 48 d4  fsubd     %d48, %d20, %d50
    0x10000bafc:            bf a6 88 55  faddd     %d26, %d52, %d62
    0x10000bb00:            06 40 00 10  bl,pn     %icc, +0x40   <0x10000bb40>
    0x10000bb04:            bb a4 c8 56  faddd     %d50, %d22, %d60
    0x10000bb08:            02 40 00 08  be,pn     %icc, +0x20   <0x10000bb28>
    0x10000bb0c:            80 a5 20 03  cmp       %l4, 0x3
    0x10000bb10:            12 40 00 8f  bne,pn    %icc, +0x23c  <0x10000bd4c>
    0x10000bb14:            99 a0 00 dd  fnegd     %d60, %d12
    0x10000bb18:            d9 3e 20 00  std       %d12, [%i0]
    0x10000bb1c:            ff 3e a0 00  std       %d62, [%i2]
    0x10000bb20:            81 c7 e0 08  ret
    0x10000bb24:            81 e8 20 00  restore   %g0, 0x0, %g0
    0x10000bb28:            99 a0 00 df  fnegd     %d62, %d12
    0x10000bb2c:            d9 3e 20 00  std       %d12, [%i0]
    0x10000bb30:            9d a0 00 dd  fnegd     %d60, %d14
    0x10000bb34:            dd 3e a0 00  std       %d14, [%i2]
    0x10000bb38:            81 c7 e0 08  ret
    0x10000bb3c:            81 e8 20 00  restore   %g0, 0x0, %g0
    0x10000bb40:            80 a5 20 00  cmp       %l4, 0x0
    0x10000bb44:            02 40 00 08  be,pn     %icc, +0x20   <0x10000bb64>
    0x10000bb48:            80 a5 20 01  cmp       %l4, 0x1
    0x10000bb4c:            12 40 00 80  bne,pn    %icc, +0x200  <0x10000bd4c>
    0x10000bb50:            a1 a0 00 df  fnegd     %d62, %d16
    0x10000bb54:            fb 3e 20 00  std       %d60, [%i0]
    0x10000bb58:            e1 3e a0 00  std       %d16, [%i2]
    0x10000bb5c:            81 c7 e0 08  ret
    0x10000bb60:            81 e8 20 00  restore   %g0, 0x0, %g0
    0x10000bb64:            ff 3e 20 00  std       %d62, [%i0]
    0x10000bb68:            fb 3e a0 00  std       %d60, [%i2]
    0x10000bb6c:            81 c7 e0 08  ret
    0x10000bb70:            81 e8 20 00  restore   %g0, 0x0, %g0
    0x10000bb74:            23 0f f1 40  sethi     %hi(0x3fc50000), %l1
    0x10000bb78:            80 a4 00 11  cmp       %l0, %l1
    0x10000bb7c:            14 40 00 3e  bg,pn     %icc, +0xf8   <0x10000bc74>
    0x10000bb80:            a5 3c 20 14  sra       %l0, 0x14, %l2
    0x10000bb84:            80 a4 a3 c9  cmp       %l2, 0x3c9
    0x10000bb88:            16 40 00 07  bge,pn    %icc, +0x1c   <0x10000bba4>
    0x10000bb8c:            e1 1c e3 a0  ldd       [%l3 + 0x3a0], %d16
    0x10000bb90:            c1 3e 20 00  std       %d0, [%i0]
    0x10000bb94:            9d a4 08 c0  fsubd     %d16, %d0, %d14
    0x10000bb98:            dd 3e a0 00  std       %d14, [%i2]
    0x10000bb9c:            81 c7 e0 08  ret
    0x10000bba0:            81 e8 20 00  restore   %g0, 0x0, %g0
    0x10000bba4:            80 a4 a3 f8  cmp       %l2, 0x3f8
    0x10000bba8:            16 40 00 14  bge,pn    %icc, +0x50   <0x10000bbf8>
    0x10000bbac:            9b a0 09 40  fmuld     %d0, %d0, %d44
    0x10000bbb0:            dd 1f 60 08  ldd       [%i5 + 0x8], %d14
    0x10000bbb4:            d9 1f 60 18  ldd       [%i5 + 0x18], %d12
    0x10000bbb8:            e7 1f 60 10  ldd       [%i5 + 0x10], %d50
    0x10000bbbc:            97 a0 09 4e  fmuld     %d0, %d14, %d42
    0x10000bbc0:            e9 1f 60 20  ldd       [%i5 + 0x20], %d20
    0x10000bbc4:            a5 a3 49 4c  fmuld     %d44, %d12, %d18
    0x10000bbc8:            ef 1c e3 a0  ldd       [%l3 + 0x3a0], %d54
    0x10000bbcc:            a3 a3 48 53  faddd     %d44, %d50, %d48
    0x10000bbd0:            b3 a2 c9 4d  fmuld     %d42, %d44, %d56
    0x10000bbd4:            ab a4 88 54  faddd     %d18, %d20, %d52
    0x10000bbd8:            bf a6 49 51  fmuld     %d56, %d48, %d62
    0x10000bbdc:            bb a3 49 55  fmuld     %d44, %d52, %d60
    0x10000bbe0:            9f a0 08 5f  faddd     %d0, %d62, %d46
    0x10000bbe4:            df 3e 20 00  std       %d46, [%i0]
    0x10000bbe8:            b7 a7 48 57  faddd     %d60, %d54, %d58
    0x10000bbec:            f7 3e a0 00  std       %d58, [%i2]
    0x10000bbf0:            81 c7 e0 08  ret
    0x10000bbf4:            81 e8 20 00  restore   %g0, 0x0, %g0
    0x10000bbf8:            e9 1f 60 38  ldd       [%i5 + 0x38], %d20
    0x10000bbfc:            e5 1f 60 48  ldd       [%i5 + 0x48], %d18
    0x10000bc00:            d7 1f 60 30  ldd       [%i5 + 0x30], %d42
    0x10000bc04:            f3 1f 60 50  ldd       [%i5 + 0x50], %d56
    0x10000bc08:            ab a3 48 54  faddd     %d44, %d20, %d52
    0x10000bc0c:            e3 1f 60 58  ldd       [%i5 + 0x58], %d48
    0x10000bc10:            b7 a3 49 52  fmuld     %d44, %d18, %d58
    0x10000bc14:            af a3 48 4b  faddd     %d44, %d42, %d54
    0x10000bc18:            fb 1f 60 28  ldd       [%i5 + 0x28], %d60
    0x10000bc1c:            a1 a3 49 59  fmuld     %d44, %d56, %d16
    0x10000bc20:            e7 1f 60 40  ldd       [%i5 + 0x40], %d50
    0x10000bc24:            bf a3 48 51  faddd     %d44, %d48, %d62
    0x10000bc28:            97 a3 49 55  fmuld     %d44, %d52, %d42
    0x10000bc2c:            e5 1f 60 60  ldd       [%i5 + 0x60], %d18
    0x10000bc30:            a9 a6 c9 4d  fmuld     %d58, %d44, %d20
    0x10000bc34:            df 1c e3 a0  ldd       [%l3 + 0x3a0], %d46
    0x10000bc38:            9d a3 49 57  fmuld     %d44, %d54, %d14
    0x10000bc3c:            99 a0 09 5d  fmuld     %d0, %d60, %d12
    0x10000bc40:            a3 a4 09 5f  fmuld     %d16, %d62, %d48
    0x10000bc44:            af a2 c8 53  faddd     %d42, %d50, %d54
    0x10000bc48:            ab a3 48 54  faddd     %d44, %d20, %d52
    0x10000bc4c:            b3 a3 09 4e  fmuld     %d12, %d14, %d56
    0x10000bc50:            9b a4 48 52  faddd     %d48, %d18, %d44
    0x10000bc54:            bb a6 49 57  fmuld     %d56, %d54, %d60
    0x10000bc58:            b7 a5 49 4d  fmuld     %d52, %d44, %d58
    0x10000bc5c:            bf a0 08 5d  faddd     %d0, %d60, %d62
    0x10000bc60:            ff 3e 20 00  std       %d62, [%i0]
    0x10000bc64:            a1 a6 c8 4f  faddd     %d58, %d46, %d16
    0x10000bc68:            e1 3e a0 00  std       %d16, [%i2]
    0x10000bc6c:            81 c7 e0 08  ret
    0x10000bc70:            81 e8 20 00  restore   %g0, 0x0, %g0
    0x10000bc74:            a1 a0 09 40  fmuld     %d0, %d0, %d16
    0x10000bc78:            95 a0 18 c0  fdtos     %d0, %f10
    0x10000bc7c:            e9 1f 60 70  ldd       [%i5 + 0x70], %d20
    0x10000bc80:            ff 1f 60 a8  ldd       [%i5 + 0xa8], %d62
    0x10000bc84:            d9 1f 60 78  ldd       [%i5 + 0x78], %d12
    0x10000bc88:            f7 1f 60 b8  ldd       [%i5 + 0xb8], %d58
    0x10000bc8c:            ab a0 09 54  fmuld     %d0, %d20, %d52
    0x10000bc90:            d7 1f 60 88  ldd       [%i5 + 0x88], %d42
    0x10000bc94:            bd a0 19 2a  fstod     %f10, %d30
    0x10000bc98:            9f a4 09 50  fmuld     %d16, %d16, %d46
    0x10000bc9c:            9b a4 08 5f  faddd     %d16, %d62, %d44
    0x10000bca0:            dd 1f 60 a0  ldd       [%i5 + 0xa0], %d14
    0x10000bca4:            ef 1f 60 98  ldd       [%i5 + 0x98], %d54
    0x10000bca8:            a7 a4 08 4c  faddd     %d16, %d12, %d50
    0x10000bcac:            b7 a4 08 5b  faddd     %d16, %d58, %d58
    0x10000bcb0:            e3 1f 60 b0  ldd       [%i5 + 0xb0], %d48
    0x10000bcb4:            bb a4 08 4b  faddd     %d16, %d42, %d60
    0x10000bcb8:            ab a5 49 4f  fmuld     %d52, %d46, %d52
    0x10000bcbc:            e9 1f 60 c0  ldd       [%i5 + 0xc0], %d20
    0x10000bcc0:            b3 a4 08 4e  faddd     %d16, %d14, %d56
    0x10000bcc4:            bf a4 09 4d  fmuld     %d16, %d44, %d62
    0x10000bcc8:            dd 1f 60 60  ldd       [%i5 + 0x60], %d14
    0x10000bccc:            af a3 c9 57  fmuld     %d46, %d54, %d54
    0x10000bcd0:            97 a0 08 de  fsubd     %d0, %d30, %d42
    0x10000bcd4:            db 1f 60 80  ldd       [%i5 + 0x80], %d44
    0x10000bcd8:            a7 a4 09 53  fmuld     %d16, %d50, %d50
    0x10000bcdc:            e5 1f 60 68  ldd       [%i5 + 0x68], %d18
    0x10000bce0:            99 a7 88 40  faddd     %d30, %d0, %d12
    0x10000bce4:            b7 a4 09 5b  fmuld     %d16, %d58, %d58
    0x10000bce8:            f9 1c e3 a0  ldd       [%l3 + 0x3a0], %d28
    0x10000bcec:            bf a7 c8 51  faddd     %d62, %d48, %d62
    0x10000bcf0:            bb a4 09 5d  fmuld     %d16, %d60, %d60
    0x10000bcf4:            e3 1f 60 90  ldd       [%i5 + 0x90], %d48
    0x10000bcf8:            9f a2 c9 4e  fmuld     %d42, %d14, %d46
    0x10000bcfc:            b3 a5 c9 59  fmuld     %d54, %d56, %d56
    0x10000bd00:            af a4 c8 4d  faddd     %d50, %d44, %d54
    0x10000bd04:            9b a6 c8 54  faddd     %d58, %d20, %d44
    0x10000bd08:            a9 a0 09 52  fmuld     %d0, %d18, %d20
    0x10000bd0c:            a7 a3 c9 4c  fmuld     %d46, %d12, %d50
    0x10000bd10:            97 a6 49 5f  fmuld     %d56, %d62, %d42
    0x10000bd14:            b3 a7 48 51  faddd     %d60, %d48, %d56
    0x10000bd18:            a5 a5 49 57  fmuld     %d52, %d54, %d18
    0x10000bd1c:            a3 a7 89 4e  fmuld     %d30, %d14, %d48
    0x10000bd20:            b7 a5 09 50  fmuld     %d20, %d16, %d58
    0x10000bd24:            bf a2 c9 4d  fmuld     %d42, %d44, %d62
    0x10000bd28:            bb a4 89 59  fmuld     %d18, %d56, %d60
    0x10000bd2c:            ab a4 49 5e  fmuld     %d48, %d30, %d52
    0x10000bd30:            af a4 c8 5f  faddd     %d50, %d62, %d54
    0x10000bd34:            a1 a6 c8 5d  faddd     %d58, %d60, %d16
    0x10000bd38:            99 a5 48 57  faddd     %d52, %d54, %d12
    0x10000bd3c:            9d a0 08 50  faddd     %d0, %d16, %d14
    0x10000bd40:            dd 3e 20 00  std       %d14, [%i0]
    0x10000bd44:            9f a3 08 5c  faddd     %d12, %d28, %d46
    0x10000bd48:            df 3e a0 00  std       %d46, [%i2]
    0x10000bd4c:            81 c7 e0 08  ret
    0x10000bd50:            81 e8 20 00  restore   %g0, 0x0, %g0
    0x10000bd54:            00 00 00 00  illtrap   0x0
    0x10000bd58:            00 00 00 00  illtrap   0x0
    0x10000bd5c:            00 00 00 00  illtrap   0x0
    0x10000bd60:            00 00 00 00  illtrap   0x0
    0x10000bd64:            00 00 00 00  illtrap   0x0
    0x10000bd68:            43 30 00 00  call      +0xcc00000    <0x10cc0bd68>
    0x10000bd6c:            00 00 00 00  illtrap   0x0
    0x10000bd70:            00 00 00 00  illtrap   0x0
    0x10000bd74:            00 00 00 00  illtrap   0x0
    0x10000bd78:            00 00 00 00  illtrap   0x0
    0x10000bd7c:            00 00 00 00  illtrap   0x0
__libmopt__rem_pio2()
    0x10000bd80:            9d e3 bf 10  save      %sp, -0xf0, %sp
    0x10000bd84:            c1 27 a7 f7  st        %f0, [%fp + 0x7f7]
    0x10000bd88:            3b 00 00 00  sethi     %hi(0x0), %i5
    0x10000bd8c:            39 00 00 b2  sethi     %hi(0x2c800), %i4
    0x10000bd90:            bd a0 01 40  fabsd     %d0, %d30
    0x10000bd94:            b4 17 60 01  or        %i5, 0x1, %i2
    0x10000bd98:            c3 27 a7 fb  st        %f1, [%fp + 0x7fb]
    0x10000bd9c:            37 1f ff ff  sethi     %hi(0x7ffffc00), %i3
    0x10000bda0:            b1 2e b0 20  sllx      %i2, 0x20, %i0
    0x10000bda4:            a0 06 e3 ff  add       %i3, 0x3ff, %l0
    0x10000bda8:            82 16 00 1c  or        %i0, %i4, %g1
    0x10000bdac:            2f 10 4e 40  sethi     %hi(0x41390000), %l7
    0x10000bdb0:            d9 18 60 68  ldd       [%g1 + 0x68], %d12
    0x10000bdb4:            b9 a7 89 4c  fmuld     %d30, %d12, %d28
    0x10000bdb8:            9c 03 a0 00  add       %sp, 0x0, %sp
    0x10000bdbc:            9c 03 a0 00  add       %sp, 0x0, %sp
    0x10000bdc0:            fa 07 a7 f7  ld        [%fp + 0x7f7], %i5
    0x10000bdc4:            ac 0f 40 10  and       %i5, %l0, %l6
    0x10000bdc8:            80 a5 80 17  cmp       %l6, %l7
    0x10000bdcc:            14 40 00 48  bg,pn     %icc, +0x120  <0x10000beec>
    0x10000bdd0:            b0 10 00 19  mov       %i1, %i0
    0x10000bdd4:            1b 0f fa 48  sethi     %hi(0x3fe92000), %o5
    0x10000bdd8:            98 03 61 fa  add       %o5, 0x1fa, %o4
    0x10000bddc:            80 a5 80 0c  cmp       %l6, %o4
    0x10000bde0:            04 40 00 3e  ble,pn    %icc, +0xf8   <0x10000bed8>
    0x10000bde4:            8a 00 60 68  add       %g1, 0x68, %g5
    0x10000bde8:            d9 19 60 18  ldd       [%g5 + 0x18], %d12
    0x10000bdec:            89 3d a0 14  sra       %l6, 0x14, %g4
    0x10000bdf0:            e1 19 60 08  ldd       [%g5 + 0x8], %d16
    0x10000bdf4:            e5 19 60 10  ldd       [%g5 + 0x10], %d18
    0x10000bdf8:            9d a7 08 4c  faddd     %d28, %d12, %d14
    0x10000bdfc:            91 a0 1a 4e  fdtoi     %d14, %f8
    0x10000be00:            d1 23 a8 af  st        %f8, [%sp + 0x8af]
    0x10000be04:            b1 a0 19 08  fitod     %f8, %d24
    0x10000be08:            a9 a6 09 50  fmuld     %d24, %d16, %d20
    0x10000be0c:            b5 a6 09 52  fmuld     %d24, %d18, %d26
    0x10000be10:            9c 03 a0 00  add       %sp, 0x0, %sp
    0x10000be14:            9c 03 a0 00  add       %sp, 0x0, %sp
    0x10000be18:            9c 03 a0 00  add       %sp, 0x0, %sp
    0x10000be1c:            9c 03 a0 00  add       %sp, 0x0, %sp
    0x10000be20:            f2 03 a8 af  ld        [%sp + 0x8af], %i1
    0x10000be24:            95 a7 88 d4  fsubd     %d30, %d20, %d10
    0x10000be28:            d5 27 a7 ef  st        %f10, [%fp + 0x7ef]
    0x10000be2c:            81 41 40 00  rd        %pc, %g0
    0x10000be30:            d2 07 a7 ef  ld        [%fp + 0x7ef], %o1
    0x10000be34:            a2 0a 40 10  and       %o1, %l0, %l1
    0x10000be38:            91 3c 60 14  sra       %l1, 0x14, %o0
    0x10000be3c:            9e 21 00 08  sub       %g4, %o0, %o7
    0x10000be40:            80 a3 e0 14  cmp       %o7, 0x14
    0x10000be44:            04 40 00 14  ble,pn    %icc, +0x50   <0x10000be94>
    0x10000be48:            ad a2 88 da  fsubd     %d10, %d26, %d22
    0x10000be4c:            f7 19 7f c0  ldd       [%g5 - 0x40], %d58
    0x10000be50:            94 01 7f c0  add       %g5, -0x40, %o2
    0x10000be54:            bf a6 09 5b  fmuld     %d24, %d58, %d62
    0x10000be58:            fb 1a a0 08  ldd       [%o2 + 0x8], %d60
    0x10000be5c:            88 01 3f ec  add       %g4, -0x14, %g4
    0x10000be60:            94 02 a0 10  add       %o2, 0x10, %o2
    0x10000be64:            b5 a6 09 5d  fmuld     %d24, %d60, %d26
    0x10000be68:            95 a2 88 df  fsubd     %d10, %d62, %d10
    0x10000be6c:            d5 27 a7 ef  st        %f10, [%fp + 0x7ef]
    0x10000be70:            ad a2 88 da  fsubd     %d10, %d26, %d22
    0x10000be74:            81 41 40 00  rd        %pc, %g0
    0x10000be78:            e2 07 a7 ef  ld        [%fp + 0x7ef], %l1
    0x10000be7c:            9e 0c 40 10  and       %l1, %l0, %o7
    0x10000be80:            9b 3b e0 14  sra       %o7, 0x14, %o5
    0x10000be84:            98 21 00 0d  sub       %g4, %o5, %o4
    0x10000be88:            80 a3 20 14  cmp       %o4, 0x14
    0x10000be8c:            34 4f ff f2  bg,a,pt   %icc, -0x38   <0x10000be54>
    0x10000be90:            f7 1a a0 00  ldd       [%o2], %d58
    0x10000be94:            80 a7 60 00  cmp       %i5, 0x0
    0x10000be98:            16 40 00 0a  bge,pn    %icc, +0x28   <0x10000bec0>
    0x10000be9c:            b3 a2 88 d6  fsubd     %d10, %d22, %d56
    0x10000bea0:            b2 20 00 19  neg       %i1
    0x10000bea4:            af a0 00 d6  fnegd     %d22, %d54
    0x10000bea8:            ef 3e 20 00  std       %d54, [%i0]
    0x10000beac:            ab a6 88 d9  fsubd     %d26, %d56, %d52
    0x10000beb0:            eb 3e 20 08  std       %d52, [%i0 + 0x8]
    0x10000beb4:            b1 3e 60 00  sra       %i1, 0x0, %i0
    0x10000beb8:            81 c7 e0 08  ret
    0x10000bebc:            81 e8 20 00  restore   %g0, 0x0, %g0
    0x10000bec0:            ed 3e 20 00  std       %d22, [%i0]
    0x10000bec4:            bd a6 48 da  fsubd     %d56, %d26, %d30
    0x10000bec8:            fd 3e 20 08  std       %d30, [%i0 + 0x8]
    0x10000becc:            b1 3e 60 00  sra       %i1, 0x0, %i0
    0x10000bed0:            81 c7 e0 08  ret
    0x10000bed4:            81 e8 20 00  restore   %g0, 0x0, %g0
    0x10000bed8:            c1 3e 60 00  std       %d0, [%i1]
    0x10000bedc:            c0 76 20 08  clrx      [%i0 + 0x8]
    0x10000bee0:            b0 10 20 00  clr       %i0
    0x10000bee4:            81 c7 e0 08  ret
    0x10000bee8:            81 e8 20 00  restore   %g0, 0x0, %g0
    0x10000beec:            29 1f fc 00  sethi     %hi(0x7ff00000), %l4
    0x10000bef0:            80 a5 80 14  cmp       %l6, %l4
    0x10000bef4:            16 40 00 41  bge,pn    %icc, +0x104  <0x10000bff8>
    0x10000bef8:            2b 00 03 ff  sethi     %hi(0xffc00), %l5
    0x10000befc:            e4 07 a7 fb  ld        [%fp + 0x7fb], %l2
    0x10000bf00:            a8 05 63 ff  add       %l5, 0x3ff, %l4
    0x10000bf04:            21 00 04 00  sethi     %hi(0x100000), %l0
    0x10000bf08:            9e 0d 80 14  and       %l6, %l4, %o7
    0x10000bf0c:            23 00 00 00  sethi     %hi(0x0), %l1
    0x10000bf10:            98 13 c0 10  or        %o7, %l0, %o4
    0x10000bf14:            8b 34 a0 1d  srl       %l2, 0x1d, %g5
    0x10000bf18:            89 2b 20 03  sll       %o4, 0x3, %g4
    0x10000bf1c:            9a 14 60 01  or        %l1, 0x1, %o5
    0x10000bf20:            b2 11 00 05  or        %g4, %g5, %i1
    0x10000bf24:            f2 23 a8 af  st        %i1, [%sp + 0x8af]
    0x10000bf28:            13 00 00 2f  sethi     %hi(0xbc00), %o1
    0x10000bf2c:            95 2b 70 20  sllx      %o5, 0x20, %o2
    0x10000bf30:            90 0c a0 1f  and       %l2, 0x1f, %o0
    0x10000bf34:            35 00 3f ff  sethi     %hi(0xfffc00), %i2
    0x10000bf38:            82 12 80 09  or        %o2, %o1, %g1
    0x10000bf3c:            c5 18 61 68  ldd       [%g1 + 0x168], %d2
    0x10000bf40:            b9 2a 20 13  sll       %o0, 0x13, %i4
    0x10000bf44:            ae 06 a3 ff  add       %i2, 0x3ff, %l7
    0x10000bf48:            b7 3c a0 05  sra       %l2, 0x5, %i3
    0x10000bf4c:            f8 23 a8 b7  st        %i4, [%sp + 0x8b7]
    0x10000bf50:            a7 3d a0 14  sra       %l6, 0x14, %l3
    0x10000bf54:            96 0e c0 17  and       %i3, %l7, %o3
    0x10000bf58:            d6 23 a8 b3  st        %o3, [%sp + 0x8b3]
    0x10000bf5c:            aa 04 fb ea  add       %l3, -0x416, %l5
    0x10000bf60:            81 a0 00 22  fmovs     %f2, %f0
    0x10000bf64:            80 a7 20 00  cmp       %i4, 0x0
    0x10000bf68:            c3 03 a8 af  ld        [%sp + 0x8af], %f1
    0x10000bf6c:            c9 03 a8 b7  ld        [%sp + 0x8b7], %f4
    0x10000bf70:            cd 03 a8 b3  ld        [%sp + 0x8b3], %f6
    0x10000bf74:            b1 a0 08 c2  fsubd     %d0, %d2, %d24
    0x10000bf78:            a9 a0 19 04  fitod     %f4, %d20
    0x10000bf7c:            e9 3f a7 e7  std       %d20, [%fp + 0x7e7]
    0x10000bf80:            ad a0 19 06  fitod     %f6, %d22
    0x10000bf84:            ed 3f a7 df  std       %d22, [%fp + 0x7df]
    0x10000bf88:            b5 a0 01 58  fabsd     %d24, %d26
    0x10000bf8c:            02 40 00 05  be,pn     %icc, +0x14   <0x10000bfa0>
    0x10000bf90:            f5 3f a7 d7  std       %d26, [%fp + 0x7d7]
    0x10000bf94:            96 10 20 03  mov       0x3, %o3
    0x10000bf98:            10 80 00 07  ba        +0x1c         <0x10000bfb4>
    0x10000bf9c:            92 10 00 18  mov       %i0, %o1
    0x10000bfa0:            80 a2 e0 00  cmp       %o3, 0x0
    0x10000bfa4:            ac 10 20 02  mov       0x2, %l6
    0x10000bfa8:            96 10 20 01  mov       0x1, %o3
    0x10000bfac:            97 66 40 16  movne     %icc, %l6, %o3
    0x10000bfb0:            92 10 00 18  mov       %i0, %o1
    0x10000bfb4:            95 3d 60 00  sra       %l5, 0x0, %o2
    0x10000bfb8:            98 10 20 01  mov       0x1, %o4
    0x10000bfbc:            40 00 00 31  call      +0xc4         <0x10000c080>
    0x10000bfc0:            90 07 a7 d7  add       %fp, 0x7d7, %o0
    0x10000bfc4:            80 a7 60 00  cmp       %i5, 0x0
    0x10000bfc8:            36 40 00 10  bge,a,pn  %icc, +0x40   <0x10000c008>
    0x10000bfcc:            b2 10 00 08  mov       %o0, %i1
    0x10000bfd0:            d9 1e 20 00  ldd       [%i0], %d12
    0x10000bfd4:            e1 1e 20 08  ldd       [%i0 + 0x8], %d16
    0x10000bfd8:            b2 20 00 08  neg       %o0, %i1
    0x10000bfdc:            9d a0 00 cc  fnegd     %d12, %d14
    0x10000bfe0:            dd 3e 20 00  std       %d14, [%i0]
    0x10000bfe4:            a5 a0 00 d0  fnegd     %d16, %d18
    0x10000bfe8:            e5 3e 20 08  std       %d18, [%i0 + 0x8]
    0x10000bfec:            b1 3e 60 00  sra       %i1, 0x0, %i0
    0x10000bff0:            81 c7 e0 08  ret
    0x10000bff4:            81 e8 20 00  restore   %g0, 0x0, %g0
    0x10000bff8:            b9 a0 09 c0  fdivd     %d0, %d0, %d28
    0x10000bffc:            b2 10 20 00  clr       %i1
    0x10000c000:            f9 3e 20 00  std       %d28, [%i0]
    0x10000c004:            f9 3e 20 08  std       %d28, [%i0 + 0x8]
    0x10000c008:            b1 3e 60 00  sra       %i1, 0x0, %i0
    0x10000c00c:            81 c7 e0 08  ret
    0x10000c010:            81 e8 20 00  restore   %g0, 0x0, %g0
    0x10000c014:            00 00 00 00  illtrap   0x0
    0x10000c018:            00 00 00 00  illtrap   0x0
    0x10000c01c:            00 00 00 00  illtrap   0x0
    0x10000c020:            41 70 00 00  call      +0x5c00000    <0x105c0c020>
    0x10000c024:            00 00 00 00  illtrap   0x0
    0x10000c028:            43 38 00 00  call      +0xce00000    <0x10ce0c028>
    0x10000c02c:            00 00 00 00  illtrap   0x0
    0x10000c030:            3e 70 00 00  0x3e700000
    0x10000c034:            00 00 00 00  illtrap   0x0
    0x10000c038:            00 00 00 00  illtrap   0x0
    0x10000c03c:            00 00 00 00  illtrap   0x0
    0x10000c040:            44 b8 00 00  call      +0x12e00000   <0x112e0c040>
    0x10000c044:            00 00 00 00  illtrap   0x0
    0x10000c048:            3f f9 21 fb  0x3ff921fb
    0x10000c04c:            40 00 00 00  call      +0x0          <0x10000c04c>
    0x10000c050:            3e 74 44 2d  0x3e74442d
    0x10000c054:            00 00 00 00  illtrap   0x0
    0x10000c058:            3c f8 46 98  0x3cf84698
    0x10000c05c:            80 00 00 00  add       %g0, %g0, %g0
    0x10000c060:            3b 78 cc 51  fble,a,pt %fcc3, +0x33144 <0x10003f1a4>
    0x10000c064:            60 00 00 00  call      -0x80000000   <0x8000c064>
    0x10000c068:            39 f0 1b 83  0x39f01b83
    0x10000c06c:            80 00 00 00  add       %g0, %g0, %g0
    0x10000c070:            00 00 00 00  illtrap   0x0
    0x10000c074:            00 00 00 00  illtrap   0x0
    0x10000c078:            00 00 00 00  illtrap   0x0
    0x10000c07c:            00 00 00 00  illtrap   0x0
__libmopt_rem_pio2m()
    0x10000c080:            9d e3 bd f0  save      %sp, -0x210, %sp
    0x10000c084:            8a 06 bf fd  add       %i2, -0x3, %g5
    0x10000c088:            19 15 55 55  sethi     %hi(0x55555400), %o4
    0x10000c08c:            dd 1e 20 00  ldd       [%i0], %d14
    0x10000c090:            96 1b 3e ab  xor       %o4, -0x155, %o3
    0x10000c094:            95 39 60 00  sra       %g5, 0x0, %o2
    0x10000c098:            92 4a 80 0b  mulx      %o2, %o3, %o1
    0x10000c09c:            ad 39 60 1f  sra       %g5, 0x1f, %l6
    0x10000c0a0:            03 00 00 00  sethi     %hi(0x0), %g1
    0x10000c0a4:            91 32 70 20  srlx      %o1, 0x20, %o0
    0x10000c0a8:            9e 10 60 01  or        %g1, 0x1, %o7
    0x10000c0ac:            88 01 40 08  add       %g5, %o0, %g4
    0x10000c0b0:            a3 2b f0 20  sllx      %o7, 0x20, %l1
    0x10000c0b4:            bb 39 20 04  sra       %g4, 0x4, %i5
    0x10000c0b8:            25 00 00 b2  sethi     %hi(0x2c800), %l2
    0x10000c0bc:            ae 27 40 16  sub       %i5, %l6, %l7
    0x10000c0c0:            a8 14 40 12  or        %l1, %l2, %l4
    0x10000c0c4:            9b 3d e0 1f  sra       %l7, 0x1f, %o5
    0x10000c0c8:            ac 05 20 88  add       %l4, 0x88, %l6
    0x10000c0cc:            a6 2d c0 0d  andn      %l7, %o5, %l3
    0x10000c0d0:            80 a6 e0 03  cmp       %i3, 0x3
    0x10000c0d4:            a0 04 e0 01  add       %l3, 0x1, %l0
    0x10000c0d8:            ab 2c 20 02  sll       %l0, 0x2, %l5
    0x10000c0dc:            98 25 40 10  sub       %l5, %l0, %o4
    0x10000c0e0:            97 2b 20 03  sll       %o4, 0x3, %o3
    0x10000c0e4:            12 40 00 48  bne,pn    %icc, +0x120  <0x10000c204>
    0x10000c0e8:            8a 26 80 0b  sub       %i2, %o3, %g5
    0x10000c0ec:            a5 3c e0 00  sra       %l3, 0x0, %l2
    0x10000c0f0:            f5 1e 20 10  ldd       [%i0 + 0x10], %d26
    0x10000c0f4:            a8 04 a0 02  add       %l2, 0x2, %l4
    0x10000c0f8:            88 04 a0 01  add       %l2, 0x1, %g4
    0x10000c0fc:            db 1e 20 08  ldd       [%i0 + 0x8], %d44
    0x10000c100:            a0 04 a0 03  add       %l2, 0x3, %l0
    0x10000c104:            9e 04 a0 04  add       %l2, 0x4, %o7
    0x10000c108:            9b 2d 30 03  sllx      %l4, 0x3, %o5
    0x10000c10c:            99 29 30 03  sllx      %g4, 0x3, %o4
    0x10000c110:            a3 2c 30 03  sllx      %l0, 0x3, %l1
    0x10000c114:            97 2b f0 03  sllx      %o7, 0x3, %o3
    0x10000c118:            d9 1b 40 16  ldd       [%o5 + %l6], %d12
    0x10000c11c:            d1 1c 40 16  ldd       [%l1 + %l6], %d8
    0x10000c120:            ae 04 a0 07  add       %l2, 0x7, %l7
    0x10000c124:            aa 04 a0 05  add       %l2, 0x5, %l5
    0x10000c128:            d5 1b 00 16  ldd       [%o4 + %l6], %d10
    0x10000c12c:            94 04 a0 06  add       %l2, 0x6, %o2
    0x10000c130:            91 2d f0 03  sllx      %l7, 0x3, %o0
    0x10000c134:            fd 1a c0 16  ldd       [%o3 + %l6], %d30
    0x10000c138:            b7 a3 89 4c  fmuld     %d14, %d12, %d58
    0x10000c13c:            bb 2d 70 03  sllx      %l5, 0x3, %i5
    0x10000c140:            83 2a b0 03  sllx      %o2, 0x3, %g1
    0x10000c144:            b3 a3 89 48  fmuld     %d14, %d8, %d56
    0x10000c148:            89 2c b0 03  sllx      %l2, 0x3, %g4
    0x10000c14c:            f9 1f 40 16  ldd       [%i5 + %l6], %d28
    0x10000c150:            35 00 00 00  sethi     %hi(0x0), %i2
    0x10000c154:            8d a3 49 4a  fmuld     %d44, %d10, %d6
    0x10000c158:            df 18 40 16  ldd       [%g1 + %l6], %d46
    0x10000c15c:            a6 16 a0 01  or        %i2, 0x1, %l3
    0x10000c160:            b4 10 20 05  mov       0x5, %i2
    0x10000c164:            a1 a6 89 4a  fmuld     %d26, %d10, %d16
    0x10000c168:            ef 19 00 16  ldd       [%g4 + %l6], %d54
    0x10000c16c:            29 00 00 30  sethi     %hi(0xc000), %l4
    0x10000c170:            93 2c f0 20  sllx      %l3, 0x20, %o1
    0x10000c174:            bb a3 49 48  fmuld     %d44, %d8, %d60
    0x10000c178:            e7 1a 00 16  ldd       [%o0 + %l6], %d50
    0x10000c17c:            9a 01 63 9f  add       %g5, 0x39f, %o5
    0x10000c180:            bf a3 49 4c  fmuld     %d44, %d12, %d62
    0x10000c184:            ab a3 89 5e  fmuld     %d14, %d30, %d52
    0x10000c188:            95 a6 c8 46  faddd     %d58, %d6, %d10
    0x10000c18c:            8d a3 89 4f  fmuld     %d14, %d46, %d6
    0x10000c190:            a3 a3 89 5c  fmuld     %d14, %d28, %d48
    0x10000c194:            bf a6 48 5f  faddd     %d56, %d62, %d62
    0x10000c198:            b3 a6 89 57  fmuld     %d26, %d54, %d56
    0x10000c19c:            b1 a5 48 5d  faddd     %d52, %d60, %d24
    0x10000c1a0:            ab a3 89 53  fmuld     %d14, %d50, %d52
    0x10000c1a4:            b7 a3 49 5e  fmuld     %d44, %d30, %d58
    0x10000c1a8:            af a3 49 4f  fmuld     %d44, %d46, %d54
    0x10000c1ac:            bb a3 49 5c  fmuld     %d44, %d28, %d60
    0x10000c1b0:            9d a2 88 59  faddd     %d10, %d56, %d14
    0x10000c1b4:            dd 3f a7 5f  std       %d14, [%fp + 0x75f]
    0x10000c1b8:            a7 a6 89 4c  fmuld     %d26, %d12, %d50
    0x10000c1bc:            a3 a4 48 5b  faddd     %d48, %d58, %d48
    0x10000c1c0:            99 a6 89 5e  fmuld     %d26, %d30, %d12
    0x10000c1c4:            b7 a7 c8 50  faddd     %d62, %d16, %d58
    0x10000c1c8:            a1 a6 89 48  fmuld     %d26, %d8, %d16
    0x10000c1cc:            f7 3f a7 67  std       %d58, [%fp + 0x767]
    0x10000c1d0:            9f a1 88 5d  faddd     %d6, %d60, %d46
    0x10000c1d4:            95 a6 89 5c  fmuld     %d26, %d28, %d10
    0x10000c1d8:            9d a5 48 57  faddd     %d52, %d54, %d14
    0x10000c1dc:            9b a6 08 53  faddd     %d24, %d50, %d44
    0x10000c1e0:            db 3f a7 6f  std       %d44, [%fp + 0x76f]
    0x10000c1e4:            bf a4 48 50  faddd     %d48, %d16, %d62
    0x10000c1e8:            ff 3f a7 77  std       %d62, [%fp + 0x777]
    0x10000c1ec:            b3 a3 c8 4c  faddd     %d46, %d12, %d56
    0x10000c1f0:            f3 3f a7 7f  std       %d56, [%fp + 0x77f]
    0x10000c1f4:            91 a3 88 4a  faddd     %d14, %d10, %d8
    0x10000c1f8:            d1 3f a7 87  std       %d8, [%fp + 0x787]
    0x10000c1fc:            10 80 00 49  ba        +0x124        <0x10000c320>
    0x10000c200:            ae 12 40 14  or        %o1, %l4, %l7
    0x10000c204:            b5 3c e0 00  sra       %l3, 0x0, %i2
    0x10000c208:            80 a6 e0 02  cmp       %i3, 0x2
    0x10000c20c:            88 06 a0 02  add       %i2, 0x2, %g4
    0x10000c210:            9a 06 a0 03  add       %i2, 0x3, %o5
    0x10000c214:            9e 06 a0 04  add       %i2, 0x4, %o7
    0x10000c218:            a2 06 a0 05  add       %i2, 0x5, %l1
    0x10000c21c:            96 06 a0 06  add       %i2, 0x6, %o3
    0x10000c220:            ab 29 30 03  sllx      %g4, 0x3, %l5
    0x10000c224:            94 06 a0 07  add       %i2, 0x7, %o2
    0x10000c228:            bb 2b 70 03  sllx      %o5, 0x3, %i5
    0x10000c22c:            fb 1d 40 16  ldd       [%l5 + %l6], %d60
    0x10000c230:            af 2b f0 03  sllx      %o7, 0x3, %l7
    0x10000c234:            83 2c 70 03  sllx      %l1, 0x3, %g1
    0x10000c238:            f3 1f 40 16  ldd       [%i5 + %l6], %d56
    0x10000c23c:            91 2a f0 03  sllx      %o3, 0x3, %o0
    0x10000c240:            ef 1d c0 16  ldd       [%l7 + %l6], %d54
    0x10000c244:            93 2a b0 03  sllx      %o2, 0x3, %o1
    0x10000c248:            d9 1a 00 16  ldd       [%o0 + %l6], %d12
    0x10000c24c:            a3 a3 89 5d  fmuld     %d14, %d60, %d48
    0x10000c250:            eb 18 40 16  ldd       [%g1 + %l6], %d52
    0x10000c254:            bf a3 89 59  fmuld     %d14, %d56, %d62
    0x10000c258:            cd 1a 40 16  ldd       [%o1 + %l6], %d6
    0x10000c25c:            9f a3 89 57  fmuld     %d14, %d54, %d46
    0x10000c260:            a1 a3 89 4c  fmuld     %d14, %d12, %d16
    0x10000c264:            9b a3 89 55  fmuld     %d14, %d52, %d44
    0x10000c268:            9d a3 89 46  fmuld     %d14, %d6, %d14
    0x10000c26c:            12 40 00 20  bne,pn    %icc, +0x80   <0x10000c2ec>
    0x10000c270:            89 2e b0 03  sllx      %i2, 0x3, %g4
    0x10000c274:            a6 06 a0 01  add       %i2, 0x1, %l3
    0x10000c278:            f7 1e 20 08  ldd       [%i0 + 0x8], %d58
    0x10000c27c:            a5 2c f0 03  sllx      %l3, 0x3, %l2
    0x10000c280:            21 00 00 00  sethi     %hi(0x0), %l0
    0x10000c284:            cd 1c 80 16  ldd       [%l2 + %l6], %d6
    0x10000c288:            98 14 20 01  or        %l0, 0x1, %o4
    0x10000c28c:            b4 10 20 05  mov       0x5, %i2
    0x10000c290:            93 2b 30 20  sllx      %o4, 0x20, %o1
    0x10000c294:            29 00 00 30  sethi     %hi(0xc000), %l4
    0x10000c298:            a7 a6 c9 4c  fmuld     %d58, %d12, %d50
    0x10000c29c:            9a 01 63 9f  add       %g5, 0x39f, %o5
    0x10000c2a0:            b3 a6 c9 59  fmuld     %d58, %d56, %d56
    0x10000c2a4:            91 a6 c9 46  fmuld     %d58, %d6, %d8
    0x10000c2a8:            95 a6 c9 5d  fmuld     %d58, %d60, %d10
    0x10000c2ac:            af a6 c9 57  fmuld     %d58, %d54, %d54
    0x10000c2b0:            9d a3 88 53  faddd     %d14, %d50, %d14
    0x10000c2b4:            99 a3 c8 59  faddd     %d46, %d56, %d12
    0x10000c2b8:            ab a6 c9 55  fmuld     %d58, %d52, %d52
    0x10000c2bc:            9f a4 48 48  faddd     %d48, %d8, %d46
    0x10000c2c0:            df 3f a7 5f  std       %d46, [%fp + 0x75f]
    0x10000c2c4:            bf a7 c8 4a  faddd     %d62, %d10, %d62
    0x10000c2c8:            ff 3f a7 67  std       %d62, [%fp + 0x767]
    0x10000c2cc:            d9 3f a7 6f  std       %d12, [%fp + 0x76f]
    0x10000c2d0:            9b a3 48 57  faddd     %d44, %d54, %d44
    0x10000c2d4:            db 3f a7 77  std       %d44, [%fp + 0x777]
    0x10000c2d8:            a3 a4 08 55  faddd     %d16, %d52, %d48
    0x10000c2dc:            e3 3f a7 7f  std       %d48, [%fp + 0x77f]
    0x10000c2e0:            dd 3f a7 87  std       %d14, [%fp + 0x787]
    0x10000c2e4:            10 80 00 0f  ba        +0x3c         <0x10000c320>
    0x10000c2e8:            ae 12 40 14  or        %o1, %l4, %l7
    0x10000c2ec:            e3 3f a7 5f  std       %d48, [%fp + 0x75f]
    0x10000c2f0:            35 00 00 00  sethi     %hi(0x0), %i2
    0x10000c2f4:            9a 01 63 9f  add       %g5, 0x39f, %o5
    0x10000c2f8:            ff 3f a7 67  std       %d62, [%fp + 0x767]
    0x10000c2fc:            a8 16 a0 01  or        %i2, 0x1, %l4
    0x10000c300:            b4 10 20 05  mov       0x5, %i2
    0x10000c304:            df 3f a7 6f  std       %d46, [%fp + 0x76f]
    0x10000c308:            93 2d 30 20  sllx      %l4, 0x20, %o1
    0x10000c30c:            29 00 00 30  sethi     %hi(0xc000), %l4
    0x10000c310:            db 3f a7 77  std       %d44, [%fp + 0x777]
    0x10000c314:            ae 12 40 14  or        %o1, %l4, %l7
    0x10000c318:            e1 3f a7 7f  std       %d16, [%fp + 0x77f]
    0x10000c31c:            dd 3f a7 87  std       %d14, [%fp + 0x787]
    0x10000c320:            81 41 40 00  rd        %pc, %g0
    0x10000c324:            fb 1f a7 87  ldd       [%fp + 0x787], %d60
    0x10000c328:            a6 05 e0 20  add       %l7, 0x20, %l3
    0x10000c32c:            a9 2b 60 14  sll       %o5, 0x14, %l4
    0x10000c330:            ef 1c e0 10  ldd       [%l3 + 0x10], %d54
    0x10000c334:            93 2d 30 20  sllx      %l4, 0x20, %o1
    0x10000c338:            9e 10 20 04  mov       0x4, %o7
    0x10000c33c:            eb 1d e0 20  ldd       [%l7 + 0x20], %d52
    0x10000c340:            90 01 7f a0  add       %g5, -0x60, %o0
    0x10000c344:            a4 06 ff ff  add       %i3, -0x1, %l2
    0x10000c348:            df 1c e0 08  ldd       [%l3 + 0x8], %d46
    0x10000c34c:            ae 07 a7 5f  add       %fp, 0x75f, %l7
    0x10000c350:            82 07 a6 af  add       %fp, 0x6af, %g1
    0x10000c354:            d2 77 a7 57  stx       %o1, [%fp + 0x757]
    0x10000c358:            bb a7 49 57  fmuld     %d60, %d54, %d60
    0x10000c35c:            92 06 20 08  add       %i0, 0x8, %o1
    0x10000c360:            db 1c e0 18  ldd       [%l3 + 0x18], %d44
    0x10000c364:            e1 1f a7 57  ldd       [%fp + 0x757], %d16
    0x10000c368:            80 a3 e0 01  cmp       %o7, 0x1
    0x10000c36c:            06 40 00 68  bl,pn     %icc, +0x1a0  <0x10000c50c>
    0x10000c370:            9b 3b e0 00  sra       %o7, 0x0, %o5
    0x10000c374:            a3 2b 70 03  sllx      %o5, 0x3, %l1
    0x10000c378:            aa 07 a6 b7  add       %fp, 0x6b7, %l5
    0x10000c37c:            f3 1c e0 20  ldd       [%l3 + 0x20], %d56
    0x10000c380:            96 04 40 17  add       %l1, %l7, %o3
    0x10000c384:            94 05 40 11  add       %l5, %l1, %o2
    0x10000c388:            80 a3 e0 06  cmp       %o7, 0x6
    0x10000c38c:            06 40 00 51  bl,pn     %icc, +0x144  <0x10000c4d0>
    0x10000c390:            01 00 00 00  nop
    0x10000c394:            c1 6a ff c0  prefetch  [%o3 - 0x40], #n_reads
    0x10000c398:            ed 6a a0 00  prefetch  [%o2], #n_writes_strong
    0x10000c39c:            9d a4 09 55  fmuld     %d16, %d52, %d14
    0x10000c3a0:            9a 22 e0 10  sub       %o3, 0x10, %o5
    0x10000c3a4:            9e 03 ff fe  add       %o7, -0x2, %o7
    0x10000c3a8:            c1 6c 40 17  prefetch  [%l1 + %l7], #n_reads
    0x10000c3ac:            a2 22 a0 08  sub       %o2, 0x8, %l1
    0x10000c3b0:            c1 6a ff 40  prefetch  [%o3 - 0xc0], #n_reads
    0x10000c3b4:            ed 6a bf 40  prefetch  [%o2 - 0xc0], #n_writes_strong
    0x10000c3b8:            c1 6a ff 00  prefetch  [%o3 - 0x100], #n_reads
    0x10000c3bc:            ed 6a bf 00  prefetch  [%o2 - 0x100], #n_writes_strong
    0x10000c3c0:            ed 6a bf c0  prefetch  [%o2 - 0x40], #n_writes_strong
    0x10000c3c4:            e3 1a ff f8  ldd       [%o3 - 0x8], %d48
    0x10000c3c8:            e7 1a e0 00  ldd       [%o3], %d50
    0x10000c3cc:            c1 6a ff 80  prefetch  [%o3 - 0x80], #n_reads
    0x10000c3d0:            8d a7 48 53  faddd     %d60, %d50, %d6
    0x10000c3d4:            b7 a1 88 59  faddd     %d6, %d56, %d58
    0x10000c3d8:            91 a6 c8 d9  fsubd     %d58, %d56, %d8
    0x10000c3dc:            95 a2 09 57  fmuld     %d8, %d54, %d10
    0x10000c3e0:            99 a1 88 c8  fsubd     %d6, %d8, %d12
    0x10000c3e4:            bb a2 88 51  faddd     %d10, %d48, %d60
    0x10000c3e8:            a1 a3 09 50  fmuld     %d12, %d16, %d16
    0x10000c3ec:            bf a7 48 59  faddd     %d60, %d56, %d62
    0x10000c3f0:            a7 a7 c8 d9  fsubd     %d62, %d56, %d50
    0x10000c3f4:            a3 a7 48 d3  fsubd     %d60, %d50, %d48
    0x10000c3f8:            bb a4 c9 57  fmuld     %d50, %d54, %d60
    0x10000c3fc:            e1 3a a0 00  std       %d16, [%o2]
    0x10000c400:            ed 6a bf 80  prefetch  [%o2 - 0x80], #n_writes_strong
    0x10000c404:            9e 03 ff fc  add       %o7, -0x4, %o7
    0x10000c408:            f7 1b 60 00  ldd       [%o5], %d58
    0x10000c40c:            9a 23 60 20  sub       %o5, 0x20, %o5
    0x10000c410:            c1 6b 7f 10  prefetch  [%o5 - 0xf0], #n_reads
    0x10000c414:            80 a3 e0 04  cmp       %o7, 0x4
    0x10000c418:            a2 24 60 20  sub       %l1, 0x20, %l1
    0x10000c41c:            91 a4 49 4e  fmuld     %d48, %d14, %d8
    0x10000c420:            95 a7 48 5b  faddd     %d60, %d58, %d10
    0x10000c424:            d1 3c 60 20  std       %d8, [%l1 + 0x20]
    0x10000c428:            a7 a3 89 55  fmuld     %d14, %d52, %d50
    0x10000c42c:            9d a2 88 59  faddd     %d10, %d56, %d14
    0x10000c430:            8d a3 88 d9  fsubd     %d14, %d56, %d6
    0x10000c434:            99 a1 89 57  fmuld     %d6, %d54, %d12
    0x10000c438:            a3 a2 88 c6  fsubd     %d10, %d6, %d48
    0x10000c43c:            e1 1b 60 18  ldd       [%o5 + 0x18], %d16
    0x10000c440:            ed 6c 7f 08  prefetch  [%l1 - 0xf8], #n_writes_strong
    0x10000c444:            bf a4 49 53  fmuld     %d48, %d50, %d62
    0x10000c448:            bb a3 08 50  faddd     %d12, %d16, %d60
    0x10000c44c:            ff 3c 60 18  std       %d62, [%l1 + 0x18]
    0x10000c450:            99 a4 c9 55  fmuld     %d50, %d52, %d12
    0x10000c454:            b7 a7 48 59  faddd     %d60, %d56, %d58
    0x10000c458:            91 a6 c8 d9  fsubd     %d58, %d56, %d8
    0x10000c45c:            8d a2 09 57  fmuld     %d8, %d54, %d6
    0x10000c460:            9d a7 48 c8  fsubd     %d60, %d8, %d14
    0x10000c464:            d5 1b 60 10  ldd       [%o5 + 0x10], %d10
    0x10000c468:            a3 a3 89 4c  fmuld     %d14, %d12, %d48
    0x10000c46c:            91 a1 88 4a  faddd     %d6, %d10, %d8
    0x10000c470:            e3 3c 60 10  std       %d48, [%l1 + 0x10]
    0x10000c474:            a7 a3 09 55  fmuld     %d12, %d52, %d50
    0x10000c478:            a1 a2 08 59  faddd     %d8, %d56, %d16
    0x10000c47c:            bf a4 08 d9  fsubd     %d16, %d56, %d62
    0x10000c480:            b7 a7 c9 57  fmuld     %d62, %d54, %d58
    0x10000c484:            9d a2 08 df  fsubd     %d8, %d62, %d14
    0x10000c488:            fb 1b 60 08  ldd       [%o5 + 0x8], %d60
    0x10000c48c:            8d a3 89 53  fmuld     %d14, %d50, %d6
    0x10000c490:            a3 a6 c8 5d  faddd     %d58, %d60, %d48
    0x10000c494:            cd 3c 60 08  std       %d6, [%l1 + 0x8]
    0x10000c498:            9d a4 c9 55  fmuld     %d50, %d52, %d14
    0x10000c49c:            95 a4 48 59  faddd     %d48, %d56, %d10
    0x10000c4a0:            99 a2 88 d9  fsubd     %d10, %d56, %d12
    0x10000c4a4:            bb a3 09 57  fmuld     %d12, %d54, %d60
    0x10000c4a8:            16 4f ff d7  bge,pt    %icc, -0xa4   <0x10000c404>
    0x10000c4ac:            a3 a4 48 cc  fsubd     %d48, %d12, %d48
    0x10000c4b0:            bf a4 49 4e  fmuld     %d48, %d14, %d62
    0x10000c4b4:            ff 3c 60 00  std       %d62, [%l1]
    0x10000c4b8:            94 24 60 08  sub       %l1, 0x8, %o2
    0x10000c4bc:            96 10 00 0d  mov       %o5, %o3
    0x10000c4c0:            a1 a3 89 55  fmuld     %d14, %d52, %d16
    0x10000c4c4:            80 a3 e0 01  cmp       %o7, 0x1
    0x10000c4c8:            06 40 00 11  bl,pn     %icc, +0x44   <0x10000c50c>
    0x10000c4cc:            01 00 00 00  nop
    0x10000c4d0:            cd 1a e0 00  ldd       [%o3], %d6
    0x10000c4d4:            91 a7 48 46  faddd     %d60, %d6, %d8
    0x10000c4d8:            9e 03 ff ff  add       %o7, -0x1, %o7
    0x10000c4dc:            96 22 e0 08  sub       %o3, 0x8, %o3
    0x10000c4e0:            80 a3 e0 01  cmp       %o7, 0x1
    0x10000c4e4:            95 a2 08 59  faddd     %d8, %d56, %d10
    0x10000c4e8:            99 a2 88 d9  fsubd     %d10, %d56, %d12
    0x10000c4ec:            bf a2 08 cc  fsubd     %d8, %d12, %d62
    0x10000c4f0:            bb a3 09 57  fmuld     %d12, %d54, %d60
    0x10000c4f4:            9d a7 c9 50  fmuld     %d62, %d16, %d14
    0x10000c4f8:            dd 3a a0 00  std       %d14, [%o2]
    0x10000c4fc:            a1 a4 09 55  fmuld     %d16, %d52, %d16
    0x10000c500:            94 22 a0 08  sub       %o2, 0x8, %o2
    0x10000c504:            36 4f ff f4  bge,a,pt  %icc, -0x30   <0x10000c4d4>
    0x10000c508:            cd 1a e0 00  ldd       [%o3], %d6
    0x10000c50c:            d9 1f a7 5f  ldd       [%fp + 0x75f], %d12
    0x10000c510:            80 a1 60 00  cmp       %g5, 0x0
    0x10000c514:            dd 1c e0 20  ldd       [%l3 + 0x20], %d14
    0x10000c518:            bb a7 48 4c  faddd     %d60, %d12, %d60
    0x10000c51c:            bf a7 48 4e  faddd     %d60, %d14, %d62
    0x10000c520:            a7 a7 c8 ce  fsubd     %d62, %d14, %d50
    0x10000c524:            a3 a7 48 d3  fsubd     %d60, %d50, %d48
    0x10000c528:            b7 a4 c9 50  fmuld     %d50, %d16, %d58
    0x10000c52c:            04 40 00 12  ble,pn    %icc, +0x48   <0x10000c574>
    0x10000c530:            b3 a4 49 50  fmuld     %d48, %d16, %d56
    0x10000c534:            cd 1f a6 bf  ldd       [%fp + 0x6bf], %d6
    0x10000c538:            e7 1f a6 c7  ldd       [%fp + 0x6c7], %d50
    0x10000c53c:            b7 a1 88 53  faddd     %d6, %d50, %d58
    0x10000c540:            a3 a6 c8 4f  faddd     %d58, %d46, %d48
    0x10000c544:            95 a4 48 cf  fsubd     %d48, %d46, %d10
    0x10000c548:            91 a6 48 4a  faddd     %d56, %d10, %d8
    0x10000c54c:            b3 a1 88 ca  fsubd     %d6, %d10, %d56
    0x10000c550:            f3 3f a6 bf  std       %d56, [%fp + 0x6bf]
    0x10000c554:            db 3f a6 af  std       %d44, [%fp + 0x6af]
    0x10000c558:            89 a0 1a 48  fdtoi     %d8, %f4
    0x10000c55c:            c9 23 a8 af  st        %f4, [%sp + 0x8af]
    0x10000c560:            b3 a0 00 4d  fmovd     %d44, %d56
    0x10000c564:            81 41 40 00  rd        %pc, %g0
    0x10000c568:            d4 03 a8 af  ld        [%sp + 0x8af], %o2
    0x10000c56c:            10 80 00 1f  ba        +0x7c         <0x10000c5e8>
    0x10000c570:            80 a6 a0 00  cmp       %i2, 0x0
    0x10000c574:            80 a1 7f e8  cmp       %g5, -0x18
    0x10000c578:            04 40 00 12  ble,pn    %icc, +0x48   <0x10000c5c0>
    0x10000c57c:            d9 1c e0 20  ldd       [%l3 + 0x20], %d12
    0x10000c580:            e3 1f a6 bf  ldd       [%fp + 0x6bf], %d48
    0x10000c584:            db 3f a6 af  std       %d44, [%fp + 0x6af]
    0x10000c588:            8d a6 48 51  faddd     %d56, %d48, %d6
    0x10000c58c:            95 a1 88 4f  faddd     %d6, %d46, %d10
    0x10000c590:            91 a2 88 cf  fsubd     %d10, %d46, %d8
    0x10000c594:            bb a6 c8 48  faddd     %d58, %d8, %d60
    0x10000c598:            b3 a6 48 c8  fsubd     %d56, %d8, %d56
    0x10000c59c:            a1 a7 48 4c  faddd     %d60, %d12, %d16
    0x10000c5a0:            bf a4 08 cc  fsubd     %d16, %d12, %d62
    0x10000c5a4:            9d a7 48 df  fsubd     %d60, %d62, %d14
    0x10000c5a8:            85 a0 1a 4e  fdtoi     %d14, %f2
    0x10000c5ac:            c5 23 a8 af  st        %f2, [%sp + 0x8af]
    0x10000c5b0:            81 41 40 00  rd        %pc, %g0
    0x10000c5b4:            d4 03 a8 af  ld        [%sp + 0x8af], %o2
    0x10000c5b8:            10 80 00 0c  ba        +0x30         <0x10000c5e8>
    0x10000c5bc:            80 a6 a0 00  cmp       %i2, 0x0
    0x10000c5c0:            bb a6 c8 59  faddd     %d58, %d56, %d60
    0x10000c5c4:            80 a6 a0 00  cmp       %i2, 0x0
    0x10000c5c8:            9d a7 48 4f  faddd     %d60, %d46, %d14
    0x10000c5cc:            a7 a3 88 cf  fsubd     %d14, %d46, %d50
    0x10000c5d0:            81 a0 1a 53  fdtoi     %d50, %f0
    0x10000c5d4:            c1 23 a8 af  st        %f0, [%sp + 0x8af]
    0x10000c5d8:            b7 a6 c8 d3  fsubd     %d58, %d50, %d58
    0x10000c5dc:            f7 3f a6 af  std       %d58, [%fp + 0x6af]
    0x10000c5e0:            81 41 40 00  rd        %pc, %g0
    0x10000c5e4:            d4 03 a8 af  ld        [%sp + 0x8af], %o2
    0x10000c5e8:            06 40 00 0e  bl,pn     %icc, +0x38   <0x10000c620>
    0x10000c5ec:            f3 3f a6 b7  std       %d56, [%fp + 0x6b7]
    0x10000c5f0:            aa 10 20 00  clr       %l5
    0x10000c5f4:            ba 07 a6 af  add       %fp, 0x6af, %i5
    0x10000c5f8:            ff 1f a6 af  ldd       [%fp + 0x6af], %d62
    0x10000c5fc:            81 af ca 4d  fcmpd     %fcc0, %d62, %d44
    0x10000c600:            03 40 00 09  fbne,pn   %fcc0, +0x24   <0x10000c624>
    0x10000c604:            ba 07 60 08  add       %i5, 0x8, %i5
    0x10000c608:            aa 05 60 01  add       %l5, 0x1, %l5
    0x10000c60c:            80 a5 40 1a  cmp       %l5, %i2
    0x10000c610:            24 4f ff fb  ble,a,pt  %icc, -0x14   <0x10000c5fc>
    0x10000c614:            ff 1f 60 00  ldd       [%i5], %d62
    0x10000c618:            10 80 00 04  ba        +0x10         <0x10000c628>
    0x10000c61c:            a0 26 80 15  sub       %i2, %l5, %l0
    0x10000c620:            aa 10 20 00  clr       %l5
    0x10000c624:            a0 26 80 15  sub       %i2, %l5, %l0
    0x10000c628:            80 a4 20 04  cmp       %l0, 0x4
    0x10000c62c:            16 40 00 6d  bge,pn    %icc, +0x1b4  <0x10000c7e0>
    0x10000c630:            ba 06 a0 01  add       %i2, 0x1, %i5
    0x10000c634:            94 05 60 04  add       %l5, 0x4, %o2
    0x10000c638:            80 a7 40 0a  cmp       %i5, %o2
    0x10000c63c:            14 40 00 60  bg,pn     %icc, +0x180  <0x10000c7bc>
    0x10000c640:            b4 26 80 0a  sub       %i2, %o2, %i2
    0x10000c644:            e1 1e 20 00  ldd       [%i0], %d16
    0x10000c648:            97 3f 60 00  sra       %i5, 0x0, %o3
    0x10000c64c:            9a 01 00 16  add       %g4, %l6, %o5
    0x10000c650:            a1 2a f0 03  sllx      %o3, 0x3, %l0
    0x10000c654:            97 2e a0 02  sll       %i2, 0x2, %o3
    0x10000c658:            96 22 c0 1a  sub       %o3, %i2, %o3
    0x10000c65c:            b4 03 60 08  add       %o5, 0x8, %i2
    0x10000c660:            97 2a e0 03  sll       %o3, 0x3, %o3
    0x10000c664:            9a 06 80 10  add       %i2, %l0, %o5
    0x10000c668:            d9 1b 60 08  ldd       [%o5 + 0x8], %d12
    0x10000c66c:            90 02 c0 08  add       %o3, %o0, %o0
    0x10000c670:            9e 04 00 17  add       %l0, %l7, %o7
    0x10000c674:            80 a6 e0 01  cmp       %i3, 0x1
    0x10000c678:            04 40 00 48  ble,pn    %icc, +0x120  <0x10000c798>
    0x10000c67c:            b3 a4 09 4c  fmuld     %d16, %d12, %d56
    0x10000c680:            a2 10 00 0d  mov       %o5, %l1
    0x10000c684:            98 10 00 09  mov       %o1, %o4
    0x10000c688:            a0 10 20 01  mov       0x1, %l0
    0x10000c68c:            80 a4 a0 07  cmp       %l2, 0x7
    0x10000c690:            06 40 00 38  bl,pn     %icc, +0xe0   <0x10000c770>
    0x10000c694:            01 00 00 00  nop
    0x10000c698:            c1 6e 20 08  prefetch  [%i0 + 0x8], #n_reads
    0x10000c69c:            c1 6b 60 00  prefetch  [%o5], #n_reads
    0x10000c6a0:            aa 23 60 10  sub       %o5, 0x10, %l5
    0x10000c6a4:            a8 06 20 20  add       %i0, 0x20, %l4
    0x10000c6a8:            c1 6b 7f c0  prefetch  [%o5 - 0x40], #n_reads
    0x10000c6ac:            a0 10 20 04  mov       0x4, %l0
    0x10000c6b0:            b4 06 ff fc  add       %i3, -0x4, %i2
    0x10000c6b4:            c1 6e 20 48  prefetch  [%i0 + 0x48], #n_reads
    0x10000c6b8:            c1 6e 20 88  prefetch  [%i0 + 0x88], #n_reads
    0x10000c6bc:            c1 6b 7f 80  prefetch  [%o5 - 0x80], #n_reads
    0x10000c6c0:            c1 6e 20 c8  prefetch  [%i0 + 0xc8], #n_reads
    0x10000c6c4:            c1 6b 7f 40  prefetch  [%o5 - 0xc0], #n_reads
    0x10000c6c8:            dd 1b 60 00  ldd       [%o5], %d14
    0x10000c6cc:            c1 6e 21 08  prefetch  [%i0 + 0x108], #n_reads
    0x10000c6d0:            c1 6b 7f 00  prefetch  [%o5 - 0x100], #n_reads
    0x10000c6d4:            f7 1e 20 08  ldd       [%i0 + 0x8], %d58
    0x10000c6d8:            d5 1e 20 10  ldd       [%i0 + 0x10], %d10
    0x10000c6dc:            cd 1b 7f f8  ldd       [%o5 - 0x8], %d6
    0x10000c6e0:            bb a6 c9 4e  fmuld     %d58, %d14, %d60
    0x10000c6e4:            d9 1e 20 18  ldd       [%i0 + 0x18], %d12
    0x10000c6e8:            95 a2 89 46  fmuld     %d10, %d6, %d10
    0x10000c6ec:            a7 a6 48 5d  faddd     %d56, %d60, %d50
    0x10000c6f0:            a0 04 20 04  add       %l0, 0x4, %l0
    0x10000c6f4:            e3 1d 60 00  ldd       [%l5], %d48
    0x10000c6f8:            aa 25 60 20  sub       %l5, 0x20, %l5
    0x10000c6fc:            c1 6d 21 10  prefetch  [%l4 + 0x110], #n_reads
    0x10000c700:            80 a4 00 1a  cmp       %l0, %i2
    0x10000c704:            a8 05 20 20  add       %l4, 0x20, %l4
    0x10000c708:            b3 a3 09 51  fmuld     %d12, %d48, %d56
    0x10000c70c:            91 a4 c8 4a  faddd     %d50, %d10, %d8
    0x10000c710:            d9 1d 3f e0  ldd       [%l4 - 0x20], %d12
    0x10000c714:            e7 1d 60 18  ldd       [%l5 + 0x18], %d50
    0x10000c718:            c1 6d 7f 08  prefetch  [%l5 - 0xf8], #n_reads
    0x10000c71c:            bb a3 09 53  fmuld     %d12, %d50, %d60
    0x10000c720:            b7 a2 08 59  faddd     %d8, %d56, %d58
    0x10000c724:            dd 1d 3f e8  ldd       [%l4 - 0x18], %d14
    0x10000c728:            ff 1d 60 10  ldd       [%l5 + 0x10], %d62
    0x10000c72c:            a3 a3 89 5f  fmuld     %d14, %d62, %d48
    0x10000c730:            a7 a6 c8 5d  faddd     %d58, %d60, %d50
    0x10000c734:            d5 1d 3f f0  ldd       [%l4 - 0x10], %d10
    0x10000c738:            cd 1d 60 08  ldd       [%l5 + 0x8], %d6
    0x10000c73c:            95 a2 89 46  fmuld     %d10, %d6, %d10
    0x10000c740:            a7 a4 c8 51  faddd     %d50, %d48, %d50
    0x10000c744:            04 4f ff eb  ble,pt    %icc, -0x54   <0x10000c6f0>
    0x10000c748:            d9 1d 3f f8  ldd       [%l4 - 0x8], %d12
    0x10000c74c:            f3 1d 60 00  ldd       [%l5], %d56
    0x10000c750:            91 a4 c8 4a  faddd     %d50, %d10, %d8
    0x10000c754:            98 10 00 14  mov       %l4, %o4
    0x10000c758:            a2 25 60 08  sub       %l5, 0x8, %l1
    0x10000c75c:            80 a4 00 12  cmp       %l0, %l2
    0x10000c760:            bf a3 09 59  fmuld     %d12, %d56, %d62
    0x10000c764:            b3 a2 08 5f  faddd     %d8, %d62, %d56
    0x10000c768:            14 40 00 0c  bg,pn     %icc, +0x30   <0x10000c798>
    0x10000c76c:            01 00 00 00  nop
    0x10000c770:            cd 1c 60 00  ldd       [%l1], %d6
    0x10000c774:            d5 1b 20 00  ldd       [%o4], %d10
    0x10000c778:            a0 04 20 01  add       %l0, 0x1, %l0
    0x10000c77c:            a2 24 60 08  sub       %l1, 0x8, %l1
    0x10000c780:            98 03 20 08  add       %o4, 0x8, %o4
    0x10000c784:            80 a4 00 12  cmp       %l0, %l2
    0x10000c788:            91 a2 89 46  fmuld     %d10, %d6, %d8
    0x10000c78c:            b3 a6 48 48  faddd     %d56, %d8, %d56
    0x10000c790:            24 4f ff f9  ble,a,pt  %icc, -0x1c   <0x10000c774>
    0x10000c794:            cd 1c 60 00  ldd       [%l1], %d6
    0x10000c798:            f3 3b e0 00  std       %d56, [%o7]
    0x10000c79c:            ba 07 60 01  add       %i5, 0x1, %i5
    0x10000c7a0:            9a 03 60 08  add       %o5, 0x8, %o5
    0x10000c7a4:            9e 03 e0 08  add       %o7, 0x8, %o7
    0x10000c7a8:            80 a7 40 0a  cmp       %i5, %o2
    0x10000c7ac:            24 4f ff b2  ble,a,pt  %icc, -0x138  <0x10000c674>
    0x10000c7b0:            d9 1b 60 08  ldd       [%o5 + 0x8], %d12
    0x10000c7b4:            ba 02 23 ff  add       %o0, 0x3ff, %i5
    0x10000c7b8:            a9 2f 60 14  sll       %i5, 0x14, %l4
    0x10000c7bc:            a1 3a a0 00  sra       %o2, 0x0, %l0
    0x10000c7c0:            b4 10 00 0a  mov       %o2, %i2
    0x10000c7c4:            9b 2c 30 03  sllx      %l0, 0x3, %o5
    0x10000c7c8:            9e 02 bf ff  add       %o2, -0x1, %o7
    0x10000c7cc:            fb 1b 40 17  ldd       [%o5 + %l7], %d60
    0x10000c7d0:            95 2d 30 20  sllx      %l4, 0x20, %o2
    0x10000c7d4:            d4 77 a7 57  stx       %o2, [%fp + 0x757]
    0x10000c7d8:            10 bf fe e3  ba        -0x474        <0x10000c364>
    0x10000c7dc:            bb a7 49 57  fmuld     %d60, %d54, %d60
    0x10000c7e0:            97 3d 60 00  sra       %l5, 0x0, %o3
    0x10000c7e4:            d1 1c e0 30  ldd       [%l3 + 0x30], %d8
    0x10000c7e8:            ac 04 3f fd  add       %l0, -0x3, %l6
    0x10000c7ec:            9b 2a f0 03  sllx      %o3, 0x3, %o5
    0x10000c7f0:            e3 1c e0 28  ldd       [%l3 + 0x28], %d48
    0x10000c7f4:            b6 07 a7 7f  add       %fp, 0x77f, %i3
    0x10000c7f8:            96 03 40 01  add       %o5, %g1, %o3
    0x10000c7fc:            df 1b 40 01  ldd       [%o5 + %g1], %d46
    0x10000c800:            b4 10 20 04  mov       0x4, %i2
    0x10000c804:            d5 1a e0 18  ldd       [%o3 + 0x18], %d10
    0x10000c808:            80 a5 a0 0c  cmp       %l6, 0xc
    0x10000c80c:            f7 1a e0 10  ldd       [%o3 + 0x10], %d58
    0x10000c810:            ef 1a e0 08  ldd       [%o3 + 0x8], %d54
    0x10000c814:            a1 a3 c9 48  fmuld     %d46, %d8, %d16
    0x10000c818:            b3 a2 89 51  fmuld     %d10, %d48, %d56
    0x10000c81c:            eb 1c e0 38  ldd       [%l3 + 0x38], %d52
    0x10000c820:            99 a6 c9 48  fmuld     %d58, %d8, %d12
    0x10000c824:            e7 1c e0 40  ldd       [%l3 + 0x40], %d50
    0x10000c828:            9d a6 c9 51  fmuld     %d58, %d48, %d14
    0x10000c82c:            cd 1c e0 28  ldd       [%l3 + 0x28], %d6
    0x10000c830:            bf a5 c9 48  fmuld     %d54, %d8, %d62
    0x10000c834:            d5 1c e0 30  ldd       [%l3 + 0x30], %d10
    0x10000c838:            9b a5 c9 55  fmuld     %d54, %d52, %d44
    0x10000c83c:            d1 1c e0 38  ldd       [%l3 + 0x38], %d8
    0x10000c840:            b3 a6 48 4c  faddd     %d56, %d12, %d56
    0x10000c844:            b7 a3 c9 53  fmuld     %d46, %d50, %d58
    0x10000c848:            fd 1c e0 48  ldd       [%l3 + 0x48], %d30
    0x10000c84c:            af a5 c9 51  fmuld     %d54, %d48, %d54
    0x10000c850:            bb a3 88 5f  faddd     %d14, %d62, %d60
    0x10000c854:            ab a3 c9 55  fmuld     %d46, %d52, %d52
    0x10000c858:            99 a3 c9 51  fmuld     %d46, %d48, %d12
    0x10000c85c:            d9 3f a7 5f  std       %d12, [%fp + 0x75f]
    0x10000c860:            a7 a6 48 4d  faddd     %d56, %d44, %d50
    0x10000c864:            bf a5 c8 50  faddd     %d54, %d16, %d62
    0x10000c868:            ff 3f a7 67  std       %d62, [%fp + 0x767]
    0x10000c86c:            9d a7 48 55  faddd     %d60, %d52, %d14
    0x10000c870:            dd 3f a7 6f  std       %d14, [%fp + 0x76f]
    0x10000c874:            a3 a4 c8 5b  faddd     %d50, %d58, %d48
    0x10000c878:            e3 3f a7 77  std       %d48, [%fp + 0x777]
    0x10000c87c:            06 40 00 b1  bl,pn     %icc, +0x2c4  <0x10000cb40>
    0x10000c880:            01 00 00 00  nop
    0x10000c884:            c1 6a e0 20  prefetch  [%o3 + 0x20], #n_reads
    0x10000c888:            aa 02 e0 20  add       %o3, 0x20, %l5
    0x10000c88c:            b4 10 20 08  mov       0x8, %i2
    0x10000c890:            c1 6a e0 60  prefetch  [%o3 + 0x60], #n_reads
    0x10000c894:            ac 24 20 07  sub       %l0, 0x7, %l6
    0x10000c898:            ed 6e e0 00  prefetch  [%i3], #n_writes_strong
    0x10000c89c:            ed 6e e0 40  prefetch  [%i3 + 0x40], #n_writes_strong
    0x10000c8a0:            c1 6a e0 a0  prefetch  [%o3 + 0xa0], #n_reads
    0x10000c8a4:            ed 6e e0 80  prefetch  [%i3 + 0x80], #n_writes_strong
    0x10000c8a8:            c1 6a e0 e0  prefetch  [%o3 + 0xe0], #n_reads
    0x10000c8ac:            ed 6e e0 c0  prefetch  [%i3 + 0xc0], #n_writes_strong
    0x10000c8b0:            f9 1c e0 40  ldd       [%l3 + 0x40], %d28
    0x10000c8b4:            f3 1a e0 08  ldd       [%o3 + 0x8], %d56
    0x10000c8b8:            eb 1a e0 18  ldd       [%o3 + 0x18], %d52
    0x10000c8bc:            dd 1a e0 20  ldd       [%o3 + 0x20], %d14
    0x10000c8c0:            f7 1a e0 10  ldd       [%o3 + 0x10], %d58
    0x10000c8c4:            ad a6 49 5c  fmuld     %d56, %d28, %d22
    0x10000c8c8:            a1 a0 00 59  fmovd     %d56, %d16
    0x10000c8cc:            a3 a2 89 55  fmuld     %d10, %d52, %d48
    0x10000c8d0:            c1 6a e1 20  prefetch  [%o3 + 0x120], #n_reads
    0x10000c8d4:            af a1 89 4e  fmuld     %d6, %d14, %d54
    0x10000c8d8:            b5 a2 09 5b  fmuld     %d8, %d58, %d26
    0x10000c8dc:            9f a6 c9 5c  fmuld     %d58, %d28, %d46
    0x10000c8e0:            f7 1b 40 01  ldd       [%o5 + %g1], %d58
    0x10000c8e4:            d9 1a e0 28  ldd       [%o3 + 0x28], %d12
    0x10000c8e8:            a7 a2 89 4e  fmuld     %d10, %d14, %d50
    0x10000c8ec:            b3 a5 c8 51  faddd     %d54, %d48, %d56
    0x10000c8f0:            b1 a2 09 55  fmuld     %d8, %d52, %d24
    0x10000c8f4:            fb 1a e0 30  ldd       [%o3 + 0x30], %d60
    0x10000c8f8:            a5 a7 89 5b  fmuld     %d30, %d58, %d18
    0x10000c8fc:            ff 1a e0 38  ldd       [%o3 + 0x38], %d62
    0x10000c900:            9b a1 89 4c  fmuld     %d6, %d12, %d44
    0x10000c904:            ed 6e e1 00  prefetch  [%i3 + 0x100], #n_writes_strong
    0x10000c908:            a9 a1 89 5d  fmuld     %d6, %d60, %d20
    0x10000c90c:            af a6 48 5a  faddd     %d56, %d26, %d54
    0x10000c910:            a3 a5 49 5c  fmuld     %d52, %d28, %d48
    0x10000c914:            b3 a2 89 5d  fmuld     %d10, %d60, %d56
    0x10000c918:            b7 a3 48 53  faddd     %d44, %d50, %d58
    0x10000c91c:            9b a7 89 50  fmuld     %d30, %d16, %d44
    0x10000c920:            a1 a2 89 4c  fmuld     %d10, %d12, %d16
    0x10000c924:            b5 a5 c8 56  faddd     %d54, %d22, %d26
    0x10000c928:            ab a2 09 4e  fmuld     %d8, %d14, %d52
    0x10000c92c:            a7 a6 c8 58  faddd     %d58, %d24, %d50
    0x10000c930:            b7 a1 89 5f  fmuld     %d6, %d62, %d58
    0x10000c934:            af a5 08 50  faddd     %d20, %d16, %d54
    0x10000c938:            a1 a6 88 52  faddd     %d26, %d18, %d16
    0x10000c93c:            b5 a2 89 5f  fmuld     %d10, %d62, %d26
    0x10000c940:            a7 a4 c8 4f  faddd     %d50, %d46, %d50
    0x10000c944:            b4 06 a0 08  add       %i2, 0x8, %i2
    0x10000c948:            f1 1d 60 20  ldd       [%l5 + 0x20], %d24
    0x10000c94c:            9f a2 09 4c  fmuld     %d8, %d12, %d46
    0x10000c950:            ab a5 c8 55  faddd     %d54, %d52, %d52
    0x10000c954:            80 a6 80 16  cmp       %i2, %l6
    0x10000c958:            ef 1d 7f f0  ldd       [%l5 - 0x10], %d54
    0x10000c95c:            e1 3e e0 00  std       %d16, [%i3]
    0x10000c960:            9d a3 89 5c  fmuld     %d14, %d28, %d14
    0x10000c964:            b7 a6 c8 59  faddd     %d58, %d56, %d58
    0x10000c968:            b6 06 e0 40  add       %i3, 0x40, %i3
    0x10000c96c:            c1 6d 61 30  prefetch  [%l5 + 0x130], #n_reads
    0x10000c970:            a1 a1 89 58  fmuld     %d6, %d24, %d16
    0x10000c974:            aa 05 60 40  add       %l5, 0x40, %l5
    0x10000c978:            af a7 89 57  fmuld     %d30, %d54, %d54
    0x10000c97c:            b3 a4 c8 4d  faddd     %d50, %d44, %d56
    0x10000c980:            9b a2 89 58  fmuld     %d10, %d24, %d44
    0x10000c984:            ab a5 48 51  faddd     %d52, %d48, %d52
    0x10000c988:            ed 1d 7f e8  ldd       [%l5 - 0x18], %d22
    0x10000c98c:            a3 a2 09 5d  fmuld     %d8, %d60, %d48
    0x10000c990:            a7 a6 c8 4f  faddd     %d58, %d46, %d50
    0x10000c994:            f7 1d 7f b8  ldd       [%l5 - 0x48], %d58
    0x10000c998:            f3 3e ff c8  std       %d56, [%i3 - 0x38]
    0x10000c99c:            99 a3 09 5c  fmuld     %d12, %d28, %d12
    0x10000c9a0:            b3 a4 08 5a  faddd     %d16, %d26, %d56
    0x10000c9a4:            ed 6e e0 d8  prefetch  [%i3 + 0xd8], #n_writes_strong
    0x10000c9a8:            9f a1 89 56  fmuld     %d6, %d22, %d46
    0x10000c9ac:            a1 a7 89 5b  fmuld     %d30, %d58, %d16
    0x10000c9b0:            b7 a5 48 57  faddd     %d52, %d54, %d58
    0x10000c9b4:            b5 a2 89 56  fmuld     %d10, %d22, %d26
    0x10000c9b8:            af a4 c8 4e  faddd     %d50, %d14, %d54
    0x10000c9bc:            e9 1d 7f f0  ldd       [%l5 - 0x10], %d20
    0x10000c9c0:            a7 a2 09 5f  fmuld     %d8, %d62, %d50
    0x10000c9c4:            ab a6 48 51  faddd     %d56, %d48, %d52
    0x10000c9c8:            f3 1d 7f c0  ldd       [%l5 - 0x40], %d56
    0x10000c9cc:            f7 3e ff d0  std       %d58, [%i3 - 0x30]
    0x10000c9d0:            9d a7 49 5c  fmuld     %d60, %d28, %d14
    0x10000c9d4:            bb a3 c8 4d  faddd     %d46, %d44, %d60
    0x10000c9d8:            a3 a1 89 54  fmuld     %d6, %d20, %d48
    0x10000c9dc:            b3 a7 89 59  fmuld     %d30, %d56, %d56
    0x10000c9e0:            b7 a5 c8 50  faddd     %d54, %d16, %d58
    0x10000c9e4:            9b a2 89 54  fmuld     %d10, %d20, %d44
    0x10000c9e8:            af a5 48 4c  faddd     %d52, %d12, %d54
    0x10000c9ec:            e1 1d 7f f8  ldd       [%l5 - 0x8], %d16
    0x10000c9f0:            9f a2 09 58  fmuld     %d8, %d24, %d46
    0x10000c9f4:            ab a7 48 53  faddd     %d60, %d50, %d52
    0x10000c9f8:            e7 1d 7f c8  ldd       [%l5 - 0x38], %d50
    0x10000c9fc:            f7 3e ff d8  std       %d58, [%i3 - 0x28]
    0x10000ca00:            99 a7 c9 5c  fmuld     %d62, %d28, %d12
    0x10000ca04:            bf a4 48 5a  faddd     %d48, %d26, %d62
    0x10000ca08:            b7 a1 89 50  fmuld     %d6, %d16, %d58
    0x10000ca0c:            a7 a7 89 53  fmuld     %d30, %d50, %d50
    0x10000ca10:            bb a5 c8 59  faddd     %d54, %d56, %d60
    0x10000ca14:            a3 a2 89 50  fmuld     %d10, %d16, %d48
    0x10000ca18:            b3 a5 48 4e  faddd     %d52, %d14, %d56
    0x10000ca1c:            dd 1d 60 00  ldd       [%l5], %d14
    0x10000ca20:            ab a2 09 56  fmuld     %d8, %d22, %d52
    0x10000ca24:            af a7 c8 4f  faddd     %d62, %d46, %d54
    0x10000ca28:            df 1d 7f d0  ldd       [%l5 - 0x30], %d46
    0x10000ca2c:            fb 3e ff e0  std       %d60, [%i3 - 0x20]
    0x10000ca30:            b5 a6 09 5c  fmuld     %d24, %d28, %d26
    0x10000ca34:            bb a6 c8 4d  faddd     %d58, %d44, %d60
    0x10000ca38:            c1 6d 61 10  prefetch  [%l5 + 0x110], #n_reads
    0x10000ca3c:            b7 a1 89 4e  fmuld     %d6, %d14, %d58
    0x10000ca40:            9f a7 89 4f  fmuld     %d30, %d46, %d46
    0x10000ca44:            bf a6 48 53  faddd     %d56, %d50, %d62
    0x10000ca48:            9b a2 89 4e  fmuld     %d10, %d14, %d44
    0x10000ca4c:            b3 a5 c8 4c  faddd     %d54, %d12, %d56
    0x10000ca50:            d9 1d 60 08  ldd       [%l5 + 0x8], %d12
    0x10000ca54:            a7 a2 09 54  fmuld     %d8, %d20, %d50
    0x10000ca58:            af a7 48 55  faddd     %d60, %d52, %d54
    0x10000ca5c:            fb 1d 7f d8  ldd       [%l5 - 0x28], %d60
    0x10000ca60:            ff 3e ff e8  std       %d62, [%i3 - 0x18]
    0x10000ca64:            b1 a5 89 5c  fmuld     %d22, %d28, %d24
    0x10000ca68:            bf a6 c8 51  faddd     %d58, %d48, %d62
    0x10000ca6c:            ed 6e e0 f8  prefetch  [%i3 + 0xf8], #n_writes_strong
    0x10000ca70:            ab a1 89 4c  fmuld     %d6, %d12, %d52
    0x10000ca74:            a3 a7 89 5d  fmuld     %d30, %d60, %d48
    0x10000ca78:            b7 a6 48 4f  faddd     %d56, %d46, %d58
    0x10000ca7c:            ad a2 89 4c  fmuld     %d10, %d12, %d22
    0x10000ca80:            b3 a5 c8 5a  faddd     %d54, %d26, %d56
    0x10000ca84:            fb 1d 60 10  ldd       [%l5 + 0x10], %d60
    0x10000ca88:            b5 a2 09 50  fmuld     %d8, %d16, %d26
    0x10000ca8c:            af a7 c8 53  faddd     %d62, %d50, %d54
    0x10000ca90:            e7 1d 7f e0  ldd       [%l5 - 0x20], %d50
    0x10000ca94:            f7 3e ff f0  std       %d58, [%i3 - 0x10]
    0x10000ca98:            9f a5 09 5c  fmuld     %d20, %d28, %d46
    0x10000ca9c:            b7 a5 48 4d  faddd     %d52, %d44, %d58
    0x10000caa0:            9b a1 89 5d  fmuld     %d6, %d60, %d44
    0x10000caa4:            a9 a7 89 53  fmuld     %d30, %d50, %d20
    0x10000caa8:            a3 a6 48 51  faddd     %d56, %d48, %d48
    0x10000caac:            b3 a2 89 5d  fmuld     %d10, %d60, %d56
    0x10000cab0:            b1 a5 c8 58  faddd     %d54, %d24, %d24
    0x10000cab4:            ff 1d 60 18  ldd       [%l5 + 0x18], %d62
    0x10000cab8:            ab a2 09 4e  fmuld     %d8, %d14, %d52
    0x10000cabc:            a7 a6 c8 5a  faddd     %d58, %d26, %d50
    0x10000cac0:            f5 1d 7f e8  ldd       [%l5 - 0x18], %d26
    0x10000cac4:            e3 3e ff f8  std       %d48, [%i3 - 0x8]
    0x10000cac8:            a3 a4 09 5c  fmuld     %d16, %d28, %d48
    0x10000cacc:            af a3 48 56  faddd     %d44, %d22, %d54
    0x10000cad0:            b7 a1 89 5f  fmuld     %d6, %d62, %d58
    0x10000cad4:            9b a7 89 5a  fmuld     %d30, %d26, %d44
    0x10000cad8:            04 4f ff 99  ble,pt    %icc, -0x19c  <0x10000c93c>
    0x10000cadc:            a1 a6 08 54  faddd     %d24, %d20, %d16
    0x10000cae0:            bb a2 09 4c  fmuld     %d8, %d12, %d60
    0x10000cae4:            b7 a6 c8 59  faddd     %d58, %d56, %d58
    0x10000cae8:            ff 1d 7f f0  ldd       [%l5 - 0x10], %d62
    0x10000caec:            96 10 00 15  mov       %l5, %o3
    0x10000caf0:            e1 3e e0 00  std       %d16, [%i3]
    0x10000caf4:            af a5 c8 55  faddd     %d54, %d52, %d54
    0x10000caf8:            9d a3 89 5c  fmuld     %d14, %d28, %d14
    0x10000cafc:            80 a6 80 10  cmp       %i2, %l0
    0x10000cb00:            f3 1d 7f f8  ldd       [%l5 - 0x8], %d56
    0x10000cb04:            9f a4 c8 4f  faddd     %d50, %d46, %d46
    0x10000cb08:            b6 06 e0 20  add       %i3, 0x20, %i3
    0x10000cb0c:            ab a7 89 5f  fmuld     %d30, %d62, %d52
    0x10000cb10:            a1 a6 c8 5d  faddd     %d58, %d60, %d16
    0x10000cb14:            a7 a7 89 59  fmuld     %d30, %d56, %d50
    0x10000cb18:            a3 a5 c8 51  faddd     %d54, %d48, %d48
    0x10000cb1c:            9b a3 c8 4d  faddd     %d46, %d44, %d44
    0x10000cb20:            db 3e ff e8  std       %d44, [%i3 - 0x18]
    0x10000cb24:            bf a4 08 4e  faddd     %d16, %d14, %d62
    0x10000cb28:            99 a4 48 55  faddd     %d48, %d52, %d12
    0x10000cb2c:            d9 3e ff f0  std       %d12, [%i3 - 0x10]
    0x10000cb30:            bb a7 c8 53  faddd     %d62, %d50, %d60
    0x10000cb34:            fb 3e ff f8  std       %d60, [%i3 - 0x8]
    0x10000cb38:            14 40 00 18  bg,pn     %icc, +0x60   <0x10000cb98>
    0x10000cb3c:            01 00 00 00  nop
    0x10000cb40:            e7 1a e0 18  ldd       [%o3 + 0x18], %d50
    0x10000cb44:            e3 1a e0 20  ldd       [%o3 + 0x20], %d48
    0x10000cb48:            9f a2 89 53  fmuld     %d10, %d50, %d46
    0x10000cb4c:            b4 06 a0 01  add       %i2, 0x1, %i2
    0x10000cb50:            f7 1a e0 10  ldd       [%o3 + 0x10], %d58
    0x10000cb54:            80 a6 80 10  cmp       %i2, %l0
    0x10000cb58:            eb 1a e0 08  ldd       [%o3 + 0x8], %d52
    0x10000cb5c:            9b a1 89 51  fmuld     %d6, %d48, %d44
    0x10000cb60:            f9 1c e0 40  ldd       [%l3 + 0x40], %d28
    0x10000cb64:            af a2 09 5b  fmuld     %d8, %d58, %d54
    0x10000cb68:            e1 1a e0 00  ldd       [%o3], %d16
    0x10000cb6c:            96 02 e0 08  add       %o3, 0x8, %o3
    0x10000cb70:            b3 a5 49 5c  fmuld     %d52, %d28, %d56
    0x10000cb74:            99 a3 48 4f  faddd     %d44, %d46, %d12
    0x10000cb78:            9d a7 89 50  fmuld     %d30, %d16, %d14
    0x10000cb7c:            bf a3 08 57  faddd     %d12, %d54, %d62
    0x10000cb80:            bb a7 c8 59  faddd     %d62, %d56, %d60
    0x10000cb84:            a7 a7 48 4e  faddd     %d60, %d14, %d50
    0x10000cb88:            e7 3e e0 00  std       %d50, [%i3]
    0x10000cb8c:            b6 06 e0 08  add       %i3, 0x8, %i3
    0x10000cb90:            24 4f ff ed  ble,a,pt  %icc, -0x4c   <0x10000cb44>
    0x10000cb94:            e7 1a e0 18  ldd       [%o3 + 0x18], %d50
    0x10000cb98:            9f 3c 20 00  sra       %l0, 0x0, %o7
    0x10000cb9c:            a8 84 3f ff  addcc     %l0, -0x1, %l4
    0x10000cba0:            a5 2b f0 03  sllx      %o7, 0x3, %l2
    0x10000cba4:            f7 1c 80 17  ldd       [%l2 + %l7], %d58
    0x10000cba8:            06 40 00 35  bl,pn     %icc, +0xd4   <0x10000cc7c>
    0x10000cbac:            a7 3d 20 00  sra       %l4, 0x0, %l3
    0x10000cbb0:            80 a4 20 05  cmp       %l0, 0x5
    0x10000cbb4:            b1 2c f0 03  sllx      %l3, 0x3, %i0
    0x10000cbb8:            b4 06 00 17  add       %i0, %l7, %i2
    0x10000cbbc:            06 40 00 20  bl,pn     %icc, +0x80   <0x10000cc3c>
    0x10000cbc0:            01 00 00 00  nop
    0x10000cbc4:            c1 6e 00 17  prefetch  [%i0 + %l7], #n_reads
    0x10000cbc8:            c1 6e bf 80  prefetch  [%i2 - 0x80], #n_reads
    0x10000cbcc:            a6 26 a0 08  sub       %i2, 0x8, %l3
    0x10000cbd0:            a8 04 3f fe  add       %l0, -0x2, %l4
    0x10000cbd4:            c1 6e bf c0  prefetch  [%i2 - 0x40], #n_reads
    0x10000cbd8:            c1 6e bf 00  prefetch  [%i2 - 0x100], #n_reads
    0x10000cbdc:            c1 6e bf 40  prefetch  [%i2 - 0xc0], #n_reads
    0x10000cbe0:            c1 6e be 80  prefetch  [%i2 - 0x180], #n_reads
    0x10000cbe4:            c1 6e be c0  prefetch  [%i2 - 0x140], #n_reads
    0x10000cbe8:            c1 6e be 00  prefetch  [%i2 - 0x200], #n_reads
    0x10000cbec:            eb 1e 00 17  ldd       [%i0 + %l7], %d52
    0x10000cbf0:            c1 6e be 40  prefetch  [%i2 - 0x1c0], #n_reads
    0x10000cbf4:            b7 a6 c8 55  faddd     %d58, %d52, %d58
    0x10000cbf8:            a8 05 3f fc  add       %l4, -0x4, %l4
    0x10000cbfc:            ef 1c e0 00  ldd       [%l3], %d54
    0x10000cc00:            a6 24 e0 20  sub       %l3, 0x20, %l3
    0x10000cc04:            c1 6c fe 10  prefetch  [%l3 - 0x1f0], #n_reads
    0x10000cc08:            80 a5 20 03  cmp       %l4, 0x3
    0x10000cc0c:            9f a6 c8 57  faddd     %d58, %d54, %d46
    0x10000cc10:            db 1c e0 18  ldd       [%l3 + 0x18], %d44
    0x10000cc14:            a1 a3 c8 4d  faddd     %d46, %d44, %d16
    0x10000cc18:            d9 1c e0 10  ldd       [%l3 + 0x10], %d12
    0x10000cc1c:            91 a4 08 4c  faddd     %d16, %d12, %d8
    0x10000cc20:            f3 1c e0 08  ldd       [%l3 + 0x8], %d56
    0x10000cc24:            16 4f ff f5  bge,pt    %icc, -0x2c   <0x10000cbf8>
    0x10000cc28:            b7 a2 08 59  faddd     %d8, %d56, %d58
    0x10000cc2c:            b4 10 00 13  mov       %l3, %i2
    0x10000cc30:            80 a5 20 00  cmp       %l4, 0x0
    0x10000cc34:            06 40 00 08  bl,pn     %icc, +0x20   <0x10000cc54>
    0x10000cc38:            01 00 00 00  nop
    0x10000cc3c:            cd 1e a0 00  ldd       [%i2], %d6
    0x10000cc40:            b7 a6 c8 46  faddd     %d58, %d6, %d58
    0x10000cc44:            b4 26 a0 08  sub       %i2, 0x8, %i2
    0x10000cc48:            a8 85 3f ff  addcc     %l4, -0x1, %l4
    0x10000cc4c:            36 4f ff fd  bge,a,pt  %icc, -0xc    <0x10000cc40>
    0x10000cc50:            cd 1e a0 00  ldd       [%i2], %d6
    0x10000cc54:            80 a7 20 00  cmp       %i4, 0x0
    0x10000cc58:            02 40 00 3a  be,pn     %icc, +0xe8   <0x10000cd40>
    0x10000cc5c:            f7 3e 60 00  std       %d58, [%i1]
    0x10000cc60:            fb 1f a7 5f  ldd       [%fp + 0x75f], %d60
    0x10000cc64:            80 a4 20 01  cmp       %l0, 0x1
    0x10000cc68:            06 40 00 35  bl,pn     %icc, +0xd4   <0x10000cd3c>
    0x10000cc6c:            bf a7 48 db  fsubd     %d60, %d58, %d62
    0x10000cc70:            b4 10 20 01  mov       0x1, %i2
    0x10000cc74:            10 80 00 09  ba        +0x24         <0x10000cc98>
    0x10000cc78:            80 a4 20 05  cmp       %l0, 0x5
    0x10000cc7c:            80 a7 20 00  cmp       %i4, 0x0
    0x10000cc80:            02 40 00 30  be,pn     %icc, +0xc0   <0x10000cd40>
    0x10000cc84:            f7 3e 60 00  std       %d58, [%i1]
    0x10000cc88:            b4 10 20 01  mov       0x1, %i2
    0x10000cc8c:            ff 1f a7 5f  ldd       [%fp + 0x75f], %d62
    0x10000cc90:            80 a4 20 05  cmp       %l0, 0x5
    0x10000cc94:            bf a7 c8 db  fsubd     %d62, %d58, %d62
    0x10000cc98:            9a 07 a7 67  add       %fp, 0x767, %o5
    0x10000cc9c:            06 40 00 21  bl,pn     %icc, +0x84   <0x10000cd20>
    0x10000cca0:            01 00 00 00  nop
    0x10000cca4:            c1 6f a8 a7  prefetch  [%fp + 0x8a7], #n_reads
    0x10000cca8:            c1 6b 60 00  prefetch  [%o5], #n_reads
    0x10000ccac:            ae 07 a7 6f  add       %fp, 0x76f, %l7
    0x10000ccb0:            b4 10 20 02  mov       0x2, %i2
    0x10000ccb4:            c1 6b 60 40  prefetch  [%o5 + 0x40], #n_reads
    0x10000ccb8:            b0 24 20 03  sub       %l0, 0x3, %i0
    0x10000ccbc:            c1 6b 60 80  prefetch  [%o5 + 0x80], #n_reads
    0x10000ccc0:            c1 6b 60 c0  prefetch  [%o5 + 0xc0], #n_reads
    0x10000ccc4:            c1 6b 61 00  prefetch  [%o5 + 0x100], #n_reads
    0x10000ccc8:            c1 6f a8 e7  prefetch  [%fp + 0x8e7], #n_reads
    0x10000cccc:            c1 6f a9 27  prefetch  [%fp + 0x927], #n_reads
    0x10000ccd0:            d1 1f a7 67  ldd       [%fp + 0x767], %d8
    0x10000ccd4:            bf a7 c8 48  faddd     %d62, %d8, %d62
    0x10000ccd8:            c1 6f a9 67  prefetch  [%fp + 0x967], #n_reads
    0x10000ccdc:            b4 06 a0 04  add       %i2, 0x4, %i2
    0x10000cce0:            cd 1d e0 00  ldd       [%l7], %d6
    0x10000cce4:            ae 05 e0 20  add       %l7, 0x20, %l7
    0x10000cce8:            c1 6d e1 f0  prefetch  [%l7 + 0x1f0], #n_reads
    0x10000ccec:            80 a6 80 18  cmp       %i2, %i0
    0x10000ccf0:            95 a7 c8 46  faddd     %d62, %d6, %d10
    0x10000ccf4:            dd 1d ff e8  ldd       [%l7 - 0x18], %d14
    0x10000ccf8:            a1 a2 88 4e  faddd     %d10, %d14, %d16
    0x10000ccfc:            d9 1d ff f0  ldd       [%l7 - 0x10], %d12
    0x10000cd00:            9f a4 08 4c  faddd     %d16, %d12, %d46
    0x10000cd04:            fb 1d ff f8  ldd       [%l7 - 0x8], %d60
    0x10000cd08:            04 4f ff f5  ble,pt    %icc, -0x2c   <0x10000ccdc>
    0x10000cd0c:            bf a3 c8 5d  faddd     %d46, %d60, %d62
    0x10000cd10:            9a 10 00 17  mov       %l7, %o5
    0x10000cd14:            80 a6 80 10  cmp       %i2, %l0
    0x10000cd18:            14 40 00 09  bg,pn     %icc, +0x24   <0x10000cd3c>
    0x10000cd1c:            01 00 00 00  nop
    0x10000cd20:            dd 1b 60 00  ldd       [%o5], %d14
    0x10000cd24:            b4 06 a0 01  add       %i2, 0x1, %i2
    0x10000cd28:            bf a7 c8 4e  faddd     %d62, %d14, %d62
    0x10000cd2c:            9a 03 60 08  add       %o5, 0x8, %o5
    0x10000cd30:            80 a6 80 10  cmp       %i2, %l0
    0x10000cd34:            24 4f ff fc  ble,a,pt  %icc, -0x10   <0x10000cd24>
    0x10000cd38:            dd 1b 60 00  ldd       [%o5], %d14
    0x10000cd3c:            ff 3e 60 08  std       %d62, [%i1 + 0x8]
    0x10000cd40:            b2 0a a0 07  and       %o2, 0x7, %i1
    0x10000cd44:            b1 3e 60 00  sra       %i1, 0x0, %i0
    0x10000cd48:            81 c7 e0 08  ret
    0x10000cd4c:            81 e8 20 00  restore   %g0, 0x0, %g0

section .init
_init()
    0x10000cd50:            9d e3 bf 50  save      %sp, -0xb0, %sp
    0x10000cd54:            01 00 00 00  nop
    0x10000cd58:            81 c7 e0 08  ret
    0x10000cd5c:            81 e8 00 00  restore

section .fini
_fini()
    0x10000cd60:            9d e3 bf 50  save      %sp, -0xb0, %sp
    0x10000cd64:            01 00 00 00  nop
    0x10000cd68:            81 c7 e0 08  ret
    0x10000cd6c:            81 e8 00 00  restore
